---
archs:           [ armv7, armv7s, arm64 ]
platform:        ios
install-name:    /System/Library/PrivateFrameworks/ContentIndex.framework/ContentIndex
exports:         
  - archs:           [ armv7, armv7s, arm64 ]
    symbols:         [ _CITokenizerCopyQueryTokens, '+[CXIndex initialize]', 
                       '+[CXQuery initialize]', '-[CXIndex addContent:metadata:doc:transaction:]', 
                       '-[CXIndex addContent:metadata:docName:transaction:]', 
                       '-[CXIndex addContent:transaction:]', '-[CXIndex cancelPtr]', 
                       '-[CXIndex cancel]', '-[CXIndex close:]', '-[CXIndex commit]', 
                       '-[CXIndex compact:]', '-[CXIndex create:]', '-[CXIndex dealloc]', 
                       '-[CXIndex deleteDocument:]', '-[CXIndex deleteDocumentByName:]', 
                       '-[CXIndex flush:]', '-[CXIndex initWithPath:]', 
                       '-[CXIndex open:recoveredTransactionId:]', '-[CXIndex path]', 
                       '-[CXIndex setCancel:]', '-[CXIndex siIndexPtr]', 
                       '-[CXIndex skRef]', '-[CXQuery batchOffset]', '-[CXQuery batchValues]', 
                       '-[CXQuery batch]', '-[CXQuery cancel]', '-[CXQuery canceled]', 
                       '-[CXQuery complete]', '-[CXQuery dealloc]', '-[CXQuery findDocuments:docNames:valueLists:maxCount:timeOut:foundCount:]', 
                       '-[CXQuery getResults:docNames:valueLists:maxCount:]', 
                       '-[CXQuery index]', '-[CXQuery initWithSting:forIndex:withOptions:]', 
                       '-[CXQuery job]', '-[CXQuery processResults:]', 
                       '-[CXQuery resultQueue]', '-[CXQuery semaphore]', 
                       '-[CXQuery siQuery]', '-[CXQuery start]', '-[CXQuery started]', 
                       '-[CXQuery waiting]', GCC_except_table0, GCC_except_table0, 
                       GCC_except_table0, GCC_except_table0, GCC_except_table0, 
                       GCC_except_table0, GCC_except_table1, GCC_except_table1, 
                       GCC_except_table10, GCC_except_table10, GCC_except_table101, 
                       GCC_except_table105, GCC_except_table107, GCC_except_table11, 
                       GCC_except_table11, GCC_except_table11, GCC_except_table11, 
                       GCC_except_table11, GCC_except_table11, GCC_except_table11, 
                       GCC_except_table11, GCC_except_table110, GCC_except_table117, 
                       GCC_except_table119, GCC_except_table12, GCC_except_table12, 
                       GCC_except_table12, GCC_except_table125, GCC_except_table13, 
                       GCC_except_table13, GCC_except_table13, GCC_except_table13, 
                       GCC_except_table13, GCC_except_table130, GCC_except_table132, 
                       GCC_except_table134, GCC_except_table135, GCC_except_table136, 
                       GCC_except_table139, GCC_except_table14, GCC_except_table14, 
                       GCC_except_table14, GCC_except_table14, GCC_except_table14, 
                       GCC_except_table142, GCC_except_table15, GCC_except_table15, 
                       GCC_except_table150, GCC_except_table152, GCC_except_table154, 
                       GCC_except_table155, GCC_except_table156, GCC_except_table16, 
                       GCC_except_table16, GCC_except_table16, GCC_except_table160, 
                       GCC_except_table161, GCC_except_table163, GCC_except_table165, 
                       GCC_except_table166, GCC_except_table17, GCC_except_table17, 
                       GCC_except_table17, GCC_except_table171, GCC_except_table174, 
                       GCC_except_table175, GCC_except_table177, GCC_except_table178, 
                       GCC_except_table18, GCC_except_table18, GCC_except_table18, 
                       GCC_except_table18, GCC_except_table18, GCC_except_table182, 
                       GCC_except_table183, GCC_except_table189, GCC_except_table19, 
                       GCC_except_table19, GCC_except_table190, GCC_except_table191, 
                       GCC_except_table2, GCC_except_table20, GCC_except_table20, 
                       GCC_except_table20, GCC_except_table20, GCC_except_table200, 
                       GCC_except_table202, GCC_except_table203, GCC_except_table204, 
                       GCC_except_table205, GCC_except_table206, GCC_except_table21, 
                       GCC_except_table21, GCC_except_table21, GCC_except_table212, 
                       GCC_except_table213, GCC_except_table215, GCC_except_table217, 
                       GCC_except_table22, GCC_except_table22, GCC_except_table22, 
                       GCC_except_table222, GCC_except_table226, GCC_except_table229, 
                       GCC_except_table23, GCC_except_table230, GCC_except_table234, 
                       GCC_except_table235, GCC_except_table236, GCC_except_table239, 
                       GCC_except_table24, GCC_except_table24, GCC_except_table24, 
                       GCC_except_table24, GCC_except_table241, GCC_except_table242, 
                       GCC_except_table249, GCC_except_table25, GCC_except_table25, 
                       GCC_except_table250, GCC_except_table26, GCC_except_table26, 
                       GCC_except_table26, GCC_except_table27, GCC_except_table27, 
                       GCC_except_table27, GCC_except_table27, GCC_except_table28, 
                       GCC_except_table28, GCC_except_table28, GCC_except_table29, 
                       GCC_except_table29, GCC_except_table29, GCC_except_table29, 
                       GCC_except_table29, GCC_except_table29, GCC_except_table3, 
                       GCC_except_table3, GCC_except_table3, GCC_except_table3, 
                       GCC_except_table30, GCC_except_table30, GCC_except_table30, 
                       GCC_except_table31, GCC_except_table31, GCC_except_table31, 
                       GCC_except_table31, GCC_except_table31, GCC_except_table31, 
                       GCC_except_table31, GCC_except_table32, GCC_except_table32, 
                       GCC_except_table33, GCC_except_table33, GCC_except_table33, 
                       GCC_except_table33, GCC_except_table34, GCC_except_table34, 
                       GCC_except_table34, GCC_except_table34, GCC_except_table35, 
                       GCC_except_table35, GCC_except_table35, GCC_except_table35, 
                       GCC_except_table36, GCC_except_table37, GCC_except_table38, 
                       GCC_except_table38, GCC_except_table4, GCC_except_table4, 
                       GCC_except_table4, GCC_except_table4, GCC_except_table4, 
                       GCC_except_table4, GCC_except_table4, GCC_except_table4, 
                       GCC_except_table4, GCC_except_table4, GCC_except_table41, 
                       GCC_except_table42, GCC_except_table43, GCC_except_table44, 
                       GCC_except_table45, GCC_except_table45, GCC_except_table45, 
                       GCC_except_table46, GCC_except_table46, GCC_except_table47, 
                       GCC_except_table48, GCC_except_table48, GCC_except_table48, 
                       GCC_except_table49, GCC_except_table49, GCC_except_table5, 
                       GCC_except_table5, GCC_except_table5, GCC_except_table5, 
                       GCC_except_table50, GCC_except_table50, GCC_except_table54, 
                       GCC_except_table55, GCC_except_table56, GCC_except_table56, 
                       GCC_except_table56, GCC_except_table56, GCC_except_table56, 
                       GCC_except_table57, GCC_except_table57, GCC_except_table58, 
                       GCC_except_table58, GCC_except_table59, GCC_except_table59, 
                       GCC_except_table6, GCC_except_table6, GCC_except_table6, 
                       GCC_except_table6, GCC_except_table6, GCC_except_table6, 
                       GCC_except_table6, GCC_except_table60, GCC_except_table60, 
                       GCC_except_table60, GCC_except_table60, GCC_except_table61, 
                       GCC_except_table61, GCC_except_table61, GCC_except_table62, 
                       GCC_except_table62, GCC_except_table63, GCC_except_table63, 
                       GCC_except_table63, GCC_except_table63, GCC_except_table64, 
                       GCC_except_table65, GCC_except_table66, GCC_except_table66, 
                       GCC_except_table68, GCC_except_table68, GCC_except_table69, 
                       GCC_except_table7, GCC_except_table7, GCC_except_table7, 
                       GCC_except_table7, GCC_except_table7, GCC_except_table7, 
                       GCC_except_table7, GCC_except_table70, GCC_except_table70, 
                       GCC_except_table70, GCC_except_table70, GCC_except_table71, 
                       GCC_except_table71, GCC_except_table72, GCC_except_table72, 
                       GCC_except_table73, GCC_except_table73, GCC_except_table74, 
                       GCC_except_table74, GCC_except_table75, GCC_except_table75, 
                       GCC_except_table76, GCC_except_table78, GCC_except_table79, 
                       GCC_except_table79, GCC_except_table79, GCC_except_table8, 
                       GCC_except_table8, GCC_except_table8, GCC_except_table8, 
                       GCC_except_table8, GCC_except_table8, GCC_except_table8, 
                       GCC_except_table8, GCC_except_table8, GCC_except_table8, 
                       GCC_except_table8, GCC_except_table80, GCC_except_table81, 
                       GCC_except_table82, GCC_except_table83, GCC_except_table83, 
                       GCC_except_table85, GCC_except_table85, GCC_except_table86, 
                       GCC_except_table87, GCC_except_table87, GCC_except_table88, 
                       GCC_except_table89, GCC_except_table89, GCC_except_table9, 
                       GCC_except_table9, GCC_except_table9, GCC_except_table9, 
                       GCC_except_table9, GCC_except_table90, GCC_except_table91, 
                       GCC_except_table93, GCC_except_table93, GCC_except_table94, 
                       GCC_except_table94, GCC_except_table95, GCC_except_table99, 
                       _AIATCompareData, _AIATCopyData, _AIATFillData, 
                       _AIATFree, _AIATGetAllocator, _AIATMalloc, _AIATRegisterReportErrorUPP, 
                       _AIATReportError, _AIATStringCompare, _AIATStringCopy, 
                       _AIATStringLength, _AddressRangeCompare, _CFDictionaryUInt32ApplierFunction, 
                       _CICollationInfoDestroy, _CICollationInfoInit, _CILocaleGetInfo, 
                       _CILocaleGetInfo.sInited, _CILocaleGetInfo.sLocaleStr, 
                       _CILocaleGetInfo.sVersionInfoData, _CITokenizerCopyQueryTokensWithOptions, 
                       _CITokenizerCreate, _CITokenizerCreate.sLogged, 
                       _CITokenizerDispose, _CITokenizerEnumerateTokens, 
                       _CITokenizerGetTokens, _CITokenizerGetTokensWithOptions, 
                       _CITokenizerRelease, _CXDocumentIdCompare, _CXIndexAddDocument, 
                       _CXIndexAddDocumentByName, _CXIndexClose, _CXIndexCommit, 
                       _CXIndexCompact, _CXIndexCreate, _CXIndexDelete, 
                       _CXIndexDeleteDocument, _CXIndexDeleteDocumentByName, 
                       _CXIndexFlush, _CXIndexOpen, _CXQueryCancel, _CXQueryCreate, 
                       _CXQueryCreateWithOptions, _CXQueryFindMatches, 
                       _CXQueryFindMatchesByName, _CXQueryFindMatchesCopyValues, 
                       _CXQueryNodeCreateAtom, _CXQueryNodeCreateIntersection, 
                       _CXQueryNodeCreateNegation, _CXQueryNodeCreateUnion, 
                       _CXQueryProcessResultQueue, _CXReportErrorCallback, 
                       _CXSetLoggingBlock, _ConditionCreate, _ConditionDispose, 
                       _ConditionSignal, _ConditionWait, _CreateDocumentIdForString, 
                       _CreateStringForDocumentId, _CreateStringForUInt64, 
                       _DocKeyCreate, _DocKeyDictionaryCopyDescription, 
                       _DocKeyDictionaryEqual, _DocKeyDictionaryHash, _DocKeyDictionaryReleaseCallback, 
                       _DocKeyDictionaryRetainCallback, _DocKeyEqual, _DocKeyGetCFTypeID, 
                       _DocKeyGetName, _DocKeyGetParent, _DocKeyGetSchemeName, 
                       _DocKeyRelease, _DocKeyRetain, _DocTextAnalysisCreate, 
                       _DocTextAnalysisGetProperties, _DocTextAnalysisGetType, 
                       _DocTextAnalysisRelease, _DocTextAnalysisRetain, 
                       _DocTextAnalysisSetProperties, _GetBooleanProperty, 
                       _GetCFTypeForEntry, _GetDefaultTextAnalysisCallbacks, 
                       _GetDefaultTextAnalysisName, _GetEntryTypeForCFType, 
                       _GetQueryTokensCallback, _IACloneOSSetStoreStreams, 
                       _IADefaultTextAnalysisCreate, _IADefaultTextAnalysisCreateTokenizer, 
                       _IADefaultTextAnalysisCreateTokenizerNew, _IADefaultTextAnalysisDispose, 
                       _IADefaultTokenizerDispose, _IADefaultTokenizerGetNextToken, 
                       _IADocKeyCreate, _IADocKeyGetName, _IADocKeyGetParent, 
                       _IADocKeyGetSchemeName, _IADocKeyRelease, _IADocKeyRetain, 
                       _IAFileStoreStreamClose, _IAFileStoreStreamDispose, 
                       _IAFileStoreStreamEqual, _IAFileStoreStreamFlush, 
                       _IAFileStoreStreamGetLength, _IAFileStoreStreamInitialize, 
                       _IAFileStoreStreamIsOpen, _IAFileStoreStreamIsWritable, 
                       _IAFileStoreStreamNew, _IAFileStoreStreamOpen, _IAFileStoreStreamRead, 
                       _IAFileStoreStreamRestore, _IAFileStoreStreamSetLength, 
                       _IAFileStoreStreamStore, _IAFileStoreStreamWrite, 
                       _IAFree, _IAFreeSized, _IAIndexCompact, _IAIndexGetStorage, 
                       _IAIndexGetTextAnalysisTypeCount, _IAIndexGetTextAnalysisTypes, 
                       _IAIndexGetType, _IAIndexInitialize, _IAIndexOpen, 
                       _IAIndexRelease, _IAIndexRemoveDoc, _IAIndexSetBytesForUpdate, 
                       _IAInputBlockCreate, _IAInputBlockDispose, _IAInputBlockReadBuffer, 
                       _IAInputBlockReadByte, _IAInputBlockReadCFData, 
                       _IAInputBlockReadCFString, _IAInputBlockReadCFType, 
                       _IAInputBlockReadUInt32, _IAInputBlockReadVInt32, 
                       _IAMalloc, _IAMallocArrayOfType, _IAMallocArraySizedOfType, 
                       _IAMutexCreate, _IAMutexDispose, _IAMutexGetGlobalMutex, 
                       _IAMutexLock, _IAMutexUnlock, _IANewMutex, _IAOutputBlockCreate, 
                       _IAOutputBlockDispose, _IAOutputBlockGetPosition, 
                       _IAOutputBlockWriteBuffer, _IAOutputBlockWriteByte, 
                       _IAOutputBlockWriteCFData, _IAOutputBlockWriteCFString, 
                       _IAOutputBlockWriteCFType, _IAOutputBlockWriteUInt32, 
                       _IAOutputBlockWriteUInt64, _IAOutputBlockWriteVInt32, 
                       _IAOutputBlockWriteVIntCFString, _IASkipListCount, 
                       _IASkipListDispose, _IASkipListFingerFirst, _IASkipListFingerGetNode, 
                       _IASkipListFingerInsert, _IASkipListFingerLast, 
                       _IASkipListFingerRemove, _IASkipListFirstNode, _IASkipListGet, 
                       _IASkipListLastNode, _IASkipListNew, _IASkipListNextNode, 
                       _IASkipListPop, _IASkipListPreviousNode, _IASkipListPut, 
                       _IASkipListRemove, _IASkipListSetFinger, _IAStorageAllocateBlock, 
                       _IAStorageCFDataSize, _IAStorageCFStringSize, _IAStorageCFTypeSize, 
                       _IAStorageCommit, _IAStorageCompact, _IAStorageDeallocateBlock, 
                       _IAStorageGetBlockSize, _IAStorageGetNamedBlock, 
                       _IAStorageGetReadAddress, _IAStorageIsValid, _IAStorageIsValidID, 
                       _IAStorageIsWritable, _IAStorageLockMutex, _IAStorageMemoryOpen, 
                       _IAStorageOpenFromFilePath, _IAStorageOpenFromStream, 
                       _IAStoragePreCommit, _IAStorageRelease, _IAStorageRemoveBlockName, 
                       _IAStorageRetain, _IAStorageSetBlockName, _IAStorageSetIsValid, 
                       _IAStorageUnlockMutex, _IAStorageVInt32Size, _IATaskDispose, 
                       _IATaskGetCurrent, _IATaskWasCanceled, _IATextAnalysisCreate, 
                       _IATextAnalysisGetProperties, _IATextAnalysisGetType, 
                       _IATextAnalysisRelease, _IATextAnalysisRetain, _IATextAnalysisSetProperties, 
                       _IATextStreamRelease, _IATextStreamRetain, _IATextStreamRewind, 
                       _IATokenizerCreate, _IATokenizerGetNextToken, _IATokenizerRelease, 
                       _InitFileStreamCallbacks, _InitSKDocument.sInited, 
                       _InitSKDocument.sSKDocumentClassInfo, _ListAdd, 
                       _ListCompare, _ListCount, _ListDispose, _ListGet, 
                       _ListGetItem, _ListNew, _ListNodeGet, _ListPop, 
                       _ListPut, _ListRemove, _ListRemoveItem, _ListSearch, 
                       _ListSet, _OrderedStorableSetType, _PageCacheEntryPtrCompare, 
                       _PageEntryCompare, _QueryTermInfoCFDictionaryValueCallBacks, 
                       _ReadCFStringFromBuffer, _ReadUInt32FromBuffer, 
                       _ReadVIntCFStringFromBuffer, _SKDocIDScorePostingCFSetCallBacks, 
                       _SKDocumentCreate, _SKDocumentDealloc, _SKDocumentEqual, 
                       _SKDocumentGetTypeID, _SKIndexClose, _SKIndexCompact, 
                       _SKIndexCopyInfoForDocumentIDs, _SKIndexFlushInternal, 
                       _SKIndexGetAnalysisProperties, _SKIndexGetTypeID, 
                       _SKIndexGetUpdateTime, _SKIndexRemoveDocument, _SKIndexSearch, 
                       _SKIndexSetMaximumBytesBeforeFlush, _SKQueryCopyDescription, 
                       _SKQueryNodeCFDictionaryValueCallBacks, _SKQueryNodeCopy, 
                       _SKQueryNodeCreate, _SKQueryNodeDispose, _SKSearchFindMatches, 
                       _StorageAddAddress, _StorageAllocAddress, _StorageAllocate, 
                       _StorageAllocateNamedBlock, _StorageBlockInfoRead, 
                       _StorageBlockInfoWrite, _StorageCommit, _StorageCompact, 
                       _StorageCompactInternal, _StorageCopyBytes, _StorageDeallocate, 
                       _StorageDeallocateInternal, _StorageDispose, _StorageFreeAddress, 
                       _StorageFreeAddressesRead, _StorageFreeAddressesSize, 
                       _StorageFreeAddressesWrite, _StorageFreeChunks, 
                       _StorageFreeNewFreeAddress, _StorageFreedIDsRead, 
                       _StorageFreedIDsWrite, _StorageGetBlockSize, _StorageGetNamedBlock, 
                       _StorageGetReadAddress, _StorageGetStoreStream, 
                       _StorageGetWriteAddress, _StorageGetWriteAddressInternal, 
                       _StorageInitialize, _StorageIsValid, _StorageIsValidID, 
                       _StorageIsWritable, _StorageLockMutex, _StorageNew, 
                       _StorageNewAddressInternal, _StorageNewInfo, _StorageOldFreeSpace, 
                       _StorageOpen, _StoragePopFreeID, _StoragePreCommit, 
                       _StorageRelease, _StorageRetain, _StorageSetIsValid, 
                       _StorageSizeLogSize, _StorageTOCRead, _StorageTOCSizeCompute, 
                       _StorageTOCWrite, _StorageTOCWriteItem, _StorageTOC_Get, 
                       _StorageTOC_Remove, _StorageTOC_Set, _StorageUnlockMutex, 
                       _StoreCFArrayApplierFunction, _StoreCFDictionaryApplierFunction, 
                       _StoreCFSetApplierFunction, _StoreSizeCFArrayApplierFunction, 
                       _StoreSizeCFDictionaryApplierFunction, _StoreSizeCFSetApplierFunction, 
                       _StoreStreamDispose, _StoreStreamFlush, _StoreStreamGetLength, 
                       _StoreStreamGetReadPosition, _StoreStreamGetWritePosition, 
                       _StoreStreamInitialize, _StoreStreamIsWritable, 
                       _StoreStreamLockMutex, _StoreStreamMaybeFlushBuffer, 
                       _StoreStreamNew, _StoreStreamOpen, _StoreStreamRead, 
                       _StoreStreamReadByte, _StoreStreamReadBytes, _StoreStreamReadCFString, 
                       _StoreStreamReadPastEndOfBuffer, _StoreStreamReadUInt32, 
                       _StoreStreamReadVInt32, _StoreStreamReadVInt64, 
                       _StoreStreamReadVIntCFString, _StoreStreamSetLength, 
                       _StoreStreamSetReadPosition, _StoreStreamSetWritePosition, 
                       _StoreStreamUnlockMutex, _StoreStreamWrite, _StoreStreamWriteByte, 
                       _StoreStreamWriteBytes, _StoreStreamWriteCFString, 
                       _StoreStreamWritePastEndOfBuffer, _StoreStreamWriteUInt32, 
                       _StoreStreamWriteUInt64, _StoreStreamWriteVInt32, 
                       _StoreStreamWriteVInt64, _StoreStreamWriteVIntCFString, 
                       _TFComponentOrder, _TFEntryCompare, _TISHeadCompare, 
                       _TaskAllocatorAllocate, _TaskAllocatorCopyDescription, 
                       _TaskAllocatorCreate, _TaskAllocatorDeallocate, 
                       _TaskAllocatorPreferredSize, _TaskAllocatorReallocate, 
                       _TaskAllocatorRelease, _TaskAllocatorRetain, _TaskAllocatorUsage, 
                       _TextAnalysisAddPropertyApplierFunction, _TextAnalysisRegister, 
                       _TextAnalysisRegistryInit, _TextAnalysisRegistryResolve, 
                       _TextStreamCopyString, _TextStreamCopyString.uniBOM1, 
                       _TextStreamCopyString.uniBOM2, _TextStreamRelease, 
                       _TextStreamRetain, _TextStreamRewind, _TokenizerCreate, 
                       _TokenizerGetNextToken, _TokenizerRelease, _UInt32ArrayCopyDescription, 
                       _UInt32ArrayEqual, _UInt32ArrayReleaseCallback, 
                       _UInt32ArrayRetainCallback, _UInt32Compare, _UInt32DictionaryApplyFunction, 
                       _UInt32DictionaryCopyDescription, _UInt32DictionaryCount, 
                       _UInt32DictionaryCreate, _UInt32DictionaryDispose, 
                       _UInt32DictionaryEqual, _UInt32DictionaryGet, _UInt32DictionaryPut, 
                       _UInt32DictionaryReleaseCallback, _UInt32DictionaryRemove, 
                       _UInt32DictionaryRetainCallback, _UInt32SetAdd, 
                       _UInt32SetAtOrBefore, _UInt32SetClone, _UInt32SetCount, 
                       _UInt32SetCreate, _UInt32SetDestroy, _UInt32SetDispose, 
                       _UInt32SetExists, _UInt32SetGetItem, _UInt32SetPop, 
                       _UInt32SetRemove, _UInt32VoidMapAdd, _UInt32VoidMapAtOrBefore, 
                       _UInt32VoidMapCopyDescription, _UInt32VoidMapCreate, 
                       _UInt32VoidMapDispose, _UInt32VoidMapEqual, _UInt32VoidMapPop, 
                       _UInt32VoidMapReleaseCallback, _UInt32VoidMapRemoveByPosition, 
                       _UInt32VoidMapRetainCallback, _UInt64ForString, 
                       _UniCharParserCreate, _UniCharParserDispose, _UniCharParserGetNextWord, 
                       _VInt32Size, _VInt64Size, _VIntCFStringStoreSize, 
                       __CITokenizerCopyQueryTokens, __CITokenizerCopyQueryTokens.sWhiteSpaceCharacterSet, 
                       __CITokenizerEnumeratorBlockCallback, __CITokenizerGetTokens, 
                       __CXInit.onceToken, __CXLog, __CXQueryClassInit.onceToken, 
                       __CXQueryClassInit.sCXQueryClassInfo, __CXQueryDealloc, 
                       __CXQueryInit, __CXQueryNodeClassInit.onceToken, 
                       __CXQueryNodeClassInit.sCXQueryNodeClassInfo, __CXQueryNodeCreate, 
                       __CXQueryNodeDealloc, __CXQueryNodeInit, __CXQueryNodeQueryStringCreate, 
                       __IATaskCreate, __SKAddDocument, __SKIndexAddDocument, 
                       __SKIndexAddDocumentByName, __SKIndexClose, __SKIndexCommit, 
                       __SKIndexCompact, __SKIndexCreate, __SKIndexCreateWithURL, 
                       __SKIndexDeleteDocument, __SKIndexDeleteDocumentByName, 
                       __SKIndexFlush, __SKIndexGetTypeID, __SKIndexOpen, 
                       __SKIndexOpenWithURL, __SKQueryCancel, __SKQueryCreate, 
                       __SKQueryFindMatches, __SKQueryFindMatchesByName, 
                       __SKQueryGetTypeID, __SKQueryNodeCreateSKQueryNode, 
                       __SKSearchCreate, __Z10OSSetFirstP20IAOrderedStorableSet, 
                       __Z13StoreAnalysisP9IAStoragejP23OpaqueIATextAnalysisRef, 
                       __Z14LoggingEnabledv, __Z15RestoreAnalysisP9IAStoragej, 
                       __Z16FreqPostingsCopyP11FreqPostingj, __Z16FreqPostingsSkipjPKh, 
                       __Z16IAThrowExceptioni, __Z16_IAAssertionFuncPKciS0_S0_i, 
                       __Z17FreqPostingsStoreP11FreqPostingjP13IAOutputBlock, 
                       __Z18FreqPostingsAppendP11FreqPostingjS0_j, __Z18FreqPostingsRemoveP11FreqPostingPjP8BitArray, 
                       __Z19CallFlushProgressFnfPv, __Z19FreqPostingsRestorejP12IAInputBlock, 
                       __Z19_IAIndexAddDocumentP16OpaqueIAIndexRefP17OpaqueIADocKeyRefPK10__CFStringPK14__CFDictionary, 
                       __Z20FreqPostingStoreSizePK11FreqPosting, __Z20FreqPostingStoreSizePK11FreqPostingS1_, 
                       __Z20FreqPostingsPaginateP11FreqPostingjPj, __Z21CallCompactProgressFnfPv, 
                       __Z21FreqPostingsStoreSizeP11FreqPostingj, __Z22FreqPostingsStoreBlockP9IAStoragejjP11FreqPostingjj, 
                       __Z24FreqPostingsRestoreBlockP9IAStoragePjS1_, __Z24IAMakeOrderedStorableSetP17IAOrderedStorable, 
                       __Z25IADefaultMutexConstructorv, __Z28createAnalysisWithPropertiesPK14__CFDictionary, 
                       __Z29FreqPostingsRestoreFromBufferjPPKh, __Z31EvalProximitySetApplierFunctionPKvPv, 
                       __Z6IASortPvmmPFiPKvS1_E, __Z8ReadPagejP9IAStorageP17IAOrderedStorable, 
                       __ZL10SKGetMutexv, __ZL11SKIndexOpenPKvPK10__CFStringhi, 
                       __ZL13CreateSKIndexP16OpaqueIAIndexRefPKv, __ZL14SKIndexDeallocPKv, 
                       __ZL14_SKSearchEntryP15OpaqueIATaskRefPv, __ZL14sSKIndexTypeID, 
                       __ZL15SKQueryEvaluateP11SKQueryNodeP14SKEvaluateInfo, 
                       __ZL15SKSearchDeallocPKv, __ZL15sLogQueryInited, 
                       __ZL15sSKSearchTypeID, __ZL16DocUpdateComparePKvS0_Pv, 
                       __ZL16SKGetMatchFactori, __ZL16TermUpdateCreatePK13__CFAllocatorPhj, 
                       __ZL17SKIndexInitializePKvPK10__CFStringjPP23OpaqueIATextAnalysisRefji, 
                       __ZL17SearchAllMatchObjiP17IAOrderedStorablePv, 
                       __ZL18PageReadInfoAppendP12PageReadInfoPjP4Pagej7CFRangeP9IAStorage, 
                       __ZL18SKQueryEvaluateNewP11SKQueryNodeP13SearchContext, 
                       __ZL18SearchTermDocMatchP13SearchContextP9MatchInfoP14SearchTermInfojj, 
                       __ZL18SearchTermMatchObjiP17IAOrderedStorablePv, 
                       __ZL19EvaluateParitalTermP11SKQueryNodePK14__CFDictionaryP14SKEvaluateInfo, 
                       __ZL19MatchTermInfoCreatePK13__CFAllocatorPK10__CFString, 
                       __ZL19PageReadInfoComparePKvS0_, __ZL20OrSetApplierFunctionPKvPv, 
                       __ZL20SearchAllMatchBufferiPKhPv, __ZL20SearchPrefixMatchObjiP17IAOrderedStorablePv, 
                       __ZL20SearchTermCompareObjiP17IAOrderedStorablePv, 
                       __ZL20UpdateForPartialTermPK13__CFAllocatorP8TIAIndexjP13QueryTermInfoP10TermUpdateP14__CFDictionaryS9_, 
                       __ZL20sClosenessMultiplier.body, __ZL20sClosenessMultiplier.init, 
                       __ZL21MatchInfoLoadPostingsP13SearchContextPP9MatchInfoj, 
                       __ZL21MatchTermInfosDisposePP9MatchInfol, __ZL21SKQueryUpdateForIndexP11SKQueryNodeP16OpaqueIAIndexRefP14__CFDictionary, 
                       __ZL21SearchTermHandleMatchiiP13QueryTermInfoP17IAOrderedStorablePKhP13SearchContextt, 
                       __ZL21SearchTermMatchBufferiPKhPv, __ZL22MatchInfoAddTermUpdatePP9MatchInfolP10TermUpdateP13SearchContextt, 
                       __ZL22QSortTermUpdateComparePKvS0_, __ZL22SKSearchContextDisposeP15SKSearchContext, 
                       __ZL23SearchAllFieldsMatchObjiP17IAOrderedStorablePv, 
                       __ZL23SearchPrefixMatchBufferiPKhPv, __ZL23SearchTermCompareBufferiPKhPv, 
                       __ZL23sIndexStorageDictionary, __ZL24TermUpdateCFSetCallBacks, 
                       __ZL25BulkDocIDInfoQSortComparePKvS0_, __ZL25ExcludeSetApplierFunctionPKvPv, 
                       __ZL25QueryTermInfoCompareTermsPKvS0_, __ZL25SearchAllMatchObjOrBufferiP17IAOrderedStorablePKhPv, 
                       __ZL26CFInversionApplierFunctionPKvPv, __ZL26MergeAndSetApplierFunctionPKvPv, 
                       __ZL26OrSetRankedApplierFunctionPKvPv, __ZL26ProtoPostingCFSetCallBacks, 
                       __ZL26SKCopyDefaultIndexAnalysisv, __ZL26SKQueryNodeReleaseCallBackPK13__CFAllocatorPKv, 
                       __ZL26SearchAllFieldsMatchBufferiPKhPv, __ZL26SearchTermMatchObjOrBufferiP17IAOrderedStorablePKhPv, 
                       __ZL26TermUpdateMatchInfoApplierPKvPv, __ZL26TermUpdateQueryInfoApplierPKvPv, 
                       __ZL27InvertedIndexFromSKIndexRefP9__SKIndex, __ZL27QueryTermInfoCompareTermIDsPKvS0_, 
                       __ZL27TermUpdateCFSetHashCallBackPKv, __ZL28DocIDInfoMatchKeyDataWithObjiP17IAOrderedStorablePv, 
                       __ZL28QueryTermInfoReleaseCallBackPK13__CFAllocatorPKv, 
                       __ZL28SearchPrefixMatchObjOrBufferiP17IAOrderedStorablePKhPv, 
                       __ZL28SearchTermCompareObjOrBufferiP17IAOrderedStorablePKhPv, 
                       __ZL28TermUpdateCFSetEqualCallBackPKvS0_, __ZL28_SKSearchFindMatchesCallBackP9__SKIndexP19SKDocIDScorePostingPv, 
                       __ZL29MatchInfoGetRankedPostingInfoP13SearchContextPP9MatchInfoj, 
                       __ZL29MatchesHitsSetApplierFunctionPKvPv, __ZL29ProtoPostingCFSetHashCallBackPKv, 
                       __ZL29QSortProximityListItemComparePKvS0_, __ZL29SearchAllFieldsPrefixMatchObjiP17IAOrderedStorablePv, 
                       __ZL30DocIDInfoCompareKeyDataWithObjiP17IAOrderedStorablePv, 
                       __ZL30ProtoPostingCFSetEqualCallBackPKvS0_, __ZL31DocIDInfoMatchKeyDataWithBufferiPKhPv, 
                       __ZL31QSortSKDocIDScorePostingComparePKvS0_, __ZL31SearchAllFieldsMatchObjOrBufferiP17IAOrderedStorablePKhPv, 
                       __ZL32LevelInfoEntryAddressSortComparePKvS0_, __ZL32ProtoPostingCFSetReleaseCallBackPK13__CFAllocatorPKv, 
                       __ZL32SearchAllFieldsPrefixMatchBufferiPKhPv, __ZL33DocIDInfoCompareKeyDataWithBufferiPKhPv, 
                       __ZL34SKIndexSearchCompareKeyDataWithObjiP17IAOrderedStorablePv, 
                       __ZL34SKQueryNodeCopyDescriptionCallBackPKv, __ZL36SKDocIDScorePostingCFSetHashCallBackPKv, 
                       __ZL37SKDocIDScorePostingCFSetEqualCallBackPKvS0_, 
                       __ZL37SKIndexSearchCompareKeyDataWithBufferiPKhPv, 
                       __ZL37SearchAllFieldsPrefixMatchObjOrBufferiP17IAOrderedStorablePKhPv, 
                       __ZL37SearchTermInfoBlockIDCompareByAddressPvPKvS1_, 
                       __ZL38TermUpdateCFSetCopyDescriptionCallBackPKv, 
                       __ZL40ProtoPostingCFSetCopyDescriptionCallBackPKv, 
                       __ZL42SKIndexSearchCompareKeyDataWithObjOrBufferP17IAOrderedStorablePKhPv, 
                       __ZL47SKDocIDScorePostingCFSetCopyDescriptionCallBackPKv, 
                       __ZL8sSKMutex, __ZL9sLogQuery, __ZN10FreqPSImpl12RefillBufferEv, 
                       __ZN10FreqPSImpl4NextEP11FreqPosting, __ZN10FreqPSImplC2EP16InvertedTermInfoP8BitArrayP9IAStorage, 
                       __ZN10FreqPSImplD0Ev, __ZN10FreqPSImplD1Ev, __ZN10FreqPSImplD2Ev, 
                       __ZN10IAAnalysis12GetProtoTermEv, __ZN10IAAnalysis15MakeTokenStreamEP21OpaqueIATextStreamRef, 
                       __ZN10IAAnalysis22GetNextTokenThreadSafeEv, __ZN10IAAnalysis6sMutexE, 
                       __ZN10IAAnalysis8GetMutexEv, __ZN10IAAnalysisC1EPP23OpaqueIATextAnalysisRefj, 
                       __ZN10IAAnalysisC2EPP23OpaqueIATextAnalysisRefj, 
                       __ZN10IAAnalysisD0Ev, __ZN10IAAnalysisD1Ev, __ZN10IAAnalysisD2Ev, 
                       __ZN10IARefCount6RetainEv, __ZN10IARefCount7ReleaseEv, 
                       __ZN10IARefCountC2Ev, __ZN10IARefCountD0Ev, __ZN10IARefCountD1Ev, 
                       __ZN10IARefCountD2Ev, __ZN10IAStorable11DeepCopyingEPKS_, 
                       __ZN10IAStorable9RestoringEP12IAInputBlockPKS_, 
                       __ZN10IAStorableC2Ev, __ZN10IAStorableD0Ev, __ZN10IAStorableD1Ev, 
                       __ZN10IAStorableD2Ev, __ZN11FreqPostingC1Ev, __ZN11TermOffsets11DeepCopyingEPK10IAStorable, 
                       __ZN11TermOffsets14RestoreOffsetsEP12IAInputBlockj, 
                       __ZN11TermOffsets15CopyDescriptionEv, __ZN11TermOffsets3AddEj, 
                       __ZN11TermOffsets9RestoringEP12IAInputBlockPK10IAStorable, 
                       __ZN11TermOffsetsC1Ev, __ZN11TermOffsetsC2Ev, __ZN11TermOffsetsD0Ev, 
                       __ZN11TermOffsetsD1Ev, __ZN11TermOffsetsD2Ev, __ZN12DocUpdateSet3PutEP9DocUpdateS1_, 
                       __ZN12DocUpdateSetC2Ev, __ZN12DocUpdateSetD0Ev, 
                       __ZN12DocUpdateSetD1Ev, __ZN12DocUpdateSetD2Ev, 
                       __ZN12IAInputBlock10ReadBufferEPvj, __ZN12IAInputBlock10ReadCFTypeEv, 
                       __ZN12IAInputBlock10ReadUInt32Ev, __ZN12IAInputBlock10ReadVInt32Ev, 
                       __ZN12IAInputBlock11GetPositionEv, __ZN12IAInputBlock12ReadCFStringEv, 
                       __ZN12IAInputBlock16ReadVIntCFStringEv, __ZN12IAInputBlock8ReadByteEv, 
                       __ZN12IAInputBlockC1EP9IAStoragej, __ZN12IAInputBlockC2EP9IAStoragej, 
                       __ZN12IAInputBlockD1Ev, __ZN13BTreeIterator10BuildStackEPK17IAOrderedStorable, 
                       __ZN13BTreeIterator10PopForwardEv, __ZN13BTreeIterator10UnlockPageEjj, 
                       __ZN13BTreeIterator11PushForwardEP4Page, __ZN13BTreeIterator13GetLockedPageEjj, 
                       __ZN13BTreeIterator4NextEv, __ZN13BTreeIterator6PushToEP4PagePK17IAOrderedStorable, 
                       __ZN13BTreeIterator9IncrementEv, __ZN13BTreeIteratorC2EP5BTree, 
                       __ZN13BTreeIteratorC2EP5BTreePK17IAOrderedStorable, 
                       __ZN13BTreeIteratorD0Ev, __ZN13BTreeIteratorD1Ev, 
                       __ZN13BTreeIteratorD2Ev, __ZN13IADocIterator10GetNextDocEv, 
                       __ZN13IADocIteratorC2Ev, __ZN13IADocIteratorD0Ev, 
                       __ZN13IADocIteratorD1Ev, __ZN13IADocIteratorD2Ev, 
                       __ZN13IAObjRefCount6RetainEv, __ZN13IAObjRefCount7ReleaseEv, 
                       __ZN13IAObjRefCountC2Ev, __ZN13IAObjRefCountD0Ev, 
                       __ZN13IAObjRefCountD1Ev, __ZN13IAObjRefCountD2Ev, 
                       __ZN13IAOutputBlock11GetPositionEv, __ZN13IAOutputBlock11WriteBufferEPKvj, 
                       __ZN13IAOutputBlock11WriteCFTypeEPKv, __ZN13IAOutputBlock11WriteUInt32Ej, 
                       __ZN13IAOutputBlock11WriteUInt64Ey, __ZN13IAOutputBlock11WriteVInt32Ej, 
                       __ZN13IAOutputBlock11WriteVInt64Ey, __ZN13IAOutputBlock13WriteCFStringEPK10__CFString, 
                       __ZN13IAOutputBlock17WriteVIntCFStringEPK10__CFString, 
                       __ZN13IAOutputBlock9WriteByteEh, __ZN13IAOutputBlockC1EP9IAStoragejj, 
                       __ZN13IAOutputBlockC2EP9IAStoragejj, __ZN13IAOutputBlockD0Ev, 
                       __ZN13IAOutputBlockD1Ev, __ZN13IAOutputBlockD2Ev, 
                       __ZN13IATokenStream12GetNextTokenEv, __ZN13IATokenStream16GetNextTokenDataEPhjPj, 
                       __ZN13IATokenStreamD0Ev, __ZN13IATokenStreamD1Ev, 
                       __ZN13IATokenStreamD2Ev, __ZN13InvertedIndex10InitializeEv, 
                       __ZN13InvertedIndex11DeletingDocEP7DocInfo, __ZN13InvertedIndex11GetTermInfoEP6IATermb, 
                       __ZN13InvertedIndex11MergeDocIDsEP9TermIndexj, __ZN13InvertedIndex11RestoreRootEP12IAInputBlock, 
                       __ZN13InvertedIndex12InitializingEv, __ZN13InvertedIndex12MakeTermInfoEP6IATermj, 
                       __ZN13InvertedIndex13MergeTermCostEv, __ZN13InvertedIndex13MergeTermInfoEP8TermInfoS1_P9TermIndexj, 
                       __ZN13InvertedIndex13ResetPostingsEP8TermInfo, __ZN13InvertedIndex14ExpungeTermIdsEP9UInt32Set, 
                       __ZN13InvertedIndex14UpdateTermInfoEP8TermInfoP11FreqPostingjj, 
                       __ZN13InvertedIndex15ExpungePostingsEP16InvertedTermInfo, 
                       __ZN13InvertedIndex15FinishingUpdateEv, __ZN13InvertedIndex15GetFreqPostingsEP8TermInfo, 
                       __ZN13InvertedIndex16DeletingPostingsEP6IATermj, 
                       __ZN13InvertedIndex16IANarrowInternalEl, __ZN13InvertedIndex17ValidateTermInfosEb, 
                       __ZN13InvertedIndex18GetDeletedDocCountEv, __ZN13InvertedIndex19DeletingDocInternalEP7DocInfo, 
                       __ZN13InvertedIndex19UpdatePostingBlocksEP21InvertedBlockTermInfoP11FreqPostingj, 
                       __ZN13InvertedIndex21TermInfoNeedsUpdatingEP16InvertedTermInfo, 
                       __ZN13InvertedIndex4OpenEv, __ZN13InvertedIndex7CompactEv, 
                       __ZN13InvertedIndex8RootSizeEv, __ZN13InvertedIndex9IAClassIDEv, 
                       __ZN13InvertedIndex9StoreRootEP13IAOutputBlock, 
                       __ZN13InvertedIndexC2EP9IAStorageP10IAAnalysisjjj, 
                       __ZN13InvertedIndexD0Ev, __ZN13InvertedIndexD1Ev, 
                       __ZN13InvertedIndexD2Ev, __ZN13ProximityInfo11DeepCopyingEPK10IAStorable, 
                       __ZN13ProximityInfo7OffsetsEP9IAStorage, __ZN13ProximityInfo9RestoringEP12IAInputBlockPK10IAStorable, 
                       __ZN13ProximityInfoC2EjjP11TermOffsetsj, __ZN13ProximityInfoD0Ev, 
                       __ZN13ProximityInfoD1Ev, __ZN13ProximityInfoD2Ev, 
                       __ZN13QueryTermInfo14UpdatePostingsEPK13__CFAllocatorP8TIAIndexP10TermUpdate, 
                       __ZN13QueryTermInfo20UpdatePostingsRankedEPK13__CFAllocatorP8TIAIndexP10TermUpdateh, 
                       __ZN13TIDocIterator10GetNextDocEv, __ZN13TIDocIteratorD0Ev, 
                       __ZN13TIDocIteratorD1Ev, __ZN13TIDocIteratorD2Ev, 
                       __ZN14IADefaultMutex4LockEv, __ZN14IADefaultMutex6UnlockEv, 
                       __ZN14PageCacheEntryD0Ev, __ZN14PageCacheEntryD1Ev, 
                       __ZN14PageCacheEntryD2Ev, __ZN16IADeleteOnUnwindD1Ev, 
                       __ZN16InvertedTermInfo10FirstBlockEv, __ZN16InvertedTermInfo11DeepCopyingEPK10IAStorable, 
                       __ZN16InvertedTermInfoD0Ev, __ZN16InvertedTermInfoD1Ev, 
                       __ZN16InvertedTermInfoD2Ev, __ZN16TIAInvertedIndexC1EP8TIAIndexP9IAStorageP10IAAnalysisjj, 
                       __ZN16TIAInvertedIndexD0Ev, __ZN16TIAInvertedIndexD1Ev, 
                       __ZN17IAOrderedStorableC2Ev, __ZN17IAOrderedStorableD0Ev, 
                       __ZN17IAOrderedStorableD1Ev, __ZN17IAOrderedStorableD2Ev, 
                       __ZN17IAReleaseOnUnwindC1EP10IARefCount, __ZN17IAReleaseOnUnwindD1Ev, 
                       __ZN19IAMemoryOutputBlock11WriteBufferEPKvj, __ZN19IAMemoryOutputBlock11WriteCFTypeEPKv, 
                       __ZN19IAMemoryOutputBlock11WriteUInt32Ej, __ZN19IAMemoryOutputBlock11WriteUInt64Ey, 
                       __ZN19IAMemoryOutputBlock11WriteVInt32Ej, __ZN19IAMemoryOutputBlock11WriteVInt64Ey, 
                       __ZN19IAMemoryOutputBlock13WriteCFStringEPK10__CFString, 
                       __ZN19IAMemoryOutputBlock17WriteVIntCFStringEPK10__CFString, 
                       __ZN19IAMemoryOutputBlock4GrowEv, __ZN19IAMemoryOutputBlock9WriteByteEh, 
                       __ZN19IAMemoryOutputBlockC1Ev, __ZN19IAMemoryOutputBlockC2Ev, 
                       __ZN19IAMemoryOutputBlockD0Ev, __ZN19IAMemoryOutputBlockD1Ev, 
                       __ZN19IAMemoryOutputBlockD2Ev, __ZN19TIADocPropertyEntry11DeepCopyingEPK10IAStorable, 
                       __ZN19TIADocPropertyEntry9RestoringEP12IAInputBlockPK10IAStorable, 
                       __ZN19TIADocPropertyEntryC1Ev, __ZN19TIADocPropertyEntryC2Ev, 
                       __ZN19TIADocPropertyEntryD0Ev, __ZN19TIADocPropertyEntryD1Ev, 
                       __ZN19TIADocPropertyEntryD2Ev, __ZN19TIAIndexDocIterator9IncrementEv, 
                       __ZN19TIAIndexDocIteratorC2EP8TIAIndexP13IADocIteratorj, 
                       __ZN19TIAIndexDocIteratorD0Ev, __ZN19TIAIndexDocIteratorD1Ev, 
                       __ZN19TIAIndexDocIteratorD2Ev, __ZN19TermInfoStreamQueue3PopEP7TISHead, 
                       __ZN19TermInfoStreamQueue3PutEP7TISHeadS1_, __ZN19TermInfoStreamQueue5CountEv, 
                       __ZN19TermInfoStreamQueue7RequeueEP7TISHead, __ZN19TermInfoStreamQueue9AddStreamEP9TermIndexj, 
                       __ZN19TermInfoStreamQueueC1Ev, __ZN19TermInfoStreamQueueC2Ev, 
                       __ZN19TermInfoStreamQueueD0Ev, __ZN19TermInfoStreamQueueD1Ev, 
                       __ZN19TermInfoStreamQueueD2Ev, __ZN20IAOrderedStorableSet11ReportStatsEv, 
                       __ZN20IAOrderedStorableSetC2Ev, __ZN20IAOrderedStorableSetD0Ev, 
                       __ZN20IAOrderedStorableSetD1Ev, __ZN20IAOrderedStorableSetD2Ev, 
                       __ZN21IADeleteArrayOnUnwindC1EPv, __ZN21IADeleteArrayOnUnwindD1Ev, 
                       __ZN21InvertedBlockTermInfo10FirstBlockEv, __ZN21InvertedBlockTermInfo11DeepCopyingEPK10IAStorable, 
                       __ZN22TIADocPropertyEntryNew11DeepCopyingEPK10IAStorable, 
                       __ZN22TIADocPropertyEntryNew7ResolveEP9IAStorage, 
                       __ZN22TIADocPropertyEntryNew9RestoringEP12IAInputBlockPK10IAStorable, 
                       __ZN25IAOrderedStorableIterator4NextEv, __ZN25IAOrderedStorableIteratorC2Ev, 
                       __ZN25IAOrderedStorableIteratorD0Ev, __ZN25IAOrderedStorableIteratorD1Ev, 
                       __ZN25IAOrderedStorableIteratorD2Ev, __ZN28IADeletePointerArrayOnUnwindC1EPP8IAObjectj, 
                       __ZN28IADeletePointerArrayOnUnwindD1Ev, __ZN28IADeletePointerArrayOnUnwindD2Ev, 
                       __ZN4Leaf10EntryStoreEP9PageEntryP13IAOutputBlock, 
                       __ZN4Leaf12EntryRestoreEP9PageEntryP17IAOrderedStorableP12IAInputBlock, 
                       __ZN4Leaf14EntryStoreSizeEP9PageEntry, __ZN4Leaf15CopyDescriptionEv, 
                       __ZN4Leaf6IsLeafEv, __ZN4Page10EntryStoreEP9PageEntryP13IAOutputBlock, 
                       __ZN4Page10ReplaceObjEP9PageEntryP17IAOrderedStorable, 
                       __ZN4Page11FingerEntryEPK17IAOrderedStorablePPvPh, 
                       __ZN4Page11InsertEntryEP9PageEntry, __ZN4Page11ReadEntriesEP12IAInputBlockP17IAOrderedStorable, 
                       __ZN4Page11RemoveEntryEP9PageEntry, __ZN4Page12EntryRestoreEP9PageEntryP17IAOrderedStorableP12IAInputBlock, 
                       __ZN4Page12PreviousNodeEP9PageEntry, __ZN4Page14EntryStoreSizeEP9PageEntry, 
                       __ZN4Page15CopyDescriptionEv, __ZN4Page17ShiftContentsLeftEPS_P9PageEntryS0_S2_, 
                       __ZN4Page18ShiftContentsRightEPS_P9PageEntryS0_S2_, 
                       __ZN4Page19InsertEntryAtFingerEP9PageEntryPPv, __ZN4Page19RemoveEntryAtFingerEPPv, 
                       __ZN4Page4NextEP9PageEntry, __ZN4Page5CountEv, __ZN4Page5FirstEv, 
                       __ZN4Page5WriteEP9IAStorage, __ZN4Page6IsLeafEv, 
                       __ZN4Page8LastNodeEv, __ZN4Page8PopEntryEP9PageEntry, 
                       __ZN4Page9PushEntryEP9PageEntry, __ZN4PageC1Ej, 
                       __ZN4PageC2Ej, __ZN4PageD0Ev, __ZN4PageD1Ev, __ZN4PageD2Ev, 
                       __ZN5BTree10InitializeEP9IAStoragejb, __ZN5BTree10ShrinkTreeEv, 
                       __ZN5BTree11PaginateTwoEP4PageP9PageEntryS1_S1_j, 
                       __ZN5BTree11PutInternalEP4PageS1_P9PageEntryP17IAOrderedStorablej, 
                       __ZN5BTree12GetReferenceEPK17IAOrderedStorable, 
                       __ZN5BTree12MakeIteratorEPK17IAOrderedStorable, 
                       __ZN5BTree12MakeIteratorEv, __ZN5BTree12RebalanceTwoEP4PageP9PageEntryS1_S1_j, 
                       __ZN5BTree13RebalanceRootEv, __ZN5BTree14DestroyNonLeafEP4Pagej, 
                       __ZN5BTree14DestroySubPageEjj, __ZN5BTree14ObjectsForKeysEiPP17IAOrderedStorableS2_, 
                       __ZN5BTree14RemoveInternalEP4PageS1_P9PageEntryPK17IAOrderedStorablej, 
                       __ZN5BTree15CopyDescriptionEv, __ZN5BTree15PutValuesSortedEiPPvPFiS0_PKhEPFP17IAOrderedStorableS1_S7_S0_EPFbS0_ES0_, 
                       __ZN5BTree16PositionEstimateEPK17IAOrderedStorable, 
                       __ZN5BTree16RebalanceNonRootEP4PageS1_P9PageEntryj, 
                       __ZN5BTree16SplitPageEntriesEP14LevelInfoEntryP19IAMemoryOutputBlockjj, 
                       __ZN5BTree17BestTwoPaginationEv, __ZN5BTree17ResolveCachedPageEjj, 
                       __ZN5BTree18ReplaceWithPrevObjEP4PageP9PageEntryS1_S1_S3_j, 
                       __ZN5BTree19ProcessPageReadInfoEP12PageReadInfoiP27ObjectsForSortedKeysContextPj, 
                       __ZN5BTree20ObjectsForSortedKeysEiP27ObjectsForSortedKeysContext, 
                       __ZN5BTree20ProcessPageReadInfosEP12PageReadInfojiP27ObjectsForSortedKeysContext, 
                       __ZN5BTree21PutValuesProcessLevelEPP13LevelInfoListjPPvPFiS3_PKhEPFP17IAOrderedStorableS4_SA_S3_EPFbS3_ES3_, 
                       __ZN5BTree27PutValuesUpdateNonLeafLevelEPP13LevelInfoListj, 
                       __ZN5BTree30PutValuesProcessLevelEntryLeafEPP13LevelInfoListjP14LevelInfoEntryPPvPhPFiS5_PKhEPFP17IAOrderedStorableS6_SD_S5_ES5_, 
                       __ZN5BTree33PutValuesProcessLevelEntryNonLeafEPP13LevelInfoListjP14LevelInfoEntryPPvPhPFiS5_PKhEPFP17IAOrderedStorableS6_SD_S5_ES5_, 
                       __ZN5BTree3GetEPK17IAOrderedStorable, __ZN5BTree3PutEP17IAOrderedStorable, 
                       __ZN5BTree4DumpEv, __ZN5BTree4OpenEP9IAStoragejbb, 
                       __ZN5BTree5CountEv, __ZN5BTree5FlushEv, __ZN5BTree5PurgeEv, 
                       __ZN5BTree6RemoveEPK17IAOrderedStorable, __ZN5BTree7DestroyEv, 
                       __ZN5BTree7GetPageEjj, __ZN5BTree7NewPageEb, __ZN5BTree8GetMutexEv, 
                       __ZN5BTree8GrowTreeEv, __ZN5BTree8MergeTwoEP4PageP9PageEntryS1_S1_j, 
                       __ZN5BTree8SplitOneEP4PageS1_j, __ZN5BTree9PutValuesEiPP17IAOrderedStorable, 
                       __ZN5BTree9RebalanceEP4PageS1_P9PageEntryj, __ZN5BTree9TotalSizeEv, 
                       __ZN5BTree9WritePageEjjjPKhj, __ZN5BTreeC2EP17IAOrderedStorablej, 
                       __ZN5BTreeD0Ev, __ZN5BTreeD1Ev, __ZN5BTreeD2Ev, 
                       __ZN5IADoc11DeepCopyingEPK10IAStorable, __ZN5IADoc13GetTextStreamEPK10__CFString, 
                       __ZN5IADoc15CopyDescriptionEv, __ZN5IADoc9GetDocKeyEh, 
                       __ZN5IADoc9RestoringEP12IAInputBlockPK10IAStorable, 
                       __ZN5IADoc9SetDocKeyEP17OpaqueIADocKeyRef, __ZN5IADocC1EPK10__CFStringS2_jjP17OpaqueIADocKeyRef, 
                       __ZN5IADocC1Ev, __ZN5IADocC2EPK10__CFStringS2_jjP17OpaqueIADocKeyRef, 
                       __ZN5IADocD0Ev, __ZN5IADocD1Ev, __ZN5IADocD2Ev, 
                       __ZN5IDDoc15CopyDescriptionEv, __ZN5IDDocD0Ev, __ZN5IDDocD1Ev, 
                       __ZN5IDDocD2Ev, __ZN5PhaseC1EjP8Progress, __ZN5PhaseC2EjP8Progress, 
                       __ZN5PhaseD1Ev, __ZN5TFMap10AddDocTextEP7IAIndexP21OpaqueIATextStreamRefP8Progressh, 
                       __ZN5TFMap13AddPrefixTermEP19OpaqueIASkipListRefP6IATerm, 
                       __ZN5TFMap7AddTermEP19OpaqueIASkipListRefP6IATerm, 
                       __ZN6IALockC1EP7IAMutex, __ZN6IALockD1Ev, __ZN6IATerm15CopyDescriptionEv, 
                       __ZN6IATermC1EPKhj, __ZN6IATermC2EPKhj, __ZN6IATermC2EPhjb, 
                       __ZN6IATermD0Ev, __ZN6IATermD1Ev, __ZN6IATermD2Ev, 
                       __ZN6IDTerm15CopyDescriptionEv, __ZN6IDTermC1EjP6IATerm, 
                       __ZN6IDTermD0Ev, __ZN6IDTermD1Ev, __ZN6IDTermD2Ev, 
                       __ZN6Scroll10InitializeEP4PageP9PageEntryS1_, __ZN6ScrollD0Ev, 
                       __ZN6ScrollD1Ev, __ZN6ScrollD2Ev, __ZN7DocInfo11DeepCopyingEPK10IAStorable, 
                       __ZN7DocInfo15CopyDescriptionEv, __ZN7DocInfo9RestoringEP12IAInputBlockPK10IAStorable, 
                       __ZN7DocInfoD0Ev, __ZN7DocInfoD1Ev, __ZN7DocInfoD2Ev, 
                       __ZN7IAIndex10InitializeEv, __ZN7IAIndex11RestoreRootEP12IAInputBlock, 
                       __ZN7IAIndex12ConstructingEP9IAStorageP10IAAnalysisjjj, 
                       __ZN7IAIndex12InitializingEv, __ZN7IAIndex16IANarrowInternalEl, 
                       __ZN7IAIndex4OpenEv, __ZN7IAIndex5FlushEv, __ZN7IAIndex6UpdateEv, 
                       __ZN7IAIndex7CompactEv, __ZN7IAIndex8RootSizeEv, 
                       __ZN7IAIndex9IAClassIDEv, __ZN7IAIndex9StoreRootEP13IAOutputBlock, 
                       __ZN7IAIndexC2Ev, __ZN7IAIndexD0Ev, __ZN7IAIndexD1Ev, 
                       __ZN7IAIndexD2Ev, __ZN7IAMutexD0Ev, __ZN7IAMutexD1Ev, 
                       __ZN8BTHeader7RestoreEP12IAInputBlock, __ZN8BitArray5CountEv, 
                       __ZN8BitArray5StoreEP13IAOutputBlock, __ZN8BitArray7RestoreEP12IAInputBlock, 
                       __ZN8BitArray8ClearAllEv, __ZN8BitArray9SetLengthEj, 
                       __ZN8BitArray9StoreSizeEv, __ZN8BitArrayC1Ej, __ZN8BitArrayC2Ej, 
                       __ZN8BitArrayD0Ev, __ZN8BitArrayD1Ev, __ZN8BitArrayD2Ev, 
                       __ZN8IAObject15CopyDescriptionEv, __ZN8IAObjectC2Ev, 
                       __ZN8IAObjectD0Ev, __ZN8IAObjectD1Ev, __ZN8IAObjectD2Ev, 
                       __ZN8IAStructC2Ev, __ZN8IAStructD0Ev, __ZN8IAStructD1Ev, 
                       __ZN8IAStructD2Ev, __ZN8Progress5CheckEv, __ZN8Progress8CompleteEv, 
                       __ZN8ProgressC1EmPFbfPvES0_, __ZN8TFVectorC1Ej, 
                       __ZN8TFVectorC2Ej, __ZN8TFVectorD0Ev, __ZN8TFVectorD1Ev, 
                       __ZN8TFVectorD2Ev, __ZN8TIAIndex10ClassToRefEPS_, 
                       __ZN8TIAIndex10GetRootKeyEjh, __ZN8TIAIndex10RefToClassEP16OpaqueIAIndexRef, 
                       __ZN8TIAIndex11GetDocKeyIDEP17OpaqueIADocKeyRefh, 
                       __ZN8TIAIndex11GetDocStateEP17OpaqueIADocKeyRef, 
                       __ZN8TIAIndex11GetIteratorEP17OpaqueIADocKeyRef, 
                       __ZN8TIAIndex11MakeRootKeyEP17OpaqueIADocKeyRefjh, 
                       __ZN8TIAIndex11RestoreRootEP12IAInputBlock, __ZN8TIAIndex12FlushUpdatesEv, 
                       __ZN8TIAIndex15GetDocTermCountEj, __ZN8TIAIndex16CopyDocKeyFromIDEj, 
                       __ZN8TIAIndex17GetTotalTermCountEv, __ZN8TIAIndex17SetBytesForUpdateEj, 
                       __ZN8TIAIndex22CopyInfoForDocumentIDsElPlPPK10__CFStringS0_Pj, 
                       __ZN8TIAIndex3AddEP17OpaqueIADocKeyRefP21OpaqueIATextStreamRefPK10__CFStringPK14__CFDictionaryh, 
                       __ZN8TIAIndex4OpenEP9IAStoragePK10__CFStringh, __ZN8TIAIndex5CloseEv, 
                       __ZN8TIAIndex5FlushEj, __ZN8TIAIndex6CreateEP9IAStoragePK10__CFStringjPP23OpaqueIATextAnalysisRefj, 
                       __ZN8TIAIndex7CompactEv, __ZN8TIAIndex7ResolveEP5IADoch, 
                       __ZN8TIAIndex8BuildDocEP17OpaqueIADocKeyRefhPh, 
                       __ZN8TIAIndex8RootSizeEv, __ZN8TIAIndex9RemoveDocEP17OpaqueIADocKeyRefh, 
                       __ZN8TIAIndex9StoreRootEP13IAOutputBlock, __ZN8TIAIndexC2EP9IAStoragePK10__CFStringhj, 
                       __ZN8TIAIndexD0Ev, __ZN8TIAIndexD1Ev, __ZN8TIAIndexD2Ev, 
                       __ZN8TermInfo11DeepCopyingEPK10IAStorable, __ZN8TermInfo15CopyDescriptionEv, 
                       __ZN8TermInfo19RestoringFromBufferEPPKhPK10IAStorable, 
                       __ZN8TermInfo9RestoringEP12IAInputBlockPK10IAStorable, 
                       __ZN8TermInfoC2EP6IATermj, __ZN8TermInfoC2Ev, __ZN8TermInfoD0Ev, 
                       __ZN8TermInfoD1Ev, __ZN8TermInfoD2Ev, __ZN9IAStorage10DeallocateEj, 
                       __ZN9IAStorage10IsWritableEv, __ZN9IAStorage12GetBlockSizeEj, 
                       __ZN9IAStorage13GetNamedBlockEPK10__CFString, __ZN9IAStorage14IsValidBlockIDEj, 
                       __ZN9IAStorage15GetBlockAddressEj, __ZN9IAStorage16RemoveNamedBlockEPK10__CFString, 
                       __ZN9IAStorage18AllocateNamedBlockEPK10__CFString, 
                       __ZN9IAStorage6CommitEh, __ZN9IAStorage7IsValidEv, 
                       __ZN9IAStorage7TOC_GetEPK10__CFString, __ZN9IAStorage7TOC_SetEPK10__CFStringj, 
                       __ZN9IAStorage8AllocateEv, __ZN9IAStorage8SetValidEb, 
                       __ZN9IAStorage9PreCommitEv, __ZN9IAStorageC1EP18OpaqueIAStorageRefh, 
                       __ZN9IAStorageC2EP18OpaqueIAStorageRefh, __ZN9IAStorageD0Ev, 
                       __ZN9IAStorageD1Ev, __ZN9IAStorageD2Ev, __ZN9PageCache10PurgeEntryEP14PageCacheEntry, 
                       __ZN9PageCache14MaybeWritePageEP14PageCacheEntry, 
                       __ZN9PageCache15WriteDirtyPagesEv, __ZN9PageCache3GetEjjb, 
                       __ZN9PageCache3PutEP4Pagejb, __ZN9PageCache5PurgeEv, 
                       __ZN9PageCache6AddMruEP14PageCacheEntry, __ZN9PageCache6DeleteEj, 
                       __ZN9PageCache6RemoveEj, __ZN9PageCache6UnlockEjjb, 
                       __ZN9PageCache7ResolveEj, __ZN9PageCache8PurgeLruEj, 
                       __ZN9PageCacheC1EP9IAStorageP17IAOrderedStorablejj, 
                       __ZN9PageCacheC2EP9IAStorageP17IAOrderedStorablejj, 
                       __ZN9PageCacheD0Ev, __ZN9PageCacheD1Ev, __ZN9PageCacheD2Ev, 
                       __ZN9TermIndex10AddDocInfoEP5IADocj, __ZN9TermIndex10GetDocInfoEPK5IADocb, 
                       __ZN9TermIndex10InitializeEv, __ZN9TermIndex11DeletingDocEP7DocInfo, 
                       __ZN9TermIndex11GetDocCountEv, __ZN9TermIndex11GetMaxDocIDEv, 
                       __ZN9TermIndex11GetTermInfoEP6IATermb, __ZN9TermIndex11MakeDocInfoEP5IADocj, 
                       __ZN9TermIndex11MergeDocIDsEPS_j, __ZN9TermIndex11RestoreRootEP12IAInputBlock, 
                       __ZN9TermIndex12ConstructingEP9IAStorageP10IAAnalysisjjj, 
                       __ZN9TermIndex12DeleteUpdateEP5IADoc, __ZN9TermIndex12FlushUpdatesEv, 
                       __ZN9TermIndex12GetTermCountEv, __ZN9TermIndex12InitializingEv, 
                       __ZN9TermIndex12IsDocIndexedEPK5IADoc, __ZN9TermIndex12MakeTermInfoEP6IATermj, 
                       __ZN9TermIndex12MergeDocCostEv, __ZN9TermIndex12MergeDocInfoEP7DocInfoS1_PS_Pj, 
                       __ZN9TermIndex12StoreUpdatesEv, __ZN9TermIndex13CopyDocIDInfoEjPPK10__CFStringPj, 
                       __ZN9TermIndex13MergeDocInfosEPP7IAIndexPjP8Progress, 
                       __ZN9TermIndex13MergeTermCostEv, __ZN9TermIndex13MergeTermInfoEP8TermInfoS1_PS_j, 
                       __ZN9TermIndex13RemoveUpdatesEv, __ZN9TermIndex13ResetPostingsEP8TermInfo, 
                       __ZN9TermIndex13UpdateDocInfoEP7DocInfoP8TFVector, 
                       __ZN9TermIndex14AddDocInternalEP5IADocjP21OpaqueIATextStreamRefPK10__CFStringPK14__CFDictionary, 
                       __ZN9TermIndex14GetDocIteratorEPK5IADoc, __ZN9TermIndex14GetDocIteratorEv, 
                       __ZN9TermIndex14InvertDocumentEP5IADocP21OpaqueIATextStreamRefPj, 
                       __ZN9TermIndex14MergeTermInfosEPP7IAIndexPjP8Progress, 
                       __ZN9TermIndex14RestoreUpdatesEv, __ZN9TermIndex14UpdateTermInfoEP8TermInfoP11FreqPostingjj, 
                       __ZN9TermIndex15CopyTermOffsetsEjj, __ZN9TermIndex15FinishingUpdateEv, 
                       __ZN9TermIndex15FlushDocUpdatesEP8Progress, __ZN9TermIndex15GetDocTermCountEj, 
                       __ZN9TermIndex16DeletedDocUpdateEj, __ZN9TermIndex16DeletingPostingsEP6IATermj, 
                       __ZN9TermIndex16FlushTermUpdatesEP8Progress, __ZN9TermIndex16IANarrowInternalEl, 
                       __ZN9TermIndex16ValidateDocInfosEb, __ZN9TermIndex17DocInDocUpdateSetEP5IADocPj, 
                       __ZN9TermIndex17GetUpdateDocCountEv, __ZN9TermIndex17MaybeFlushUpdatesEv, 
                       __ZN9TermIndex17ValidateTermInfosEb, __ZN9TermIndex18AddDocTermInternalEjPvS0_, 
                       __ZN9TermIndex18GetDocInfoIteratorEPK5IADoc, __ZN9TermIndex18GetDocInfoIteratorEv, 
                       __ZN9TermIndex18ShouldMergeUpdatesEf, __ZN9TermIndex19GetTermInfoIteratorEP6IATerm, 
                       __ZN9TermIndex19GetTermInfoIteratorEv, __ZN9TermIndex20FlushTermUpdatesBulkEP8Progress, 
                       __ZN9TermIndex20InvertTokensCallbackEPKhlPKtl7CFRangemPv, 
                       __ZN9TermIndex20StoreUpdatesInternalEPP10TermUpdatej, 
                       __ZN9TermIndex22CopyInfoForDocumentIDsElPlPPK10__CFStringS0_Pj, 
                       __ZN9TermIndex25InvertDocumentToUpdateSetEP5IADocP21OpaqueIATextStreamRefPj, 
                       __ZN9TermIndex28MetadataInvertTokensCallbackEPKvS1_Pv, 
                       __ZN9TermIndex29FlushTermUpdatesMergeCallbackEPPvP17IAOrderedStorableS0_, 
                       __ZN9TermIndex30FlushTermUpdatesCancelCallbackEPv, 
                       __ZN9TermIndex31FlushTermUpdatesCompareCallbackEPvPKh, 
                       __ZN9TermIndex32DefaultInvertDocumentToUpdateSetEP23OpaqueIATextAnalysisRefP5IADocP21OpaqueIATextStreamRefPK10__CFStringPK14__CFDictionaryPj, 
                       __ZN9TermIndex4OpenEv, __ZN9TermIndex5FlushEv, __ZN9TermIndex5MergeEPP7IAIndexj, 
                       __ZN9TermIndex5PurgeEv, __ZN9TermIndex6AddDocEP5IADoc, 
                       __ZN9TermIndex7GetNormEv, __ZN9TermIndex8GetIDDocEj, 
                       __ZN9TermIndex8NewDocIDEv, __ZN9TermIndex8RootSizeEv, 
                       __ZN9TermIndex9DeleteDocEPK5IADoc, __ZN9TermIndex9GetIDTermEj, 
                       __ZN9TermIndex9GetTFMapsEPP5IADocjPP5TFMapP8Progress, 
                       __ZN9TermIndex9IAClassIDEv, __ZN9TermIndex9RenameDocEPK5IADocS2_, 
                       __ZN9TermIndex9StoreRootEP13IAOutputBlock, __ZN9TermIndexC2Ev, 
                       __ZN9TermIndexD0Ev, __ZN9TermIndexD1Ev, __ZN9TermIndexD2Ev, 
                       __ZN9UInt32Set3PopEPj, __ZN9UInt32Set3PutEj, __ZN9UInt32Set5CountEv, 
                       __ZN9UInt32Set6MemberEj, __ZN9UInt32Set6RemoveEj, 
                       __ZN9UInt32SetC1EhPFsPKvS1_PvE, __ZN9UInt32SetC2EhPFsPKvS1_PvE, 
                       __ZN9UInt32SetD0Ev, __ZN9UInt32SetD1Ev, __ZN9UInt32SetD2Ev, 
                       __ZNK10IAStorable13CompareBufferEPKh, __ZNK10IAStorable17RestoreFromBufferEPPKh, 
                       __ZNK10IAStorable4SkipEPKh, __ZNK10IDDocCount4SkipEPKh, 
                       __ZNK10IDDocCount5StoreEP13IAOutputBlock, __ZNK10IDDocCount7RestoreEP12IAInputBlock, 
                       __ZNK10IDDocCount8DeepCopyEv, __ZNK10IDDocCount9StoreSizeEv, 
                       __ZNK11TermOffsets12StoreOffsetsEP13IAOutputBlock, 
                       __ZNK11TermOffsets3GetEj, __ZNK11TermOffsets5CountEv, 
                       __ZNK11TermOffsets5StoreEP13IAOutputBlock, __ZNK11TermOffsets7RestoreEP12IAInputBlock, 
                       __ZNK11TermOffsets8DeepCopyEv, __ZNK11TermOffsets9StoreSizeEv, 
                       __ZNK13ProximityInfo5StoreEP13IAOutputBlock, __ZNK13ProximityInfo7CompareEPK17IAOrderedStorable, 
                       __ZNK13ProximityInfo7RestoreEP12IAInputBlock, __ZNK13ProximityInfo8DeepCopyEv, 
                       __ZNK13ProximityInfo9StoreSizeEv, __ZNK16InvertedTermInfo17RestoreFromBufferEPPKh, 
                       __ZNK16InvertedTermInfo4SkipEPKh, __ZNK16InvertedTermInfo5StoreEP13IAOutputBlock, 
                       __ZNK16InvertedTermInfo7RestoreEP12IAInputBlock, 
                       __ZNK16InvertedTermInfo8DeepCopyEv, __ZNK16InvertedTermInfo9StoreSizeEv, 
                       __ZNK17IAOrderedStorable5EqualEPKS_, __ZNK17IAOrderedStorable8LessThanEPKS_, 
                       __ZNK19TIADocPropertyEntry5EqualEPK17IAOrderedStorable, 
                       __ZNK19TIADocPropertyEntry5StoreEP13IAOutputBlock, 
                       __ZNK19TIADocPropertyEntry7RestoreEP12IAInputBlock, 
                       __ZNK19TIADocPropertyEntry8DeepCopyEv, __ZNK19TIADocPropertyEntry8LessThanEPK17IAOrderedStorable, 
                       __ZNK19TIADocPropertyEntry9StoreSizeEv, __ZNK21InvertedBlockTermInfo5StoreEP13IAOutputBlock, 
                       __ZNK21InvertedBlockTermInfo8DeepCopyEv, __ZNK21InvertedBlockTermInfo9StoreSizeEv, 
                       __ZNK22TIADocPropertyEntryNew5StoreEP13IAOutputBlock, 
                       __ZNK22TIADocPropertyEntryNew7RestoreEP12IAInputBlock, 
                       __ZNK22TIADocPropertyEntryNew8DeepCopyEv, __ZNK22TIADocPropertyEntryNew9StoreSizeEv, 
                       __ZNK5IADoc4SkipEPKh, __ZNK5IADoc5EqualEPK17IAOrderedStorable, 
                       __ZNK5IADoc5StoreEP13IAOutputBlock, __ZNK5IADoc7CompareEPK17IAOrderedStorable, 
                       __ZNK5IADoc7RestoreEP12IAInputBlock, __ZNK5IADoc8DeepCopyEv, 
                       __ZNK5IADoc8LessThanEPK17IAOrderedStorable, __ZNK5IADoc9StoreSizeEv, 
                       __ZNK5IDDoc4SkipEPKh, __ZNK5IDDoc5EqualEPK17IAOrderedStorable, 
                       __ZNK5IDDoc5StoreEP13IAOutputBlock, __ZNK5IDDoc7CompareEPK17IAOrderedStorable, 
                       __ZNK5IDDoc7RestoreEP12IAInputBlock, __ZNK5IDDoc8DeepCopyEv, 
                       __ZNK5IDDoc8LessThanEPK17IAOrderedStorable, __ZNK5IDDoc9StoreSizeEv, 
                       __ZNK6IATerm15EqualNonVirtualEPK17IAOrderedStorable, 
                       __ZNK6IATerm17RestoreFromBufferEPPKh, __ZNK6IATerm18LessThanNonVirtualEPK17IAOrderedStorable, 
                       __ZNK6IATerm4SkipEPKh, __ZNK6IATerm5EqualEPK17IAOrderedStorable, 
                       __ZNK6IATerm5StoreEP13IAOutputBlock, __ZNK6IATerm7CompareEPK17IAOrderedStorable, 
                       __ZNK6IATerm7RestoreEP12IAInputBlock, __ZNK6IATerm8DeepCopyEv, 
                       __ZNK6IATerm8LessThanEPK17IAOrderedStorable, __ZNK6IATerm9StoreSizeEv, 
                       __ZNK6IDTerm5EqualEPK17IAOrderedStorable, __ZNK6IDTerm5StoreEP13IAOutputBlock, 
                       __ZNK6IDTerm7CompareEPK17IAOrderedStorable, __ZNK6IDTerm7RestoreEP12IAInputBlock, 
                       __ZNK6IDTerm8DeepCopyEv, __ZNK6IDTerm8LessThanEPK17IAOrderedStorable, 
                       __ZNK6IDTerm9StoreSizeEv, __ZNK7DocInfo5EqualEPK17IAOrderedStorable, 
                       __ZNK7DocInfo5StoreEP13IAOutputBlock, __ZNK7DocInfo7CompareEPK17IAOrderedStorable, 
                       __ZNK7DocInfo7RestoreEP12IAInputBlock, __ZNK7DocInfo8DeepCopyEv, 
                       __ZNK7DocInfo8LessThanEPK17IAOrderedStorable, __ZNK7DocInfo9StoreSizeEv, 
                       __ZNK7IAIndex16GetQueryAnalysisEv, __ZNK8BTHeader5StoreEP13IAOutputBlock, 
                       __ZNK8TermInfo13CompareBufferEPKh, __ZNK8TermInfo17RestoreFromBufferEPPKh, 
                       __ZNK8TermInfo4SkipEPKh, __ZNK8TermInfo5EqualEPK17IAOrderedStorable, 
                       __ZNK8TermInfo5StoreEP13IAOutputBlock, __ZNK8TermInfo7CompareEPK17IAOrderedStorable, 
                       __ZNK8TermInfo7RestoreEP12IAInputBlock, __ZNK8TermInfo8DeepCopyEv, 
                       __ZNK8TermInfo8LessThanEPK17IAOrderedStorable, __ZNK8TermInfo9StoreSizeEv, 
                       __ZNK9TIDRename5StoreEP13IAOutputBlock, __ZNK9TIDRename7RestoreEP12IAInputBlock, 
                       __ZNK9TermIndex16GetProtoTermInfoEv, __ZTC16TIAInvertedIndex0_13InvertedIndex, 
                       __ZTI10FreqPSImpl, __ZTI10IAAnalysis, __ZTI10IARefCount, 
                       __ZTI10IAStorable, __ZTI10IDDocCount, __ZTI11TermOffsets, 
                       __ZTI12DocUpdateSet, __ZTI13BTreeIterator, __ZTI13IADocIterator, 
                       __ZTI13IAObjRefCount, __ZTI13IAOutputBlock, __ZTI13IATokenStream, 
                       __ZTI13InvertedIndex, __ZTI13ProximityInfo, __ZTI13TIDocIterator, 
                       __ZTI14IADefaultMutex, __ZTI14PageCacheEntry, __ZTI16InvertedTermInfo, 
                       __ZTI16TIAInvertedIndex, __ZTI17IAOrderedStorable, 
                       __ZTI19IAMemoryOutputBlock, __ZTI19TIADocPropertyEntry, 
                       __ZTI19TIAIndexDocIterator, __ZTI19TermInfoStreamQueue, 
                       __ZTI20IAOrderedStorableSet, __ZTI21InvertedBlockTermInfo, 
                       __ZTI22TIADocPropertyEntryNew, __ZTI25IAOrderedStorableIterator, 
                       __ZTI4Leaf, __ZTI4Page, __ZTI5BTree, __ZTI5IADoc, 
                       __ZTI5IDDoc, __ZTI6FreqPS, __ZTI6IATerm, __ZTI6IDTerm, 
                       __ZTI6Scroll, __ZTI7DocInfo, __ZTI7IAIndex, __ZTI7IAMutex, 
                       __ZTI8BitArray, __ZTI8IAObject, __ZTI8IAStruct, 
                       __ZTI8TFVector, __ZTI8TIAIndex, __ZTI8TermInfo, 
                       __ZTI9IAStorage, __ZTI9PageCache, __ZTI9TIDRename, 
                       __ZTI9TermIndex, __ZTI9UInt32Set, __ZTISt9bad_alloc, 
                       __ZTS10FreqPSImpl, __ZTS10IAAnalysis, __ZTS10IARefCount, 
                       __ZTS10IAStorable, __ZTS10IDDocCount, __ZTS11TermOffsets, 
                       __ZTS12DocUpdateSet, __ZTS13BTreeIterator, __ZTS13IADocIterator, 
                       __ZTS13IAObjRefCount, __ZTS13IAOutputBlock, __ZTS13IATokenStream, 
                       __ZTS13InvertedIndex, __ZTS13ProximityInfo, __ZTS13TIDocIterator, 
                       __ZTS14IADefaultMutex, __ZTS14PageCacheEntry, __ZTS16InvertedTermInfo, 
                       __ZTS16TIAInvertedIndex, __ZTS17IAOrderedStorable, 
                       __ZTS19IAMemoryOutputBlock, __ZTS19TIADocPropertyEntry, 
                       __ZTS19TIAIndexDocIterator, __ZTS19TermInfoStreamQueue, 
                       __ZTS20IAOrderedStorableSet, __ZTS21InvertedBlockTermInfo, 
                       __ZTS22TIADocPropertyEntryNew, __ZTS25IAOrderedStorableIterator, 
                       __ZTS4Leaf, __ZTS4Page, __ZTS5BTree, __ZTS5IADoc, 
                       __ZTS5IDDoc, __ZTS6FreqPS, __ZTS6IATerm, __ZTS6IDTerm, 
                       __ZTS6Scroll, __ZTS7DocInfo, __ZTS7IAIndex, __ZTS7IAMutex, 
                       __ZTS8BitArray, __ZTS8IAObject, __ZTS8IAStruct, 
                       __ZTS8TFVector, __ZTS8TIAIndex, __ZTS8TermInfo, 
                       __ZTS9IAStorage, __ZTS9PageCache, __ZTS9TIDRename, 
                       __ZTS9TermIndex, __ZTS9UInt32Set, __ZTSSt9bad_alloc, 
                       __ZTT16TIAInvertedIndex, __ZTV10FreqPSImpl, __ZTV10IAAnalysis, 
                       __ZTV10IARefCount, __ZTV10IAStorable, __ZTV10IDDocCount, 
                       __ZTV11TermOffsets, __ZTV12DocUpdateSet, __ZTV13BTreeIterator, 
                       __ZTV13IADocIterator, __ZTV13IAObjRefCount, __ZTV13IAOutputBlock, 
                       __ZTV13IATokenStream, __ZTV13InvertedIndex, __ZTV13ProximityInfo, 
                       __ZTV13TIDocIterator, __ZTV14IADefaultMutex, __ZTV14PageCacheEntry, 
                       __ZTV16InvertedTermInfo, __ZTV16TIAInvertedIndex, 
                       __ZTV17IAOrderedStorable, __ZTV19IAMemoryOutputBlock, 
                       __ZTV19TIADocPropertyEntry, __ZTV19TIAIndexDocIterator, 
                       __ZTV19TermInfoStreamQueue, __ZTV20IAOrderedStorableSet, 
                       __ZTV21InvertedBlockTermInfo, __ZTV22TIADocPropertyEntryNew, 
                       __ZTV25IAOrderedStorableIterator, __ZTV4Leaf, __ZTV4Page, 
                       __ZTV5BTree, __ZTV5IADoc, __ZTV5IDDoc, __ZTV6IATerm, 
                       __ZTV6IDTerm, __ZTV6Scroll, __ZTV7DocInfo, __ZTV7IAIndex, 
                       __ZTV7IAMutex, __ZTV8BitArray, __ZTV8IAObject, __ZTV8IAStruct, 
                       __ZTV8TFVector, __ZTV8TIAIndex, __ZTV8TermInfo, 
                       __ZTV9IAStorage, __ZTV9PageCache, __ZTV9TIDRename, 
                       __ZTV9TermIndex, __ZTV9UInt32Set, __ZTv0_n144_N13InvertedIndex16IANarrowInternalEl, 
                       __ZTv0_n160_N13InvertedIndex8RootSizeEv, __ZTv0_n168_N13InvertedIndex9StoreRootEP13IAOutputBlock, 
                       __ZTv0_n176_N13InvertedIndex11RestoreRootEP12IAInputBlock, 
                       __ZTv0_n184_N13InvertedIndex12InitializingEv, __ZTv0_n200_N13InvertedIndex11GetTermInfoEP6IATermb, 
                       __ZTv0_n208_N13InvertedIndex17ValidateTermInfosEb, 
                       __ZTv0_n232_N13InvertedIndex12MakeTermInfoEP6IATermj, 
                       __ZTv0_n240_N13InvertedIndex14UpdateTermInfoEP8TermInfoP11FreqPostingjj, 
                       __ZTv0_n248_N13InvertedIndex13MergeTermInfoEP8TermInfoS1_P9TermIndexj, 
                       __ZTv0_n24_N13InvertedIndexD0Ev, __ZTv0_n24_N13InvertedIndexD1Ev, 
                       __ZTv0_n24_N16TIAInvertedIndexD0Ev, __ZTv0_n24_N16TIAInvertedIndexD1Ev, 
                       __ZTv0_n256_N13InvertedIndex11MergeDocIDsEP9TermIndexj, 
                       __ZTv0_n264_N13InvertedIndex13MergeTermCostEv, __ZTv0_n304_N13InvertedIndex15FinishingUpdateEv, 
                       __ZTv0_n312_N13InvertedIndex11DeletingDocEP7DocInfo, 
                       __ZTv0_n320_N13InvertedIndex16DeletingPostingsEP6IATermj, 
                       __ZTv0_n336_N13InvertedIndex13ResetPostingsEP8TermInfo, 
                       __ZTv0_n40_N13InvertedIndex10InitializeEv, __ZTv0_n48_N13InvertedIndex4OpenEv, 
                       __ZTv0_n96_N13InvertedIndex7CompactEv, __ZZ14LoggingEnabledvE7sInited, 
                       __ZZ14LoggingEnabledvE8sEnabled, __ZZL10SKGetMutexvE10sInitMutex, 
                       __ZZL11InitSKIndexvE17sSKIndexClassInfo, __ZZL11InitSKIndexvE7sInited, 
                       __ZZL12InitSKSearchvE18sSKSearchClassInfo, __ZZL12InitSKSearchvE7sInited, 
                       __ZdlPv, __Znwm, '___16-[CXQuery start]_block_invoke', 
                       '___16-[CXQuery start]_block_invoke_2', '___17-[CXQuery cancel]_block_invoke', 
                       '___21+[CXQuery initialize]_block_invoke', ____CXInit_block_invoke, 
                       ____CXQueryClassInit_block_invoke, ____CXQueryNodeClassInit_block_invoke, 
                       ____IATaskCreate_block_invoke, ___block_descriptor_tmp, 
                       ___block_descriptor_tmp, ___block_descriptor_tmp, 
                       ___block_descriptor_tmp, ___block_descriptor_tmp.27, 
                       ___block_descriptor_tmp.34, ___block_descriptor_tmp.37, 
                       ___block_descriptor_tmp.75, ___block_literal_global, 
                       ___block_literal_global, ___block_literal_global, 
                       ___block_literal_global.76, ___copy_helper_block_, 
                       ___copy_helper_block_.32, ___copy_helper_block_.35, 
                       ___destroy_helper_block_, ___destroy_helper_block_.33, 
                       ___destroy_helper_block_.36, __normalizedTokenizerCallback, 
                       __tokenizerGetTokens, _ci_log, _ci_log.sInited, 
                       _cx_complete_routine, _gAIATAllocator, _gAIATReportErrorCallback, 
                       _gCXLogLevel, _gIAPageSize, _gIndexTokenizer, _gIndexTokenizerLock, 
                       _gLoggingBlock, _gSKGlobalFlags, _gSearchTokenizer, 
                       _gSearchTokenizerLock, _g_log_level, _hex_str, _icu_build_pattern_key, 
                       _initialize.onceToken, _initializeIAGlobalMutex, 
                       _initializeIAGlobalMutexOnce, _kCXQueryOptionValueListKey, 
                       _kIAIndexDefaultAnalysis, _kIAStoreStreamFileType, 
                       _kSKMaximumTerms, _kSKProximityIndexing, _sASCIIEncoding, 
                       _sASCIIEncoding, _sCXQueryNodeTypeID, _sCXQueryTypeID, 
                       _sMutex, _sSKDocumentTypeID, _sTextAnalysisInited, 
                       _sTextAnalysisRegistry, _s_query_queue, _s_result_queue, 
                       _utf16_to_utf8 ]
    weak-def-symbols: [ ___clang_call_terminate, __ZN10DocInfoKeyD0Ev, 
                        __ZN10DocInfoKeyD1Ev, __ZN10FreqPSImpl13NeedsUpdatingEv, 
                        __ZN10IDDocCountD0Ev, __ZN10IDDocCountD1Ev, __ZN11DocIDBitMap3GetEj, 
                        __ZN11DocIDBitMap3SetEj, __ZN11DocIDBitMapD2Ev, 
                        __ZN11TermInfoKeyD0Ev, __ZN11TermInfoKeyD1Ev, __ZN13IteratorFrameD0Ev, 
                        __ZN13IteratorFrameD1Ev, __ZN13IteratorFrameD2Ev, 
                        __ZN13LevelInfoList24LevelInfoListDisposeItemEPv, 
                        __ZN13LevelInfoListD0Ev, __ZN13LevelInfoListD1Ev, 
                        __ZN13QueryTermInfoD0Ev, __ZN13QueryTermInfoD1Ev, 
                        __ZN13QueryTermInfoD2Ev, __ZN14BulkUpdateList25BulkUpdateListDisposeItemEPv, 
                        __ZN14BulkUpdateList26BulkUpdateEntrySortCompareEPKvS1_, 
                        __ZN14BulkUpdateListD0Ev, __ZN14BulkUpdateListD1Ev, 
                        __ZN14IADefaultMutexC2Ev, __ZN14IADefaultMutexD0Ev, 
                        __ZN14IADefaultMutexD1Ev, __ZN14IADefaultMutexD2Ev, 
                        __ZN14LevelInfoEntry6AppendEP15BulkUpdateEntry, 
                        __ZN16TIAInvertedIndex11RestoreRootEP12IAInputBlock, 
                        __ZN16TIAInvertedIndex12FlushUpdatesEv, __ZN16TIAInvertedIndex12InitializingEv, 
                        __ZN16TIAInvertedIndex8RootSizeEv, __ZN16TIAInvertedIndex9StoreRootEP13IAOutputBlock, 
                        __ZN19IAMemoryOutputBlock11GetPositionEv, __ZN19IAMemoryOutputBlock5ResetEv, 
                        __ZN19TIADocPropertyEntry7ResolveEP9IAStorage, 
                        __ZN21InvertedBlockTermInfoD0Ev, __ZN21InvertedBlockTermInfoD1Ev, 
                        __ZN22SKDocIDScorePostingSet10MergeToSetEv, __ZN22SKDocIDScorePostingSet12MergeToArrayEv, 
                        __ZN22SKDocIDScorePostingSet15AppendSetValuesEPKvPv, 
                        __ZN22SKDocIDScorePostingSet3AddEP19SKDocIDScorePosting, 
                        __ZN22SKDocIDScorePostingSet6AppendEP19SKDocIDScorePosting, 
                        __ZN22SKDocIDScorePostingSetD2Ev, __ZN22TIADocPropertyEntryNewD0Ev, 
                        __ZN22TIADocPropertyEntryNewD1Ev, __ZN4LeafD0Ev, 
                        __ZN4LeafD1Ev, __ZN7PtrList5ClearEv, __ZN7PtrList6AppendEPv, 
                        __ZN7PtrListD0Ev, __ZN7PtrListD1Ev, __ZN7PtrListD2Ev, 
                        __ZN9IATermKeyD0Ev, __ZN9IATermKeyD1Ev, __ZN9TIDRenameD0Ev, 
                        __ZN9TIDRenameD1Ev, __ZN9TermIndex7SetNameEPK10__CFString, 
                        __ZNK13ProximityInfo5EqualEPK17IAOrderedStorable, 
                        __ZNK13ProximityInfo8LessThanEPK17IAOrderedStorable, 
                        __ZNK17IAOrderedStorable7CompareEPKS_, __ZNK9TIDRename5EqualEPK17IAOrderedStorable, 
                        __ZNK9TIDRename7CompareEPK17IAOrderedStorable, 
                        __ZNK9TIDRename8DeepCopyEv, __ZNK9TIDRename8LessThanEPK17IAOrderedStorable, 
                        __ZNK9TIDRename9StoreSizeEv, __ZTI10DocInfoKey, 
                        __ZTI11TermInfoKey, __ZTI13IteratorFrame, __ZTI13LevelInfoList, 
                        __ZTI13QueryTermInfo, __ZTI14BulkUpdateList, __ZTI7PtrList, 
                        __ZTI9IATermKey, __ZTS10DocInfoKey, __ZTS11TermInfoKey, 
                        __ZTS13IteratorFrame, __ZTS13LevelInfoList, __ZTS13QueryTermInfo, 
                        __ZTS14BulkUpdateList, __ZTS7PtrList, __ZTS9IATermKey, 
                        __ZTV10DocInfoKey, __ZTV11TermInfoKey, __ZTV13IteratorFrame, 
                        __ZTV13LevelInfoList, __ZTV13QueryTermInfo, __ZTV14BulkUpdateList, 
                        __ZTV7PtrList, __ZTV9IATermKey, __ZThn8_N14IADefaultMutexD0Ev, 
                        __ZThn8_N14IADefaultMutexD1Ev, __ZTv0_n160_N16TIAInvertedIndex8RootSizeEv, 
                        __ZTv0_n168_N16TIAInvertedIndex9StoreRootEP13IAOutputBlock, 
                        __ZTv0_n176_N16TIAInvertedIndex11RestoreRootEP12IAInputBlock, 
                        __ZTv0_n184_N16TIAInvertedIndex12InitializingEv, 
                        __ZTv0_n328_N16TIAInvertedIndex12FlushUpdatesEv ]
    objc-classes:    [ _CXQuery, _CXIndex ]
    objc-ivars:      [ _CXQuery._siQuery, _CXIndex._cancel, _CXIndex._path, 
                       _CXIndex._skRef, _CXQuery._batch, _CXQuery._batchOffset, 
                       _CXQuery._batchValues, _CXQuery._canceled, _CXQuery._complete, 
                       _CXQuery._index, _CXQuery._job, _CXQuery._resultQueue, 
                       _CXQuery._semaphore, _CXQuery._started, _CXQuery._waiting ]
...
