---
archs:           [ armv7, armv7s, arm64 ]
platform:        ios
install-name:    /System/Library/PrivateFrameworks/ProVideo.framework/ProVideo
current-version: 147.6.81
compatibility-version: 1.0.0
exports:
  - archs:            [ armv7, armv7s, arm64 ]
    symbols:          [ _AppStartupActionPreferenceKey,
                        _FxPlugErrorDomain, _HGDigestAdd,
                        _HGFree, _HGGetTBC,
                        _HGMalloc, _HGRectInfinite,
                        _HGRectfInfinite, _HGTestAndAddI32,
                        _InkEnableAppGesturesPreferenceKey, _InkEnableInkInAirPreferenceKey,
                        _InkInputMethodPreferenceKey, _InkTriggerPreferenceKey,
                        _Motion3DTextExtrusionChannelAttributeName, _Motion3DTextLayerDictionary_LayerChannelSetterKey,
                        _Motion3DTextLayerDictionary_LayerClassKey, _Motion3DTextLayerDictionary_LayerTypeKey,
                        _Motion3DTextMaterialChannelSetterAttributeName, _Motion3DTextMaterialDictionary_MaterialChannelSetterKey,
                        _Motion3DTextMaterialDictionary_MaterialFlagsKey, _OZChannelFolderScope,
                        _OZDocumentScope, _OZInspectorScope,
                        _OZMsgTracerEnableLogging, _OZMsgTracerLog3rdPartyFxPlugUsage,
                        _OZMsgTracerLogFeatureUsage, _OZMsgTracerLogMotionEffectUsageV2,
                        _OZMsgTracerLogShareDestination, _OZMsgTracerLogTextLanguage,
                        _OZXCleanup, _OZXCopyDocument,
                        _OZXFreeAudioBuffer, _OZXFreeDocument,
                        _OZXGetAudio, _OZXGetDocInfo,
                        _OZXGetDropZoneFootage, _OZXGetDropZoneIndex,
                        _OZXGetFrameAsBitmap, _OZXGetMarker,
                        _OZXGetObjectDisplayName, _OZXGetURLInfo,
                        _OZXInitializeWithPath, _OZXIsValidFootage,
                        _OZXMarkerCount, _OZXOpenDocumentMedia,
                        _OZXSetAbortFunction, _OZXSetDropZoneCrop,
                        _OZXSetDropZoneOpacityAnimation, _OZXSetDropZonePanAtTime,
                        _OZXSetDropZoneScaleAnimation, _OZXSetDropZoneTranslation,
                        _OZXSetDropZoneTranslationAtTime, _OZXSetDropZoneZoomAtTime,
                        _OZXSetShapeVertices, _OZXVersion,
                        _PCInDebugger, _PCPrintIndent,
                        _PCPrintStackStart, _PCPrintVA,
                        _PGLCreateSharedEAGLContext, _PGLMasterEAGLContext,
                        _PROPlugBundleDynamicRegistration, _PROPlugBundlePlugInList,
                        _PROPlugErrorDomain, _PROPlugGroupUUID,
                        _PROPlugInDisplayNameKey, _PROPlugInHelpURLKey,
                        _PROPlugInImplementedProtocolsKey, _PROPlugInLocalizationTableKey,
                        _PROPlugInVendorNameKey, _PROPlugProtocolName,
                        _PVVideoCompositingContextBufferFormatKey, _PVVideoCompositingContextDeviceIDKey,
                        _PVVideoCompositingContextDynamicPlaybackKey, _PVVideoCompositingContextGPURenderAPIKey,
                        _PVVideoCompositingContextInstructionGraphDumpLevelKey, _PVVideoCompositingContextPMRLevelKey,
                        _PVVideoCompositingContextPerfStatsLogLevelKey, _PVVideoCompositingContextShaderFormatKey,
                        _PVVideoCompositingContextStatsFlagKey, _PVVideoCompositingContextStatsWarmUpKey,
                        _PVVideoCompositingContextTileSizeKey, _PVVideoCompositingContextTraceMetalLevelKey,
                        _ProVideoVersionString, _TimeDisplayModePreferenceKey,
                        __Z10MyCG_CloseRK19PMFormatDescriptionPv, __Z10Vec2fLessYRK5Vec2fS1_,
                        __Z10liIsConvexRK10LiChannelTI9PCVector2IdEE, __Z10solveCubicddddPiPd,
                        __Z11HGGLisIntel14HGGLContextPtr, __Z11HGRectScale7HGRectfff,
                        __Z11MyCG_CreateRK18PMVideoDescriptionRK18PMAudioDescriptionP19PMFormatDescriptionRK5PCURLPPv, __Z11_CheckRangeiiiPKcS0_i,
                        __Z11determinantRK10MGenMatrixIdE, __Z11solveLinearddPiPd,
                        __Z12HGRandomInitPff, __Z12HGRectIsZero6HGRect,
                        __Z12HGRectMake4iiiii, __Z12MyCG_CanReadP17PMPluginInterfaceRK5PCURLRK8PCString,
                        __Z12MyCG_GetNameP17PMPluginInterface, __Z12PCLoadBitmapPK7__CFURL,
                        __Z12circumscribeRNSt3__16vectorI9PCVector2IdENS_9allocatorIS2_EEEERS2_Rd, __Z12is_clockwiseRK10LiChannelTI9PCVector2IdEE,
                        __Z12satMapRegionN8ProShade4VarTINS_4NodeEEES2_NS_7SamplerES2_, __Z13HGFormat_repr8HGFormat,
                        __Z13HGRectIsEqual6HGRectS_, __Z13MyCG_AddFrameRK19PMFormatDescriptionRK5PCURLP8PCBitmapPv,
                        __Z13MyCG_GetFrameRK19PMFormatDescriptionRK5PCURLRK7FigTimeR14PMFrameRequestRP12CGColorSpaceR5HGRefI6HGNodeEP14PCMatrix44TmplIdEPv, __Z13OZGetAssetURLP12NSDictionary,
                        __Z13PCWriteBitmapRK8PCBitmapPKc, __Z13PGCreateImageRK17PCImageAttributes,
                        __Z13PGFindContextRKN5ProGL2GLE, __Z13PMCacheBitmapRK9PCHash128RKNSt3__110shared_ptrI8PCBitmapEEd,
                        __Z13PerfConfigurePKcyyyyb, __Z13build_contextP8HGBitmapS0_,
                        __Z13cropToPolygonP10HGRendererRK5HGRefI6HGNodeERK14LiImagePolygonbS5_11PCBlendModefdbb, __Z13isoWardShaderR17LiLightPropertiesRKN8ProShade4VarTINS1_4NodeEEE,
                        __Z13showHideParamP13OZChannelBaseb, __Z13zIntersectionRK9PCVector4IdES2_,
                        __Z14HGRectIntegral7HGRectf, __Z14OZGetAssetNameP12NSDictionary,
                        __Z14OZGetNewFontIDPK10__CFString, __Z14PCCreateBitmapjjN13PCPixelFormat12ChannelOrderE,
                        __Z14PCCreateBitmapjjN13PCPixelFormat12ChannelOrderERK18PCColorSpaceHandleb, __Z14PGInitTexturesv,
                        __Z14PMCreateBitmapjjRK18PCColorSpaceHandle, __Z14TXGetNewFontIDPK10__CFString,
                        __Z14fxSimpleBorderRK5HGRefI6HGNodeERK6PCRectIdEffRK9PCVector4IdERK14PCMatrix44TmplIdE18FxSimpleBorderType, __Z14isoPhongShaderR17LiLightPropertiesRKN8ProShade4VarTINS1_4NodeEEE,
                        __Z14pointInPolygonRK9PCVector2IdEPS0_i, __Z14solveQuadraticdddPiPd,
                        __Z15CTToTXAlignmentj, __Z15FramesToFigTimedPK7OZSceneP14FFMotionEffect,
                        __Z15HGRectTranslate7HGRectfff, __Z15LiPlaneEquationRK9PCVector3IdES2_,
                        __Z15OZGetAssetWidthP12NSDictionary, __Z15OZXSetSeedValuePvj,
                        __Z15PCComparePlanesRK9PCVector4IdES2_, __Z15PCEstimateGammaRK12PCICCProfile,
                        __Z15PGMake2DTexturellP12CGColorSpaceijjPv, __Z15__PerfAutoFlushPv,
                        __Z15frameDifferencePU26objcproto15PROAPIAccessing11objc_object6CMTimeS1_, __Z15subtractFxTimes6FxTimeS_PS_,
                        __Z16ExecuteRenderGCDPv, __Z16HGFormat_isFloat8HGFormat,
                        __Z16OZBezierGetRootsPKddPd, __Z16OZGetAssetSubdirP12NSDictionary,
                        __Z16PGDeleteTexturesiPj, __Z16__PerfAllocEventP16tagPerfEventInfoj,
                        __Z16isWhiteSpaceChart, __Z17GetApply1DProgramP10HGRendererbb,
                        __Z17HGRectIsEqualSize6HGRectS_, __Z17LiLoadBitmapAsyncRK9PCHash128RK5PCURLN13PCPixelFormat12ChannelOrderERK18PCColorSpaceHandleb,
                        __Z17OZFxPlug_GetScaleRK7LiAgent, __Z17OZFxPlug_GetScaleRK7LiAgentPdS2_,
                        __Z17OZXGetRenderGraphP7OZScene14OZRenderParamsP11FFSVContextR10GLRendererbP10HGRenderer, __Z17PMAcquireRendererv,
                        __Z17PageSortPredicateRK10HGROIsInfoS1_, __Z17__PerfMarkEventExyP16tagPerfEventInfo16tagPerfEventTypejyy,
                        __Z17getScaleTranslateRK14PCMatrix44TmplIdERK9PCVector3IdEPS4_S7_, __Z17getWarningProgramv,
                        __Z17printLiveContextsv, __Z18ChanCanBeSequencedP13OZChannelBase,
                        __Z18Get1DLUTLinearTileP6HGTilePKfS2_S2_b, __Z18HGGLGetErrorStringj,
                        __Z18HGRectExcludesRect6HGRectS_, __Z18HGSampleRect_DEBUGRK9HGTBuffer5HGVecS2_12HGFilterModeR17HGSampleRect_STAT,
                        __Z18OZFxPlug_IsEmitterP11OZSceneNode, __Z18OZGetTimeInSecondsv,
                        __Z18PCMakeCheckerImagePvjj, __Z18PGCleanupPGContextv,
                        __Z18PMMakeHeliumFormatN13PCPixelFormat12ChannelOrderE, __Z18createColorBalance5HGRefI6HGNodeEPKdS3_S3_ddddb,
                        __Z18finderInitFunctionv, __Z18liPolygonIntersectRK10LiChannelTI9PCVector2IdEES4_RS2_,
                        __Z18liTransformAndClipRK6PCRectIdERK14PCMatrix44TmplIdER14LiImagePolygon, __Z18liTransformAndClipRK6PCRectIdERK14PCMatrix44TmplIdERS0_,
                        __Z19Effect_ShowGLErrorsv, __Z19HGRectHasSameOrigin6HGRectS_,
                        __Z19MyCG_GetAlphaFormatRK19PMFormatDescriptionRK5PCURLjP11PMAlphaTypePbPv, __Z19OZGetAssetExtensionP12NSDictionary,
                        __Z19PCClipLineToPlane3DRK7PCPlaneIdERK9PCVector3IdES6_, __Z19PGCreatePooledImageRK17PCImageAttributes,
                        __Z19PGDumpTextureToTIFFjjiibRK18PCColorSpaceHandleRKNSt3__110shared_ptrI9PGContextEE, __Z19PVGetMemUsageStringP8NSString,
                        __Z19__PerfThreadCleanupPv, __Z19getBezierFromRasterRKNSt3__16vectorI6Point2NS_9allocatorIS1_EEEEdRS4_,
                        __Z19getProChannelBundlev, __Z19liClipLineToPolygonR6PCRay3IdERKN9LiPolygon8PosFacetERdS6_,
                        __Z19liDoPolygonsOverlapRK10LiChannelTI9PCVector2IdEES4_, __Z19liPolygonPlaneSplitRKN9LiPolygon8PosFacetERK9PCVector4IdER9PCVector3IdES9_R10LiChannelTIiESC_bR11LiPolyOrderd,
                        __Z19toFxRenderInfoConstPv, __Z20AddTextureToMaterialRN19OZMaterialLayerBase19LayeredMaterialInfoER25OZChannelMaterialLayerMapR29OZChannelMaterialMapTransformR22LiMaterialLayerUniformRN8ProShade9Sampler2DERNS8_7UniformERK14PCMatrix44TmplIdENS8_21TextureTransformBasisE10CheckTrans,
                        __Z20Get1Dx3LUTLinearTileP6HGTilePKfS2_S2_, __Z20HGFormat_numChannels8HGFormat,
                        __Z20LiCachingDelegateGetiRK9PCHash128R19LiTextureCacheEntry, __Z20MyCG_SetVideoOptionsP19PMFormatDescription,
                        __Z20OZShowTooLargeDialogRK8PCStringS1_bN10PCBitDepth4TypeEl, __Z20OZXSetPublishedPopupPvR8PCStringj,
                        __Z20OZX_prepareForRenderPv7FigTime16OZXRenderQualitybff14OZXRenderDepthP12CGColorSpace13OZXRenderTypebR14OZRenderParams, __Z20PCClipLinesToPlane3DRK7PCPlaneIdERKNSt3__16vectorI9PCVector3IdENS3_9allocatorIS6_EEEERS9_RNS4_IbNS7_IbEEEE,
                        __Z20PCMakeTRCCurveICCTagR8PCICCTag12PCICCTRCNamef, __Z20PCSameColorTransformRK12PCICCProfileS1_,
                        __Z20PerfAllocGlobalEventPKc16tagPerfEventTypeS0_j, __Z20StartPBOExecUnitFuncPv,
                        __Z20getAttributeForLayerjjj, __Z20rayIntersectsFrustumRK6PCRay3IdEdddddP9PCVector3IdE,
                        __Z21CreateSimpleTexture2Dv, __Z21Get1Dx4LUTNearestTileP6HGTilePKfS2_S2_,
                        __Z21HGGLSetCurrentContext14HGGLContextPtr, __Z21MyCG_GetComponentTypeP17PMPluginInterface,
                        __Z21OZFxPlug_GetInputNodeR5HGRefI6HGNodeEP7LiAgentR6PCRectIiERK7FigTimebbR14OZRenderParamsmbP13LiImageSourceP14FFMotionEffectP11OZSceneNodeP12CGColorSpaceP18OZFxPlugSharedBase, __Z21PCMakeCopyrightICCTagR8PCICCTagPKc,
                        __Z21PGGetPerThreadContextv, __Z21PerfStartEventLoggingv,
                        __Z21__PerfAllocEventSpacev, __Z21closestPointOnEllipseRK9PCVector2IfES2_S2_S2_,
                        __Z21getDefaultsFloatValueP12NSDictionaryP8NSStringf, __Z21getScaleTranslateFlipRK14PCMatrix44TmplIdERK9PCVector3IdEPS4_S7_,
                        __Z21normalPointsOnEllipseRK9PCVector2IfES2_S2_S2_R7PCArrayIS0_14PCArray_TraitsIS0_EE, __Z21rayIntersectsGeometryRK6PCRay3IdERK5PCBoxIdEP9PCVector3IdE,
                        __Z22FigTimeCopyDescriptionPK13__CFAllocatorRK7FigTime, __Z22OZAudioSampleFromFramedibfd,
                        __Z22OZXSetCutawayFadeInOutPvRK7FigTimeS2_, __Z22PGFreePerThreadContextv,
                        __Z22TXKerningResetCallbackP13OZChannelBasePv, __Z22createContrastLumaNode5HGRefI6HGNodeEddbbd,
                        __Z22subtractFramesFromTimePU26objcproto15PROAPIAccessing11objc_objectd6FxTimePS1_, __Z23LiCreateBumpBitmapAsync9PCHash128NSt3__113shared_futureINS0_10shared_ptrI8PCBitmapEEEERK17LiBumpTextureInfo,
                        __Z23OZFxPlug_CallFrameSetupPvP11objc_object12FxRenderInfoP11FxImageInfoPbS5_, __Z23OZGetAssetIsTransparentP12NSDictionary,
                        __Z23OZXGetPublishedSettingsPv, __Z23OZXSetPublishedRGBColorPvR8PCStringddd,
                        __Z23PCGetDefaultRenderModelv, __Z23PCMakeDisplayRGBProfileRK16PCChromaticitiesf,
                        __Z23PMRemoveBitmapFromCacheRK9PCHash128, __Z23__PerfDeallocEventSpacePP16tagPerfEventInfo,
                        __Z23getScaleTranslateRotateRK14PCMatrix44TmplIdEP9PCVector3IdES5_Pd, __Z23getScaleTranslateRotateRK14PCMatrix44TmplIdERK9PCVector3IdES6_PS4_S7_Pd,
                        __Z23liSafeGetTransformationR14PCMatrix44TmplIdER20PCMatrix44ParametersIdER6PCQuatIdE, __Z24CVPixelFormatForHGFormat8HGFormatm,
                        __Z24HGFormatForCVPixelFormatjm, __Z24LiMakeBumpTextureFactoryRK5PCURLRK17LiBumpTextureInfo,
                        __Z24MyCG_GetLayerDescriptionRK19PMFormatDescriptionP18PMLayerDescriptionjRK5PCURLPv, __Z24OZGetCornersFromBounds3dRK6PCRectIdEPA3_f,
                        __Z24OZX_getRenderEngineMutexv, __Z24PCMakeColorSpaceFromNCLC16PCPrimariesValue23PCTransferFunctionValue13PCMatrixValuef,
                        __Z24PCMakeDisplayGrayProfilefff, __Z24PMCreateColorConformNodeRK5HGRefI6HGNodeEP12CGColorSpacebS5_b,
                        __Z24__PerfFinishEventLoggingP16tagPerfEventInfoP17_opaque_pthread_t, __Z24initMyCoreGraphicsPluginP14PMMediaManager,
                        __Z25MyCG_SupportsVideoOptionsP17PMPluginInterface, __Z25OZFxPlug_FxDepthFromDepthi,
                        __Z25OZXSetPublishedTextStringPvR8PCStringS0_, __Z25PCCreateBitmapUnAllocatedjjN13PCPixelFormat12ChannelOrderEP12CGColorSpace,
                        __Z25PCMatrix44_planarInverseZR14PCMatrix44TmplIdERKS0_d, __Z25PerfTerminateEventLoggingv,
                        __Z26IsMaterialSequenceFolderIDj, __Z26LiCachingDelegateGetBitmapRK9PCHash128,
                        __Z26OZFigTimeForChannelSecondsdi, __Z26PCChromaticityMathSelfTestv,
                        __Z26PCIntersectRayWithTriangleRK6PCRay3IdERK9PCVector3IdES6_S6_RS4_, __Z26__PerfFindInternalThreadIdP17_opaque_pthread_t,
                        __Z27HGXFormForCGAffineTransform5HGRefI6HGNodeE17CGAffineTransformb, __Z27LiMakeDiffuseTextureFactoryRK5PCURLP12CGColorSpace,
                        __Z27MyCG_SupportsMultipleFramesP17PMPluginInterface, __Z27OZGetPaintLayerDescriptionsv,
                        __Z27OZGetSpecularShininessAssetP12NSDictionary, __Z27PCMakeMediaWhitePointICCTagR8PCICCTagRK10PCXYZColor,
                        __Z27PCProjectionMapSquareToQuadRK9PCVector2IdES2_S2_S2_S2_RS0_, __Z27createContrastBezierRGBNode5HGRefI6HGNodeES1_ddbbd,
                        __Z28OZGetDistressLayerDictionaryv, __Z28PCCalcUnitScaleForProjectionRK9PCVector3IdERK14PCMatrix44TmplIdES6_,
                        __Z28PCConvertChromaticitiesToXYZRK16PCChromaticitiesR10PCXYZColorS3_S3_S3_, __Z28getOZChannelBool_FactoryBasev,
                        __Z28getOZChannelSeed_FactoryBasev, __Z28liCalcUnitScaleForProjectionRK9PCVector3IdERK14PCMatrix44TmplIdES6_,
                        __Z29AddMaterialToSequenceChannelsP18TXSequenceChannelsP14OZMaterialBasej, __Z29OZClampBoundsToMaxTextureSizeRK8PCStringP6PCRectIdEN10PCBitDepth4TypeE,
                        __Z29OZClampBoundsToMaxTextureSizeRK8PCStringPjS2_N10PCBitDepth4TypeE, __Z29OZFxPlug_IsCloneTextSceneNodePK11OZSceneNode,
                        __Z29OZXGetFrameAsCGImageWithInputPv7FigTimeR5HGRefI6HGNodeE6PCRectIdE14PCMatrix44TmplIdE16OZXRenderQuality21OZXFieldRenderingModefffbRKS8_14OZXRenderDepthP11FFSVContextP10HGRendererPP7CGImage, __Z29PGCreateTextureFromPGLTextureRKN5ProGL13TextureHandleE,
                        __Z29getOZChannelCurve_FactoryBasev, __Z29getOZChannelShape_FactoryBasev,
                        __Z30LiCachingDelegateDisableLimitsv, __Z30OZBezierSanitizeControlPolygonPdS_,
                        __Z30OZFxPlug_IsSceneNodeFlexoMediaP11OZSceneNode, __Z30PCMakeProfileDescriptionICCTagR8PCICCTagPKc,
                        __Z30SetAlwaysSaveFlagOnDescendantsP15OZChannelFolder, __Z30getOZChannelDouble_FactoryBasev,
                        __Z30getOZChannelUint32_FactoryBasev, __Z31OZFxPlug_GetBoundsFromSceneNodeP11OZSceneNodeRK14OZRenderParamsbP14FFMotionEffectb,
                        __Z31OZGetSubstanceLayerDescriptionsP8NSString, __Z31PCMakeChromaticAdaptationICCTagR8PCICCTagRK14PCMatrix33TmplIdE,
                        __Z31getOZChannelPercent_FactoryBasev, __Z32AppendFlatLayerToLayeredMaterialP28OZMaterialGenericSubstanceIFRN19OZMaterialLayerBase19LayeredMaterialInfoE,
                        __Z32PCGetRec709LuminanceCoefficientsv, __Z32getOZChannelTimecode_FactoryBasev,
                        __Z33LiMakeSpecularAngleTextureFactoryRK5PCURL, __Z33OZXGetFrameAsHeliumNodeWithInputsPv7FigTimeNSt3__13mapIj5HGRefI6HGNodeENS1_4lessIjEENS1_9allocatorINS1_4pairIKjS5_EEEEEENS2_IjjS7_NS8_INS9_ISA_jEEEEEENS2_Ij6PCRectIdES7_NS8_INS9_ISA_SI_EEEEEENS2_Ij14PCMatrix44TmplIdES7_NS8_INS9_ISA_SN_EEEEEE16OZXRenderQuality21OZXFieldRenderingModefffbRKSN_14OZXRenderDepthP11FFSVContextP10HGRendererRS5_,
                        __Z33PCGetEBU3213LuminanceCoefficientsv, __Z33getOZChannelBlendMode_FactoryBasev,
                        __Z33getOZChannelEnumLayer_FactoryBasev, __Z34OZFxPlug_ClampRectToMaxTextureSizeRK6PCRectIdEN13PCPixelFormat12ChannelOrderE,
                        __Z34OZMaterialRootChannelResetCallbackP13OZChannelBasePv, __Z34PVCreateDeferredNodeForPixelBufferP10__CVBuffer6CMTimeP20HGCVGLTextureFactoryPN11PVPerfStats10FrameStatsE,
                        __Z34compareChannelsForRemoveCurveNodesP13OZChannelBaseS0_b, __Z34getOZChannelShearAngle_FactoryBasev,
                        __Z35AppendDiffuseLayerToLayeredMaterialP28OZMaterialGenericSubstanceIFRN19OZMaterialLayerBase19LayeredMaterialInfoE, __Z35MoveMaterialLayerInSequenceChannelsP18TXSequenceChannelsjjjj,
                        __Z35OZFxPlug_GenerateFailedRenderBitmapPvjjhP12CGColorSpace, __Z35PCComputeQuadToQuadProjectionMatrixRK9PCVector2IdES2_S2_S2_S2_S2_S2_S2_R14PCMatrix44TmplIdE,
                        __Z35getOZChannelRetimeFrame_FactoryBasev, __Z36AppendSpecularLayerToLayeredMaterialP26OZMaterialSpecularFinishIFRN19OZMaterialLayerBase19LayeredMaterialInfoE,
                        __Z36getOZChannelGammaFootage_FactoryBasev, __Z37LiMakeSpecularIntensityTextureFactoryRK5PCURLP12CGColorSpace,
                        __Z37OZInsertLayerBelowGroupAffectedByBumpR17LiLayeredMaterialRK5PCPtrI15LiMaterialLayerE, __Z37PCComputeSquareToQuadProjectionMatrixRK9PCVector2IdES2_S2_S2_R14PCMatrix44TmplIdE,
                        __Z37getOZChannelDiscreteColor_FactoryBasev, __Z37getOZChannelScaleOverLife_FactoryBasev,
                        __Z38PCMakeDisplayRGBProfileFromGrayProfileRK12PCICCProfile, __Z38getOZChannelEnumInterpMode_FactoryBasev,
                        __Z39RemoveMaterialLayerFromSequenceChannelsP18TXSequenceChannelsjj, __Z3adjRK5Mat4f,
                        __Z3colRK10SparseMatfi, __Z3colRK7SubMatfi,
                        __Z3detRK5Mat3f, __Z3dotRK10SparseVecfRK4Vecf,
                        __Z3dotRK4VecfS1_, __Z3invRK4MatfPff,
                        __Z3invRK5Mat3f, __Z3lenRK10SparseVecf,
                        __Z3rowRK7SubMatfi, __Z3subRK10SparseMatfiiii,
                        __Z3subRK4Matfii, __Z3subRK7SubMatfii,
                        __Z40OZFxPlug_InputWillBeScaledBasedOnChannelP11OZSceneNode, __Z41OZFxPlug_GetVirtualScreenFromHGGLRendererP12HGGLRenderer,
                        __Z42getOZChannelAspectRatioFootage_FactoryBasev, __Z43hgColorConformNodeListCacheLockInitFunctionv,
                        __Z45OZFxPlug_setPixelTransformToRestrictInputSizeR7LiAgentRK6PCRectIdEbPd, __Z4diagRK10SparseMatfi,
                        __Z4diagRK7SubMatfi, __Z4projRK5Vec4f,
                        __Z52OZFxPlug_GetAnchoredObjectContainerForTimeConversionP16FFAnchoredObject, __Z5oprodRK10SparseVecfS1_,
                        __Z5oprodRK5Vec2fS1_, __Z5oprodRK5Vec4fS1_,
                        __Z5traceRK4Matf, __Z5traceRK5Mat4f,
                        __Z5transRK4Matf, __Z5transRK5Mat4f,
                        __Z6finiteRK10MGenMatrixIdE, __Z6oprodsRK4VecfS1_,
                        __Z7PCPrintRK8PCStringz, __Z7_ExpectiPKcS0_i,
                        __Z7clampedRK4Matfd, __Z7clampedRK4Vecfd,
                        __Z7inverseRK10MGenMatrixIdE, __Z7liDebugPKc,
                        __Z7stricmpPKcS0_, __Z8_svdCallR4MSvdIdERK10MGenMatrixIdERK10MGenVectorIdE,
                        __Z8_svdCallR4MSvdIfERK10MGenMatrixIfERK10MGenVectorIfE, __Z8getScaleRK14PCMatrix44TmplIdERK9PCVector3IdEPS4_,
                        __Z8pcIndentRNSt3__113basic_ostreamIcNS_11char_traitsIcEEEE, __Z8timeDiffRKlS0_,
                        __Z9MyCG_OpenRK19PMFormatDescriptionRK5PCURLPPv, __Z9PCCleanupv,
                        __Z9blueNoisev, __Z9printBitsPc4half,
                        __Z9printBitsRNSt3__113basic_ostreamIcNS_11char_traitsIcEEEE4half, __Z9transformRK14PCMatrix44TmplIdER9LiClipSet,
                        __Z9transformRK14PCMatrix44TmplIdER9LiPolygon, __ZN10ColorHisto22calculateCenterSamplesERNSt3__16vectorIiNS0_9allocatorIiEEEEf,
                        __ZN10GLRenderer12getFrameNodeEP12OZRenderNodeR14OZRenderParamsP10HGRendererPl, __ZN10GLRenderer16kUseROIParameterE,
                        __ZN10GLRenderer17inDesperationModeEv, __ZN10GLRenderer20clearPendingBuildersEv,
                        __ZN10GLRenderer20enterDesperationModeEP7OZScene, __ZN10GLRenderer20removePendingBuilderEP14BuilderRequest,
                        __ZN10GLRenderer25getSceneHeNodeFromLiWorldEP7OZSceneRK15OZSceneSettingsR14OZRenderParams5PCPtrI7LiGroupEP10HGRendererddPl, __ZN10GLRenderer27findOrCreateRendererBuilderEP12OZRenderNodeR14OZRenderParamsb,
                        __ZN10GLRenderer27getFrameNodeIncludingFieldsEP7OZSceneR14OZRenderParamsP10HGRendererPl, __ZN10GLRenderer6renderEP12OZRenderNodeR14OZRenderParams,
                        __ZN10GLRendererC1Eii, __ZN10GLRendererD1Ev,
                        __ZN10HGCVBitmap18getCVBitmapStorageEP8HGBitmap, __ZN10HGCVBitmap6createE5HGRefI19HGCVPixelBufferPoolEmm8HGFormat,
                        __ZN10HGCVBitmap6createEmm8HGFormat, __ZN10HGCVBitmapC1E5HGRefI15HGCVPixelBufferE6HGRect8HGFormatPvim,
                        __ZN10HGCVBitmapD0Ev, __ZN10HGCVBitmapD2Ev,
                        __ZN10HGCropNode10RenderPageEP6HGPage, __ZN10HGCropNode12SetParameterEiffff,
                        __ZN10HGCropNode4BindEP9HGHandler, __ZN10HGCropNode9GetOutputEP10HGRenderer,
                        __ZN10HGExposure10RenderTileEP6HGTile, __ZN10HGExposure12SetParameterEiffff,
                        __ZN10HGExposure8SetLabelEPKf, __ZN10HGExposureC1Ev,
                        __ZN10HGExposureD0Ev, __ZN10HGExposureD2Ev,
                        __ZN10HGGLBuffer14AttachRendererEP12HGGLRenderer, __ZN10HGGLBuffer7ReleaseEv,
                        __ZN10HGGLBufferC1E6HGRect8HGFormatP12HGGLRendererjmb, __ZN10HGGLBufferC2E6HGRect8HGFormatP12HGGLRendererjmb,
                        __ZN10HGGLBufferD1Ev, __ZN10HGGamutMap13SetConversionEN14HGColorConform30hgColorConformConversionPresetE,
                        __ZN10HGGamutMap21DebugOutOfGamutColorsEb, __ZN10HGGamutMap9GetOutputEP10HGRenderer,
                        __ZN10HGGamutMapC2Ev, __ZN10HGGamutMapD1Ev,
                        __ZN10HGGradient12SetParameterEiffff, __ZN10HGGradient19_createGradientNodeENS_12GradientModeE,
                        __ZN10HGGradientC1Ev, __ZN10HGGradientD0Ev,
                        __ZN10HGGradientD2Ev, __ZN10HGLUTCache8LUTEntryC2EPNS_7LUTInfoEP10HGRenderer,
                        __ZN10HGLUTCache8LUTEntryD1Ev, __ZN10HGLUTCache9getNewLUTEPNS_7LUTInfoE,
                        __ZN10HGLUTCacheC2EP10HGRendererPNS_15LUTEntryFactoryE, __ZN10HGLUTCacheD2Ev,
                        __ZN10HGProfiler4initEv, __ZN10HGProfiler5startEv,
                        __ZN10HGProfiler7_tbfreqE, __ZN10HGProfiler8_tb_initEv,
                        __ZN10HGProfilerC2Ev, __ZN10HGRenderer10GetProgramEP6HGNode,
                        __ZN10HGRenderer10ReadBitmapE6HGRectP8HGBitmap, __ZN10HGRenderer10RenderTileEP15HGExecutionUnitP19__simd128_float32_t6HGRectP6HGNodei,
                        __ZN10HGRenderer11IsMergeableEP6HGNodeib, __ZN10HGRenderer11RenderInputEP15HGExecutionUnitP6HGNodeiP9HGTBuffer6HGRecti,
                        __ZN10HGRenderer11RenderTilesEP6HGNode6HGRect8HGFormatP8HGBitmapb, __ZN10HGRenderer11StatsProbesEv,
                        __ZN10HGRenderer12CreateBufferE6HGRect8HGFormat, __ZN10HGRenderer12GetLastErrorEv,
                        __ZN10HGRenderer12RenderBitmapEP8HGBitmapP6HGNode, __ZN10HGRenderer12SetParameterE19HGRendererParameteri,
                        __ZN10HGRenderer13CreateTextureEv, __ZN10HGRenderer13PreRenderNodeEP6HGNode,
                        __ZN10HGRenderer13RenderNodeBgnEP6HGNodei, __ZN10HGRenderer14RenderInternalE6HGRect8HGFormatP6HGNodeP8HGBitmapb,
                        __ZN10HGRenderer14RenderTilesEndEP6HGNode, __ZN10HGRenderer15RenderInputTileEP15HGExecutionUnitP19__simd128_float32_t6HGRectP6HGNodeiP6HGTilei,
                        __ZN10HGRenderer16RenderTilesBeginEP6HGNode6HGRect8HGFormat, __ZN10HGRenderer18MarkBufferedOutputEP6HGNode,
                        __ZN10HGRenderer19RenderNodesInternalEiPP8HGBitmapPP6HGNodeP6HGRectP8HGFormatS2_b, __ZN10HGRenderer20DumpLiveDebugDotTreeEPKc,
                        __ZN10HGRenderer20GetShaderCompileTimeEv, __ZN10HGRenderer20RenderBitmapInternalEP8HGBitmapP6HGNode,
                        __ZN10HGRenderer20SetDotGraphOutputDirENSt3__112basic_stringIcNS0_11char_traitsIcEENS0_9allocatorIcEEEE, __ZN10HGRenderer21ReleaseBufferedOutputEP6HGNode,
                        __ZN10HGRenderer25CreateDepthBufferManagersEv, __ZN10HGRenderer6GetDODEP6HGNode,
                        __ZN10HGRenderer6RenderE6HGRect8HGFormatP6HGNodeb, __ZN10HGRenderer7DotNodeEP6HGNode,
                        __ZN10HGRenderer8GetInputEP6HGNodei, __ZN10HGRenderer8IsMergedEP6HGNodei,
                        __ZN10HGRenderer9GetBitmapEP8HGBitmap8HGFormat, __ZN10HGRenderer9GetOutputEP6HGNode,
                        __ZN10HGRenderer9RenderBgnEi, __ZN10HGRendererC1Ev,
                        __ZN10HGRendererD0Ev, __ZN10HGRendererD2Ev,
                        __ZN10HgcASC_CDL10RenderTileEP6HGTile, __ZN10HgcASC_CDL12GetParameterEiPf,
                        __ZN10HgcASC_CDL4BindEP9HGHandler, __ZN10HgcASC_CDL6GetROIEP10HGRendereri6HGRect,
                        __ZN10HgcASC_CDLC1Ev, __ZN10HgcASC_CDLD0Ev,
                        __ZN10HgcASC_CDLD2Ev, __ZN10HgcBadFilm10RenderTileEP6HGTile,
                        __ZN10HgcBadFilm12GetParameterEiPf, __ZN10HgcBadFilm4BindEP9HGHandler,
                        __ZN10HgcBadFilm6GetROIEP10HGRendereri6HGRect, __ZN10HgcBadFilmC1Ev,
                        __ZN10HgcBadFilmD0Ev, __ZN10HgcBadFilmD2Ev,
                        __ZN10HgcLumaKey10RenderTileEP6HGTile, __ZN10HgcLumaKey12GetParameterEiPf,
                        __ZN10HgcLumaKey4BindEP9HGHandler, __ZN10HgcLumaKey6GetROIEP10HGRendereri6HGRect,
                        __ZN10HgcLumaKeyC1Ev, __ZN10HgcLumaKeyD0Ev,
                        __ZN10HgcLumaKeyD2Ev, __ZN10HgcSampler6CreateEv,
                        __ZN10HgcSharpen10GetProgramEP10HGRenderer, __ZN10HgcSharpen11BindTextureEP9HGHandleri,
                        __ZN10HgcSharpen12SetParameterEiffff, __ZN10HgcSharpen6GetDODEP10HGRendereri6HGRect,
                        __ZN10HgcSharpen9GetOutputEP10HGRenderer, __ZN10HgcSharpenC2Ev,
                        __ZN10HgcSharpenD1Ev, __ZN10HgcStripes10GetProgramEP10HGRenderer,
                        __ZN10HgcStripes11BindTextureEP9HGHandleri, __ZN10HgcStripes12SetParameterEiffff,
                        __ZN10HgcStripes6GetDODEP10HGRendereri6HGRect, __ZN10HgcStripes9GetOutputEP10HGRenderer,
                        __ZN10HgcStripesC2Ev, __ZN10HgcStripesD1Ev,
                        __ZN10HgcTXAlpha10GetProgramEP10HGRenderer, __ZN10HgcTXAlpha11BindTextureEP9HGHandleri,
                        __ZN10HgcTXAlpha12SetParameterEiffff, __ZN10HgcTXAlpha5SetupEPv,
                        __ZN10HgcTXAlpha6GetROIEP10HGRendereri6HGRect, __ZN10HgcTXAlphaC1Ev,
                        __ZN10HgcTXAlphaD0Ev, __ZN10HgcTXAlphaD2Ev,
                        __ZN10HgcTXColor10RenderTileEP6HGTile, __ZN10HgcTXColor12GetParameterEiPf,
                        __ZN10HgcTXColor4BindEP9HGHandler, __ZN10HgcTXColor6GetDODEP10HGRendereri6HGRect,
                        __ZN10HgcTXColor9GetOutputEP10HGRenderer, __ZN10HgcTXColorC2Ev,
                        __ZN10HgcTXColorD1Ev, __ZN10LiLightSet3addERK7LiLight,
                        __ZN10LiMaterial10farFadeOneE, __ZN10LiMaterial10rootMatrixE,
                        __ZN10LiMaterial10setTextureERKN8ProShade7SamplerERK19LiTextureStoreTokenbRK14PCMatrix44TmplIdE, __ZN10LiMaterial10viewMatrixE,
                        __ZN10LiMaterial11globalAlphaE, __ZN10LiMaterial11nearFadeOneE,
                        __ZN10LiMaterial12nearFadeZeroE, __ZN10LiMaterial12printShadersEv,
                        __ZN10LiMaterial15getProgramCacheEv, __ZN10LiMaterial15placementMatrixE,
                        __ZN10LiMaterial16initProgramCacheER7PCCacheINS_9ShaderKeyE5PCPtrIN8ProShade7ProgramEE8PCNoLockE, __ZN10LiMaterial16perObjectOpacityE,
                        __ZN10LiMaterial16placementJitterYE, __ZN10LiMaterial16projectionMatrixE,
                        __ZN10LiMaterial17obtainSamplerInfoEPKN8ProShade11SamplerNodeE, __ZN10LiMaterial20perObjectRecvShadowsE,
                        __ZN10LiMaterial25modelViewProjectionMatrixE, __ZN10LiMaterial5indexE,
                        __ZN10LiMaterial7eyePosHE, __ZN10LiMaterial9depthPeelE,
                        __ZN10LiMaterialD0Ev, __ZN10LiMaterialD2Ev,
                        __ZN10LiRenderer11setBoundaryERK6PCRectIdE, __ZN10LiRenderer16setRootTransformERK14PCMatrix44TmplIdE,
                        __ZN10LiRenderer9addFilterEP13LiImageFilter, __ZN10LiRendererC1Ev,
                        __ZN10LiRendererD0Ev, __ZN10LiRendererD2Ev,
                        __ZN10OZBehavior10parseBeginER22PCSerializerReadStream, __ZN10OZBehavior12getSceneNodeEv,
                        __ZN10OZBehavior13getPasteEntryEP13OZChannelBase, __ZN10OZBehavior14calcStaticHashER23PCSerializerWriteStreamRNSt3__14listIP19OZObjectManipulatorNS2_9allocatorIS5_EEEE,
                        __ZN10OZBehavior17canAddToSceneNodeEP11OZSceneNode, __ZN10OZBehavior20performDragOperationEP13OZFactoryBaseP13OZChannelBasejjjjRK7FigTime,
                        __ZN10OZBehavior22getSourceOperationMaskEP13OZChannelBaseb, __ZN10OZBehavior22isUltimatelyAffectedByEPK9OZChannelRNSt3__14listIP19OZObjectManipulatorNS3_9allocatorIS6_EEEE,
                        __ZN10OZBehavior24isEnabledAndUseBehaviorsEv, __ZN10OZBehavior28IsChannelAffectedByBehaviorsEP13OZChannelBaseb,
                        __ZN10OZBehavior4copyEP13OZChannelBase, __ZN10OZBehavior5pasteEP13OZChannelBase,
                        __ZN10OZBehavior6selectEv, __ZN10OZBehavior8parseEndER22PCSerializerReadStream,
                        __ZN10OZBehavior9writeBodyER23PCSerializerWriteStreambbb, __ZN10OZBehaviorC1ERKS_,
                        __ZN10OZBehaviorC2EP9OZFactoryRK8PCStringj, __ZN10OZBehaviorC2ERKS_j,
                        __ZN10OZBehaviorD1Ev, __ZN10OZBehavioraSERKS_,
                        __ZN10OZDocument10parseBeginER22PCSerializerReadStream, __ZN10OZDocument10setIsReadyEb,
                        __ZN10OZDocument11writeHeaderER23PCSerializerWriteStreamb, __ZN10OZDocument12parseElementER22PCSerializerReadStreamR15PCStreamElement,
                        __ZN10OZDocument14addCPPObserverEP13OZCPPObserverl, __ZN10OZDocument14hasCPPObserverEP13OZCPPObserver,
                        __ZN10OZDocument14modalExportEndEv, __ZN10OZDocument15getAllSequencesERNSt3__16vectorI8PCStringNS0_9allocatorIS2_EEEE,
                        __ZN10OZDocument15localizeContentERK5PCURL, __ZN10OZDocument16isSystemTemplateEv,
                        __ZN10OZDocument16postNotificationEj, __ZN10OZDocument17willModifyChannelEPK13OZChannelBasej,
                        __ZN10OZDocument18ignoreObserverOnceEPvj, __ZN10OZDocument18setIsCompressorDocEb,
                        __ZN10OZDocument20getProjectPanelStateEv, __ZN10OZDocument20makeFCPv2CorrectionsEv,
                        __ZN10OZDocument20unignoreObserverOnceEPvj, __ZN10OZDocument23checkForSupportedConfigEv,
                        __ZN10OZDocument25checkVersionForReadStreamER22PCSerializerReadStream, __ZN10OZDocument26setIsTemplateDesignedFor4kEb,
                        __ZN10OZDocument29markFactoriesForSerializationER23PCSerializerWriteStreamb, __ZN10OZDocument4openERK5PCURL,
                        __ZN10OZDocument6importERNSt3__16vectorI8PCStringNS0_9allocatorIS2_EEEEP7OZGroupRK9PCVector2IfEbj7FigTimeP11OZSceneNode, __ZN10OZDocument8postLoadEv,
                        __ZN10OZDocument9copySceneEP7OZScene, __ZN10OZDocument9isUndoingEv,
                        __ZN10OZDocumentC1ERKS_b, __ZN10OZDocumentC2ERKS_b,
                        __ZN10OZDocumentD0Ev, __ZN10OZDocumentD2Ev,
                        __ZN10OZFontFaceC2ERK8PCStringiP12OZFontFamily, __ZN10OZFontFaceD1Ev,
                        __ZN10OZFxFilter10offsetNodeERK5HGRefI6HGNodeERK7LiAgentRK9PCVector2IdE20OZFieldRenderingMode, __ZN10OZFxFilter10renderNodeERK7LiAgentRK5HGRefI6HGNodeEP12CGColorSpaceRK6PCRectIiEN13PCPixelFormat12ChannelOrderEbPvPNSt3__110shared_ptrI7PCImageEEP11PCImageTypePj,
                        __ZN10OZFxFilter10willRemoveEv, __ZN10OZFxFilter11renumberIDsEPNSt3__13mapIjjNS0_4lessIjEENS0_9allocatorINS0_4pairIKjjEEEEEEb,
                        __ZN10OZFxFilter12FilterBounds6setAllERK6PCRectIdE, __ZN10OZFxFilter12parseElementER22PCSerializerReadStreamR15PCStreamElement,
                        __ZN10OZFxFilter12rescaleInputER7LiAgentRK9PCVector2IdE, __ZN10OZFxFilter13finalizeImageERK7LiAgentP7FxImagePvRK14OZRenderParams,
                        __ZN10OZFxFilter14calcStaticHashER23PCSerializerWriteStreamRNSt3__14listIP19OZObjectManipulatorNS2_9allocatorIS5_EEEE, __ZN10OZFxFilter14progBlurCoeffsE,
                        __ZN10OZFxFilter15getCenterOffsetERK7LiAgentRK6PCRectIdE7FigTime, __ZN10OZFxFilter15interBlurCoeffsE,
                        __ZN10OZFxFilter16calcHashForStateER23PCSerializerWriteStreamRK14OZRenderParamsRNSt3__14listIP19OZObjectManipulatorNS5_9allocatorIS8_EEEE, __ZN10OZFxFilter17setOutputImageDODERK6PCRectIiEdP7FxImage,
                        __ZN10OZFxFilter18createInputFxImageERK7LiAgentPNSt3__110shared_ptrI7PCImageEEPjPvS9_RK5HGRefI6HGNodeEPSC_RKNS_12FilterBoundsEibbRK9PCVector2IdERK14OZRenderParams, __ZN10OZFxFilter19initialRescaleInputER7LiAgent,
                        __ZN10OZFxFilter20createNewLithiumNodeERK14OZRenderParams, __ZN10OZFxFilter21didChangeChannelStateEP13OZChannelBase,
                        __ZN10OZFxFilter21makeRenderImageSourceER14OZRenderParamsRK18OZRenderGraphStateb, __ZN10OZFxFilter22didAddSceneNodeToSceneEP7OZScene,
                        __ZN10OZFxFilter24getAgentImageSpaceBoundsER7LiAgentRK14OZRenderParams, __ZN10OZFxFilter27getChannelFromRefAndVersionEP12OZChannelRefd,
                        __ZN10OZFxFilter27prepareHandlersForRenderingEP7LiAgentRK5PCPtrI13LiImageSourceER14OZRenderParamsPK14PCMatrix44TmplIdESC_, __ZN10OZFxFilter29markFactoriesForSerializationER23PCSerializerWriteStreamb,
                        __ZN10OZFxFilter3mixERK7LiAgentRK6PCRectIiE7FigTimePvRK5HGRefI6HGNodeEbbP7FxImageSF_P13PGFramebufferPN5ProGL2GLEPNSt3__110shared_ptrI9PGTextureEE, __ZN10OZFxFilter7processER14OZRenderParams,
                        __ZN10OZFxFilter8parseEndER22PCSerializerReadStream, __ZN10OZFxFilter9getHeliumER7LiAgent5PCPtrI13LiImageSourceE7FigTimeR14OZRenderParams,
                        __ZN10OZFxFilter9writeBodyER23PCSerializerWriteStreambbb, __ZN10OZFxFilterC1ERKS_j,
                        __ZN10OZFxFilterC2ERKS_j, __ZN10OZFxFilterD1Ev,
                        __ZN10OZGradient4initEP12CGColorSpace, __ZN10OZGradient7getHashER7FigTime,
                        __ZN10OZGradientC1ER17OZChannelGradientiP12CGColorSpace, __ZN10OZGradientC2ER17OZChannelGradientiP12CGColorSpace,
                        __ZN10OZGradientD0Ev, __ZN10OZGradientD2Ev,
                        __ZN10OZGuideSet11writeHeaderER23PCSerializerWriteStreamb, __ZN10OZGuideSet29markFactoriesForSerializationER23PCSerializerWriteStreamb,
                        __ZN10OZGuideSet8parseEndER22PCSerializerReadStream, __ZN10OZGuideSetC1ERKS_,
                        __ZN10OZGuideSetC2ERKS_, __ZN10OZLiFilter11getBoundaryER7LiAgentP6PCRectIdE,
                        __ZN10OZLiFilter13filteredEdgesEv, __ZN10OZLiFilter20estimateRenderMemoryERNSt3__13setI9PCHash128NS0_4lessIS2_EENS0_9allocatorIS2_EEEE,
                        __ZN10OZLiFilter9getHeliumER7LiAgent, __ZN10OZLiFilterC1Ev,
                        __ZN10OZLiFilterC2Ev, __ZN10OZMaskComp20estimateRenderMemoryERNSt3__13setI9PCHash128NS0_4lessIS2_EENS0_9allocatorIS2_EEEE,
                        __ZN10OZMaskComp9getHeliumER7LiAgent, __ZN10OZMaskCompC2Ev,
                        __ZN10OZProfiler11getInstanceEv, __ZN10OZProfiler11printHeaderEv,
                        __ZN10OZProfiler16parseCommandLineEv, __ZN10OZProfiler18writeToPreferencesEv,
                        __ZN10OZProfiler19toggleProfilerPanelEv, __ZN10OZProfiler5resetEv,
                        __ZN10OZProfiler9_instanceE, __ZN10OZProfilerC2Ev,
                        __ZN10OZProfilerD1Ev, __ZN10PCBitDepth13_bitsPerPixelE,
                        __ZN10PCBitDepth15_bitsPerChannelE, __ZN10PCBitDepth17getBitsPerChannelENS_4TypeE,
                        __ZN10PCBitDepth21bitDepthToPixelFormatENS_4TypeE, __ZN10PCCalculus15xFromSineLengthEdddd,
                        __ZN10PCCalculus16CarlsonEllipticFEddd, __ZN10PCCalculus17LegendreEllipticEEdd,
                        __ZN10PCCalculus19ellipseLineIntegralEddd, __ZN10PCCalculus2dsEdddd,
                        __ZN10PCCalculus5ellpeEd, __ZN10PCCalculus9ellipticEEdd,
                        __ZN10PCCurveFit14GenerateBezierERNSt3__16vectorI9PCVector2IdENS0_9allocatorIS3_EEEEmmPdRS3_S9_, __ZN10PCCurveFit15ComputeMaxErrorERNSt3__16vectorI9PCVector2IdENS0_9allocatorIS3_EEEES7_mmPdPm,
                        __ZN10PCCurveFit19ComputeRightTangentERNSt3__16vectorI9PCVector2IdENS0_9allocatorIS3_EEEEm, __ZN10PCCurveFit21NewtonRaphsonRootFindERNSt3__16vectorI9PCVector2IdENS0_9allocatorIS3_EEEERS3_d,
                        __ZN10PCCurveFit2B0Ed, __ZN10PCCurveFit2B2Ed,
                        __ZN10PCCurveFit6BezierEiRNSt3__16vectorI9PCVector2IdENS0_9allocatorIS3_EEEEd, __ZN10PCCurveFit8FitCurveERNSt3__16vectorI9PCVector2IdENS0_9allocatorIS3_EEEES7_RS3_S8_d,
                        __ZN10PCCurveFit9_instanceE, __ZN10PCCurveFitC2Ev,
                        __ZN10PCCurveFitD1Ev, __ZN10PCTimecode11getTimecodeERKiRK14PCTimecodeModeR8PCString,
                        __ZN10PCTimecode13getSeparatorsEv, __ZN10PGAddPurgeC1EPFvvE12PGPurgeOrder,
                        __ZN10PSParticle23simulationIsObjectAliveE7FigTime, __ZN10PSParticleC1EjRK7FigTime,
                        __ZN10PSParticleC2EjRK7FigTime, __ZN10PSParticleD0Ev,
                        __ZN10PSParticleD2Ev, __ZN10SparseMatf8MakeDiagEf,
                        __ZN10SparseMatf9MakeBlockEf, __ZN10SparseMatfC1ERK8SubSMatf,
                        __ZN10SparseMatfC1Eii, __ZN10SparseMatfC1Eii9ZeroOrOne,
                        __ZN10SparseMatfC2ERK4Matf, __ZN10SparseMatfC2ERKS_,
                        __ZN10SparseMatfC2Eii5Block, __ZN10SparseMatfC2Ev,
                        __ZN10SparseMatfD2Ev, __ZN10SparseMatfaSERK8SubSMatf,
                        __ZN10SparseVecf12compactPrintE, __ZN10SparseVecf3SetEif,
                        __ZN10SparseVecf7SetEltsEidz, __ZN10SparseVecf7SetSizeEi,
                        __ZN10SparseVecf8MakeZeroEv, __ZN10SparseVecfC1ERK4Vecf,
                        __ZN10SparseVecfC1ERKS_, __ZN10SparseVecfC1Ei4Axis,
                        __ZN10SparseVecfC1EiPiPf, __ZN10SparseVecfC1Ev,
                        __ZN10SparseVecfC2ERK8SubSVecf, __ZN10SparseVecfC2Ei,
                        __ZN10SparseVecfC2Ei9ZeroOrOne, __ZN10SparseVecfC2Eiidz,
                        __ZN10SparseVecfD1Ev, __ZN10SparseVecfaSERK4Vecf,
                        __ZN10SparseVecfaSERKS_, __ZN11AbsorbLayer8isOpaqueERbP17LiLayeredMaterialR18LiTextureEvaluator,
                        __ZN11AbsorbLayerC1EPv, __ZN11HGBlurGroup12setDumbLevelEi,
                        __ZN11HGBlurGroup13setBlurValuesEPKfm, __ZN11HGBlurGroupC1EP6HGNodeb,
                        __ZN11HGBlurGroupD0Ev, __ZN11HGBlurGroupD2Ev,
                        __ZN11HGGLContext11getPriorityEv, __ZN11HGGLContext13getShareGroupEv,
                        __ZN11HGGLContext16getVirtualScreenEv, __ZN11HGGLContext5ShareE14HGGLContextPtr,
                        __ZN11HGGLContext6CreateEv, __ZN11HGGLContext7_createE14HGGLContextPtr,
                        __ZN11HGGLContext7contextEv, __ZN11HGGLContextC2Ev,
                        __ZN11HGGLContextD1Ev, __ZN11HGGLHandler10MultMatrixEPKd,
                        __ZN11HGGLHandler11InitTextureEi6HGRectS0_S0_ii, __ZN11HGGLHandler13ActiveTextureEib,
                        __ZN11HGGLHandler5ResetEP10HGRenderer, __ZN11HGGLHandler9NormalizeEv,
                        __ZN11HGGLHandler9TranslateEddd, __ZN11HGGLHandlerD0Ev,
                        __ZN11HGGLHandlerD2Ev, __ZN11HGGLTexture12GetOwnershipEv,
                        __ZN11HGGLTexture14AttachRendererEP12HGGLRenderer, __ZN11HGGLTexture14SetTextureRectE6HGRect,
                        __ZN11HGGLTextureC1E6HGRect8HGFormatP12HGGLRenderer, __ZN11HGGLTextureC1E6HGRect8HGFormatP12HGGLRenderermb,
                        __ZN11HGGLTextureC2E6HGRect8HGFormatP12HGGLRenderer, __ZN11HGGLTextureC2E6HGRect8HGFormatP12HGGLRenderermb,
                        __ZN11HGGLTextureD0Ev, __ZN11HGGLTextureD2Ev,
                        __ZN11HGLightWrap10RenderPageEP6HGPage, __ZN11HGLightWrap10_bindDepthEv,
                        __ZN11HGLightWrap14_depthTestFuncEv, __ZN11HGLightWrap16SetDepthBlendingEb,
                        __ZN11HGLightWrap18_saveDepthForInputEi, __ZN11HGLightWrap21UpdateLocalParametersEi,
                        __ZN11HGLightWrap6GetDODEP10HGRendereri6HGRect, __ZN11HGLightWrap8SetStateEP10HGRendereri,
                        __ZN11HGLightWrapC1Ev, __ZN11HGLightWrapD0Ev,
                        __ZN11HGLightWrapD2Ev, __ZN11HGLodBlend210RenderTileEP6HGTile,
                        __ZN11HGLodBlend212GetParameterEiPf, __ZN11HGLodBlend24BindEP9HGHandler,
                        __ZN11HGLodBlend26GetDODEP10HGRendereri6HGRect, __ZN11HGLodBlend29GetOutputEP10HGRenderer,
                        __ZN11HGLodBlend2C2Ev, __ZN11HGLodBlend2D1Ev,
                        __ZN11HGLodFilter10GetProgramEP10HGRenderer, __ZN11HGLodFilter10RenderTileEP6HGTile,
                        __ZN11HGLodFilter12GetTransformEb, __ZN11HGLodFilter4Axis8IdentityEi,
                        __ZN11HGLodFilter6GetDODEP10HGRendereri6HGRect, __ZN11HGLodFilter7GetRectE6HGRectbi,
                        __ZN11HGLodFilter8SetLevelE6HGRectS0_i15HGLodFilterMode, __ZN11HGLodFilterC1Ev,
                        __ZN11HGLodFilterD0Ev, __ZN11HGLodFilterD2Ev,
                        __ZN11HGNodeInputC2EP6HGNodei, __ZN11HGNodeInputD2Ev,
                        __ZN11HGOverwrite10RenderTileEP6HGTile, __ZN11HGOverwrite6GetDODEP10HGRendereri6HGRect,
                        __ZN11HGOverwriteC1Ev, __ZN11HGOverwriteD0Ev,
                        __ZN11HGOverwriteD2Ev, __ZN11HGPBOBitmap9WriteTileEPKv6HGRect,
                        __ZN11HGPBOBitmapC2EP16HGPixelBufferObj, __ZN11HGPBOBitmapD1Ev,
                        __ZN11HGRenderJob10GetUserTagEv, __ZN11HGRenderJob11GetRendererEv,
                        __ZN11HGRenderJob11GetUserNameEv, __ZN11HGRenderJob11SetRendererEP10HGRenderer,
                        __ZN11HGRenderJob11SetUserDataEPv, __ZN11HGRenderJob12GetTypeLabelEv,
                        __ZN11HGRenderJob13AddRenderNodeEP12HGRenderNode, __ZN11HGRenderJob14CallNotifyFuncEv,
                        __ZN11HGRenderJob15IsRenderTypeJobEv, __ZN11HGRenderJob16GetExecutionTimeEv,
                        __ZN11HGRenderJob16GetVirtualScreenEv, __ZN11HGRenderJob16SetVirtualScreenEi,
                        __ZN11HGRenderJob17SetSerializeLimitEh, __ZN11HGRenderJob18SetDumpHeliumGraphEb,
                        __ZN11HGRenderJob19UsesOnlyGPUResourceEv, __ZN11HGRenderJob20SetForceGLFinishFlagEb,
                        __ZN11HGRenderJob21AddRenderNodeInternalEP12HGRenderNode, __ZN11HGRenderJob23GetRenderThreadPriorityEv,
                        __ZN11HGRenderJob23SetRenderThreadPriorityENS_20RenderThreadPriorityE, __ZN11HGRenderJob25SetPreferredVirtualScreenEi,
                        __ZN11HGRenderJob34SetCustomRenderThreadPriorityValueEm, __ZN11HGRenderJob7SetTypeENS_4TypeE,
                        __ZN11HGRenderJob8SetStateENS_5StateE, __ZN11HGRenderJobC2Ev,
                        __ZN11HGRenderJobD1Ev, __ZN11HGStackPage3useEm,
                        __ZN11HGStackPage6commitEm, __ZN11HGStackPageC1Ev,
                        __ZN11HGStackPageC2Ev, __ZN11HGStackPageD2Ev,
                        __ZN11HGTexture1DC1EiP8HGBitmap, __ZN11HGTexture1DC2EiP8HGBitmap,
                        __ZN11HGTexture1DD1Ev, __ZN11HGTexture2DC1Ei8HGFormatPv,
                        __ZN11HGTexture2DC2Ei8HGFormatPv, __ZN11HGTexture2DD0Ev,
                        __ZN11HGTexture2DD2Ev, __ZN11HGTexture3DC1EiP8HGBitmap,
                        __ZN11HGTexture3DC2EiP8HGBitmap, __ZN11HGTexture3DD1Ev,
                        __ZN11HGToneCurve10CanProcessEv, __ZN11HGToneCurve10RenderTileEP6HGTile,
                        __ZN11HGToneCurve12GetParameterEiPf, __ZN11HGToneCurve15SetShaderParamsEv,
                        __ZN11HGToneCurve18SetToneCurveParamsENS_15hgToneCurveFormEfffffff, __ZN11HGToneCurve19SetPremultiplyStateEb,
                        __ZN11HGToneCurve4BindEP9HGHandler, __ZN11HGToneCurve6GetROIEP10HGRendereri6HGRect,
                        __ZN11HGToneCurve9GetOutputEP10HGRenderer, __ZN11HGToneCurveC2Ev,
                        __ZN11HGToneCurveD1Ev, __ZN11HGTransform11LoadColumnfEPKfi,
                        __ZN11HGTransform11LoadMatrixfEPKf, __ZN11HGTransform11PreMultiplyEPKS_,
                        __ZN11HGTransform12LoadIdentityEv, __ZN11HGTransform5ScaleEddd,
                        __ZN11HGTransform6InvertEv, __ZN11HGTransform8Invert2DEv,
                        __ZN11HGTransform8MultiplyEPKS_, __ZN11HGTransform9LoadOrthoEffffff,
                        __ZN11HGTransform9TransposeEv, __ZN11HGTransformC2Ev,
                        __ZN11HGTransformD1Ev, __ZN11HGTraversal18IterativeTraversalILNS_9NodeInputE1ELNS_10InputOrderE0EE7Visitor10bypassNodeEP10HGRendererP6HGNode,
                        __ZN11HGTraversal18IterativeTraversalILNS_9NodeInputE1ELNS_10InputOrderE0EE7Visitor12discoverNodeEP10HGRendererP6HGNode, __ZN11HGTraversal18IterativeTraversalILNS_9NodeInputE1ELNS_10InputOrderE0EE7Visitor13willVisitNodeEP10HGRendererP6HGNode,
                        __ZN11HGTraversal18IterativeTraversalILNS_9NodeInputE1ELNS_10InputOrderE0EE7Visitor17willVisitChildrenEP10HGRendererP6HGNode, __ZN11HGTraversal18IterativeTraversalILNS_9NodeInputE1ELNS_10InputOrderE0EE7Visitor9visitNodeEP10HGRendererP6HGNode,
                        __ZN11HGTraversal18RecursiveTraversalILNS_9NodeInputE1ELNS_10InputOrderE0EE7Visitor10bypassNodeEP10HGRendererP6HGNode, __ZN11HGTraversal18RecursiveTraversalILNS_9NodeInputE1ELNS_10InputOrderE0EE7Visitor12discoverNodeEP10HGRendererP6HGNode,
                        __ZN11HGTraversal18RecursiveTraversalILNS_9NodeInputE1ELNS_10InputOrderE0EE7Visitor13discoverChildEP10HGRendererP6HGNodei, __ZN11HGTraversal18RecursiveTraversalILNS_9NodeInputE1ELNS_10InputOrderE0EE7Visitor13willVisitNodeEP10HGRendererP6HGNode,
                        __ZN11HGTraversal18RecursiveTraversalILNS_9NodeInputE1ELNS_10InputOrderE0EE7Visitor17willVisitChildrenEP10HGRendererP6HGNode, __ZN11HGTraversal18RecursiveTraversalILNS_9NodeInputE1ELNS_10InputOrderE0EEclEP10HGRendererP6HGNodeRNS3_7VisitorE,
                        __ZN11HGTraversal24IterativeUniqueTraversalILNS_9NodeInputE1ELNS_13IteratorOrderE0ELNS_14TraversalOrderE0ELNS_10InputOrderE0EE7Visitor9visitNodeEP10HGRendererP6HGNode, __ZN11HGTraversal24IterativeUniqueTraversalILNS_9NodeInputE1ELNS_13IteratorOrderE0ELNS_14TraversalOrderE1ELNS_10InputOrderE1EE7Visitor9terminateEP10HGRendererP6HGNode,
                        __ZN11HGTraversal24IterativeUniqueTraversalILNS_9NodeInputE1ELNS_13IteratorOrderE0ELNS_14TraversalOrderE1ELNS_10InputOrderE1EEclEP10HGRendererP6HGNodeRNS5_7VisitorE, __ZN11HGTraversal24IterativeUniqueTraversalILNS_9NodeInputE1ELNS_13IteratorOrderE1ELNS_14TraversalOrderE1ELNS_10InputOrderE1EE7Visitor9visitNodeEP10HGRendererP6HGNode,
                        __ZN11HMotionBlur13SetTransformsERK14PCMatrix44TmplIdES3_S3_, __ZN11HMotionBlur6GetROIEP10HGRendereri6HGRect,
                        __ZN11HMotionBlurC1Ev, __ZN11HMotionBlurD0Ev,
                        __ZN11HMotionBlurD2Ev, __ZN11HgcAddNoise10RenderTileEP6HGTile,
                        __ZN11HgcAddNoise12GetParameterEiPf, __ZN11HgcAddNoise4BindEP9HGHandler,
                        __ZN11HgcAddNoise6GetROIEP10HGRendereri6HGRect, __ZN11HgcAddNoiseC1Ev,
                        __ZN11HgcAddNoiseD0Ev, __ZN11HgcAddNoiseD2Ev,
                        __ZN11HgcColorize10RenderTileEP6HGTile, __ZN11HgcColorize12GetParameterEiPf,
                        __ZN11HgcColorize4BindEP9HGHandler, __ZN11HgcColorize6GetROIEP10HGRendereri6HGRect,
                        __ZN11HgcColorizeC1Ev, __ZN11HgcColorizeD0Ev,
                        __ZN11HgcColorizeD2Ev, __ZN11HgcContrast10RenderTileEP6HGTile,
                        __ZN11HgcContrast12GetParameterEiPf, __ZN11HgcContrast4BindEP9HGHandler,
                        __ZN11HgcContrast6GetROIEP10HGRendereri6HGRect, __ZN11HgcContrastC1Ev,
                        __ZN11HgcContrastD0Ev, __ZN11HgcContrastD2Ev,
                        __ZN11HgcGamutMap10RenderTileEP6HGTile, __ZN11HgcGamutMap12GetParameterEiPf,
                        __ZN11HgcGamutMap4BindEP9HGHandler, __ZN11HgcGamutMap6GetROIEP10HGRendereri6HGRect,
                        __ZN11HgcGamutMapC1Ev, __ZN11HgcGamutMapD0Ev,
                        __ZN11HgcGamutMapD2Ev, __ZN11HgcMaskElem10RenderTileEP6HGTile,
                        __ZN11HgcMaskElem12GetParameterEiPf, __ZN11HgcMaskElem4BindEP9HGHandler,
                        __ZN11HgcMaskElem6GetROIEP10HGRendereri6HGRect, __ZN11HgcMaskElemC1Ev,
                        __ZN11HgcMaskElemD0Ev, __ZN11HgcMaskElemD2Ev,
                        __ZN11LiFixedSize17fixPixelTransformER7LiAgentP14PCMatrix44TmplIdERK18LiRenderParameters, __ZN11LiFixedSize20estimateRenderMemoryERNSt3__13setI9PCHash128NS0_4lessIS2_EENS0_9allocatorIS2_EEEE,
                        __ZN11LiFixedSize9getHeliumER7LiAgent, __ZN11LiFixedSizeC2Ev,
                        __ZN11LiFixedSizeD1Ev, __ZN11LiLightInfo17loadShadowSnippetEv,
                        __ZN11LiLightInfo3getEib, __ZN11LiLightInfoC1Ev,
                        __ZN11LiTransform9setMatrixERK14PCMatrix44TmplIdE, __ZN11LiTransformC1ERKS_,
                        __ZN11LiTransformC2ERKS_, __ZN11LiTransformD1Ev,
                        __ZN11LiTransformaSERKS_, __ZN11METimeRemap16setOutroDurationERK7FigTime,
                        __ZN11METimeRemap18setIsOutroOptionalEb, __ZN11METimeRemap20setScaleableDurationERK7FigTime,
                        __ZN11METimeRemap22setBuildEnableChannelsEPK13OZChannelBoolS2_, __ZN11METimeRemap9setIsLoopEb,
                        __ZN11METimeRemapC2Ev, __ZN11OMColorUtil10HueShift4fEf,
                        __ZN11OMColorUtil10RGB2LumaHSERK5Vec3fRS0_, __ZN11OMColorUtil11matchLvlBalERK5Vec3fS2_RfR5Vec2f,
                        __ZN11OMColorUtil12matchAnalyzeERK5Mat4fRfRiS3_S3_, __ZN11OMColorUtil13_customMatrixE,
                        __ZN11OMColorUtil16LumaCustomHS2RGBERK5Vec3fRS0_, __ZN11OMColorUtil19initCieChromacitiesEv,
                        __ZN11OMColorUtil20_customMatrixParam_aE, __ZN11OMColorUtil20setCustomMatrixParamEff,
                        __ZN11OMColorUtil24computeChromacitiesParamEffffffffRfS0_S0_R5Mat3f, __ZN11OMColorUtil7RgbGainERK5Vec3f,
                        __ZN11OMColorUtil8CxCy2HueEiff, __ZN11OMColorUtil9skinMatchERK5Vec2f,
                        __ZN11OZChannel2D13deriveChannelERK7FigTime, __ZN11OZChannel2D18getObjCWrapperNameEv,
                        __ZN11OZChannel2D4copyEPK13OZChannelBaseb, __ZN11OZChannel2D8simplifyERK7FigTimeS2_S2_djjb,
                        __ZN11OZChannel2DC1EP9OZFactoryRK8PCStringjjP13OZChannelImplP13OZChannelInfo, __ZN11OZChannel2DC1ERKS_P15OZChannelFolder,
                        __ZN11OZChannel2DC1EddP9OZFactoryRK8PCStringS4_S4_P15OZChannelFolderjjjP13OZChannelImplP13OZChannelInfo, __ZN11OZChannel2DC1EddRK8PCStringS2_S2_P15OZChannelFolderjjjP13OZChannelImplP13OZChannelInfo,
                        __ZN11OZChannel2DC2EP9OZFactoryRK8PCStringjjP13OZChannelImplP13OZChannelInfo, __ZN11OZChannel2DC2ERKS_P15OZChannelFolder,
                        __ZN11OZChannel2DC2EddP9OZFactoryRK8PCStringS4_S4_P15OZChannelFolderjjjP13OZChannelImplP13OZChannelInfo, __ZN11OZChannel2DC2EddRK8PCStringS2_S2_P15OZChannelFolderjjjP13OZChannelImplP13OZChannelInfo,
                        __ZN11OZChannel3D18getObjCWrapperNameEv, __ZN11OZChannel3D4copyEPK13OZChannelBaseb,
                        __ZN11OZChannel3D8simplifyEdddjb, __ZN11OZChannel3DC1EP9OZFactoryRK8PCStringjjP13OZChannelImplP13OZChannelInfo,
                        __ZN11OZChannel3DC1ERKS_P15OZChannelFolder, __ZN11OZChannel3DC1EdddRK8PCStringP15OZChannelFolderjjjP13OZChannelImplP13OZChannelInfo,
                        __ZN11OZChannel3DC2EP9OZFactoryRK8PCStringP15OZChannelFolderjjjP13OZChannelImplP13OZChannelInfo, __ZN11OZChannel3DC2ERK8PCStringP15OZChannelFolderjjjP13OZChannelImplP13OZChannelInfo,
                        __ZN11OZChannel3DC2EdddP9OZFactoryRK8PCStringP15OZChannelFolderjjjP13OZChannelImplP13OZChannelInfo, __ZN11OZChannel3DC2EdddRK8PCStringS2_S2_S2_P15OZChannelFolderjjjP13OZChannelImplP13OZChannelInfo,
                        __ZN11OZCurveEnum23_OZCurveEnumSplineStateE, __ZN11OZCurveNode11getMinValueEb,
                        __ZN11OZCurveNode28getTimeAndDistanceAlongCurveERK7FigTimejPS0_Pd, __ZN11OZCurveNodeC2ERKS_,
                        __ZN11OZCurveNodeD0Ev, __ZN11OZCurveNodeD2Ev,
                        __ZN11OZFactories11findFactoryERK6PCUUID, __ZN11OZFactories13lookupFactoryEj,
                        __ZN11OZFactories16setFactoryLoadIDEjP9OZFactory, __ZN11OZFactories17getFactoryLoadMapEv,
                        __ZN11OZFactories19clearFactoryLoadIDsEv, __ZN11OZFactoriesC1Ev,
                        __ZN11OZFactoriesD0Ev, __ZN11OZFactoriesD2Ev,
                        __ZN11OZImageMask10prerollEndERK14OZRenderParamsR14PMFrameRequest, __ZN11OZImageMask12prerollBeginERK14OZRenderParamsR14PMFrameRequestdP13FFPrerollSync,
                        __ZN11OZImageMask13getDimensionsEPfS0_RK13OZRenderState, __ZN11OZImageMask14getImageBoundsEP6PCRectIdERK13OZRenderState,
                        __ZN11OZImageMask14pruneAllTokensEPKc, __ZN11OZImageMask15sourceDidChangeEv,
                        __ZN11OZImageMask17pruneTokensAtTimeE7FigTimePKc, __ZN11OZImageMask19hintTokensWillImageERK14OZRenderParamsRKNSt3__16vectorINS3_4pairI7FigTimeNS4_IS6_NS3_9allocatorIS6_EEEEEENS7_ISA_EEEER14PMFrameRequest,
                        __ZN11OZImageMask21getPixelAspectRatioRNEv, __ZN11OZImageMask23pruneTokensExceptAtTimeE7FigTimePKc,
                        __ZN11OZImageMask4evalER14OZRenderParams, __ZN11OZImageMask8hitCheckERK9PCVector2IfERK13OZRenderStatePK8LiCameraR9PCVector3IdEj,
                        __ZN11OZImageMask9allowDragEP13OZFactoryBaseP13OZChannelBasejPjS4_j, __ZN11OZImageMask9openMediaEv,
                        __ZN11OZImageMaskC1ERKS_j, __ZN11OZImageMaskC2ERKS_j,
                        __ZN11OZImageMaskD1Ev, __ZN11OZImageMaskaSERK11OZSceneNode,
                        __ZN11OZImageNode13getDimensionsEPfS0_RK13OZRenderState, __ZN11OZImageNode15makeImageSourceER14OZRenderParamsRK18OZRenderGraphStateb,
                        __ZN11OZImageNode19getRenderHashInHostER14OZRenderParamsR17PCHashWriteStream, __ZN11OZImageNode24makeRenderTemporalSourceER14OZRenderParamsRK18OZRenderGraphStateb,
                        __ZN11OZImageNodeD0Ev, __ZN11OZImageNodeD2Ev,
                        __ZN11OZPDFRender13filteredEdgesEv, __ZN11OZPDFRender20estimateRenderMemoryERNSt3__13setI9PCHash128NS0_4lessIS2_EENS0_9allocatorIS2_EEEE,
                        __ZN11OZPDFRender9getHeliumER7LiAgent, __ZN11OZPDFRenderC1Ev,
                        __ZN11OZPDFRenderC2Ev, __ZN11OZPolygonAA16getEdgeAATextureEv,
                        __ZN11OZPolygonAA8purgeAllEv, __ZN11OZPolygonAAC1Ev,
                        __ZN11OZPolygonAAD0Ev, __ZN11OZPolygonAAD2Ev,
                        __ZN11OZRigWidget10copyWidgetERKS_, __ZN11OZRigWidget10parseBeginER22PCSerializerReadStream,
                        __ZN11OZRigWidget12parseElementER22PCSerializerReadStreamR15PCStreamElement, __ZN11OZRigWidget13CanRigChannelEPK13OZChannelBase,
                        __ZN11OZRigWidget13doPassThroughERK7FigTime, __ZN11OZRigWidget13sortSnapshotsEb,
                        __ZN11OZRigWidget14deleteSnapshotEP13OZRigSnapshot, __ZN11OZRigWidget15IsChannelRiggedEPK13OZChannelBase,
                        __ZN11OZRigWidget16getRiggedNodeIDsEPNSt3__13setIjNS0_4lessIjEENS0_9allocatorIjEEEE, __ZN11OZRigWidget17setActiveSnapshotEj,
                        __ZN11OZRigWidget17willStartEditModeEv, __ZN11OZRigWidget18getRiggedObjectIDsEPNSt3__13setIjNS0_4lessIjEENS0_9allocatorIjEEEE,
                        __ZN11OZRigWidget19getHighestSubchanIDEP15OZChannelFolder, __ZN11OZRigWidget19kDefaultSliderRangeE,
                        __ZN11OZRigWidget19willRemoveFromSceneEP7OZScene, __ZN11OZRigWidget20performDragOperationEP13OZFactoryBaseP13OZChannelBasejjjjRK7FigTime,
                        __ZN11OZRigWidget21createSnapshotAtIndexEj, __ZN11OZRigWidget21unregisterRigBehaviorEP13OZRigBehavior,
                        __ZN11OZRigWidget22detectNonCloneableChanEP13OZChannelBase, __ZN11OZRigWidget23createSnapshotWithValueEdRK7FigTime,
                        __ZN11OZRigWidget24_OZRigWidget_valueDoubleE, __ZN11OZRigWidget27_OZRigWidget_pSliderMaxChanE,
                        __ZN11OZRigWidget28_OZRigWidget_valueDoubleInfoE, __ZN11OZRigWidget31copyTargetChansToActiveSnapshotEv,
                        __ZN11OZRigWidget33_OZRigWidget_valueAspectRatioInfoE, __ZN11OZRigWidget6createERK8PCStringjj,
                        __ZN11OZRigWidget8parseEndER22PCSerializerReadStream, __ZN11OZRigWidget9writeBodyER23PCSerializerWriteStreambbb,
                        __ZN11OZRigWidgetC1ERKS_j, __ZN11OZRigWidgetC2ERKS_j,
                        __ZN11OZRigWidgetD1Ev, __ZN11OZRigWidgetaSERK11OZSceneNode,
                        __ZN11OZRotoshape10canReflectEv, __ZN11OZRotoshape10getSamplesERK13OZRenderStateRNSt3__16vectorIdNS3_9allocatorIdEEEES8_,
                        __ZN11OZRotoshape10prerollEndERK14OZRenderParamsR14PMFrameRequest, __ZN11OZRotoshape11addVerticesE7FigTimeRNSt3__16vectorI9PCVector2IdENS1_9allocatorIS4_EEEE,
                        __ZN11OZRotoshape11descriptionEv, __ZN11OZRotoshape11getUIBoundsEP6PCRectIdERK13OZRenderState,
                        __ZN11OZRotoshape11useTangentsEv, __ZN11OZRotoshape12biasSelectedERNSt3__14listI24OZShapeOnScreenSelectionNS0_9allocatorIS2_EEEE7FigTimed,
                        __ZN11OZRotoshape12getBoxLimitsER9PCVector2IdES2_S2_S2_PdS3_S3_S3_, __ZN11OZRotoshape12lockSelectedERNSt3__14listI24OZShapeOnScreenSelectionNS0_9allocatorIS2_EEEEb,
                        __ZN11OZRotoshape12pointInShapeERK13OZRenderStatedd, __ZN11OZRotoshape12saveTangentsER24OZShapeOnScreenSelection7FigTime,
                        __ZN11OZRotoshape13breakTangentsER24OZShapeOnScreenSelectionb, __ZN11OZRotoshape13continueCurveEv,
                        __ZN11OZRotoshape13didAddToSceneEP7OZScene, __ZN11OZRotoshape13getBorderSizeERK13OZRenderStatePdS3_,
                        __ZN11OZRotoshape13isPrecomposedERK7FigTime, __ZN11OZRotoshape13pointOnStrokeERK13OZRenderStatedd,
                        __ZN11OZRotoshape13setTimeExtentERK11PCTimeRangeb, __ZN11OZRotoshape14convertToShapeEv,
                        __ZN11OZRotoshape14deleteSelectedERNSt3__14listI24OZShapeOnScreenSelectionNS0_9allocatorIS2_EEEE, __ZN11OZRotoshape14getTokensImageERK14OZRenderParamsRKNSt3__16vectorINS3_4pairI7FigTimeNS4_IS6_NS3_9allocatorIS6_EEEEEENS7_ISA_EEEER14PMFrameRequest,
                        __ZN11OZRotoshape14pruneAllTokensEPKc, __ZN11OZRotoshape14setTangentFlagER24OZShapeOnScreenSelection7FigTimedd,
                        __ZN11OZRotoshape14weightTangentsER24OZShapeOnScreenSelectionb, __ZN11OZRotoshape15flattenSelectedERNSt3__14listI24OZShapeOnScreenSelectionNS0_9allocatorIS2_EEEE7FigTime,
                        __ZN11OZRotoshape15setVertexValueXE10OZVertex2D7FigTimed, __ZN11OZRotoshape16buildRenderGraphER14OZRenderParamsP14LiGraphBuilderRK18OZRenderGraphState,
                        __ZN11OZRotoshape16canUseCurrentBoxE7FigTime, __ZN11OZRotoshape16setInterpolationEj,
                        __ZN11OZRotoshape17checkWindingOrderERK13OZRenderStateP19OZShapeRenderParamsP14PCMatrix44TmplIdEb, __ZN11OZRotoshape17hasShapeBehaviorsEv,
                        __ZN11OZRotoshape17resetTransformBoxEv, __ZN11OZRotoshape17useControlPolygonEv,
                        __ZN11OZRotoshape18getProjectedBoundsEP6PCRectIdERK14PCMatrix44TmplIdERK13OZRenderState, __ZN11OZRotoshape18offsetBiasSelectedERNSt3__14listI24OZShapeOnScreenSelectionNS0_9allocatorIS2_EEEE7FigTimed,
                        __ZN11OZRotoshape19computeTransformBoxERNSt3__14listI24OZShapeOnScreenSelectionNS0_9allocatorIS2_EEEE7FigTime, __ZN11OZRotoshape19getLockDependenciesEP9OZLockingP15PCDirectedGraphIS1_EPNSt3__13setIS1_NS5_4lessIS1_EENS5_9allocatorIS1_EEEE,
                        __ZN11OZRotoshape19getPreviewSceneNodeEv, __ZN11OZRotoshape19setLithiumTransformEP13LiSceneObjectRK14OZRenderParams,
                        __ZN11OZRotoshape19willRemoveFromSceneEP7OZScene, __ZN11OZRotoshape20setGeodeProperties3DERK14OZRenderParamsRK18OZRenderGraphStateP7LiGeode,
                        __ZN11OZRotoshape21alignTangentsSelectedERNSt3__14listI24OZShapeOnScreenSelectionNS0_9allocatorIS2_EEEE7FigTime, __ZN11OZRotoshape21getTransformedSamplesERK13OZRenderStateRNSt3__16vectorIdNS3_9allocatorIdEEEES8_S8_14PCMatrix44TmplIdE,
                        __ZN11OZRotoshape21setTangents45SelectedERNSt3__14listI24OZShapeOnScreenSelectionNS0_9allocatorIS2_EEEE7FigTimeddbb, __ZN11OZRotoshape22createSnapSetForCameraEP8LiCameraPNSt3__13setI6OZSnapNS2_4lessIS4_EENS2_9allocatorIS4_EEEERK13OZRenderStatebb,
                        __ZN11OZRotoshape22unlocalizedDescriptionEv, __ZN11OZRotoshape23getNaturalDurationFlagsEv,
                        __ZN11OZRotoshape23prepareForDragOperationEP11OZPasteListP13OZChannelBasejj, __ZN11OZRotoshape24calcHashForStateSelfOnlyER23PCSerializerWriteStreamRK14OZRenderParams,
                        __ZN11OZRotoshape24setupDeformationSelectedERNSt3__14listI24OZShapeOnScreenSelectionNS0_9allocatorIS2_EEEE7FigTime, __ZN11OZRotoshape26restrictImageMaskToStencilEv,
                        __ZN11OZRotoshape27getChannelFromRefAndVersionEP12OZChannelRefd, __ZN11OZRotoshape30areEffectsAppliedInScreenSpaceEv,
                        __ZN11OZRotoshape31getReparametrizedPointOnContourERK13OZRenderStatedPdS3_S3_S3_bP14PCMatrix44TmplIdEb, __ZN11OZRotoshape5dirtyEv,
                        __ZN11OZRotoshape7setRateERK14OZRenderParamsR14PMFrameRequestd, __ZN11OZRotoshape8parseEndER22PCSerializerReadStream,
                        __ZN11OZRotoshape8setSceneEP7OZScene, __ZN11OZRotoshape9allowDragEP13OZFactoryBaseP13OZChannelBasejPjS4_j,
                        __ZN11OZRotoshape9deleteAllEv, __ZN11OZRotoshape9openCurveEP24OZShapeOnScreenSelection,
                        __ZN11OZRotoshape9setIsMaskEv, __ZN11OZRotoshapeC1EP9OZFactoryRK8PCStringj,
                        __ZN11OZRotoshapeC2EP9OZFactoryRK8PCStringj, __ZN11OZRotoshapeD0Ev,
                        __ZN11OZRotoshapeD2Ev, __ZN11OZRotoshapeeqERKS_,
                        __ZN11OZSceneList17getIterationMutexEv, __ZN11OZSceneList5beginEv,
                        __ZN11OZSceneList8instanceEv, __ZN11OZSceneListC2Ev,
                        __ZN11OZSceneListD1Ev, __ZN11OZSceneNode10deleteThisEP13OZChannelBase,
                        __ZN11OZSceneNode10parseBeginER22PCSerializerReadStream, __ZN11OZSceneNode10rbegin_selEv,
                        __ZN11OZSceneNode11addLinkedIDEj, __ZN11OZSceneNode11getBehaviorEj,
                        __ZN11OZSceneNode11masks_beginEv, __ZN11OZSceneNode11removeStyleEP7OZStyle,
                        __ZN11OZSceneNode11writeHeaderER23PCSerializerWriteStreamb, __ZN11OZSceneNode12getSceneNodeEv,
                        __ZN11OZSceneNode12prerollBeginERK14OZRenderParamsR14PMFrameRequestdP13FFPrerollSync, __ZN11OZSceneNode13canBeExportedEv,
                        __ZN11OZSceneNode13didAddToSceneEP7OZScene, __ZN11OZSceneNode14calcStaticHashER23PCSerializerWriteStreamRNSt3__14listIP19OZObjectManipulatorNS2_9allocatorIS5_EEEEb,
                        __ZN11OZSceneNode14getTokensImageERK14OZRenderParamsRKNSt3__16vectorINS3_4pairI7FigTimeNS4_IS6_NS3_9allocatorIS6_EEEEEENS7_ISA_EEEER14PMFrameRequest, __ZN11OZSceneNode14removeBehaviorEP10OZBehavior,
                        __ZN11OZSceneNode14scheduleTokensERK14OZRenderParamsRKNSt3__16vectorINS3_4pairI7FigTimeNS4_IS6_NS3_9allocatorIS6_EEEEEENS7_ISA_EEEER14PMFrameRequestPNS4_IP15FFScheduleTokenNS7_ISI_EEEE, __ZN11OZSceneNode15getRootAncestorEv,
                        __ZN11OZSceneNode15updateLinkedIDsEPNSt3__13mapIjjNS0_4lessIjEENS0_9allocatorINS0_4pairIKjjEEEEEE, __ZN11OZSceneNode16removeFromLinkedEv,
                        __ZN11OZSceneNode17begin_descendantsEv, __ZN11OZSceneNode17didUndoLastChangeEv,
                        __ZN11OZSceneNode17insertEffectAfterEP8OZEffectS1_, __ZN11OZSceneNode17willDeleteChannelEP13OZChannelBase,
                        __ZN11OZSceneNode18insertEffectBeforeEP8OZEffectS1_, __ZN11OZSceneNode19hintTokensWillImageERK14OZRenderParamsRKNSt3__16vectorINS3_4pairI7FigTimeNS4_IS6_NS3_9allocatorIS6_EEEEEENS7_ISA_EEEER14PMFrameRequest,
                        __ZN11OZSceneNode19willRemoveFromSceneEP7OZScene, __ZN11OZSceneNode20getDescendantAtIndexEj,
                        __ZN11OZSceneNode20invalidateStaticHashEv, __ZN11OZSceneNode21_sequenceEffectInputsEv,
                        __ZN11OZSceneNode21cloneBehaviorsEffectsERKS_j, __ZN11OZSceneNode21isAffectedByBehaviorsEv,
                        __ZN11OZSceneNode22getSourceOperationMaskEP13OZChannelBaseb, __ZN11OZSceneNode23pruneTokensExceptAtTimeE7FigTimePKc,
                        __ZN11OZSceneNode26_internalInsertEffectAfterEP8OZEffectS1_b, __ZN11OZSceneNode27getStaticHashWithoutEffectsER23PCSerializerWriteStreamRNSt3__14listIP19OZObjectManipulatorNS2_9allocatorIS5_EEEE,
                        __ZN11OZSceneNode29isAffectedByBakeableBehaviorsEv, __ZN11OZSceneNode32didFinishLoadingIntoMotionEffectEv,
                        __ZN11OZSceneNode4bakeEv, __ZN11OZSceneNode4linkEv,
                        __ZN11OZSceneNode4rendEv, __ZN11OZSceneNode5dirtyEv,
                        __ZN11OZSceneNode6freezeEv, __ZN11OZSceneNode6renameEP13OZChannelBaseP8PCString,
                        __ZN11OZSceneNode6unlinkEv, __ZN11OZSceneNode7end_selEv,
                        __ZN11OZSceneNode7setRateERK14OZRenderParamsR14PMFrameRequestd, __ZN11OZSceneNode8addStyleEP7OZStyle,
                        __ZN11OZSceneNode8hitCheckERK6PCRectIdERK13OZRenderStatePK8LiCamera, __ZN11OZSceneNode8isFrozenEv,
                        __ZN11OZSceneNode8parseEndER22PCSerializerReadStream, __ZN11OZSceneNode8setSceneEP7OZScene,
                        __ZN11OZSceneNode9addEffectEP8OZEffectS1_, __ZN11OZSceneNode9begin_selEv,
                        __ZN11OZSceneNode9getEffectEj, __ZN11OZSceneNode9openMediaEv,
                        __ZN11OZSceneNode9writeBodyER23PCSerializerWriteStreambbb, __ZN11OZSceneNodeC1ERKS_,
                        __ZN11OZSceneNodeC2EP9OZFactoryRK8PCStringj, __ZN11OZSceneNodeC2ERKS_j,
                        __ZN11OZSceneNodeD1Ev, __ZN11OZSceneNodeaSERKS_,
                        __ZN11PCAlgorithm12superEllipseEddddRdS0_, __ZN11PCAlgorithm15BezierSubdivideERK9PCVector4IdES3_S3_S3_iddP14PCMatrix44TmplIdERNSt3__16vectorIdNS7_9allocatorIdEEEESC_PSB_SC_,
                        __ZN11PCAlgorithm16findIntersectionER9PCVector2IdES2_S2_S2_S2_, __ZN11PCAlgorithm17checkIntersectionERK9PCVector2IdES3_S3_S3_,
                        __ZN11PCAlgorithm20DeCasteljauSubdivideEdddPdS0_S0_S0_S0_S0_, __ZN11PCAlgorithm34findProjectionOn45DegreesDirectionE9PCVector2IdES1_d,
                        __ZN11PCAlgorithm6snap45EddddR9PCVector2IdE, __ZN11PCEvaluator18findPointOnEllipseEdddddPdS0_S0_,
                        __ZN11PCEvaluator19findPointOnSineWaveEdddddddiPdS0_, __ZN11PCEvaluatorC1ERKS_,
                        __ZN11PCEvaluatorC2ERKS_, __ZN11PCEvaluatorD1Ev,
                        __ZN11PCException19addCallStackSymbolsEv, __ZN11PCSemaphore6signalEv,
                        __ZN11PCSemaphoreC2Ej, __ZN11PCSemaphoreD2Ev,
                        __ZN11PCSingleton16deleteSingletonsEv, __ZN11PCSingletonC1Ej,
                        __ZN11PCSingletonD0Ev, __ZN11PCSingletonD2Ev,
                        __ZN11PCSweepline11findSegmentEP12PCEdgeVertex, __ZN11PCSweepline22getSegmentAboveSegmentEP10PCTreeNodeI13PCEdgeSegmentE,
                        __ZN11PCSweepline9intersectEP10PCTreeNodeI13PCEdgeSegmentES3_, __ZN11PCSweeplineC2ERNSt3__16vectorI9PCVector2IdENS0_9allocatorIS3_EEEE,
                        __ZN11PCSweeplineD2Ev, __ZN11PCTimeRange21setAsIntersectionWithERKS_RK7FigTime,
                        __ZN11PGTexture2D10setDataPtrEPKvjjjjjj, __ZN11PGTexture2D13setPGLTextureERKN5ProGL13TextureHandleE,
                        __ZN11PGTexture2D4copyEllllll, __ZN11PGTexture2DC1ERKN5ProGL13TextureHandleE,
                        __ZN11PGTexture2DC2ERKN5ProGL13TextureHandleE, __ZN11PGTexture2DD0Ev,
                        __ZN11PGTexture2DD2Ev, __ZN11PSImageTint8setColorERK20PCWorkingColorVector,
                        __ZN11PSImageTintC1Ev, __ZN11PSImageTintD0Ev,
                        __ZN11PSImageTintD2Ev, __ZN11PVPerfStats10FrameStats3EndEj,
                        __ZN11PVPerfStats10FrameStats3minERKS0_, __ZN11PVPerfStats10FrameStats5ClearEv,
                        __ZN11PVPerfStats10FrameStatsC1Ej6CMTimeb, __ZN11PVPerfStats10FrameStatsC2Ej6CMTimeb,
                        __ZN11PVPerfStats10FrameStatsdvEi, __ZN11PVPerfStats10FrameStatsmLERKS0_,
                        __ZN11PVPerfStats10FrameStatsmlERKS0_, __ZN11PVPerfStats10FrameStatsplERKS0_,
                        __ZN11PVPerfStats12SetOnceStatsENS_9OnceStatsE, __ZN11PVPerfStats14CalculateStatsEv,
                        __ZN11PVPerfStats16GetTimeSinceLastENS_10FrameStatsE, __ZN11PVPerfStats22PlaybackRateCalculator14FrameStatAddedEv,
                        __ZN11PVPerfStats22PlaybackRateCalculator3EndEv, __ZN11PVPerfStats22PlaybackRateCalculatorC2ERNSt3__16vectorINS_10FrameStatsENS1_9allocatorIS3_EEEE,
                        __ZN11PVPerfStats24GetFrameStatsDescriptionEv, __ZN11PVPerfStats5PrintEjb,
                        __ZN11PVPerfStats7PerfLogEP8NSStringz, __ZN11PVPerfStats9NumFramesEv,
                        __ZN11PVPerfStats9StartTimeEv, __ZN11PVPerfStatsC1Ev,
                        __ZN11TXTextInput10changeTextEjjRK8PCString, __ZN11TXTextInput10deleteThisEP13OZChannelBase,
                        __ZN11TXTextInput10selectLineEm, __ZN11TXTextInput10selectWordERK9PCVector2IfERK13OZRenderStateP8LiCameraP14PCMatrix44TmplIdE,
                        __ZN11TXTextInput10selectWordEv, __ZN11TXTextInput12deleteToMarkEv,
                        __ZN11TXTextInput12moveBackwardEv, __ZN11TXTextInput12scrollLineUpEv,
                        __ZN11TXTextInput12selectToMarkEv, __ZN11TXTextInput13canHandleUndoEv,
                        __ZN11TXTextInput13insertBacktabEv, __ZN11TXTextInput13isStringValidERK8PCString,
                        __ZN11TXTextInput13moveWordRightEv, __ZN11TXTextInput14capitalizeWordEv,
                        __ZN11TXTextInput14removeBehaviorEP10OZBehavior, __ZN11TXTextInput14scrollPageDownEv,
                        __ZN11TXTextInput15deleteSelectionEv, __ZN11TXTextInput15moveToEndOfLineEv,
                        __ZN11TXTextInput15selectParagraphEv, __ZN11TXTextInput16decrementKerningEd7FigTime,
                        __ZN11TXTextInput16deleteTextHelperE7FigTimejj, __ZN11TXTextInput16incrementKerningEv,
                        __ZN11TXTextInput16resetTextChannelEv, __ZN11TXTextInput17deleteWordForwardEv,
                        __ZN11TXTextInput18deleteWordBackwardEv, __ZN11TXTextInput19moveToEndOfDocumentEv,
                        __ZN11TXTextInput20behaviorChangedStateEP10OZBehavior, __ZN11TXTextInput20insertAndCreateStyleE7FigTimejRK8PCStringbb,
                        __ZN11TXTextInput20performDragOperationEP13OZFactoryBaseP13OZChannelBasejjjjRK7FigTime, __ZN11TXTextInput21cloneBehaviorsEffectsERK11OZSceneNodej,
                        __ZN11TXTextInput22deleteToEndOfParagraphEv, __ZN11TXTextInput23getStringFromPasteboardEv,
                        __ZN11TXTextInput24insertParagraphSeparatorEv, __ZN11TXTextInput25moveToBeginningOfDocumentEv,
                        __ZN11TXTextInput26didRebuildTextFromBehaviorEv, __ZN11TXTextInput26moveLeftAndModifySelectionEv,
                        __ZN11TXTextInput27moveRightAndModifySelectionEv, __ZN11TXTextInput28centerSelectionInVisibleAreaEv,
                        __ZN11TXTextInput28insertTabIgnoringFieldEditorEv, __ZN11TXTextInput29postTextSelectionNotificationEv,
                        __ZN11TXTextInput30moveWordLeftAndModifySelectionEv, __ZN11TXTextInput32insertNewlineIgnoringFieldEditorEv,
                        __ZN11TXTextInput34moveWordBackwardAndModifySelectionEv, __ZN11TXTextInput44deleteBackwardByDecomposingPreviousCharacterEv,
                        __ZN11TXTextInput6createERK8PCStringj, __ZN11TXTextInput6insertE7FigTimejRK8PCStringP11TXTextStylebb,
                        __ZN11TXTextInput6notifyEj, __ZN11TXTextInput7endUndoEv,
                        __ZN11TXTextInput7setTextE7FigTimeRK8PCString, __ZN11TXTextInput8moveDownEv,
                        __ZN11TXTextInput8pageDownEv, __ZN11TXTextInput9insertTabEv,
                        __ZN11TXTextInput9transposeEv, __ZN11TXTextInputC1ERKS_j,
                        __ZN11TXTextInputC2ERKS_j, __ZN11TXTextInputD1Ev,
                        __ZN11TXTextStyle10deleteThisEP13OZChannelBase, __ZN11TXTextStyle10hasTextureEi,
                        __ZN11TXTextStyle10prerollEndERK14OZRenderParamsR14PMFrameRequest, __ZN11TXTextStyle10updateFontEv,
                        __ZN11TXTextStyle11getFontFaceEv, __ZN11TXTextStyle11setTrackingEi,
                        __ZN11TXTextStyle12prerollBeginERK14OZRenderParamsR14PMFrameRequestdP13FFPrerollSync, __ZN11TXTextStyle14calcStaticHashER23PCSerializerWriteStreamRNSt3__14listIP19OZObjectManipulatorNS2_9allocatorIS5_EEEE,
                        __ZN11TXTextStyle14pruneAllTokensEPKc, __ZN11TXTextStyle14scheduleTokensERK14OZRenderParamsRKNSt3__16vectorINS3_4pairI7FigTimeNS4_IS6_NS3_9allocatorIS6_EEEEEENS7_ISA_EEEER14PMFrameRequestPNS4_IP15FFScheduleTokenNS7_ISI_EEEE,
                        __ZN11TXTextStyle14updateGradientE7FigTime, __ZN11TXTextStyle15getColorChannelEi,
                        __ZN11TXTextStyle16didResetMaterialEj, __ZN11TXTextStyle17getTextureChannelEi,
                        __ZN11TXTextStyle17pruneTokensAtTimeE7FigTimePKc, __ZN11TXTextStyle18_TXTextStyle_slantE,
                        __ZN11TXTextStyle18getGradientChannelEi, __ZN11TXTextStyle18getMonospaceAmountE7FigTime,
                        __ZN11TXTextStyle19getPreviewSceneNodeEv, __ZN11TXTextStyle19prerollBeginForNodeER25OZChannelImageWithOptionsRK14OZRenderParamsR14PMFrameRequestdP13FFPrerollSync,
                        __ZN11TXTextStyle20behaviorChangedStateEP10OZBehavior, __ZN11TXTextStyle21_TXTextStyle_glowBlurE,
                        __ZN11TXTextStyle21_TXTextStyle_trackingE, __ZN11TXTextStyle21pruneAllTokensForNodeER25OZChannelImageWithOptionsPKc,
                        __ZN11TXTextStyle22_TXTextStyle_slantInfoE, __ZN11TXTextStyle23_TXTextStyle_glowRadiusE,
                        __ZN11TXTextStyle23pruneTokensExceptAtTimeE7FigTimePKc, __ZN11TXTextStyle24_TXTextStyle_kerningInfoE,
                        __ZN11TXTextStyle24pruneTokensAtTimeForNodeER25OZChannelImageWithOptions7FigTimePKc, __ZN11TXTextStyle25_TXTextStyle_faceBlurInfoE,
                        __ZN11TXTextStyle25_TXTextStyle_outlineWidthE, __ZN11TXTextStyle26hintTokensWillImageForNodeER25OZChannelImageWithOptionsRK14OZRenderParamsRKNSt3__16vectorINS5_4pairI7FigTimeNS6_IS8_NS5_9allocatorIS8_EEEEEENS9_ISC_EEEER14PMFrameRequest,
                        __ZN11TXTextStyle27_TXTextStyle_dropShadowBlurE, __ZN11TXTextStyle28_TXTextStyle_dropShadowAngleE,
                        __ZN11TXTextStyle28_TXTextStyle_outlineBlurInfoE, __ZN11TXTextStyle29_TXTextStyle_outlineWidthInfoE,
                        __ZN11TXTextStyle29materialChannelValueWillBeSetEP9OZChannelRK7FigTimeb, __ZN11TXTextStyle30pruneTokensExceptAtTimeForNodeER25OZChannelImageWithOptions7FigTimePKc,
                        __ZN11TXTextStyle31_TXTextStyle_dropShadowDistanceE, __ZN11TXTextStyle35getSequenceChannelsForMaterialLayerEii,
                        __ZN11TXTextStyle7releaseEv, __ZN11TXTextStyle7setFontERK8PCString,
                        __ZN11TXTextStyle8parseEndER22PCSerializerReadStream, __ZN11TXTextStyle9copyStyleERKS_,
                        __ZN11TXTextStyle9setFontIDEj, __ZN11TXTextStyle9writeBodyER23PCSerializerWriteStreambbb,
                        __ZN11TXTextStyleC1ERKS_j, __ZN11TXTextStyleC2ERKS_j,
                        __ZN11TXTextStyleD1Ev, __ZN12FresnelLayer12computeColorERK12LayerContextR17SurfaceProperties,
                        __ZN12FresnelLayer8isOpaqueERbP17LiLayeredMaterialR18LiTextureEvaluator, __ZN12FresnelLayerC1EPv,
                        __ZN12HGApply1DLUT10SetLUTDataEPvi, __ZN12HGApply1DLUT12SetLUTBitmapEP8HGBitmap,
                        __ZN12HGApply1DLUT6SetLUTEPFiPvfPfS1_S1_S1_ES0_, __ZN12HGApply1DLUTC1Ej,
                        __ZN12HGApply1DLUTC1Ev, __ZN12HGApply1DLUTC2Ejffbbbbbb,
                        __ZN12HGApply1DLUTD0Ev, __ZN12HGApply1DLUTD2Ev,
                        __ZN12HGApply3DLUT4InitEm8HGFormatffbNS_29hgApply3DLUTInterpolationTypeEbbbb, __ZN12HGApply3DLUT6SetLUTEPFiPvfffPfS1_S1_S1_ES0_,
                        __ZN12HGApply3DLUT8InvCubicEf, __ZN12HGApply3DLUTC1Em,
                        __ZN12HGApply3DLUTC1Em8HGFormatffbNS_29hgApply3DLUTInterpolationTypeE, __ZN12HGApply3DLUTC1Em8HGFormatffffffbNS_29hgApply3DLUTInterpolationTypeEbbbb,
                        __ZN12HGApply3DLUTC2Em, __ZN12HGApply3DLUTC2Em8HGFormatffbNS_29hgApply3DLUTInterpolationTypeE,
                        __ZN12HGApply3DLUTC2Em8HGFormatffffffbNS_29hgApply3DLUTInterpolationTypeEbbbb, __ZN12HGApply3DLUTD0Ev,
                        __ZN12HGApply3DLUTD2Ev, __ZN12HGColorClamp17SetClampMaxValuesEffff,
                        __ZN12HGColorClamp9GetOutputEP10HGRenderer, __ZN12HGColorClampC1Ev,
                        __ZN12HGColorClampC2Ev, __ZN12HGColorClampD1Ev,
                        __ZN12HGColorGamma10RenderTileEP6HGTile, __ZN12HGColorGamma11CanLoadDataEP6HGNodePbP8HGFormat,
                        __ZN12HGColorGamma11LoadMatrix1EPK19__simd128_float32_t, __ZN12HGColorGamma11P3D65ToSRGBE,
                        __ZN12HGColorGamma11sRGBToP3D65E, __ZN12HGColorGamma12SetGammaFormENS_16hgColorGammaFormE,
                        __ZN12HGColorGamma13m_GetCropNodeEv, __ZN12HGColorGamma14SetGammaParamsE19__simd128_float32_tS0_S0_S0_S0_S0_S0_,
                        __ZN12HGColorGamma14m_GetBias2NodeEv, __ZN12HGColorGamma15SetFallbackModeEb,
                        __ZN12HGColorGamma16m_GetGammaMCNodeEv, __ZN12HGColorGamma16sRGBToRec2020RGBE,
                        __ZN12HGColorGamma18SetToneQualityModeENS_23hgColorGammaToneQualityE, __ZN12HGColorGamma18m_GetMatrix_2_NodeEv,
                        __ZN12HGColorGamma19LoadMacroNodeParamsEv, __ZN12HGColorGamma19SetConversionPresetENS_28hgColorGammaConversionPresetE,
                        __ZN12HGColorGamma19SetPremultiplyStateEbb, __ZN12HGColorGamma19rec709RGBToP3D65RGBE,
                        __ZN12HGColorGamma20P3D65RGBToRec2020RGBE, __ZN12HGColorGamma20SetYCbCrBiasAndScaleEv,
                        __ZN12HGColorGamma20m_GetPremultiplyNodeEv, __ZN12HGColorGamma20m_GetToneParamCurve1Ev,
                        __ZN12HGColorGamma20m_GetToneParamCurve3Ev, __ZN12HGColorGamma20rec2020RGBToDCIP3RGBE,
                        __ZN12HGColorGamma21AdjustToneQualityModeEP6HGNode, __ZN12HGColorGamma21SetInOut422FilterRectE6HGRect,
                        __ZN12HGColorGamma21m_GetGammaUniformNodeEv, __ZN12HGColorGamma21rec709RGBToRec2020RGBE,
                        __ZN12HGColorGamma22arriLogCRGBToRec709RGBE, __ZN12HGColorGamma22rec709RGBToRec709YCbCrE,
                        __ZN12HGColorGamma23bmdFilm4KRGBToRec709RGBE, __ZN12HGColorGamma23rec601PALRGBToRec709RGBE,
                        __ZN12HGColorGamma24m_Get2vuy_XYXZExpandNodeEv, __ZN12HGColorGamma24m_Getv210_YXZXExpandNodeEv,
                        __ZN12HGColorGamma24rec2020RGBToRec2020YCbCrE, __ZN12HGColorGamma24rec2020YCbCrToRec2020RGBE,
                        __ZN12HGColorGamma24rec601PALRGBToRec2020RGBE, __ZN12HGColorGamma25m_GetChromaUpsampleF1NodeEv,
                        __ZN12HGColorGamma25rec601NTSCRGBToRec2020RGBE, __ZN12HGColorGamma26m_Get2vuy_YXZXCollapseNodeEv,
                        __ZN12HGColorGamma26m_Getv216_YXZXCollapseNodeEv, __ZN12HGColorGamma27m_GetChromaDownsampleF1NodeEv,
                        __ZN12HGColorGamma30rec601NTSCRGBToRec601NTSCYCbCrE, __ZN12HGColorGamma32daylightSonySGamutRGBToRec709RGBE,
                        __ZN12HGColorGamma47m_GetPixelFormatConversion_kV4B_WXYZ_OutputNodeEv, __ZN12HGColorGamma47m_GetPixelFormatConversion_kV4S_WXYZ_OutputNodeEv,
                        __ZN12HGColorGamma50m_GetPixelFormatConversion_kV4S_BE_WXYZ_OutputNodeEv, __ZN12HGColorGamma6GetROIEP10HGRendereri6HGRect,
                        __ZN12HGColorGamma8SetBias2E19__simd128_float32_t, __ZN12HGColorGamma9GetOutputEP10HGRenderer,
                        __ZN12HGColorGamma9SetClamp2E19__simd128_float32_tS0_, __ZN12HGColorGamma9SetScale2E19__simd128_float32_t,
                        __ZN12HGColorGammaC2Ev, __ZN12HGColorGammaD1Ev,
                        __ZN12HGEdgePolicyC1ENS_8WrapModeE, __ZN12HGEdgePolicyC2ENS_8WrapModeE,
                        __ZN12HGGLRenderer10BindBufferEP8HGBuffer, __ZN12HGGLRenderer10ClearMetalEP8HGBuffer6HGRectPf,
                        __ZN12HGGLRenderer10GenProgramEP6HGNodeb, __ZN12HGGLRenderer10GetTextureEP8HGBitmap,
                        __ZN12HGGLRenderer10RenderPageEP6HGNodeP6HGPage, __ZN12HGGLRenderer10TestShaderERK8HGStringP8HGLimitsPPK13HGShaderEntry,
                        __ZN12HGGLRenderer11BindProgramEPK13HGShaderEntryPv, __ZN12HGGLRenderer11BindTextureEiP9HGTextureP11HGTransform12HGFilterMode,
                        __ZN12HGGLRenderer11ClearBufferEP8HGBuffer6HGRectS2_, __ZN12HGGLRenderer11LoadTextureE6HGRectP8HGBitmap,
                        __ZN12HGGLRenderer11ProcessNodeEP6HGNode6HGRect8HGFormatP8HGBitmapP8HGBufferbb, __ZN12HGGLRenderer12CreateBitmapE6HGRect,
                        __ZN12HGGLRenderer12CreateBufferE6HGRect8HGFormatb, __ZN12HGGLRenderer12GetParameterE19HGRendererParameter,
                        __ZN12HGGLRenderer12RenderBitmapEP8HGBitmapP6HGNodeb, __ZN12HGGLRenderer12UpdateLimitsEP8HGLimitsj,
                        __ZN12HGGLRenderer13GetFormatCapsE8HGFormat12HGFormatCaps, __ZN12HGGLRenderer13PreRenderNodeEP6HGNode,
                        __ZN12HGGLRenderer13RenderBitmapsEiPP8HGBitmapPP6HGNode, __ZN12HGGLRenderer14BuildPagesListERNSt3__16vectorI10HGROIsInfoNS0_9allocatorIS2_EEEEP6HGNode6HGRect,
                        __ZN12HGGLRenderer14GenRectTextureEPjj, __ZN12HGGLRenderer14GetNodeTextureEP6HGNode6HGRectP8HGBuffer,
                        __ZN12HGGLRenderer14LoadNullBitmapEv, __ZN12HGGLRenderer14ProcessNodeEndEP6HGNode,
                        __ZN12HGGLRenderer14ReleaseTextureEP11HGGLTextureb, __ZN12HGGLRenderer15DelTextureUsageEP8HGBitmap,
                        __ZN12HGGLRenderer15LoadNullTextureEv, __ZN12HGGLRenderer16EmptyTexturePoolEv,
                        __ZN12HGGLRenderer16ProcessNodeBeginEP6HGNode, __ZN12HGGLRenderer17DeleteRectTextureEPKjbPv,
                        __ZN12HGGLRenderer17GetMultiSampleFBOEv, __ZN12HGGLRenderer17ProcessOnePageEndEP6HGNode,
                        __ZN12HGGLRenderer17ReadBitmapWithPBOE6HGRectP8HGBitmap, __ZN12HGGLRenderer18BindBufferInternalEP8HGBuffer,
                        __ZN12HGGLRenderer18MarkBufferedOutputEP6HGNode, __ZN12HGGLRenderer19InitV210PixelFormatEv,
                        __ZN12HGGLRenderer19ProcessOnePageBeginEP6HGNode, __ZN12HGGLRenderer20CopyBitmapIntoBufferEP8HGBuffer6HGRectP8HGBitmap,
                        __ZN12HGGLRenderer20GetConcatenationMaskEP6HGNodePKc, __ZN12HGGLRenderer20RenderBufferedOutputEP6HGNode,
                        __ZN12HGGLRenderer21BindCachedFramebufferEjjj, __ZN12HGGLRenderer21ConvertToMetalTextureEP8HGBitmap,
                        __ZN12HGGLRenderer21ProcessNodeIntoBitmapEP6HGNode6HGRect8HGFormatP8HGBitmapb, __ZN12HGGLRenderer21SetLastMetalCmdBufferE22HGMTLCommandBufferType,
                        __ZN12HGGLRenderer23ResetLastMetalCmdBufferEv, __ZN12HGGLRenderer24ResolveMultiSampleBufferEv,
                        __ZN12HGGLRenderer28InitSpecificGraphicCardPrefsEv, __ZN12HGGLRenderer4CopyE6HGRecti,
                        __ZN12HGGLRenderer4RectE6HGRecti, __ZN12HGGLRenderer5ClearE6HGRect,
                        __ZN12HGGLRenderer5ClearE6HGRectS0_, __ZN12HGGLRenderer8PageInitEP6HGNode6HGRectPS2_i,
                        __ZN12HGGLRenderer9BindProbeEiii, __ZN12HGGLRenderer9GetBitmapEP8HGBitmap8HGFormat,
                        __ZN12HGGLRenderer9InitMetalEv, __ZN12HGGLRenderer9RenderEndEi,
                        __ZN12HGGLRendererC1E14HGGLContextPtrPv, __ZN12HGGLRendererC2E14HGGLContextPtrPv,
                        __ZN12HGGLRendererD1Ev, __ZN12HGMetalBlend10GetProgramEP10HGRenderer,
                        __ZN12HGMetalBlend15EnableNodeBlendEP6HGNodefP19HGMetalBlendingInfoPKf, __ZN12HGMetalBlend16DisableNodeBlendEP6HGNode,
                        __ZN12HGMetalBlendC1Ev, __ZN12HGMetalBlendD0Ev,
                        __ZN12HGMetalBlendD2Ev, __ZN12HGMetalUtils12structStringEj,
                        __ZN12HGMetalUtils13bytesPerPixelEm, __ZN12HGMetalUtils14compileShadersE15HGMTLDeviceTypeRKNSt3__112basic_stringIcNS1_11char_traitsIcEENS1_9allocatorIcEEEE,
                        __ZN12HGNodeBufferC1EP6HGNode6HGRect8HGFormatP15HGExecutionUnit, __ZN12HGRenderNode10GetUserTagEv,
                        __ZN12HGRenderNode11GetLocationEv, __ZN12HGRenderNode11GetUserDataEv,
                        __ZN12HGRenderNode11SetRendererEP10HGRenderer, __ZN12HGRenderNode11SetUserNameEPKc,
                        __ZN12HGRenderNode13GetOutputTypeEv, __ZN12HGRenderNode13SetOutputTypeENS_10OutputTypeE,
                        __ZN12HGRenderNode14SetDestinationENS_11DestinationE, __ZN12HGRenderNode14SetRenderQueueEP13HGRenderQueue,
                        __ZN12HGRenderNode17GetPixelBufferObjEv, __ZN12HGRenderNode23GetDestinationGLContextEv,
                        __ZN12HGRenderNode23SetDestinationGLContextE14HGGLContextPtr, __ZN12HGRenderNode7SetNodeEP6HGNode,
                        __ZN12HGRenderNode8SetStateENS_5StateE, __ZN12HGRenderNode9GetFormatEv,
                        __ZN12HGRenderNode9SetFormatE8HGFormat, __ZN12HGRenderNodeC2Ev,
                        __ZN12HGRenderNodeD1Ev, __ZN12HGSolidColor12SetParameterEiffff,
                        __ZN12HGSolidColorC1E6HGRect, __ZN12HGSolidColorC2E6HGRect,
                        __ZN12HGSolidColorD0Ev, __ZN12HGSolidColorD2Ev,
                        __ZN12HGTraceGuardC2EPKciS1_, __ZN12HGTraceGuardD2Ev,
                        __ZN12HGlowCombine6GetROIEP10HGRendereri6HGRect, __ZN12HSmearToRect6GetROIEP10HGRendereri6HGRect,
                        __ZN12HSmearToRect9GetOutputEP10HGRenderer, __ZN12HSmearToRectC2Ev,
                        __ZN12HSmearToRectD1Ev, __ZN12HgcAlphaMult10GetProgramEP10HGRenderer,
                        __ZN12HgcAlphaMult11BindTextureEP9HGHandleri, __ZN12HgcAlphaMult12SetParameterEiffff,
                        __ZN12HgcAlphaMult6GetDODEP10HGRendereri6HGRect, __ZN12HgcAlphaMult9GetOutputEP10HGRenderer,
                        __ZN12HgcAlphaMultC2Ev, __ZN12HgcAlphaMultD1Ev,
                        __ZN12HgcBlendBlur10GetProgramEP10HGRenderer, __ZN12HgcBlendBlur11BindTextureEP9HGHandleri,
                        __ZN12HgcBlendBlur12SetParameterEiffff, __ZN12HgcBlendBlur6GetDODEP10HGRendereri6HGRect,
                        __ZN12HgcBlendBlur9GetOutputEP10HGRenderer, __ZN12HgcBlendBlurC2Ev,
                        __ZN12HgcBlendBlurD1Ev, __ZN12HgcBlur_cs9s10GetProgramEP10HGRenderer,
                        __ZN12HgcBlur_cs9s11BindTextureEP9HGHandleri, __ZN12HgcBlur_cs9s12SetParameterEiffff,
                        __ZN12HgcBlur_cs9s6GetDODEP10HGRendereri6HGRect, __ZN12HgcBlur_cs9s9GetOutputEP10HGRenderer,
                        __ZN12HgcBlur_cs9sC2Ev, __ZN12HgcBlur_cs9sD1Ev,
                        __ZN12HgcBlur_g4u210GetProgramEP10HGRenderer, __ZN12HgcBlur_g4u211BindTextureEP9HGHandleri,
                        __ZN12HgcBlur_g4u212SetParameterEiffff, __ZN12HgcBlur_g4u26GetDODEP10HGRendereri6HGRect,
                        __ZN12HgcBlur_g4u29GetOutputEP10HGRenderer, __ZN12HgcBlur_g4u2C2Ev,
                        __ZN12HgcBlur_g4u2D1Ev, __ZN12HgcCopyAlpha10GetProgramEP10HGRenderer,
                        __ZN12HgcCopyAlpha11BindTextureEP9HGHandleri, __ZN12HgcCopyAlpha12SetParameterEiffff,
                        __ZN12HgcCopyAlpha6GetDODEP10HGRendereri6HGRect, __ZN12HgcCopyAlpha9GetOutputEP10HGRenderer,
                        __ZN12HgcCopyAlphaC2Ev, __ZN12HgcCopyAlphaD1Ev,
                        __ZN12HgcHSVAdjust10GetProgramEP10HGRenderer, __ZN12HgcHSVAdjust11BindTextureEP9HGHandleri,
                        __ZN12HgcHSVAdjust12SetParameterEiffff, __ZN12HgcHSVAdjust6GetDODEP10HGRendereri6HGRect,
                        __ZN12HgcHSVAdjust9GetOutputEP10HGRenderer, __ZN12HgcHSVAdjustC2Ev,
                        __ZN12HgcHSVAdjustD1Ev, __ZN12HgcLumaKeyer10GetProgramEP10HGRenderer,
                        __ZN12HgcLumaKeyer11BindTextureEP9HGHandleri, __ZN12HgcLumaKeyer12SetParameterEiffff,
                        __ZN12HgcLumaKeyer6GetDODEP10HGRendereri6HGRect, __ZN12HgcLumaKeyer9GetOutputEP10HGRenderer,
                        __ZN12HgcLumaKeyerC2Ev, __ZN12HgcLumaKeyerD1Ev,
                        __ZN12HgcPostKeyer10GetProgramEP10HGRenderer, __ZN12HgcPostKeyer11BindTextureEP9HGHandleri,
                        __ZN12HgcPostKeyer12SetParameterEiffff, __ZN12HgcPostKeyer6GetDODEP10HGRendereri6HGRect,
                        __ZN12HgcPostKeyer9GetOutputEP10HGRenderer, __ZN12HgcPostKeyerC2Ev,
                        __ZN12HgcPostKeyerD1Ev, __ZN12HgcTXGlowMix10GetProgramEP10HGRenderer,
                        __ZN12HgcTXGlowMix11BindTextureEP9HGHandleri, __ZN12HgcTXGlowMix12SetParameterEiffff,
                        __ZN12HgcTXGlowMix6GetDODEP10HGRendereri6HGRect, __ZN12HgcTXGlowMix9GetOutputEP10HGRenderer,
                        __ZN12HgcTXGlowMixC2Ev, __ZN12HgcTXGlowMixD1Ev,
                        __ZN12HgcThreshold10GetProgramEP10HGRenderer, __ZN12HgcThreshold11BindTextureEP9HGHandleri,
                        __ZN12HgcThreshold12SetParameterEiffff, __ZN12HgcThreshold6GetDODEP10HGRendereri6HGRect,
                        __ZN12HgcThreshold9GetOutputEP10HGRenderer, __ZN12HgcThresholdC2Ev,
                        __ZN12HgcThresholdD1Ev, __ZN12LiAnimCamera11replacementEv,
                        __ZN12LiAnimCamera7getTimeEv, __ZN12LiAnimCameraC2EP8LiCameraS1_d,
                        __ZN12LiAnimCameraD1Ev, __ZN12LiCompositor11isLightWrapE11PCBlendMode5PCPtrI14PCBlendOptionsE,
                        __ZN12LiCompositor17setBackgroundNodeERK5HGRefI6HGNodeE, __ZN12LiCompositor9isStencilE11PCBlendMode,
                        __ZN12LiCompositorC2Ev, __ZN12LiCompositorD2Ev,
                        __ZN12LiDropShadow13filteredEdgesEv, __ZN12LiDropShadow8copyFromEPKS_,
                        __ZN12LiDropShadowC1Ev, __ZN12LiDropShadowD0Ev,
                        __ZN12LiDropShadowD2Ev, __ZN12LiHeliumNode17fixPixelTransformER7LiAgentP14PCMatrix44TmplIdERK18LiRenderParameters,
                        __ZN12LiHeliumNode9getHeliumER7LiAgent, __ZN12LiHeliumNodeC2Ev,
                        __ZN12LiMaskDrawer4drawER9LiBlender, __ZN12LiMaskDrawer4nameEv,
                        __ZN12LiMaskDrawer7defocusEP14PCMatrix44TmplIdEP9LiDofInfo, __ZN12LiMaskDrawer7holdOutEP6LiSeamP17LiDrawerCollector,
                        __ZN12LiMaskDrawer8isPlanarEv, __ZN12LiMaskDrawer9getBoundsEv,
                        __ZN12LiMaskDrawerC1EP8LiDrawer, __ZN12LiMaskDrawerC2EP8LiDrawer,
                        __ZN12LiMaskDrawerD0Ev, __ZN12LiMaskDrawerD2Ev,
                        __ZN12LiNodeDrawer20projectBoundsToPlaneEv, __ZN12LiNodeDrawer4dumpERK8LiString,
                        __ZN12LiNodeDrawer7defocusEP14PCMatrix44TmplIdEP9LiDofInfo, __ZN12LiNodeDrawer8isPlanarEv,
                        __ZN12LiNodeDrawer9getBoundsEv, __ZN12LiNodeDrawerC1ERK5HGRefI6HGNodeERK9LiPolygond11PCBlendModebP8LiDrawer,
                        __ZN12LiNodeDrawerC2ERK5HGRefI6HGNodeERK9LiPolygond11PCBlendModebP8LiDrawer, __ZN12LiNodeDrawerD0Ev,
                        __ZN12LiNodeDrawerD2Ev, __ZN12LiPlaneSplit5storeEv,
                        __ZN12LiPlaneSplitC1Ev, __ZN12LiSoftShadowC1ERK5HGRefI6HGNodeEbdbRK14PCMatrix44TmplIdES8_S8_RK6PCRectIdEb,
                        __ZN12LiSolidGroup4makeEv, __ZN12LiSolidUtils15hasTransparencyERN5ProGL2GLERKNS0_13TextureHandleE,
                        __ZN12LiSolidUtils16createRedTextureERN5ProGL2GLEjj, __ZN12LiSolidUtils18createColorTextureERN5ProGL2GLEjji,
                        __ZN12LiSolidUtils19getBoundsOfGeometryEP13LiSceneObject, __ZN12LiSolidUtils20compositeColorPassesERN5ProGL2GLEiPKjiij,
                        __ZN12LiSolidUtils22anyTransparencyInSceneEP13LiSceneObject, __ZN12LiSolidUtils24drawRectWithDepthTextureERN5ProGL2GLE6PCRectIfEjj9PCVector2IfE,
                        __ZN12LiSolidUtils25createLean1MapFromBumpMapERK5HGRefI6HGNodeE, __ZN12LiSolidUtils26copyTextureRectToTexture2DERN5ProGL2GLEjRK6PCRectIdE,
                        __ZN12LiSolidUtils26createBumpMapFromHeightMapERKN5ProGL13TextureHandleEdbP12HGGLRenderer, __ZN12LiSolidUtils26createBumpMapFromNormalMapERKN5ProGL13TextureHandleEbP12HGGLRenderer,
                        __ZN12LiSolidUtils28createMultisampleColorBufferERN5ProGL2GLEPjjjj, __ZN12LiSolidUtils28createMultisampleDepthBufferERN5ProGL2GLEPjjjj,
                        __ZN12LiSolidUtils29getTransparencyPercent_MIPMAPERN5ProGL2GLERKNS0_13TextureHandleEd, __ZN12LiSolidUtils4blurERN5ProGL2GLEjiiidbb,
                        __ZN12LiSolidUtils8drawRectERN5ProGL2GLE9PCVector2IfES4_S4_S4_jS4_, __ZN12MMatrixError15setErrorHandlerEPFvPKcE,
                        __ZN12MMatrixError8sHandlerE, __ZN12OZAudioLayer12parseElementER22PCSerializerReadStreamR15PCStreamElement,
                        __ZN12OZAudioLayer15end_descendantsEv, __ZN12OZAudioLayer16removeDescendantEP11OZSceneNode,
                        __ZN12OZAudioLayer17copyLinkedObjectsERK11OZSceneNodeP11OZPasteListbj, __ZN12OZAudioLayer18getNaturalDurationEv,
                        __ZN12OZAudioLayer20getDescendantAtIndexEj, __ZN12OZAudioLayer9allowDragEP13OZFactoryBaseP13OZChannelBasejPjS4_j,
                        __ZN12OZAudioLayer9writeBodyER23PCSerializerWriteStreambbb, __ZN12OZAudioLayerC1ERKS_j,
                        __ZN12OZAudioLayerC2ERKS_j, __ZN12OZAudioLayerD1Ev,
                        __ZN12OZAudioLayeraSERK11OZSceneNode, __ZN12OZChannelRef5setIDEj,
                        __ZN12OZChannelRefC1ERK8PCString, __ZN12OZChannelRefC1Ev,
                        __ZN12OZChannelRefC2ERK8PCString, __ZN12OZChannelRefC2Ev,
                        __ZN12OZChannelRefD2Ev, __ZN12OZChannelRefaSERK8PCString,
                        __ZN12OZCurveAngle24_OZCurveAngleSplineStateE, __ZN12OZFontFamilyC2ERK8PCStringS2_,
                        __ZN12OZFontFamilyD2Ev, __ZN12OZGradient1D24getHeliumGradientTextureEP12CGColorSpace,
                        __ZN12OZGradient1DC1ER17OZChannelGradientiP12CGColorSpace, __ZN12OZGradient1DC2ER17OZChannelGradientiP12CGColorSpace,
                        __ZN12OZGradient1DD0Ev, __ZN12OZGradient1DD2Ev,
                        __ZN12OZLiHeFilter20estimateRenderMemoryERNSt3__13setI9PCHash128NS0_4lessIS2_EENS0_9allocatorIS2_EEEE, __ZN12OZLiHeFilter9getHeliumER7LiAgent,
                        __ZN12OZLiHeFilterC1Ev, __ZN12OZLiHeFilterC2Ev,
                        __ZN12OZNodeCamera14setIsAnimatingEb, __ZN12OZNodeCamera9fitToViewEjj,
                        __ZN12OZNodeCameraC2EP7OZScenejP13OZViewerState, __ZN12OZSplineNode11getMinValueEb,
                        __ZN12OZSplineNode12getMaxValueUEv, __ZN12OZSplineNode12getUForValueEdRNSt3__16vectorI7FigTimeNS0_9allocatorIS2_EEEER11PCTimeRangeRS2_j,
                        __ZN12OZSplineNode14getNeededRangeEP16OZCurveNodeParam, __ZN12OZSplineNode5resetEv,
                        __ZN12OZSplineNode9cloneNodeEv, __ZN12OZSplineNode9solveNodeER16OZCurveNodeParam,
                        __ZN12OZSplineNodeC1EP7OZCurve, __ZN12OZSplineNodeC1ERKS_P7OZCurve,
                        __ZN12OZSplineNodeC2EP8OZSplineP7OZCurve, __ZN12OZSplineNodeD0Ev,
                        __ZN12OZSplineNodeD2Ev, __ZN12OZThreadStat11all_pointerEv,
                        __ZN12OZTimeMarker10parseBeginER22PCSerializerReadStream, __ZN12OZTimeMarker12parseElementER22PCSerializerReadStreamR15PCStreamElement,
                        __ZN12OZTimeMarker8parseEndER22PCSerializerReadStream, __ZN12OZTimeMarkerC1E7FigTime,
                        __ZN12OZTimeMarkerC1ERKS_, __ZN12OZTimeMarkerC2E7FigTime,
                        __ZN12OZTimeMarkerC2ERKS_, __ZN12OZTimeMarkerD0Ev,
                        __ZN12OZTimeMarkerD2Ev, __ZN12PCArray_base13gnomesortImplEPviiPFiPKvS2_E,
                        __ZN12PCICCProfile11setUpHeaderEiiiiii, __ZN12PCICCProfile19setColorSpaceOfDataEj,
                        __ZN12PCICCProfile9clearTagsEv, __ZN12PCICCProfileC1EP12CGColorSpace,
                        __ZN12PCICCProfileC1Ev, __ZN12PCICCProfileC2EPKhj,
                        __ZN12PCVertexListC1ERNSt3__16vectorI9PCVector2IdENS0_9allocatorIS3_EEEE, __ZN12PMStripField9GetOutputEP10HGRenderer,
                        __ZN12PMStripFieldC2ENS_5FieldE, __ZN12PMStripFieldD1Ev,
                        __ZN12PMTimeMarkerC1ERKS_, __ZN12PMTimeMarkerD1Ev,
                        __ZN12PMTimeMarkeraSERKS_, __ZN12PSHeliumNode10RenderTileEP6HGTile,
                        __ZN12PSHeliumNode11setGradientER5PCPtrI18OZGLGradientRadialE, __ZN12PSHeliumNode12initGradientER17OZChannelGradient7FigTime,
                        __ZN12PSHeliumNode14renderParticleEP6HGPageRN5ProGL2GLERKNS_6SpriteE, __ZN12PSHeliumNode15initOpenGLStateERN5ProGL2GLES2_6HGRect,
                        __ZN12PSHeliumNode16addImageParticleEP14PCMatrix44TmplIdENSt3__110shared_ptrI9PGTextureEERK6PCRectIdERK20PCWorkingColorVectorb, __ZN12PSHeliumNode16addPointParticleERK9PCVector3IdEfRK20PCWorkingColorVectorb,
                        __ZN12PSHeliumNode17addRadialParticleEP14PCMatrix44TmplIdERK6PCRectIdERK20PCWorkingColorVectorb, __ZN12PSHeliumNode20pullAllInputTexturesEP6HGPage,
                        __ZN12PSHeliumNode21setObjectToFilmMatrixER14PCMatrix44TmplIdE, __ZN12PSHeliumNode22renderLineParticlePageEP6HGPageRN5ProGL2GLERKNS_6SpriteE,
                        __ZN12PSHeliumNode23renderImageParticlePageEP6HGPageRN5ProGL2GLERKNS_6SpriteE, __ZN12PSHeliumNode23renderPointParticlePageEP6HGPageRN5ProGL2GLERKNS_6SpriteE,
                        __ZN12PSHeliumNode24convertTexturesToBitmapsEv, __ZN12PSHeliumNode24renderCircleParticlePageEP6HGPageRN5ProGL2GLERKNS_6SpriteE,
                        __ZN12PSHeliumNode24renderRadialParticlePageEP6HGPageRN5ProGL2GLERKNS_6SpriteE, __ZN12PSHeliumNode25renderOutlineParticlePageEP6HGPageRN5ProGL2GLERKNS_6SpriteE,
                        __ZN12PSHeliumNode31commonRenderTextureParticlePageEP6HGPageRN5ProGL2GLERKNS_6SpriteE, __ZN12PSHeliumNode6GetDODEP10HGRendereri6HGRect,
                        __ZN12PSHeliumNode7setClipERK9LiClipSet, __ZN12PSHeliumNode8drawLineEP6HGTileR9PCVector2IdES4_19__simd128_float32_t,
                        __ZN12PSHeliumNode9preRenderEv, __ZN12PSHeliumNodeC2ER14OZRenderParams,
                        __ZN12PSHeliumNodeD1Ev, __ZN12PSPaintPType13simAddObjectsEP17OZSystemSimulatorR15OZSimStateArrayd,
                        __ZN12PSPaintPType14preRenderFrameERK14OZRenderParamsR12PSHeliumNode, __ZN12PSPaintPType15addRadialSpriteERN9PSEmitter12RenderParamsEP10PSParticleR17OZSimStateElementR12PSHeliumNode,
                        __ZN12PSPaintPType15getIsImageBrushEv, __ZN12PSPaintPType15simFlushedCacheEP17OZSystemSimulator,
                        __ZN12PSPaintPType16calcHashForStateER23PCSerializerWriteStreamRK14OZRenderParamsRNSt3__14listIP19OZObjectManipulatorNS5_9allocatorIS8_EEEE, __ZN12PSPaintPType16getIsSpacingEvenERK7FigTime,
                        __ZN12PSPaintPType17disableSourceNodeEv, __ZN12PSPaintPType19createBrushGradientEP12CGColorSpace,
                        __ZN12PSPaintPType20estimateRenderMemoryERKN9PSEmitter12RenderParamsER17OZSimStateElementRNSt3__13setI9PCHash128NS6_4lessIS8_EENS6_9allocatorIS8_EEEE, __ZN12PSPaintPType21addBornParticlesToSimER15OZSimStateArrayP10PSParticlej,
                        __ZN12PSPaintPType21initAllEmissionPointsERK7FigTimejPP10PSParticlePj, __ZN12PSPaintPType21willGetParticleBoundsEv,
                        __ZN12PSPaintPType23birthAndAddAllParticlesER15OZSimStateArrayP10PSParticlej, __ZN12PSPaintPType23getInitialParticleColorERK7FigTimeP10PSParticlejP7PCColor,
                        __ZN12PSPaintPType23getRadialParticleMatrixERK13OZRenderStateP10PSParticleR17OZSimStateElementR14PCMatrix44TmplIdEPS8_b, __ZN12PSPaintPType24interactiveSimAddObjectsEP17OZSystemSimulatorR15OZSimStateArrayd,
                        __ZN12PSPaintPType25applyAllSequenceBehaviorsERK7FigTimePK10PSParticleR17PSSequencedValues, __ZN12PSPaintPType25getGradientParticleBoundsER17OZSimStateElementRK13OZRenderStateP6PCRectIdE,
                        __ZN12PSPaintPType25updateRotationStringNamesEv, __ZN12PSPaintPType26getInitialParticleRotationERK7FigTimeP10PSParticlej,
                        __ZN12PSPaintPType28estimateRenderMemoryBallparkERK14OZRenderParamsPb, __ZN12PSPaintPType29getNumEmissionPointsAndOrdersERK7FigTimePNSt3__16vectorIdNS3_9allocatorIdEEEE,
                        __ZN12PSPaintPType34addProjectedGradientParticleBoundsERKN9PSEmitter12RenderParamsER17OZSimStateElementR6PCRectIdE, __ZN12PSPaintPType8parseEndER22PCSerializerReadStream,
                        __ZN12PSPaintPType9getBoundsEP6PCRectIdERK13OZRenderState, __ZN12PSPaintPTypeC1ERS_j,
                        __ZN12PSPaintPTypeC2ERS_j, __ZN12PSPaintPTypeD1Ev,
                        __ZN12PSPaintPTypeaSERK11OZSceneNode, __ZN12PSReplicator12initChannelsEv,
                        __ZN12PSReplicator16createReplicatorERK8PCStringj, __ZN12PSReplicator18createParticleTypeEP11OZImageNode,
                        __ZN12PSReplicator24shouldDrawEmissionPointsEv, __ZN12PSReplicator25updateReplicatorShapeEnumEb,
                        __ZN12PSReplicator8parseEndER22PCSerializerReadStream, __ZN12PSReplicatorC1ERKS_j,
                        __ZN12PSReplicatorC2ERKS_j, __ZN12PSReplicatorD1Ev,
                        __ZN12PSReplicatoraSERK11OZSceneNode, __ZN12PSShaderBase13getNumSourcesEv,
                        __ZN12PSShaderBase3logEv, __ZN12PSShaderBase7compileEv,
                        __ZN12PSShaderBase9setSourceERK8PCStringi, __ZN12PSShaderBaseC2Ev,
                        __ZN12PSShaderBaseD1Ev, __ZN12RandMersenne7SetSeedEm,
                        __ZN12RandMersenneC2Ev, __ZN12RandMersenneD1Ev,
                        __ZN12RetimingMath11figToFramesERK7FigTimeS2_, __ZN12RetimingMath14ReverseFunctorC1Edd,
                        __ZN12RetimingMath20getReverseOfIntervalEddddRNS_11IntervalSetIdEE, __ZN12RetimingMath21ChannelSegmentVisitor11visitEaseInER8OZSplinePvS3_ddddd,
                        __ZN12RetimingMath21ChannelSegmentVisitor12visitEaseOutER8OZSplinePvS3_ddddd, __ZN12RetimingMath21ChannelSegmentVisitor13visitSegmentsERK15OZChannelDoubleddRS0_,
                        __ZN12RetimingMath21ChannelSegmentVisitor16visitExponentialER8OZSplinePvS3_ddddd, __ZN12RetimingMath21ChannelSegmentVisitorC1ERK7FigTime,
                        __ZN12RetimingMath21ChannelSegmentVisitorD0Ev, __ZN12RetimingMath21ChannelSegmentVisitorD2Ev,
                        __ZN12RetimingMath22objectTimeToInputIndexEdRK16OZCurveNodeParamRK7FigTime, __ZN12RetimingMath23ChannelOutputValuesUtil15getOutputValuesERK15OZChannelDoubleRKNS_11IntervalSetIdEERK7FigTimeRS5_,
                        __ZN12RetimingMath23ChannelOutputValuesUtil20mapProgressiveRepeatEdddbRl, __ZN12RetimingMath32addLeftSubintervalToOutputValuesEdddRNS_11IntervalSetIdEE,
                        __ZN12RetimingMath33addRightSubintervalToOutputValuesEddddRNS_11IntervalSetIdEE, __ZN12TXGlowFilter9getHeliumER7LiAgent,
                        __ZN12TXGlyphGroupC2E7PCPlaneIdEjP14PCMatrix44TmplIdE, __ZN12TXGlyphGroupD2Ev,
                        __ZN12TXHeliumNode10RenderTileEP6HGTile, __ZN12TXHeliumNode15preRenderGlyphsEP6HGPage,
                        __ZN12TXHeliumNode23renderWithSingleTextureEP6HGPage, __ZN12TXHeliumNode6GetDODEP10HGRendereri6HGRect,
                        __ZN12TXHeliumNode6SetDODERK6HGRect, __ZN12TXHeliumNode8SetStateEP10HGRendereri,
                        __ZN12TXHeliumNodeC2EP12CGColorSpace, __ZN12TXHeliumNodeD1Ev,
                        __ZN12TXTextLayout10cacheImageERK14OZRenderParamsR7LiAgentP5HGRefI6HGNodeER6PCRectIiERNSt3__110shared_ptrI7PCImageEE9PCHash128, __ZN12TXTextLayout10copyLayoutERKS_,
                        __ZN12TXTextLayout10getKerningEv, __ZN12TXTextLayout10parseBeginER22PCSerializerReadStream,
                        __ZN12TXTextLayout10resetStateEv, __ZN12TXTextLayout11getBaselineER9PCVector2IdES2_RK13OZRenderState,
                        __ZN12TXTextLayout11getMaterialEj, __ZN12TXTextLayout11isLineBreakEm,
                        __ZN12TXTextLayout11isLineStartEj, __ZN12TXTextLayout11rebuildTextE7FigTime,
                        __ZN12TXTextLayout11setPathTypeEj, __ZN12TXTextLayout12cacheMarginsEi,
                        __ZN12TXTextLayout12cycleTabTypeEj, __ZN12TXTextLayout12doLineLayoutEjdRK13OZRenderState,
                        __ZN12TXTextLayout12enableScrollEb, __ZN12TXTextLayout12getLineIndexEj,
                        __ZN12TXTextLayout12getWordIndexEj, __ZN12TXTextLayout12parseElementER22PCSerializerReadStreamR15PCStreamElement,
                        __ZN12TXTextLayout12prerollBeginERK14OZRenderParamsR14PMFrameRequestdP13FFPrerollSync, __ZN12TXTextLayout12setPathShapeEj,
                        __ZN12TXTextLayout12setTabToTypeEj9TXTabType, __ZN12TXTextLayout12updateGlyphsEv,
                        __ZN12TXTextLayout13didAddToSceneEP7OZScene, __ZN12TXTextLayout13getLineBoundsEm7FigTimeb,
                        __ZN12TXTextLayout13getPathLengthE7FigTime, __ZN12TXTextLayout13getTextObjectEm,
                        __ZN12TXTextLayout13getWordVolumeEmb, __ZN12TXTextLayout13isPrecomposedERK7FigTime,
                        __ZN12TXTextLayout13simAddObjectsEP17OZSystemSimulatorR15OZSimStateArrayd, __ZN12TXTextLayout14addNewMaterialEP14OZMaterialBase,
                        __ZN12TXTextLayout14calcStaticHashER23PCSerializerWriteStreamRNSt3__14listIP19OZObjectManipulatorNS2_9allocatorIS5_EEEE, __ZN12TXTextLayout14clearStyleRunsEv,
                        __ZN12TXTextLayout14doMotionLayoutERK13OZRenderState, __ZN12TXTextLayout14getLineOffsetsEjPmS0_,
                        __ZN12TXTextLayout14getPagePercentERK13OZRenderState, __ZN12TXTextLayout14getTokensImageERK14OZRenderParamsRKNSt3__16vectorINS3_4pairI7FigTimeNS4_IS6_NS3_9allocatorIS6_EEEEEENS7_ISA_EEEER14PMFrameRequest,
                        __ZN12TXTextLayout14insertStyleRunEP11TXTextStyleRK7PCRangeIjE, __ZN12TXTextLayout14pruneAllTokensEPKc,
                        __ZN12TXTextLayout14scrollPageDownERK13OZRenderState, __ZN12TXTextLayout15buildGlyphGeodeER13LiImageSourceRK14OZRenderParamsRK18OZRenderGraphStateRK12TXTextObject,
                        __ZN12TXTextLayout15doResetMaterialEj, __ZN12TXTextLayout15getCursorOriginERdS0_,
                        __ZN12TXTextLayout15getEnableScrollEv, __ZN12TXTextLayout15getOutlineOrderE5PCPtrI12TXTextObjectE,
                        __ZN12TXTextLayout15getRangeRegionsERK16TXSelectionRangeR14OZRenderParamsRNSt3__16vectorI8OZQuad3DNS5_9allocatorIS7_EEEEb, __ZN12TXTextLayout15getYMarginScaleEv,
                        __ZN12TXTextLayout15glyphSelectWordEjb, __ZN12TXTextLayout15isAllWhitespaceEv,
                        __ZN12TXTextLayout15leaveReaderLockEv, __ZN12TXTextLayout15selectAllGlyphsEv,
                        __ZN12TXTextLayout16buildRenderGraphER14OZRenderParamsP14LiGraphBuilderRK18OZRenderGraphState, __ZN12TXTextLayout16calcHashForStateER23PCSerializerWriteStreamRK14OZRenderParamsRNSt3__14listIP19OZObjectManipulatorNS5_9allocatorIS8_EEEEb,
                        __ZN12TXTextLayout16didReplaceStringEv, __ZN12TXTextLayout16displayMaskAlertEv,
                        __ZN12TXTextLayout16getStylesInRangeERNSt3__14listIP11TXTextStyleNS0_9allocatorIS3_EEEERK7PCRangeIjE, __ZN12TXTextLayout16interlockMarginsEb,
                        __ZN12TXTextLayout16isVerticalLayoutEv, __ZN12TXTextLayout16makeGaussianBlurE5PCPtrI12TXTextObjectER14OZRenderParamsdd,
                        __ZN12TXTextLayout16printTextObjectsEv, __ZN12TXTextLayout16setCachedMarginsEi,
                        __ZN12TXTextLayout16updateLineBreaksEv, __ZN12TXTextLayout16updateTextStylesEv,
                        __ZN12TXTextLayout17centerAnchorPointEdb, __ZN12TXTextLayout17didUndoLastChangeEv,
                        __ZN12TXTextLayout17getNextLineOffsetEj, __ZN12TXTextLayout17getOriginalBoundsEP6PCRectIdERK13OZRenderState,
                        __ZN12TXTextLayout17getTypographicBoxEP5PCBoxIdERK13OZRenderStateb, __ZN12TXTextLayout17initializeNormalsEv,
                        __ZN12TXTextLayout17isDiacriticalMarkEt, __ZN12TXTextLayout17moveMaterialLayerEjjjj,
                        __ZN12TXTextLayout17rightCursorOffsetEmRm, __ZN12TXTextLayout17setCursorPositionEm,
                        __ZN12TXTextLayout17setMarginDefaultsEv, __ZN12TXTextLayout17unlockTextObjectsEv,
                        __ZN12TXTextLayout18anythingToSimulateERK7FigTime, __ZN12TXTextLayout18buildHGNodeForGlowE5PCPtrI12TXTextObjectER14OZRenderParamsR7LiAgentNSt3__110shared_ptrI13TXHeliumGlyphEEjbR14PCMatrix44TmplIdESD_SD_SD_,
                        __ZN12TXTextLayout18getAlignmentOffsetERdS0_RK13OZRenderState, __ZN12TXTextLayout18getMissingFontNameEiRiR8PCString,
                        __ZN12TXTextLayout18getNewCursorOffsetEmRmb, __ZN12TXTextLayout18getProjectedBoundsEP6PCRectIdERK14PCMatrix44TmplIdERK13OZRenderState,
                        __ZN12TXTextLayout18getStringTokenizerEv, __ZN12TXTextLayout18isLowSurrogatePairEt,
                        __ZN12TXTextLayout18scaleAffectsLayoutEv, __ZN12TXTextLayout18setParagraphBoundsERK6PCRectIdE,
                        __ZN12TXTextLayout18simGetAllBehaviorsERNSt3__14listIP20OZSimulationBehaviorNS0_9allocatorIS3_EEEE, __ZN12TXTextLayout19addNewMaterialLayerEP19OZMaterialLayerBasejj,
                        __ZN12TXTextLayout19calcMarginScaleHashERK7FigTime, __ZN12TXTextLayout19deleteMaterialLayerEjj,
                        __ZN12TXTextLayout19dirtyTextAndObjectsEb, __ZN12TXTextLayout19getHardLineAtCursorEv,
                        __ZN12TXTextLayout19getScrollableHeightE13OZRenderState, __ZN12TXTextLayout19hintTokensWillImageERK14OZRenderParamsRKNSt3__16vectorINS3_4pairI7FigTimeNS4_IS6_NS3_9allocatorIS6_EEEEEENS7_ISA_EEEER14PMFrameRequest,
                        __ZN12TXTextLayout19isHighSurrogatePairEt, __ZN12TXTextLayout19shiftKerningsToLeftEv,
                        __ZN12TXTextLayout19willDeleteFromSceneEP7OZScene, __ZN12TXTextLayout20_TXTextLayout_radiusE,
                        __ZN12TXTextLayout20buildFormattedStringE7FigTime, __ZN12TXTextLayout20checkParagraphStylesEv,
                        __ZN12TXTextLayout20getBoundsForHitCheckEP6PCRectIdERK13OZRenderState, __ZN12TXTextLayout20getTypographicBoundsEP6PCRectIdERK13OZRenderStateb,
                        __ZN12TXTextLayout20lineIndexToCharIndexEj, __ZN12TXTextLayout20printParagraphStylesEv,
                        __ZN12TXTextLayout20setGeodeProperties3DERK14OZRenderParamsRK18OZRenderGraphStateP7LiGeode, __ZN12TXTextLayout20updateHiddenChannelsEb,
                        __ZN12TXTextLayout21_TXTextLayout_versionE, __ZN12TXTextLayout21buildSolidRenderGraphERK14OZRenderParamsP14LiGraphBuilderRK18OZRenderGraphState,
                        __ZN12TXTextLayout21deleteMaterialAtIndexEjb, __ZN12TXTextLayout21didChangeChannelStateEP13OZChannelBase,
                        __ZN12TXTextLayout21getAnchorPositionTagsERj, __ZN12TXTextLayout21getPreviousLineOffsetEj,
                        __ZN12TXTextLayout21getSelectedAlignmentsEPNSt3__16vectorIiNS0_9allocatorIiEEEEb, __ZN12TXTextLayout21getSeqPosScaleForCharEj7FigTime,
                        __ZN12TXTextLayout21isLayoutChangeAllowedEv, __ZN12TXTextLayout21performLayoutWithPathERK7FigTime,
                        __ZN12TXTextLayout21scrollToFitCharOffsetEjbd, __ZN12TXTextLayout21setATSUSoftLineBreaksEv,
                        __ZN12TXTextLayout21shouldDrawGradientOSCEv, __ZN12TXTextLayout21simAnythingToSimulateEv,
                        __ZN12TXTextLayout21splitStyleRunsInRangeERK7PCRangeIjE, __ZN12TXTextLayout22GetGlyphCountForStringERK8PCString,
                        __ZN12TXTextLayout22_TXTextLayout_trackingE, __ZN12TXTextLayout22getGlyphSelectedStylesERNSt3__14listIP11TXTextStyleNS0_9allocatorIS3_EEEE,
                        __ZN12TXTextLayout22rebuildParagraphStylesEv, __ZN12TXTextLayout22setCursorDrawingOffsetEmm,
                        __ZN12TXTextLayout22shouldScaleToTBMarginsEv, __ZN12TXTextLayout23buildSceneObjectForFaceERK14OZRenderParamsRK18OZRenderGraphState5PCPtrI12TXTextObjectE,
                        __ZN12TXTextLayout23clearAllDirectionalRunsEb, __ZN12TXTextLayout23getJustificationChannelEv,
                        __ZN12TXTextLayout23getLiImageSourceForGlowER14OZRenderParams5PCPtrI12TXTextObjectERK14PCWorkingColorddPbb, __ZN12TXTextLayout23getPathNumberOfVerticesEv,
                        __ZN12TXTextLayout23initializeScrollMarginsEv, __ZN12TXTextLayout23isPathNormalInitializedEv,
                        __ZN12TXTextLayout23pruneTokensExceptAtTimeE7FigTimePKc, __ZN12TXTextLayout23setGlyphGeodePropertiesERK14OZRenderParamsRK18OZRenderGraphStateP7LiGeode,
                        __ZN12TXTextLayout24_TXTextLayout_leftMarginE, __ZN12TXTextLayout24_TXTextLayout_radiusInfoE,
                        __ZN12TXTextLayout24buildHGNodeForDropShadowE5PCPtrI12TXTextObjectER14OZRenderParamsR7LiAgentNSt3__110shared_ptrI13TXHeliumGlyphEEjbR14PCMatrix44TmplIdESD_SD_SD_, __ZN12TXTextLayout24getBoundsForLinkBehaviorERK13OZRenderState,
                        __ZN12TXTextLayout24getCurrentSelectionStyleEPb, __ZN12TXTextLayout24getNumCharsWithoutSpacesEv,
                        __ZN12TXTextLayout24getStyleAtInsertionPointEj, __ZN12TXTextLayout24isLinkBehaviorTextSourceEv,
                        __ZN12TXTextLayout24removeFromGlyphSelectionEj, __ZN12TXTextLayout24setJustificationAtCursorEdb,
                        __ZN12TXTextLayout24simAnyCollisionBehaviorsEv, __ZN12TXTextLayout24simGetInvTransformMatrixEP17OZSystemSimulatorP14PCMatrix44TmplIdERK7FigTime,
                        __ZN12TXTextLayout24stripUnsupportedXMLCharsERK8PCString, __ZN12TXTextLayout25_TXTextLayout_rightMarginE,
                        __ZN12TXTextLayout25computeParagraphLineWidthEP16TXParagraphStyled, __ZN12TXTextLayout25getClosestParagraphOffsetEjd,
                        __ZN12TXTextLayout25getLocalVolumeForHitCheckEP5PCBoxIdERK13OZRenderState, __ZN12TXTextLayout25getScrollPositionInPixelsEv,
                        __ZN12TXTextLayout25getTextObjectScaleFromMapERdS0_S0_j, __ZN12TXTextLayout25makeHGTextureOrBitmapNodeERNSt3__110shared_ptrI7PCImageEER14OZRenderParamsR6PCRectIiER7LiAgent,
                        __ZN12TXTextLayout25outlineNodeFromTextObjectE5PCPtrI12TXTextObjectER14OZRenderParamsR7LiAgentRbdb14PCWorkingColorP14PCMatrix44TmplIdEP6PCRectIiE, __ZN12TXTextLayout25willSplitStyleRunsInRangeERK7PCRangeIjE,
                        __ZN12TXTextLayout26_TXTextLayout_rectSizeInfoE, __ZN12TXTextLayout26buildSceneObjectForOutlineERK14OZRenderParamsRK18OZRenderGraphState5PCPtrI12TXTextObjectE,
                        __ZN12TXTextLayout26computeDisplayOrderOffsetsEv, __ZN12TXTextLayout26getTextObjectVolumeFromMapER5PCBoxIdEj,
                        __ZN12TXTextLayout26restrictImageMaskToStencilEv, __ZN12TXTextLayout26setSelectedParagraphsDirtyEb,
                        __ZN12TXTextLayout27_TXTextLayout_waveAmplitudeE, __ZN12TXTextLayout27didChangeDisplayAspectRatioEv,
                        __ZN12TXTextLayout27getCurrentStyleForInsertionEv, __ZN12TXTextLayout27getTextObjectWithCharOffsetEm,
                        __ZN12TXTextLayout27syncKerningsWithTextObjectsEv, __ZN12TXTextLayout28_TXTextLayout_pathOffsetInfoE,
                        __ZN12TXTextLayout28applyCTLineDataToTextObjectsEPK8__CTLineP16TXParagraphStylelPK20__CFAttributedStringdRK13OZRenderStatePdSB_SB_SB_P6PCRectIdE, __ZN12TXTextLayout28setDisableMipMapsForOutlinesEb,
                        __ZN12TXTextLayout29_TXTextLayout_waveDampingInfoE, __ZN12TXTextLayout29_getTopImageBoundForFirstLineERK13OZRenderState,
                        __ZN12TXTextLayout29buildSceneObjectForDropShadowERK14OZRenderParamsRK18OZRenderGraphState5PCPtrI12TXTextObjectE, __ZN12TXTextLayout29getCurrentParagraphStyleIndexEv,
                        __ZN12TXTextLayout29getHorizontalAlignmentChannelEv, __ZN12TXTextLayout29getTransformedSelectionBoundsEP6PCRectIdERK13OZRenderState,
                        __ZN12TXTextLayout30addMaterialToSequenceBehaviorsEP14OZMaterialBasej, __ZN12TXTextLayout30cacheCharacterAnimationIndicesEv,
                        __ZN12TXTextLayout30getCharacterIndexWithoutSpacesEj, __ZN12TXTextLayout30getMaterialAssignmentModeValueEv,
                        __ZN12TXTextLayout30setMaterialAssignmentModeValueEj, __ZN12TXTextLayout30updateStyleRunsAfterTextInsertEjj,
                        __ZN12TXTextLayout31_TXTextLayout_waveFrequencyInfoE, __ZN12TXTextLayout32findSelectedGlyphClosestToOffsetEm,
                        __ZN12TXTextLayout32isStyleEnabledBySequenceBehaviorEj7FigTime, __ZN12TXTextLayout33buildRenderGraphForLayerAndPlanesERK14OZRenderParamsRK18OZRenderGraphStateiRji,
                        __ZN12TXTextLayout33getBoundsIgnoringParagraphMarginsERK13OZRenderState, __ZN12TXTextLayout33getWordBoundariesAtOffsetCoreTextEP19__CFStringTokenizerjjbPjS2_,
                        __ZN12TXTextLayout34getNumCharsWithoutDiacriticalMarksEv, __ZN12TXTextLayout35doesTransformFromLocalToScreenSpaceERK14OZRenderParams,
                        __ZN12TXTextLayout35getSequenceChannelsForMaterialLayerEii, __ZN12TXTextLayout35removeMaterialFromSequenceBehaviorsEi,
                        __ZN12TXTextLayout36performLayoutWithSimulationBehaviorsERK7FigTime, __ZN12TXTextLayout36updateParagraphStylesAfterTextDeleteEjj,
                        __ZN12TXTextLayout37_TXTextLayout_lineSpacingObsoleteInfoE, __ZN12TXTextLayout37dofOrLightingCausesLocalTextToPrecompER14OZRenderParams,
                        __ZN12TXTextLayout39getParagraphStyleContainingCursorOffsetEm, __ZN12TXTextLayout40_alignTextToParagraphBoxUsingImageBoundsEv,
                        __ZN12TXTextLayout40getKerningChannelAtCurrentInsertionPointEv, __ZN12TXTextLayout48getParagraphStyleContainingCurrentInsertionPointEv,
                        __ZN12TXTextLayout55shouldRecomputeGlyphPositionsBecauseChannelsAreAnimatedEv, __ZN12TXTextLayout5indexEv,
                        __ZN12TXTextLayout6doEvalEP13OZChannelBaseRK7FigTime, __ZN12TXTextLayout6notifyEj,
                        __ZN12TXTextLayout7getLineEm, __ZN12TXTextLayout7isSpaceEj,
                        __ZN12TXTextLayout7setRateERK14OZRenderParamsR14PMFrameRequestd, __ZN12TXTextLayout8addStyleEP7OZStyle,
                        __ZN12TXTextLayout8getStyleEj, __ZN12TXTextLayout8parseEndER22PCSerializerReadStream,
                        __ZN12TXTextLayout9addEffectEP8OZEffectS1_, __ZN12TXTextLayout9allowDragEP13OZFactoryBaseP13OZChannelBasejPjS4_j,
                        __ZN12TXTextLayout9deleteTabEd, __ZN12TXTextLayout9getColumnEj,
                        __ZN12TXTextLayout9getOffsetERK9PCVector2IfERK13OZRenderStatePbP8LiCamerajP14PCMatrix44TmplIdES7_, __ZN12TXTextLayout9insertTabEd9TXTabType,
                        __ZN12TXTextLayout9isWordEndEj, __ZN12TXTextLayout9resetNameEv,
                        __ZN12TXTextLayout9writeBodyER23PCSerializerWriteStreambbb, __ZN12TXTextLayoutC1ERKS_j,
                        __ZN12TXTextLayoutC2ERKS_j, __ZN12TXTextLayoutD1Ev,
                        __ZN12TXTextLayoutaSERK11OZSceneNode, __ZN12TXTextObject10kNumStylesE,
                        __ZN12TXTextObject10setGlyphIDEt, __ZN12TXTextObject10setUniCharEt,
                        __ZN12TXTextObject11getGlowBlurE7FigTimePdS1_, __ZN12TXTextObject11writeHeaderER23PCSerializerWriteStreamb,
                        __ZN12TXTextObject12getEyeMatrixER14OZRenderParams, __ZN12TXTextObject12getGlowColorE7FigTimedR14PCWorkingColor,
                        __ZN12TXTextObject12parseElementER22PCSerializerReadStreamR15PCStreamElement, __ZN12TXTextObject13getGlowRadiusE7FigTimeRd,
                        __ZN12TXTextObject13isFaceVisibleE7FigTimeP14PCWorkingColor, __ZN12TXTextObject13isGlowVisibleE7FigTimeP14PCWorkingColorPdS3_,
                        __ZN12TXTextObject14getOutlineBlurE7FigTimePdS1_, __ZN12TXTextObject14getSystemGlyphERK7FigTimeP14TXGlyphRequest,
                        __ZN12TXTextObject15getAdvanceWidthERK7FigTime, __ZN12TXTextObject15getOutlineColorE7FigTimedR14PCWorkingColor,
                        __ZN12TXTextObject15getPathPositionER9PCVector3IdEj, __ZN12TXTextObject16getTextureBoundsERK14OZRenderParamsbdR14PCMatrix44TmplIdEbb,
                        __ZN12TXTextObject16isOutlineEnabledE7FigTime, __ZN12TXTextObject16removeFromParentEv,
                        __ZN12TXTextObject17getExtrusionDepthERK7FigTime, __ZN12TXTextObject18getDropShadowAngleE7FigTimeb,
                        __ZN12TXTextObject18getDropShadowColorE7FigTimedR7PCColor, __ZN12TXTextObject18getMipmapCacheHashER14OZRenderParamsP18TXTextObjectRender,
                        __ZN12TXTextObject18setFourCornerShearEPK8LiCameraRK13OZRenderStateddddjjP13OZChannelQuad, __ZN12TXTextObject19getCacheHashForGlowER14OZRenderParams,
                        __ZN12TXTextObject19isDropShadowVisibleE7FigTimeP14PCWorkingColor, __ZN12TXTextObject20getScaledImageBoundsERK13OZRenderState,
                        __ZN12TXTextObject20offsetFourCornerWarpEPK8LiCameraRK13OZRenderStateddddjjP13OZChannelQuadPK14PCMatrix44TmplIdE, __ZN12TXTextObject21_TXTextObject_kerningE,
                        __ZN12TXTextObject21getInitialImageBoundsEP6PCRectIdE, __ZN12TXTextObject21getTransformedCornersERK6PCRectIdER14OZRenderParamsR8OZQuad3D,
                        __ZN12TXTextObject22getCacheHashForOutlineER14OZRenderParams, __ZN12TXTextObject23getBoundingVolumeForOSCER5PCBoxIdERK7FigTime,
                        __ZN12TXTextObject23isAttributeLinkedToFaceEj, __ZN12TXTextObject25getCacheHashForDropShadowER14OZRenderParams,
                        __ZN12TXTextObject25getImageBoundsOfAttributeEP6PCRectIdERK13OZRenderStatejbbbdddd, __ZN12TXTextObject26getCacheHashForOutlineBlurER14OZRenderParams,
                        __ZN12TXTextObject26getTransformedImageCornersERK13OZRenderStateP9PCVector2IdES5_S5_S5_PK14PCMatrix44TmplIdE, __ZN12TXTextObject28getBoundingTypographicVolumeER5PCBoxIdERK7FigTime,
                        __ZN12TXTextObject29getCacheHashForDropShadowBlurER14OZRenderParams, __ZN12TXTextObject31calcTranslationRelativeToObjectERK9PCVector3IdES3_PK8LiCameraRK13OZRenderStatePS1_,
                        __ZN12TXTextObject32getScaleAndHashForPixelTransformER14OZRenderParamsRdS2_PK14PCMatrix44TmplIdEjR6PCRectIiE, __ZN12TXTextObject32getTransformedTypographicCornersER14OZRenderParamsR8OZQuad3D,
                        __ZN12TXTextObject35getTransformedImageBoundsWithStylesER6PCRectIdER14OZRenderParamsPK14PCMatrix44TmplIdE, __ZN12TXTextObject36getTransformedImageCornersWithStylesER14OZRenderParamsR8OZQuad3D,
                        __ZN12TXTextObject45getTransformedImageBoundsWithStylesInDocSpaceER6PCRectIdERK13OZRenderStatePK14PCMatrix44TmplIdE, __ZN12TXTextObject51getTransformedAndFourCornerPinnedTypographicCornersER14OZRenderParamsR8OZQuad3D,
                        __ZN12TXTextObject6updateERK7FigTime, __ZN12TXTextObject8getPivotEPdS0_S0_RK7FigTime,
                        __ZN12TXTextObject9getBitmapERK14OZRenderParamsbdR14PCMatrix44TmplIdER6PCRectIdERb, __ZN12TXTextObject9getMipmapERK14OZRenderParamsRK14PCMatrix44TmplIdEPS4_P6PCRectIdEPNSt3__13mapIiNSB_10shared_ptrI8PCBitmapEENSB_4lessIiEENSB_9allocatorINSB_4pairIKiSF_EEEEEEbdPNSB_6vectorINSJ_IS8_IiE20TXSyncedGlyphRequestEENSI_ISS_EEEE,
                        __ZN12TXTextObject9writeBodyER23PCSerializerWriteStreambbb, __ZN12TXTextObjectC1ERKS_P12TXTextLayout,
                        __ZN12TXTextObjectC2ERKS_P12TXTextLayout, __ZN12TXTextObjectD1Ev,
                        __ZN12TXTextRender11getBoundaryER7LiAgentP6PCRectIdE, __ZN12TXTextRender21pixelTransformSupportERK18LiRenderParameters,
                        __ZN12TXTextRenderC1EP12TXTextLayoutRK14OZRenderParams, __ZN13ChannelParser10parseBeginER22PCSerializerReadStream,
                        __ZN13FactoryParser10parseBeginER22PCSerializerReadStream, __ZN13FilterProgramC1Ev,
                        __ZN13HCheckerboard6GetDODEP10HGRendereri6HGRect, __ZN13HGCSolidColor6GetDODEP10HGRendereri6HGRect,
                        __ZN13HGColorMatrix10LoadMatrixEPK19__simd128_float32_tb, __ZN13HGColorMatrix10MultMatrixEPK19__simd128_float32_tb,
                        __ZN13HGColorMatrix10RenderTileEP6HGTile, __ZN13HGColorMatrix10XYZtowgRGBE,
                        __ZN13HGColorMatrix10wgRGBtoXYZE, __ZN13HGColorMatrix11YCbCrTosRGBE,
                        __ZN13HGColorMatrix12LoadIdentityEv, __ZN13HGColorMatrix14PostMultMatrixEPK19__simd128_float32_tb,
                        __ZN13HGColorMatrix14RenderFragmentEP10HGFragmentP6HGTile, __ZN13HGColorMatrix5ScaleEfff,
                        __ZN13HGColorMatrix8CATtoXYZE, __ZN13HGColorMatrix8OPPtoXYZE,
                        __ZN13HGColorMatrix8XYZtoLMSE, __ZN13HGColorMatrix9BradtoXYZE,
                        __ZN13HGColorMatrix9NTSCtoXYZE, __ZN13HGColorMatrix9XYZtoBradE,
                        __ZN13HGColorMatrix9XYZtoaRGBE, __ZN13HGColorMatrix9XYZtosRGBE,
                        __ZN13HGColorMatrix9gRGBtoXYZE, __ZN13HGColorMatrixC1Ev,
                        __ZN13HGColorMatrixD0Ev, __ZN13HGColorMatrixD2Ev,
                        __ZN13HGConvolution14GetCoefficientEii, __ZN13HGConvolution14SetCoefficientEiif,
                        __ZN13HGConvolution17SeparableFilter2DE14HGFilterPresetS0_, __ZN13HGConvolution19ConvolutionFilter2DE14HGFilterPreset,
                        __ZN13HGConvolution3Mad10GetProgramEP10HGRenderer, __ZN13HGConvolution3MadC2Ev,
                        __ZN13HGConvolution3MadD1Ev, __ZN13HGConvolution7SetSizeEii,
                        __ZN13HGConvolution9SetBoundsEiiii, __ZN13HGConvolutionC1Ev,
                        __ZN13HGConvolutionD0Ev, __ZN13HGConvolutionD2Ev,
                        __ZN13HGFormatUtils10toGLFormatE8HGFormatb, __ZN13HGFormatUtils12toHGGLFormatE8HGFormat,
                        __ZN13HGFormatUtils16GLFormatToStringEj, __ZN13HGFormatUtils18GLFormatToByteSizeEjj,
                        __ZN13HGFormatUtils18toGLInternalFormatE8HGFormatb, __ZN13HGFormatUtils20HGGLFormatToHGFormatE10HGGLFormat,
                        __ZN13HGFormatUtils26tileWidthFactorRequirementE8HGFormat, __ZN13HGFormatUtils8toGLTypeE8HGFormat,
                        __ZN13HGFormatUtils8toStringE8HGFormat, __ZN13HGGLSLHandler10MultMatrixEPKf,
                        __ZN13HGGLSLHandler12LoadIdentityEv, __ZN13HGGLSLHandler14LocalParameterEiffff,
                        __ZN13HGGLSLHandler4RectE6HGRecti, __ZN13HGGLSLHandler5ScaleEddd,
                        __ZN13HGGLSLHandler6UnBindEv, __ZN13HGGLSLHandler9TranslateEddd,
                        __ZN13HGGLSLHandlerD1Ev, __ZN13HGLayerParamsC1Eififfff,
                        __ZN13HGLayerParamsC2Eififfff, __ZN13HGMetalBuffer10GetContentEv,
                        __ZN13HGMetalBuffer6createE15HGMTLDeviceType6HGRect8HGFormat, __ZN13HGMetalBuffer6createE15HGMTLDeviceTypeP8HGBitmap,
                        __ZN13HGMetalBuffer6createE15HGMTLDeviceTypemP17HGMetalBufferPool, __ZN13HGMetalBufferC2E15HGMTLDeviceType6HGRect8HGFormat,
                        __ZN13HGMetalBufferD1Ev, __ZN13HGMipmapLevelC2Ev,
                        __ZN13HGMipmapLevelD1Ev, __ZN13HGPremultiply9GetOutputEP10HGRenderer,
                        __ZN13HGPremultiplyC2Ev, __ZN13HGPremultiplyD1Ev,
                        __ZN13HGRenderQueue10GetRunModeEv, __ZN13HGRenderQueue10SetRunModeENS_7RunModeE,
                        __ZN13HGRenderQueue11AddRendererEP10HGRendererNS_8WorkModeEm, __ZN13HGRenderQueue12GetRenderJobEP16HGRenderExecUnitPP11HGRenderJob,
                        __ZN13HGRenderQueue14CancelUserJobsEb, __ZN13HGRenderQueue14EnqueueUserJobEP9HGUserJob,
                        __ZN13HGRenderQueue14RemoveRendererEP10HGRenderer, __ZN13HGRenderQueue15CancelRenderJobEP11HGRenderJob,
                        __ZN13HGRenderQueue16DequeueRenderJobEP11HGRenderJob, __ZN13HGRenderQueue16ExecuteRenderJobEP11HGRenderJob,
                        __ZN13HGRenderQueue17GetPBOReadbackJobEP21HGPBOReadbackExecUnitPP16HGPBOReadbackJob, __ZN13HGRenderQueue19GetUserJobFromQueueEP14HGUserExecUnitPP9HGUserJob,
                        __ZN13HGRenderQueue19RemoveRenderContextEP15HGRenderContext, __ZN13HGRenderQueue20GetNumActiveUserJobsEv,
                        __ZN13HGRenderQueue20SetPreferredResourceENS_17PreferredResourceE, __ZN13HGRenderQueue21GetMinJobExecPriorityEv,
                        __ZN13HGRenderQueue21GetRenderJobFromQueueEP16HGRenderExecUnitPP11HGRenderJob, __ZN13HGRenderQueue21SetMinJobExecPriorityEi,
                        __ZN13HGRenderQueue23CancelRenderJobsWithTagEyb, __ZN13HGRenderQueue23ExecuteRenderJobsManualEm,
                        __ZN13HGRenderQueue23SetSerializeRendersFlagEb, __ZN13HGRenderQueue24GetDebugQueueVerboseMaskEv,
                        __ZN13HGRenderQueue25CancelAllActiveRenderJobsEb, __ZN13HGRenderQueue25GetNumActiveCPURenderJobsEv,
                        __ZN13HGRenderQueue26GetGPURendererForGLContextE14HGGLContextPtrb, __ZN13HGRenderQueue26GetPBOReadbackJobFromQueueEP21HGPBOReadbackExecUnitPP16HGPBOReadbackJob,
                        __ZN13HGRenderQueue27GetNumActivePBOReadbackJobsEi, __ZN13HGRenderQueue28EnqueueRenderJobWithPriorityEP11HGRenderJob,
                        __ZN13HGRenderQueue28GetRenderLockOnVirtualScreenEi, __ZN13HGRenderQueue29CancelActiveRenderJobsWithTagEyb,
                        __ZN13HGRenderQueue30GetThrottleFlagOnVirtualScreenEi, __ZN13HGRenderQueue31SetPBOReadbackQueueThrottleSizeEm,
                        __ZN13HGRenderQueue32SetNumPBOsPerPBOReadbackExecUnitEm, __ZN13HGRenderQueue52SetRelaxRenderSerializationForPriorityInversionsFlagEb,
                        __ZN13HGRenderQueue5DrainEv, __ZN13HGRenderQueue5StartEv,
                        __ZN13HGRenderQueue8ShutdownEv, __ZN13HGRenderQueueC2Ev,
                        __ZN13HGRenderQueueD1Ev, __ZN13HGRenderUtils12BufferCopier5startEP8HGBitmapS2_,
                        __ZN13HGRenderUtils12BufferCopier7executeEP8HGBitmapS2_, __ZN13HGRenderUtils12BufferCopierC2Ev,
                        __ZN13HGRenderUtils12BufferCopierD2Ev, __ZN13HGRenderUtils12BufferFiller5startEP8HGBitmapPhm,
                        __ZN13HGRenderUtils12BufferFiller7executeEP8HGBitmap6HGRectPhm, __ZN13HGRenderUtils12BufferFillerC1Ev,
                        __ZN13HGRenderUtils12BufferFillerD1Ev, __ZN13HGRenderUtils16BufferCopierImpl10plain_copyEP8HGBitmapS2_,
                        __ZN13HGRenderUtils16BufferCopierImpl15finish_dispatchEv, __ZN13HGRenderUtils16BufferCopierImplC2Ev,
                        __ZN13HGRenderUtils16BufferCopierImplD2Ev, __ZN13HGRenderUtils16BufferFillerImpl12initLineDataEPhmm,
                        __ZN13HGRenderUtils16BufferFillerImpl15finish_dispatchEv, __ZN13HGRenderUtils16BufferFillerImplC2Ev,
                        __ZN13HGRenderUtils16BufferFillerImplD2Ev, __ZN13HGTextureCubeC1EiP8HGBitmap,
                        __ZN13HGTextureCubeC2EiP8HGBitmap, __ZN13HGTextureCubeD1Ev,
                        __ZN13HGTextureWrap11SetCropRectERK6HGRect, __ZN13HGTextureWrap15_createWrapNodeENS_8WrapModeE,
                        __ZN13HGTextureWrap18SetTextureWrapModeENS_8WrapModeE, __ZN13HGTextureWrap21SetTextureBorderColorEPf,
                        __ZN13HGTextureWrapC1Ev, __ZN13HGTextureWrapD0Ev,
                        __ZN13HGTextureWrapD2Ev, __ZN13HGaussianBlur9GetOutputEP10HGRenderer,
                        __ZN13HGaussianBlurC2Ev, __ZN13HGaussianBlurD1Ev,
                        __ZN13HGeometryData10ClipToEdgeEfbiRKS_jRS_Rjj, __ZN13HGeometryData11AllocArraysEjj,
                        __ZN13HGeometryData12ClipPolygonsE6HGRectPKS_P11HGTransform7HGArrayIS0_L8HGFormat0EEi, __ZN13HGeometryData12InterpVertexERS_RKS_Rjjjdj,
                        __ZN13HGeometryData13IncrementEdgeER8HGInterpRKS0_f, __ZN13HGeometryData14RenderPolygonsEP6HGTileP16HGSampleRectStat,
                        __ZN13HGeometryData15SizeIndexArraysEjj, __ZN13HGeometryData17GetScanlineDeltasERK8HGInterpS2_RS0_,
                        __ZN13HGeometryData19BuildActiveEdgeListE7HGArrayIP5HEdgeL8HGFormat0EES0_IS1_LS3_0EEf, __ZN13HGeometryData8ClipPolyE7HGArrayIiL8HGFormat34EE6HGRectS0_I19__simd128_float32_tLS1_27EEjPKS_RS_S8_,
                        __ZN13HGeometryData9ClipPolyWEjRS_, __ZN13HGeometryDataC2EP12HGRasterizer,
                        __ZN13HSimpleBorder6GetDODEP10HGRendereri6HGRect, __ZN13HSimpleBorder7setRectERK7HGRectf,
                        __ZN13HSimpleBorder9setBorderEff, __ZN13HSimpleBorderC2Ev,
                        __ZN13HSimpleBorderD1Ev, __ZN13HTextureBlend13GetDODOfGlyphEP10HGRenderer,
                        __ZN13HgcAlphaKeyer10GetProgramEP10HGRenderer, __ZN13HgcAlphaKeyer11BindTextureEP9HGHandleri,
                        __ZN13HgcAlphaKeyer12SetParameterEiffff, __ZN13HgcAlphaKeyer6GetDODEP10HGRendereri6HGRect,
                        __ZN13HgcAlphaKeyer9GetOutputEP10HGRenderer, __ZN13HgcAlphaKeyerC2Ev,
                        __ZN13HgcAlphaKeyerD1Ev, __ZN13HgcColorClamp10GetProgramEP10HGRenderer,
                        __ZN13HgcColorClamp11BindTextureEP9HGHandleri, __ZN13HgcColorClamp12SetParameterEiffff,
                        __ZN13HgcColorClamp6GetDODEP10HGRendereri6HGRect, __ZN13HgcColorClamp9GetOutputEP10HGRenderer,
                        __ZN13HgcColorClampC2Ev, __ZN13HgcColorClampD1Ev,
                        __ZN13HgcDesaturate10GetProgramEP10HGRenderer, __ZN13HgcDesaturate11BindTextureEP9HGHandleri,
                        __ZN13HgcDesaturate12SetParameterEiffff, __ZN13HgcDesaturate6GetDODEP10HGRendereri6HGRect,
                        __ZN13HgcDesaturate9GetOutputEP10HGRenderer, __ZN13HgcDesaturateC2Ev,
                        __ZN13HgcDesaturateD1Ev, __ZN13HgcGamutDebug10GetProgramEP10HGRenderer,
                        __ZN13HgcGamutDebug11BindTextureEP9HGHandleri, __ZN13HgcGamutDebug12SetParameterEiffff,
                        __ZN13HgcGamutDebug6GetDODEP10HGRendereri6HGRect, __ZN13HgcGamutDebug9GetOutputEP10HGRenderer,
                        __ZN13HgcGamutDebugC2Ev, __ZN13HgcGamutDebugD1Ev,
                        __ZN13HgcMotionBlur10GetProgramEP10HGRenderer, __ZN13HgcMotionBlur11BindTextureEP9HGHandleri,
                        __ZN13HgcMotionBlur12SetParameterEiffff, __ZN13HgcMotionBlur6GetDODEP10HGRendereri6HGRect,
                        __ZN13HgcMotionBlur9GetOutputEP10HGRenderer, __ZN13HgcMotionBlurC2Ev,
                        __ZN13HgcMotionBlurD1Ev, __ZN13HgcRadialMask10GetProgramEP10HGRenderer,
                        __ZN13HgcRadialMask11BindTextureEP9HGHandleri, __ZN13HgcRadialMask12SetParameterEiffff,
                        __ZN13HgcRadialMask6GetDODEP10HGRendereri6HGRect, __ZN13HgcRadialMask9GetOutputEP10HGRenderer,
                        __ZN13HgcRadialMaskC2Ev, __ZN13HgcRadialMaskD1Ev,
                        __ZN13HgcSolidColor10GetProgramEP10HGRenderer, __ZN13HgcSolidColor11BindTextureEP9HGHandleri,
                        __ZN13HgcSolidColor12SetParameterEiffff, __ZN13HgcSolidColor6GetDODEP10HGRendereri6HGRect,
                        __ZN13HgcSolidColor9GetOutputEP10HGRenderer, __ZN13HgcSolidColorC2Ev,
                        __ZN13HgcSolidColorD1Ev, __ZN13HgcTXModulate10GetProgramEP10HGRenderer,
                        __ZN13HgcTXModulate11BindTextureEP9HGHandleri, __ZN13HgcTXModulate12SetParameterEiffff,
                        __ZN13HgcTXModulate6GetDODEP10HGRendereri6HGRect, __ZN13HgcTXModulate9GetOutputEP10HGRenderer,
                        __ZN13HgcTXModulateC2Ev, __ZN13HgcTXModulateD1Ev,
                        __ZN13HgcVignetteBB10GetProgramEP10HGRenderer, __ZN13HgcVignetteBB11BindTextureEP9HGHandleri,
                        __ZN13HgcVignetteBB12SetParameterEiffff, __ZN13HgcVignetteBB6GetDODEP10HGRendereri6HGRect,
                        __ZN13HgcVignetteBB9GetOutputEP10HGRenderer, __ZN13HgcVignetteBBC2Ev,
                        __ZN13HgcVignetteBBD1Ev, __ZN13HgcWrapMirror10GetProgramEP10HGRenderer,
                        __ZN13HgcWrapMirror11BindTextureEP9HGHandleri, __ZN13HgcWrapMirror12SetParameterEiffff,
                        __ZN13HgcWrapMirror6GetDODEP10HGRendereri6HGRect, __ZN13HgcWrapMirror9GetOutputEP10HGRenderer,
                        __ZN13HgcWrapMirrorC2Ev, __ZN13HgcWrapMirrorD1Ev,
                        __ZN13HgcWrapRepeat10GetProgramEP10HGRenderer, __ZN13HgcWrapRepeat11BindTextureEP9HGHandleri,
                        __ZN13HgcWrapRepeat12SetParameterEiffff, __ZN13HgcWrapRepeat6GetDODEP10HGRendereri6HGRect,
                        __ZN13HgcWrapRepeat9GetOutputEP10HGRenderer, __ZN13HgcWrapRepeatC2Ev,
                        __ZN13HgcWrapRepeatD1Ev, __ZN13LiDepthSorter12copySettingsERKS_,
                        __ZN13LiDepthSorter9stackSortER10PCPtrArrayI8LiDrawerE, __ZN13LiDepthSorterC2Ev,
                        __ZN13LiDepthSorterD2Ev, __ZN13LiDrawnRegion4RectC1ERK6PCRectIiE11PCBlendMode,
                        __ZN13LiDrawnRegion4RectC1Ev, __ZN13LiDrawnRegion4RectC2ERKS0_,
                        __ZN13LiDrawnRegion5clearEv, __ZN13LiEdgeTexture10getTextureEv,
                        __ZN13LiEdgeTexture11createArrayEiNS_6KernelE, __ZN13LiEdgeTexture11getInstanceENS_6KernelE,
                        __ZN13LiEdgeTexture12resetTextureEv, __ZN13LiEdgeTexture14getTextureRectEv,
                        __ZN13LiEdgeTexture16createHeliumNodeEP10HGRendererNS_6KernelE, __ZN13LiEdgeTexture19createHeliumTextureE14HGGLContextPtrNS_6KernelEid,
                        __ZN13LiEdgeTexture20getDefaultResolutionEv, __ZN13LiEdgeTexture4evalEddNS_6KernelE,
                        __ZN13LiEdgeTexture6linearEdd, __ZN13LiEdgeTexture9getKernelEv,
                        __ZN13LiEdgeTexture9setKernelENS_6KernelE, __ZN13LiEdgeTextureC2ENS_6KernelE,
                        __ZN13LiEdgeTextureD2Ev, __ZN13LiGroupDrawer12getBlendModeEv,
                        __ZN13LiGroupDrawer14setSceneObjectEP13LiSceneObject, __ZN13LiGroupDrawer20projectBoundsToPlaneEv,
                        __ZN13LiGroupDrawer3addERK10PCPtrArrayI8LiDrawerE, __ZN13LiGroupDrawer4dumpERK8LiString,
                        __ZN13LiGroupDrawer4sizeEv, __ZN13LiGroupDrawer8getPlaneEv,
                        __ZN13LiGroupDrawer8setPlaneERK9PCVector4IdE, __ZN13LiGroupDrawer9intersectEP14LiIntersection,
                        __ZN13LiGroupDrawerC1Ev, __ZN13LiGroupDrawerD0Ev,
                        __ZN13LiGroupDrawerD2Ev, __ZN13LiHeAlphaFill10RenderTileEP6HGTile,
                        __ZN13LiHeAlphaFill12GetParameterEiPf, __ZN13LiHeAlphaFill4BindEP9HGHandler,
                        __ZN13LiHeAlphaFill6GetROIEP10HGRendereri6HGRect, __ZN13LiHeAlphaFillC1Ev,
                        __ZN13LiHeAlphaFillD0Ev, __ZN13LiHeAlphaFillD2Ev,
                        __ZN13LiHeMixShader10RenderTileEP6HGTile, __ZN13LiHeMixShader12GetParameterEiPf,
                        __ZN13LiHeMixShader4BindEP9HGHandler, __ZN13LiHeMixShader6GetROIEP10HGRendereri6HGRect,
                        __ZN13LiHeMixShaderC1Ev, __ZN13LiHeMixShaderD0Ev,
                        __ZN13LiHeMixShaderD2Ev, __ZN13LiImageFilter20estimateRenderMemoryERNSt3__13setI9PCHash128NS0_4lessIS2_EENS0_9allocatorIS2_EEEE,
                        __ZN13LiImageFilter26inheritUseSourcePixelSpaceEv, __ZN13LiImageSource11getDelegateERK18LiRenderParameters,
                        __ZN13LiImageSource13filteredEdgesEb, __ZN13LiImageSource17fixPixelTransformER7LiAgentP14PCMatrix44TmplIdERK18LiRenderParameters,
                        __ZN13LiImageSource20estimateRenderMemoryERNSt3__13setI9PCHash128NS0_4lessIS2_EENS0_9allocatorIS2_EEEE, __ZN13LiImageSource24adjustCasterLocalToWorldERK7LiLightRK7LiGeodeR14PCMatrix44TmplIdER9LiPolygonR6PCRectIdE,
                        __ZN13LiImageSource9getHeliumERK18LiRenderParameters, __ZN13LiImageSourceC2Ev,
                        __ZN13LiImageSourceD1Ev, __ZN13LiLightFilter10getPolygonEv,
                        __ZN13LiLightFilter13setShadowMapsERK7PCArrayI9ShadowMap14PCArray_TraitsIS1_EE, __ZN13LiLightFilter21pixelTransformSupportERK18LiRenderParameters,
                        __ZN13LiLightFilter8heRenderER7LiAgent, __ZN13LiLightFilterC1ERK10LiLightSet,
                        __ZN13LiLightFilterC1Ev, __ZN13LiLightFilterC2ERKS_,
                        __ZN13LiLightFilterD0Ev, __ZN13LiLightFilterD2Ev,
                        __ZN13LiMaskBlender11newInstanceEv, __ZN13LiMaskBlender8addPatchERK5HGRefI6HGNodeES4_,
                        __ZN13LiMaskBlenderC1EP12LiMaskDrawerP9LiBlender, __ZN13LiMaskBlenderD0Ev,
                        __ZN13LiMaskBlenderD2Ev, __ZN13LiPlanarGroup9normalizeEv,
                        __ZN13LiPlanarGroupC1ERK9PCVector4IdEP8LiDrawer, __ZN13LiPlanarGroupC2ERK9PCVector4IdEP8LiDrawer,
                        __ZN13LiSceneDrawer11beginRenderEP13LiSceneObjectRK9LiClipSetRK14LiClipFadeInfoRK15LiDepthPeelInfoRK23LiPaintersAlgorthimInfoRK7PCArrayI5PCPtrI16LiMaterialFilterE14PCArray_TraitsISH_EE, __ZN13LiSceneDrawer12render_zsortER9LiContextRNS_26PaintersAlgorithmSceneDataE,
                        __ZN13LiSceneDrawer17traverseAndRenderEP13LiSceneObjectRK9LiClipSetRK14LiClipFadeInfoRK15LiDepthPeelInfoRK7PCArrayI5PCPtrI16LiMaterialFilterE14PCArray_TraitsISE_EERNS_26PaintersAlgorithmSceneDataE, __ZN13LiSceneDrawer24setIsolatedGroupToRenderEl,
                        __ZN13LiSceneDrawerC1ERKS_, __ZN13LiSceneDrawerC2ERKS_,
                        __ZN13LiSceneDrawerD0Ev, __ZN13LiSceneDrawerD2Ev,
                        __ZN13LiSceneObject11boundingBoxER5PCBoxIdERK14PCMatrix44TmplIdE, __ZN13LiSceneObject12blendOptionsEv,
                        __ZN13LiSceneObject12setTransformERK14PCMatrix44TmplIdE, __ZN13LiSceneObject18setPreserveOpacityEb,
                        __ZN13LiSceneObject19setPlacementJitterYERK9PCVector2IdE, __ZN13LiSceneObject21setPlacementTransformERK14PCMatrix44TmplIdE,
                        __ZN13LiSceneObject8setIndexEj, __ZN13LiSceneObjectC2Ev,
                        __ZN13LiSceneObjectD1Ev, __ZN13LiSolidSource20estimateRenderMemoryERNSt3__13setI9PCHash128NS0_4lessIS2_EENS0_9allocatorIS2_EEEE,
                        __ZN13LiSolidSourceC1Ev, __ZN13LoadEffectJob6RunJobEv,
                        __ZN13LoadEffectJobC2EP14PVMotionEffect, __ZN13LoadLockCacheC1Ev,
                        __ZN13LoadLockCacheD0Ev, __ZN13LoadLockCacheD2Ev,
                        __ZN13OMSamplesElem10pickVertexERK5Vec2ff, __ZN13OMSamplesElem7moveAllERK5Vec2f,
                        __ZN13OZApplication11createStyleERK6PCUUIDRK8PCStringj, __ZN13OZApplication12createEffectERK6PCUUID,
                        __ZN13OZApplication12createObjectERK6PCUUID, __ZN13OZApplication13saveFactoriesER23PCSerializerWriteStream,
                        __ZN13OZApplication14createBehaviorERK6PCUUID, __ZN13OZApplication15createSceneNodeERK6PCUUIDRK8PCStringj,
                        __ZN13OZApplication15isPrimaryObjectEj, __ZN13OZApplication7initPMREv,
                        __ZN13OZApplicationC2Ev, __ZN13OZApplicationD2Ev,
                        __ZN13OZCanvasState11writeHeaderER23PCSerializerWriteStreamb, __ZN13OZCanvasState29markFactoriesForSerializationER23PCSerializerWriteStreamb,
                        __ZN13OZCanvasState9writeBodyER23PCSerializerWriteStreambbb, __ZN13OZCanvasStateC1Ev,
                        __ZN13OZCanvasStateC2Ev, __ZN13OZChannelBase10parseBeginER22PCSerializerReadStream,
                        __ZN13OZChannelBase11writeHeaderER23PCSerializerWriteStreamb, __ZN13OZChannelBase12getRangeNameEv,
                        __ZN13OZChannelBase12setChildSoloEb, __ZN13OZChannelBase14registerParentEP15OZChannelFolder,
                        __ZN13OZChannelBase15hasBeenModifiedEPb, __ZN13OZChannelBase15setInternalNameERK8PCString,
                        __ZN13OZChannelBase16calcHashForStateER23PCSerializerWriteStreamRK7FigTime, __ZN13OZChannelBase16getResetCallbackEPPFvPS_PvEPS1_Pb,
                        __ZN13OZChannelBase16unregisterParentEP15OZChannelFolder, __ZN13OZChannelBase17globalToLocalTimeERK7FigTimeS2_,
                        __ZN13OZChannelBase17updateIDGeneratorERK15OZChannelFolder, __ZN13OZChannelBase18configureWithStateEPK8__CFData,
                        __ZN13OZChannelBase18getObjCWrapperNameEv, __ZN13OZChannelBase21getLabelCtlrClassNameEv,
                        __ZN13OZChannelBase22ResetCallbackDataTable26setResetCallbackForChannelEPS_PFvS1_PvES2_b, __ZN13OZChannelBase22offsetKeyframesInRangeERK7FigTimeS2_S2_S2_bb,
                        __ZN13OZChannelBase23keyframesWithChannelRefE12FigTimeRangeRNSt3__13mapI12OZChannelRefNS1_6vectorI15_OZKeyframeInfoNS1_9allocatorIS5_EEEENS1_4lessIS3_EENS6_INS1_4pairIKS3_S8_EEEEEE, __ZN13OZChannelBase25getInspectorCtlrClassNameEv,
                        __ZN13OZChannelBase25getResetCallbackDataTableEv, __ZN13OZChannelBase25setParameterCtlrClassNameEPK10__CFString,
                        __ZN13OZChannelBase27nofityObjCWrapperWillDeleteEv, __ZN13OZChannelBase4copyEPKS_b,
                        __ZN13OZChannelBase4soloEb, __ZN13OZChannelBase5setIDEj,
                        __ZN13OZChannelBase6enableEbb, __ZN13OZChannelBase7getHashEv,
                        __ZN13OZChannelBase7setNameERK8PCStringb, __ZN13OZChannelBase8setFlagsEy,
                        __ZN13OZChannelBase9resetFlagEyb, __ZN13OZChannelBaseC1EP9OZFactoryRK8PCStringP15OZChannelFolderjj,
                        __ZN13OZChannelBaseC1ERKS_, __ZN13OZChannelBaseC2EP9OZFactoryRK8PCStringP15OZChannelFolderjj,
                        __ZN13OZChannelBaseC2ERKS_, __ZN13OZChannelBaseaSERKS_,
                        __ZN13OZChannelBool18_OZChannelBoolInfoE, __ZN13OZChannelBool22_OZChannelBoolTrueImplE,
                        __ZN13OZChannelBoolC1EP9OZFactoryRK8PCStringP15OZChannelFolderjjP13OZChannelImplP13OZChannelInfo, __ZN13OZChannelBoolC1ERK8PCStringP15OZChannelFolderjjP13OZChannelImplP13OZChannelInfo,
                        __ZN13OZChannelBoolC1EiRK8PCStringP15OZChannelFolderjjP13OZChannelImplP13OZChannelInfo, __ZN13OZChannelBoolC2EP9OZFactoryRK8PCStringjP13OZChannelImplP13OZChannelInfo,
                        __ZN13OZChannelBoolC2ERKS_P15OZChannelFolder, __ZN13OZChannelBoolD0Ev,
                        __ZN13OZChannelBoolD2Ev, __ZN13OZChannelCrop15setDefaultValueEdddd,
                        __ZN13OZChannelCrop18getObjCWrapperNameEv, __ZN13OZChannelCrop8setValueERK7FigTimedddd,
                        __ZN13OZChannelCropC1EP9OZFactoryRK8PCStringjj, __ZN13OZChannelCropC1ERKS_P15OZChannelFolder,
                        __ZN13OZChannelCropC2EP9OZFactoryRK8PCStringjj, __ZN13OZChannelCropC2ERKS_P15OZChannelFolder,
                        __ZN13OZChannelEnum10setStringsERK8PCStringb, __ZN13OZChannelEnum12clearStringsEv,
                        __ZN13OZChannelEnum16_stringTablesMapE, __ZN13OZChannelEnum18_OZChannelEnumInfoE,
                        __ZN13OZChannelEnum20_stringTablesMapLockE, __ZN13OZChannelEnum6assignEPK13OZChannelBase,
                        __ZN13OZChannelEnum8getImageEj, __ZN13OZChannelEnum9getStringEj,
                        __ZN13OZChannelEnumC1EP9OZFactoryRK8PCStringjP13OZChannelImplP13OZChannelInfo, __ZN13OZChannelEnumC1ERK8PCStringS2_P15OZChannelFolderjjP13OZChannelImplP13OZChannelInfo,
                        __ZN13OZChannelEnumC1EjRK8PCStringS2_P15OZChannelFolderjjP13OZChannelImplP13OZChannelInfo, __ZN13OZChannelEnumC2EP9OZFactoryRK8PCStringjP13OZChannelImplP13OZChannelInfo,
                        __ZN13OZChannelEnumC2ERK8PCStringS2_P15OZChannelFolderjjP13OZChannelImplP13OZChannelInfo, __ZN13OZChannelEnumC2EjRK8PCStringS2_P15OZChannelFolderjjP13OZChannelImplP13OZChannelInfo,
                        __ZN13OZChannelEnumD0Ev, __ZN13OZChannelEnumD2Ev,
                        __ZN13OZChannelFont10parseBeginER22PCSerializerReadStream, __ZN13OZChannelFont12parseElementER22PCSerializerReadStreamR15PCStreamElement,
                        __ZN13OZChannelFont22setFontChannelWithNameERK8PCString, __ZN13OZChannelFont4copyEPK13OZChannelBaseb,
                        __ZN13OZChannelFont9writeBodyER23PCSerializerWriteStreambbb, __ZN13OZChannelFontC1EP9OZFactoryRK8PCStringj,
                        __ZN13OZChannelFontC1ERKS_P15OZChannelFolder, __ZN13OZChannelFontC2EP9OZFactoryRK8PCStringj,
                        __ZN13OZChannelFontC2ERKS_P15OZChannelFolder, __ZN13OZChannelImpl11isRecordingEv,
                        __ZN13OZChannelImpl12endRecordingERK7FigTime, __ZN13OZChannelImpl13setParametricEb,
                        __ZN13OZChannelImpl14didRecordValueEP13OZChannelBaseRK7FigTime, __ZN13OZChannelImpl16setInterpolationEj,
                        __ZN13OZChannelImpl19shouldKeepLocalCopyEv, __ZN13OZChannelImpl25registerRecordingCallbackEPFvP13OZChannelBaseRK7FigTimePvES5_b,
                        __ZN13OZChannelImpl27unregisterRecordingCallbackEPFvP13OZChannelBaseRK7FigTimePvES5_, __ZN13OZChannelImpl6setMinEd,
                        __ZN13OZChannelImplC1EP7OZCurvedjb, __ZN13OZChannelImplC1Ev,
                        __ZN13OZChannelImplC2ERKS_, __ZN13OZChannelImplD0Ev,
                        __ZN13OZChannelImplD2Ev, __ZN13OZChannelInfo24setSliderTransformerNameEPK10__CFString,
                        __ZN13OZChannelInfoC1EdddddPKc, __ZN13OZChannelInfoC1Ev,
                        __ZN13OZChannelInfoC2EdddddPKc, __ZN13OZChannelInfoC2Ev,
                        __ZN13OZChannelInfoD1Ev, __ZN13OZChannelInfoaSERKS_,
                        __ZN13OZChannelQuad11getGeometryERK7FigTimeP6PCRectIdE, __ZN13OZChannelQuad11getGeometryERK7FigTimePf,
                        __ZN13OZChannelQuadC1EP9OZFactoryRK8PCStringjj, __ZN13OZChannelQuadC1ERKS_P15OZChannelFolder,
                        __ZN13OZChannelQuadC2EP9OZFactoryRK8PCStringjj, __ZN13OZChannelQuadC2ERKS_P15OZChannelFolder,
                        __ZN13OZChannelSeed18_OZChannelSeedImplE, __ZN13OZChannelSeed18getObjCWrapperNameEv,
                        __ZN13OZChannelText10parseBeginER22PCSerializerReadStream, __ZN13OZChannelText12parseElementER22PCSerializerReadStreamR15PCStreamElement,
                        __ZN13OZChannelText18_OZChannelTextInfoE, __ZN13OZChannelText19setAttributedStringEPK20__CFAttributedString,
                        __ZN13OZChannelText6assignEPK13OZChannelBase, __ZN13OZChannelText9setStringE8PCStringbb,
                        __ZN13OZChannelTextC1EP9OZFactoryRK8PCStringP15OZChannelFolderjj, __ZN13OZChannelTextC1ERK8PCStringP15OZChannelFolderjj,
                        __ZN13OZChannelTextC1ERKS_P15OZChannelFolder, __ZN13OZChannelTextC2EP9OZFactoryRK8PCStringj,
                        __ZN13OZChannelTextC2ERK8PCStringRS0_P15OZChannelFolderjj, __ZN13OZChannelTextD0Ev,
                        __ZN13OZChannelTextD2Ev, __ZN13OZCoreGlobals9_instanceE,
                        __ZN13OZCoreGlobalsC2Ev, __ZN13OZEffect_Base30areEffectsAppliedInScreenSpaceEv,
                        __ZN13OZFontManager11getFontFaceERK8PCString, __ZN13OZFontManager14getSystemFontsEv,
                        __ZN13OZFontManager19registerCustomFontsEv, __ZN13OZFontManager23enumerateSystemFontsiOSEv,
                        __ZN13OZFontManager23getSystemFontCollectionEi, __ZN13OZFontManager26enumerateSystemCollectionsEv,
                        __ZN13OZFontManager9_instanceE, __ZN13OZFontManagerC1Ev,
                        __ZN13OZFontManagerD0Ev, __ZN13OZFontManagerD2Ev,
                        __ZN13OZFxGenerator14_needsToRenderEP5HGRefI6HGNodeE, __ZN13OZFxGenerator15getInternalNameEv,
                        __ZN13OZFxGenerator16calcHashForStateER23PCSerializerWriteStreamRK14OZRenderParamsRNSt3__14listIP19OZObjectManipulatorNS5_9allocatorIS8_EEEE, __ZN13OZFxGenerator19willRemoveFromSceneEP7OZScene,
                        __ZN13OZFxGenerator20getRootChannelFolderEv, __ZN13OZFxGenerator21makeRenderImageSourceER14OZRenderParamsRK18OZRenderGraphStateb,
                        __ZN13OZFxGenerator21shouldRenumberChannelEP13OZChannelBase, __ZN13OZFxGenerator8parseEndER22PCSerializerReadStream,
                        __ZN13OZFxGeneratorC1EP9OZFactoryRK8PCStringjib, __ZN13OZFxGeneratorC2EP9OZFactoryRK8PCStringjib,
                        __ZN13OZFxGeneratorD0Ev, __ZN13OZFxGeneratorD2Ev,
                        __ZN13OZLiGenerator13filteredEdgesEv, __ZN13OZLiGenerator21pixelTransformSupportERK18LiRenderParameters,
                        __ZN13OZLiGenerator9getHeliumER7LiAgent, __ZN13OZLiGeneratorC1Ev,
                        __ZN13OZLiGeneratorC2Ev, __ZN13OZPanBehavior9solveNodeEjRK7FigTimedd,
                        __ZN13OZPanBehaviorC1ERKS_j, __ZN13OZPanBehaviorC2ERKS_j,
                        __ZN13OZPanBehaviorD1Ev, __ZN13OZPanBehavioraSERK10OZBehavior,
                        __ZN13OZProjectNode12parseElementER22PCSerializerReadStreamR15PCStreamElement, __ZN13OZProjectNode19willRemoveFromSceneEP7OZScene,
                        __ZN13OZProjectNode22getSourceOperationMaskEP13OZChannelBaseb, __ZN13OZProjectNode25didFinishLoadingIntoSceneEv,
                        __ZN13OZProjectNode29markFactoriesForSerializationER23PCSerializerWriteStreamb, __ZN13OZProjectNode8parseEndER22PCSerializerReadStream,
                        __ZN13OZProjectNode9writeBodyER23PCSerializerWriteStreambbb, __ZN13OZProjectNodeC1ERS_j,
                        __ZN13OZProjectNodeC2ERS_j, __ZN13OZProjectNodeD1Ev,
                        __ZN13OZProjectNodeaSERK11OZSceneNode, __ZN13OZRenderState12TransformSet5pivotEb,
                        __ZN13OZRenderState12TransformSet5shearEb, __ZN13OZRenderState12setEyeMatrixEPK8LiCamera,
                        __ZN13OZRenderStateC1Ev, __ZN13OZRenderStateC2Ev,
                        __ZN13OZRigBehavior10copyScalesEPK13OZChannelBasePS0_, __ZN13OZRigBehavior10parseBeginER22PCSerializerReadStream,
                        __ZN13OZRigBehavior12didAddToNodeEP11OZSceneNode, __ZN13OZRigBehavior14calcStaticHashER23PCSerializerWriteStreamRNSt3__14listIP19OZObjectManipulatorNS2_9allocatorIS5_EEEE,
                        __ZN13OZRigBehavior14getRiggedValueEjjjdRK7FigTime, __ZN13OZRigBehavior16willDeleteObjectEP19OZObjectManipulator,
                        __ZN13OZRigBehavior18registerWithWidgetEv, __ZN13OZRigBehavior20copyTargetToSnapshotEj,
                        __ZN13OZRigBehavior20getCurrentSnapshotIDERNS_23OZRigBehaviorSnapshotIDE, __ZN13OZRigBehavior20unregisterWithWidgetEv,
                        __ZN13OZRigBehavior21createDefaultSnapshotEjPK13OZChannelBase, __ZN13OZRigBehavior21getChannelForSnapshotEj,
                        __ZN13OZRigBehavior22didAddSceneNodeToSceneEP7OZScene, __ZN13OZRigBehavior27clearCurrentSnapshotIDCacheEv,
                        __ZN13OZRigBehavior27createInterpolatingSnapshotEjjjdRK7FigTime, __ZN13OZRigBehavior28willRemoveSceneNodeFromSceneEP7OZScene,
                        __ZN13OZRigBehavior30adjustTo2DChannelsPromotedTo3DEv, __ZN13OZRigBehavior4copyERK10OZBehavior,
                        __ZN13OZRigBehavior9solveNodeEjRK7FigTimedd, __ZN13OZRigBehaviorC1ERKS_j,
                        __ZN13OZRigBehaviorC2ERKS_j, __ZN13OZRigBehaviorD1Ev,
                        __ZN13OZRigBehavioraSERK10OZBehavior, __ZN13OZRigSnapshot24_OZRigSnapshot_valueChanE,
                        __ZN13OZRigSnapshotC1EP15OZChannelFolderj, __ZN13OZRigSnapshotC2EP15OZChannelFolderj,
                        __ZN13OZRigSnapshotD0Ev, __ZN13OZRigSnapshotD2Ev,
                        __ZN13OZSceneCamera10setDOFNearEd, __ZN13OZSceneCamera11setApertureEd,
                        __ZN13OZSceneCamera11setFarPlaneEd, __ZN13OZSceneCamera11setRotationERK6PCQuatIdE,
                        __ZN13OZSceneCamera12setDOFOffsetEd, __ZN13OZSceneCamera14setAngleOfViewEd,
                        __ZN13OZSceneCamera14setCurrentTimeEb, __ZN13OZSceneCamera15setFarPlaneFadeEd,
                        __ZN13OZSceneCamera16setEulerRotationERK9PCVector3IdES3_, __ZN13OZSceneCamera16setRotationOrderE13RotationOrder,
                        __ZN13OZSceneCamera17setDOFFilterShapeEi, __ZN13OZSceneCamera18setParentTransformERK14PCMatrix44TmplIdE,
                        __ZN13OZSceneCamera7setCropEb, __ZN13OZSceneCamera8setScaleEd,
                        __ZN13OZSceneCamera9setDOFFarEd, __ZN13OZSceneCameraC1EP7OZScenej,
                        __ZN13OZSceneCameraD0Ev, __ZN13OZSceneCameraD2Ev,
                        __ZN13OZSplineStateC1Ebbbbjjjb, __ZN13OZSplineStateC2ERKS_,
                        __ZN13OZSplineStateC2Ev, __ZN13OZViewerState10parseBeginER22PCSerializerReadStream,
                        __ZN13OZViewerState11setSnappingEb, __ZN13OZViewerState11setZoomModeEi,
                        __ZN13OZViewerState12cameraLoadedEP7OZScene, __ZN13OZViewerState13cloneSettingsERKS_,
                        __ZN13OZViewerState13getResolutionEv, __ZN13OZViewerState14getOrthoCameraEiP7OZScene,
                        __ZN13OZViewerState15setKeepCenteredEb, __ZN13OZViewerState15setShowLightingEb,
                        __ZN13OZViewerState15setUseDropZonesEb, __ZN13OZViewerState17setRenderFullViewEb,
                        __ZN13OZViewerState17setShowMotionBlurEb, __ZN13OZViewerState18getPanZoomSettingsE16OZViewCameraType,
                        __ZN13OZViewerState20getDynamicResolutionEv, __ZN13OZViewerState20setShowFrameBlendingEb,
                        __ZN13OZViewerState23getFullscreenViewOffsetEv, __ZN13OZViewerState24setCompensateAspectRatioEb,
                        __ZN13OZViewerState24setHighQualityResamplingEb, __ZN13OZViewerState29markFactoriesForSerializationER23PCSerializerWriteStreamb,
                        __ZN13OZViewerState6getPanEv, __ZN13OZViewerState7cleanUpEP7OZScene,
                        __ZN13OZViewerState7getPanYEv, __ZN13OZViewerState8parseEndER22PCSerializerReadStream,
                        __ZN13OZViewerStateC1ERKS_, __ZN13OZViewerStateC2ERKS_,
                        __ZN13PCAsciiStream13encodeNewSizeEv, __ZN13PCAsciiStream4openEPKcy,
                        __ZN13PCAsciiStream5clearEv, __ZN13PCAsciiStream5writeEPKvy,
                        __ZN13PCAsciiStreamC1Ev, __ZN13PCAsciiStreamD1Ev,
                        __ZN13PCPixelFormat11removeAlphaENS_12ChannelOrderE, __ZN13PCPixelFormat13getGLDataTypeENS_12ChannelOrderE,
                        __ZN13PCPixelFormat14getPixelFormatEjj, __ZN13PCPixelFormat15getGLDataFormatENS_12ChannelOrderE,
                        __ZN13PCPixelFormat17getBitsPerChannelENS_12ChannelOrderE, __ZN13PCPixelFormat6hasRGBENS_12ChannelOrderE,
                        __ZN13PCPixelFormat6setRGBENS_12ChannelOrderE, __ZN13PCPixelFormat7is16BitENS_12ChannelOrderE,
                        __ZN13PCPixelFormat7isFloatENS_12ChannelOrderE, __ZN13PCPixelFormat8addAlphaENS_12ChannelOrderE,
                        __ZN13PCPixelFormat8setDepthENS_12ChannelOrderEjb, __ZN13PCRenderModelC2ENS_4TypeE,
                        __ZN13PCScopeLoggerC1EPKc, __ZN13PCScopeLoggerD1Ev,
                        __ZN13PGFramebuffer4bindERN5ProGL2GLE, __ZN13PGFramebuffer6attachERKNSt3__110shared_ptrI9PGTextureEE,
                        __ZN13PGFramebuffer6unbindERN5ProGL2GLE, __ZN13PGFramebuffer8unattachEv,
                        __ZN13PGFramebufferC2Ev, __ZN13PGFramebufferD2Ev,
                        __ZN13PVSourceFrame11SetLoadTimeE11CMTimeRange, __ZN13PVSourceFrameD0Ev,
                        __ZN13PVSourceFrameD2Ev, __ZN13ShadowCubeMap3addERK14ShadowMapsLazy,
                        __ZN13ShadowCubeMap4initEi, __ZN13ShadowCubeMapC1Ei,
                        __ZN13ShadowCubeMapC2Ei, __ZN13ShadowCubeMapD0Ev,
                        __ZN13ShadowCubeMapD2Ev, __ZN13ShadowUtility16setupLightCameraERN5ProGL2GLEP13LiSceneObjectPK7LiLightR15LightShadowInfo,
                        __ZN13TXChannelFont11getFontNameEv, __ZN13TXChannelFont12parseElementER22PCSerializerReadStreamR15PCStreamElement,
                        __ZN13TXChannelFont15setFaceSaveNameERK8PCString, __ZN13TXChannelFont24setDefaultToCurrentValueEv,
                        __ZN13TXChannelFont4copyEPK13OZChannelBaseb, __ZN13TXChannelFont6assignEPK13OZChannelBase,
                        __ZN13TXChannelFont9writeBodyER23PCSerializerWriteStreambbb, __ZN13TXChannelFontC1ERK8PCStringP15OZChannelFolderjj,
                        __ZN13TXChannelFontC2EP9OZFactoryRK8PCStringj, __ZN13TXChannelFontC2ERKS_P15OZChannelFolder,
                        __ZN13TXFontManager11getFontFaceERK8PCString, __ZN13TXFontManager15getCoreTextFontERK8PCString,
                        __ZN13TXFontManager15isFontAvailableERK8PCString, __ZN13TXFontManager16purgeCachedFontsEv,
                        __ZN13TXFontManager19saveDefaultFontSizeEi, __ZN13TXFontManager23enumerateSystemFontsiOSEv,
                        __ZN13TXFontManager26enumerateSystemCollectionsEv, __ZN13TXFontManager7getFontEP11TXTextStyle,
                        __ZN13TXFontManager9initFontsEv, __ZN13TXFontManagerC2Ev,
                        __ZN13TXFontManagerD1Ev, __ZN13TXHeliumGlyphC1EP12CGColorSpace,
                        __ZN14BuilderRequestC1Ev, __ZN14BuilderRequestD0Ev,
                        __ZN14BuilderRequestD2Ev, __ZN14HGArrayDataRef4moveEiii,
                        __ZN14HGArrayDataRef5fieldEPKdi, __ZN14HGArrayDataRef5fieldEPKii,
                        __ZN14HGBitmapLoader10RenderPageEP6HGPage, __ZN14HGBitmapLoader12ReleaseNodesEv,
                        __ZN14HGBitmapLoader14PreLoadTextureEP10HGRenderer, __ZN14HGBitmapLoader46m_GetPixelFormatConversion_kV4B_WXYZ_InputNodeEv,
                        __ZN14HGBitmapLoader46m_GetPixelFormatConversion_kV4S_WXYZ_InputNodeEv, __ZN14HGBitmapLoader49m_GetPixelFormatConversion_kV4S_BE_WXYZ_InputNodeEv,
                        __ZN14HGBitmapLoader9DuplicateEv, __ZN14HGBitmapLoader9SetBitmapEP8HGBitmap,
                        __ZN14HGBitmapLoaderC1Ev, __ZN14HGBitmapLoaderC2Ev,
                        __ZN14HGBitmapLoaderD1Ev, __ZN14HGBufferDumper13_validatePathEv,
                        __ZN14HGBufferDumper19_updateNodeFilenameEiPKci6HGRect, __ZN14HGBufferDumper5writeEPKciP8HGBitmap,
                        __ZN14HGBufferDumper7setPathEPKc, __ZN14HGBufferDumperC2Ev,
                        __ZN14HGBufferDumperD2Ev, __ZN14HGColorConform12SetLook3DLutEPK8__CFDatammmfffbNS_15hgLookLUTEndianEPhmffff,
                        __ZN14HGColorConform13SetConversionEP12CGColorSpaceS1_, __ZN14HGColorConform14DeleteNodeListEPPNSt3__16vectorIP26HGColorConformNodeListItemNS0_9allocatorIS3_EEEE,
                        __ZN14HGColorConform15Prep3DLUTBitmapEP10HGRendererPKhmmmbNS_15hgLookLUTEndianE, __ZN14HGColorConform15s_NodeListCacheE,
                        __ZN14HGColorConform17InitNodeListCacheEv, __ZN14HGColorConform17ProcessParamStateEPNS_23ParamGatheringStateEnumEi,
                        __ZN14HGColorConform18DecodeFragmentListEPK16ColorSyncProfileS2_PP31HGColorConformNodeListCacheItemb, __ZN14HGColorConform19DeleteNodeListCacheEv,
                        __ZN14HGColorConform19SetConversionStaticEPK16ColorSyncProfileS2_PP31HGColorConformNodeListCacheItem, __ZN14HGColorConform19SetPremultiplyStateEbb,
                        __ZN14HGColorConform19s_NodeListCacheLockE, __ZN14HGColorConform20SetOutputPixelFormatE8HGFormatNS_25hgColorConformYCbCrFormatE,
                        __ZN14HGColorConform21SetInOut422FilterModeENS_32hgColorConformInOut422FilterModeE, __ZN14HGColorConform22Set1DLutScaleAndOffsetEff,
                        __ZN14HGColorConform26SetSonySGamutGainAndMatrixEfb, __ZN14HGColorConform29CreateColorConformHeliumGraphEP10HGRendererNS_30hgColorConformConversionPresetE,
                        __ZN14HGColorConform9GetOutputEP10HGRenderer, __ZN14HGColorConformC2Ev,
                        __ZN14HGColorConformD1Ev, __ZN14HGColorCorrect10kParam_wgtE,
                        __ZN14HGColorCorrect15kParam_contrastE, __ZN14HGColorCorrect26kParam_hue_saturation_tempE,
                        __ZN14HGColorCorrectC1Ev, __ZN14HGColorCorrectD0Ev,
                        __ZN14HGColorCorrectD2Ev, __ZN14HGDepthToColor10RenderTileEP6HGTile,
                        __ZN14HGDepthToColor6GetDODEP10HGRendereri6HGRect, __ZN14HGDepthToColorC1Ev,
                        __ZN14HGDepthToColorD0Ev, __ZN14HGDepthToColorD2Ev,
                        __ZN14HGGLContextPtrC1Ev, __ZN14HGGLContextPtrC2Ev,
                        __ZN14HGGLContextPtrD2Ev, __ZN14HGGLMultiBlend10RenderPageEP6HGPage,
                        __ZN14HGGLMultiBlend12SetParameterEiffff, __ZN14HGGLMultiBlend14_preRenderTileEP6HGTilei,
                        __ZN14HGGLMultiBlend15_postRenderTileEP6HGTilei, __ZN14HGGLMultiBlend18_saveDepthForInputEi,
                        __ZN14HGGLMultiBlend6GetDODEP10HGRendereri6HGRect, __ZN14HGGLMultiBlend8SetInputEiP6HGNode,
                        __ZN14HGGLMultiBlend8SetInputEiP6HGNodeifffff, __ZN14HGGLMultiBlend8SetInputEiP6HGNodeifi,
                        __ZN14HGGLMultiBlend9PageBeginEP6HGPageiP9HGHandler, __ZN14HGGLMultiBlendC2Ev,
                        __ZN14HGLinearFilter4hannEfff, __ZN14HGLinearFilter4sincEfff,
                        __ZN14HGLinearFilter6kaiserEfff, __ZN14HGLinearFilter7hammingEfff,
                        __ZN14HGLinearFilter7uniformEfff, __ZN14HGLinearFilter8blackmanEfff,
                        __ZN14HGLinearFilter8mitchellEfff, __ZN14HGLodPreFilter10GetProgramEP10HGRenderer,
                        __ZN14HGLodPreFilter4BindEP9HGHandler, __ZN14HGLodPreFilter6GetROIEP10HGRendereri6HGRect,
                        __ZN14HGLodPreFilterC1EP8HGMipmapi, __ZN14HGLodPreFilterD0Ev,
                        __ZN14HGLodPreFilterD2Ev, __ZN14HGMetalContext26insertDebugCaptureBoundaryEv,
                        __ZN14HGMetalContextC2EPK17HGMetalDeviceInfo, __ZN14HGMetalContextD1Ev,
                        __ZN14HGMetalHandler10BindBufferEP8HGBitmap, __ZN14HGMetalHandler10MultMatrixEPKf,
                        __ZN14HGMetalHandler11ActiveStageEb, __ZN14HGMetalHandler11CheckStatusEv,
                        __ZN14HGMetalHandler11_encodeDrawEv, __ZN14HGMetalHandler13ActiveTextureEib,
                        __ZN14HGMetalHandler13_stopEncodingEv, __ZN14HGMetalHandler14_createBuffersEv,
                        __ZN14HGMetalHandler14_startEncodingEv, __ZN14HGMetalHandler14_updateBuffersEPKDv4_fS2_,
                        __ZN14HGMetalHandler15LocalParametersEiPKfi, __ZN14HGMetalHandler15_setNumVerticesEj,
                        __ZN14HGMetalHandler16SetTextureCoordsEPvmjj, __ZN14HGMetalHandler17InitPipelineStateEP18HGMetalShadersPairj,
                        __ZN14HGMetalHandler18_encodeDrawIndexedEjj, __ZN14HGMetalHandler20_createPipelineStateEv,
                        __ZN14HGMetalHandler20_encodeSourceTextureEi, __ZN14HGMetalHandler21_updateVerticesBufferEPKDv4_f,
                        __ZN14HGMetalHandler22_updateTextureMatricesEv, __ZN14HGMetalHandler23_updateProjectionMatrixEv,
                        __ZN14HGMetalHandler4RectE6HGRecti, __ZN14HGMetalHandler5ScaleEddd,
                        __ZN14HGMetalHandler9NormalizeEv, __ZN14HGMetalHandler9TranslateEddd,
                        __ZN14HGMetalHandlerC1EP14HGMetalContext, __ZN14HGMetalHandlerD0Ev,
                        __ZN14HGMetalHandlerD2Ev, __ZN14HGMetalTexture14createWithCopyE15HGMTLDeviceTypeP8HGBitmap,
                        __ZN14HGMetalTexture6createE15HGMTLDeviceType6HGRect8HGFormatP13HGMetalBuffer, __ZN14HGMetalTexture6createE15HGMTLDeviceType6HGRectS1_8HGFormatP18HGMetalTexturePool,
                        __ZN14HGMetalTexture6createE15HGMTLDeviceTypeP8HGBitmapP31HGMetalTextureWrapperInfinipool, __ZN14HGMetalTextureC1E6HGRectPS_,
                        __ZN14HGMetalTextureC2E6HGRectPS_, __ZN14HGMetalTextureD1Ev,
                        __ZN14HGSensoLogging21sHAlphaMatteGeneratorE, __ZN14HGSensoLogging24sHFDominantMotionTrackerE,
                        __ZN14HGUserExecUnit12StartRunLoopEv, __ZN14HGUserExecUnit7RunLoopEv,
                        __ZN14HGUserExecUnitC2EP13HGRenderQueue, __ZN14HGUserExecUnitD1Ev,
                        __ZN14HGradientBlend6GetDODEP10HGRendereri6HGRect, __ZN14HgcBlendBlur_210GetProgramEP10HGRenderer,
                        __ZN14HgcBlendBlur_211BindTextureEP9HGHandleri, __ZN14HgcBlendBlur_212SetParameterEiffff,
                        __ZN14HgcBlendBlur_26GetDODEP10HGRendereri6HGRect, __ZN14HgcBlendBlur_29GetOutputEP10HGRenderer,
                        __ZN14HgcBlendBlur_2C2Ev, __ZN14HgcBlendBlur_2D1Ev,
                        __ZN14HgcBlendBlur_310GetProgramEP10HGRenderer, __ZN14HgcBlendBlur_311BindTextureEP9HGHandleri,
                        __ZN14HgcBlendBlur_312SetParameterEiffff, __ZN14HgcBlendBlur_36GetDODEP10HGRendereri6HGRect,
                        __ZN14HgcBlendBlur_39GetOutputEP10HGRenderer, __ZN14HgcBlendBlur_3C2Ev,
                        __ZN14HgcBlendBlur_3D1Ev, __ZN14HgcBlendBlur_410GetProgramEP10HGRenderer,
                        __ZN14HgcBlendBlur_411BindTextureEP9HGHandleri, __ZN14HgcBlendBlur_412SetParameterEiffff,
                        __ZN14HgcBlendBlur_46GetDODEP10HGRendereri6HGRect, __ZN14HgcBlendBlur_49GetOutputEP10HGRenderer,
                        __ZN14HgcBlendBlur_4C2Ev, __ZN14HgcBlendBlur_4D1Ev,
                        __ZN14HgcBlendBlur_510GetProgramEP10HGRenderer, __ZN14HgcBlendBlur_511BindTextureEP9HGHandleri,
                        __ZN14HgcBlendBlur_512SetParameterEiffff, __ZN14HgcBlendBlur_56GetDODEP10HGRendereri6HGRect,
                        __ZN14HgcBlendBlur_59GetOutputEP10HGRenderer, __ZN14HgcBlendBlur_5C2Ev,
                        __ZN14HgcBlendBlur_5D1Ev, __ZN14HgcBlendBlur_610GetProgramEP10HGRenderer,
                        __ZN14HgcBlendBlur_611BindTextureEP9HGHandleri, __ZN14HgcBlendBlur_612SetParameterEiffff,
                        __ZN14HgcBlendBlur_66GetDODEP10HGRendereri6HGRect, __ZN14HgcBlendBlur_69GetOutputEP10HGRenderer,
                        __ZN14HgcBlendBlur_6C2Ev, __ZN14HgcBlendBlur_6D1Ev,
                        __ZN14HgcBlendBlur_710GetProgramEP10HGRenderer, __ZN14HgcBlendBlur_711BindTextureEP9HGHandleri,
                        __ZN14HgcBlendBlur_712SetParameterEiffff, __ZN14HgcBlendBlur_76GetDODEP10HGRendereri6HGRect,
                        __ZN14HgcBlendBlur_79GetOutputEP10HGRenderer, __ZN14HgcBlendBlur_7C2Ev,
                        __ZN14HgcBlendBlur_7D1Ev, __ZN14HgcChannelBlur10GetProgramEP10HGRenderer,
                        __ZN14HgcChannelBlur11BindTextureEP9HGHandleri, __ZN14HgcChannelBlur12SetParameterEiffff,
                        __ZN14HgcChannelBlur6GetDODEP10HGRendereri6HGRect, __ZN14HgcChannelBlur9GetOutputEP10HGRenderer,
                        __ZN14HgcChannelBlurC2Ev, __ZN14HgcChannelBlurD1Ev,
                        __ZN14HgcContrastRGB10GetProgramEP10HGRenderer, __ZN14HgcContrastRGB11BindTextureEP9HGHandleri,
                        __ZN14HgcContrastRGB12SetParameterEiffff, __ZN14HgcContrastRGB6GetDODEP10HGRendereri6HGRect,
                        __ZN14HgcContrastRGB9GetOutputEP10HGRenderer, __ZN14HgcContrastRGBC2Ev,
                        __ZN14HgcContrastRGBD1Ev, __ZN14HgcInvertAlpha10GetProgramEP10HGRenderer,
                        __ZN14HgcInvertAlpha11BindTextureEP9HGHandleri, __ZN14HgcInvertAlpha12SetParameterEiffff,
                        __ZN14HgcInvertAlpha6GetDODEP10HGRendereri6HGRect, __ZN14HgcInvertAlpha9GetOutputEP10HGRenderer,
                        __ZN14HgcInvertAlphaC2Ev, __ZN14HgcInvertAlphaD1Ev,
                        __ZN14HgcMaskCompAdd10GetProgramEP10HGRenderer, __ZN14HgcMaskCompAdd11BindTextureEP9HGHandleri,
                        __ZN14HgcMaskCompAdd12SetParameterEiffff, __ZN14HgcMaskCompAdd6GetDODEP10HGRendereri6HGRect,
                        __ZN14HgcMaskCompAdd9GetOutputEP10HGRenderer, __ZN14HgcMaskCompAddC2Ev,
                        __ZN14HgcMaskCompAddD1Ev, __ZN14HgcPSImageTint10GetProgramEP10HGRenderer,
                        __ZN14HgcPSImageTint11BindTextureEP9HGHandleri, __ZN14HgcPSImageTint4BindEP9HGHandler,
                        __ZN14HgcPSImageTint6GetDODEP10HGRendereri6HGRect, __ZN14HgcPSImageTint9GetOutputEP10HGRenderer,
                        __ZN14HgcPSImageTintC2Ev, __ZN14HgcPSImageTintD1Ev,
                        __ZN14HgcPremultiply10GetProgramEP10HGRenderer, __ZN14HgcPremultiply11BindTextureEP9HGHandleri,
                        __ZN14HgcPremultiply12SetParameterEiffff, __ZN14HgcPremultiply6GetDODEP10HGRendereri6HGRect,
                        __ZN14HgcPremultiply9GetOutputEP10HGRenderer, __ZN14HgcPremultiplyC2Ev,
                        __ZN14HgcPremultiplyD1Ev, __ZN14HgcSmearToRect10GetProgramEP10HGRenderer,
                        __ZN14HgcSmearToRect11BindTextureEP9HGHandleri, __ZN14HgcSmearToRect12SetParameterEiffff,
                        __ZN14HgcSmearToRect6GetDODEP10HGRendereri6HGRect, __ZN14HgcSmearToRect9GetOutputEP10HGRenderer,
                        __ZN14HgcSmearToRectC2Ev, __ZN14HgcSmearToRectD1Ev,
                        __ZN14HgcUnsharpMask10GetProgramEP10HGRenderer, __ZN14HgcUnsharpMask11BindTextureEP9HGHandleri,
                        __ZN14HgcUnsharpMask12SetParameterEiffff, __ZN14HgcUnsharpMask6GetDODEP10HGRendereri6HGRect,
                        __ZN14HgcUnsharpMask9GetOutputEP10HGRenderer, __ZN14HgcUnsharpMaskC2Ev,
                        __ZN14HgcUnsharpMaskD1Ev, __ZN14LiCollectStateC1ERKS_,
                        __ZN14LiCollectStateC2ERKS_, __ZN14LiGammaTexture10getTextureEv,
                        __ZN14LiGammaTexture13createTextureEv, __ZN14LiGammaTexture8setGammaEd,
                        __ZN14LiGammaTextureC2Ev, __ZN14LiGammaTextureD2Ev,
                        __ZN14LiGaussianBlur20estimateRenderMemoryERNSt3__13setI9PCHash128NS0_4lessIS2_EENS0_9allocatorIS2_EEEE, __ZN14LiGraphBuilder11add3dFilterERK5PCPtrI13LiImageFilterE,
                        __ZN14LiGraphBuilder15createPartitionEv, __ZN14LiGraphBuilder16makeNewPartitionEb,
                        __ZN14LiGraphBuilder21endInsertingIntoGroupEv, __ZN14LiGraphBuilder22getCurrentLocalToWorldEv,
                        __ZN14LiGraphBuilder24getCurrentInsertionGroupEv, __ZN14LiGraphBuilder29getAndIncrementCompositeOrderEv,
                        __ZN14LiGraphBuilder5add3dERK5PCPtrI13LiSceneObjectE, __ZN14LiGraphBuilder8addChildERK5PCPtrI13LiSceneObjectE,
                        __ZN14LiGraphBuilder8render2dEv, __ZN14LiGraphBuilder9prepare2dEv,
                        __ZN14LiGraphBuilder9setLightsERK10LiLightSet, __ZN14LiGraphBuilder9worldRootEv,
                        __ZN14LiGraphBuilderC1ERKS_, __ZN14LiGraphBuilderC2ERKS_,
                        __ZN14LiGraphBuilderD2Ev, __ZN14LiHeGridShader10RenderTileEP6HGTile,
                        __ZN14LiHeGridShader12GetParameterEiPf, __ZN14LiHeGridShader4BindEP9HGHandler,
                        __ZN14LiHeGridShader6GetROIEP10HGRendereri6HGRect, __ZN14LiHeGridShaderC1Ev,
                        __ZN14LiHeGridShaderD0Ev, __ZN14LiHeGridShaderD2Ev,
                        __ZN14LiHeReflection6GetROIEP10HGRendereri6HGRect, __ZN14LiHeShadowPCSS6GetROIEP10HGRendereri6HGRect,
                        __ZN14LiHeShadowPCSSC2EdbRK14PCMatrix44TmplIdES3_, __ZN14LiHeShadowSoft6GetDODEP10HGRendereri6HGRect,
                        __ZN14LiHeShadowSoft9GetOutputEP10HGRenderer, __ZN14LiHeShadowSoftC2ERK5HGRefI6HGNodeES4_RK20PCWorkingColorVectorb,
                        __ZN14LiImagePolygon3setERK6PCRectIdENS_8EdgeTypeE, __ZN14LiImagePolygon4clipERK6PCRectIdEi,
                        __ZN14LiImagePolygon4clipERK9LiClipSet, __ZN14LiImagePolygon4clipERKS_R14PCMatrix44TmplIdE,
                        __ZN14LiImagePolygon7do_clipERK7PCPlaneIdERK9PCVector4IdEi, __ZN14LiImagePolygonC1Ev,
                        __ZN14LiImagePolygonC2Ev, __ZN14LiImagePolygonD1Ev,
                        __ZN14LiImagePolygonaNERKS_, __ZN14LiMultiBlender10addStencilERK19LiMultiBlenderLayer,
                        __ZN14LiMultiBlender12addLightWrapERK19LiMultiBlenderLayerPK18PCLightWrapOptions, __ZN14LiMultiBlender14makeMultiBlendEv,
                        __ZN14LiMultiBlender18addPreserveOpacityERK19LiMultiBlenderLayer, __ZN14LiMultiBlender3addERK19LiMultiBlenderLayer,
                        __ZN14LiMultiBlender5clearEv, __ZN14LiMultiBlender8addPatchERK5HGRefI6HGNodeES4_,
                        __ZN14LiMultiBlenderC1Ef, __ZN14LiMultiBlenderD0Ev,
                        __ZN14LiMultiBlenderD2Ev, __ZN14LiRendererBase8setSceneEP13LiSceneObject,
                        __ZN14LiRendererBaseC2ERKS_, __ZN14LiRendererBaseD0Ev,
                        __ZN14LiRendererBaseD2Ev, __ZN14LiSimpleCamera10setFarCropEb,
                        __ZN14LiSimpleCamera11setFilmbackERK9PCVector2IdE, __ZN14LiSimpleCamera12setNearPlaneEd,
                        __ZN14LiSimpleCamera14setCameraModelE13LiCameraModel, __ZN14LiSimpleCamera15setFarPlaneFadeEd,
                        __ZN14LiSimpleCamera16setRotationOrderE13RotationOrder, __ZN14LiSimpleCamera19setPixelAspectRatioEd,
                        __ZN14LiSimpleCamera7setCropEb, __ZN14LiSimpleCameraC1Ev,
                        __ZN14LiSimpleCameraD0Ev, __ZN14LiSimpleCameraD2Ev,
                        __ZN14LiSolidDofInfoC2Ev, __ZN14MotionROIFrame3getEv,
                        __ZN14MotionROIFrameD1Ev, __ZN14OZCacheManager10addTextureERKNSt3__110shared_ptrI9PGTextureEERK14PCMatrix44TmplIdEiRK9PCHash128db,
                        __ZN14OZCacheManager11printStatusEv, __ZN14OZCacheManager13getHashForKeyERK9PCHash128PS0_,
                        __ZN14OZCacheManager13setAudioCacheEy, __ZN14OZCacheManager14clearHashCacheEv,
                        __ZN14OZCacheManager15clearAudioCacheEv, __ZN14OZCacheManager15guaranteeMemoryEj,
                        __ZN14OZCacheManager16getTextureForKeyEiRK9PCHash128P14PCMatrix44TmplIdE, __ZN14OZCacheManager16resizeImageCacheEv,
                        __ZN14OZCacheManager19isImageCachedForKeyERK9PCHash128, __ZN14OZCacheManager7addHashERK9PCHash128S2_j,
                        __ZN14OZCacheManager8InstanceEv, __ZN14OZCacheManager8isHostedEv,
                        __ZN14OZCacheManager9_instanceE, __ZN14OZCacheManagerC1Ev,
                        __ZN14OZCacheManagerD0Ev, __ZN14OZCacheManagerD2Ev,
                        __ZN14OZChannelAngle19_OZChannelAngleImplE, __ZN14OZChannelColor15setDefaultColorERK7PCColor,
                        __ZN14OZChannelColor25_OZChannelColor_alphaInfoE, __ZN14OZChannelColor8setColorERK7FigTimeRK7PCColorb,
                        __ZN14OZChannelColorC1ERK8PCStringP15OZChannelFolderjjj, __ZN14OZChannelColorC1EddddRK8PCStringP15OZChannelFolderjjj,
                        __ZN14OZChannelColorC2ERK8PCStringP15OZChannelFolderjjj, __ZN14OZChannelColorC2EddddRK8PCStringP15OZChannelFolderjjj,
                        __ZN14OZChannelCurve10closeCurveEv, __ZN14OZChannelCurve10moveVertexE10OZVertex2DRK7FigTimedd,
                        __ZN14OZChannelCurve11addVerticesERK7FigTimeRNSt3__16vectorI9PCVector2IdENS3_9allocatorIS6_EEEE, __ZN14OZChannelCurve11removeValueERK7FigTimeb,
                        __ZN14OZChannelCurve11setIsSplineEb, __ZN14OZChannelCurve12deleteVertexE10OZVertex2D,
                        __ZN14OZChannelCurve12enableVertexE10OZVertex2DRK7FigTimeb, __ZN14OZChannelCurve12generateKeysEjj,
                        __ZN14OZChannelCurve12insertVertexERK7FigTimeddd, __ZN14OZChannelCurve12parseElementER22PCSerializerReadStreamR15PCStreamElement,
                        __ZN14OZChannelCurve12selectVertexE10OZVertex2Db, __ZN14OZChannelCurve13alignTangentsE10OZVertex2DRK7FigTimeb,
                        __ZN14OZChannelCurve13breakTangentsE10OZVertex2Db, __ZN14OZChannelCurve13getLastVertexERK7FigTimeb,
                        __ZN14OZChannelCurve13getNextVertexERK7FigTimedb, __ZN14OZChannelCurve13setTangents45E10OZVertex2DRK7FigTimeddbdd,
                        __ZN14OZChannelCurve14getValueXAsIntERK7FigTimed, __ZN14OZChannelCurve14getVertexIndexERK7FigTime10OZVertex2D,
                        __ZN14OZChannelCurve14getVertexValueE10OZVertex2DRK7FigTimePdS4_, __ZN14OZChannelCurve14moveKeypointToERK7FigTimeS2_bb,
                        __ZN14OZChannelCurve14setVertexValueE10OZVertex2DRK7FigTimedd, __ZN14OZChannelCurve14weightTangentsE10OZVertex2Db,
                        __ZN14OZChannelCurve15getCurveSamplesERK7FigTimeddjPdS3_S3_, __ZN14OZChannelCurve15isVertexEnabledE10OZVertex2DRK7FigTime,
                        __ZN14OZChannelCurve15setVertexValueYE10OZVertex2DRK7FigTimed, __ZN14OZChannelCurve16calcHashForStateER23PCSerializerWriteStreamRK7FigTime,
                        __ZN14OZChannelCurve16doesVertexExistsE10OZVertex2D, __ZN14OZChannelCurve16isCurveFlattenedEv,
                        __ZN14OZChannelCurve16isVertexSelectedE10OZVertex2D, __ZN14OZChannelCurve16refreshAnimationEv,
                        __ZN14OZChannelCurve16setInputTangentsE10OZVertex2DRK7FigTimedd, __ZN14OZChannelCurve17deleteAllVerticesEv,
                        __ZN14OZChannelCurve17getPreviousVertexERK7FigTime10OZVertex2Db, __ZN14OZChannelCurve17getValueXAsDoubleERK7FigTimed,
                        __ZN14OZChannelCurve17isVertexFlattenedE10OZVertex2DRK7FigTime, __ZN14OZChannelCurve17setOutputTangentsE10OZVertex2DRK7FigTimedd,
                        __ZN14OZChannelCurve18getParametricRangeERK7FigTime, __ZN14OZChannelCurve19_OZChannelCurveInfoE,
                        __ZN14OZChannelCurve20getVertexDerivativesE10OZVertex2DRK7FigTimePdS4_S4_S4_, __ZN14OZChannelCurve21getMaxParametricValueERK7FigTime,
                        __ZN14OZChannelCurve21setCurveInterpolationEj, __ZN14OZChannelCurve22getVertexInterpolationE10OZVertex2D,
                        __ZN14OZChannelCurve23enableBehaviorForVertexE10OZVertex2Db, __ZN14OZChannelCurve23setDefaultAtCurrentTimeERK7FigTime,
                        __ZN14OZChannelCurve24copyKeyframesFromChannelERK7FigTimeP13OZChannelBase, __ZN14OZChannelCurve24getVertexIndexForChannelEP9OZChannel,
                        __ZN14OZChannelCurve26getCurveValueWithParameterERK7FigTimedPdS3_, __ZN14OZChannelCurve27getVertexAssociatedChannelYE10OZVertex2D,
                        __ZN14OZChannelCurve29setValueAndIgnoreRecordOptionERK7FigTime, __ZN14OZChannelCurve36convertCurveBSplineBiasToXSplineBiasEv,
                        __ZN14OZChannelCurve6assignEPK13OZChannelBase, __ZN14OZChannelCurve8isClosedEv,
                        __ZN14OZChannelCurve8setValueERK7FigTime, __ZN14OZChannelCurve8setValueERK7FigTimedd,
                        __ZN14OZChannelCurve9addVertexERK7FigTimedd, __ZN14OZChannelCurve9moveValueERK7FigTimeS2_b,
                        __ZN14OZChannelCurve9openCurveEv, __ZN14OZChannelCurveC1EP9OZFactoryRK8PCStringP15OZChannelFolderjj,
                        __ZN14OZChannelCurveC1ERK8PCStringP15OZChannelFolderjj, __ZN14OZChannelCurveC1EjRK8PCStringS2_P15OZChannelFolderjj,
                        __ZN14OZChannelCurveC2EP9OZFactoryRK8PCStringj, __ZN14OZChannelCurveC2ERKS_P15OZChannelFolder,
                        __ZN14OZChannelCurveD0Ev, __ZN14OZChannelCurveD2Ev,
                        __ZN14OZChannelFrame19_OZChannelFrameImplE, __ZN14OZChannelScale11_gScaleImplE,
                        __ZN14OZChannelScale20hasOnlyOneKeypointAtERK7FigTime, __ZN14OZChannelScale6_gInfoE,
                        __ZN14OZChannelScaleC1EP9OZFactoryRK8PCStringj, __ZN14OZChannelScaleC1ERKS_P15OZChannelFolder,
                        __ZN14OZChannelScaleC1EddRK8PCStringP15OZChannelFolderjjjP13OZChannelImplP13OZChannelInfo, __ZN14OZChannelScaleC2EP9OZFactoryRK8PCStringj,
                        __ZN14OZChannelScaleC2ERKS_P15OZChannelFolder, __ZN14OZChannelScaleC2EddRK8PCStringP15OZChannelFolderjjjP13OZChannelImplP13OZChannelInfo,
                        __ZN14OZChannelShape18getObjCWrapperNameEv, __ZN14OZChannelShape4copyEPK13OZChannelBaseb,
                        __ZN14OZChannelShape6assignEPK13OZChannelBase, __ZN14OZChannelShapeC1EP7OZShapeRK8PCStringP15OZChannelFolderjj,
                        __ZN14OZChannelShapeC1EP9OZFactoryRK8PCStringj, __ZN14OZChannelShapeC1ERKS_P15OZChannelFolderP7OZShape,
                        __ZN14OZChannelShapeC2EP7OZShapeRK8PCStringP15OZChannelFolderjj, __ZN14OZChannelShapeC2EP9OZFactoryRK8PCStringj,
                        __ZN14OZChannelShapeC2ERKS_P15OZChannelFolderP7OZShape, __ZN14OZChannelShapeD0Ev,
                        __ZN14OZChannelShapeD2Ev, __ZN14OZChannelShear4copyEPK13OZChannelBaseb,
                        __ZN14OZChannelShearC1ERK8PCStringP15OZChannelFolderjjj, __ZN14OZChannelShearC1EddRK8PCStringP15OZChannelFolderjjj,
                        __ZN14OZChannelShearC2ERK8PCStringP15OZChannelFolderjjj, __ZN14OZChannelShearC2EddRK8PCStringP15OZChannelFolderjjj,
                        __ZN14OZConstantNode11getMinValueEb, __ZN14OZConstantNode14getNeededRangeEP16OZCurveNodeParam,
                        __ZN14OZConstantNode9solveNodeER16OZCurveNodeParam, __ZN14OZConstantNodeC1ERKS_,
                        __ZN14OZConstantNodeC2ERKS_, __ZN14OZConstantNodeD0Ev,
                        __ZN14OZConstantNodeD2Ev, __ZN14OZCurvePercent26_OZCurvePercentSplineStateE,
                        __ZN14OZDynamicCurve10resetCurveEv, __ZN14OZDynamicCurve11getKeypointEPvRK7FigTimePdS4_,
                        __ZN14OZDynamicCurve11setKeypointERK7FigTimedPPv, __ZN14OZDynamicCurve12flattenCurveEv,
                        __ZN14OZDynamicCurve12moveKeypointEPvRK7FigTimed, __ZN14OZDynamicCurve13isClosedCurveEPb,
                        __ZN14OZDynamicCurve13setKeypointIDEPvj, __ZN14OZDynamicCurve14deriveKeypointEPv,
                        __ZN14OZDynamicCurve14flattenHandlesEPvRK7FigTime, __ZN14OZDynamicCurve15delAllKeypointsEv,
                        __ZN14OZDynamicCurve15getCurveSamplesERK7FigTimeddRjPdS4_, __ZN14OZDynamicCurve16areHandlesBrokenEPvPb,
                        __ZN14OZDynamicCurve16getFirstKeypointERK7FigTimePdS3_, __ZN14OZDynamicCurve16getVertexChannelEPvPP21OZChannelVertexFolder,
                        __ZN14OZDynamicCurve16isLockedKeypointEPvPb, __ZN14OZDynamicCurve16setVertexChannelEPvP21OZChannelVertexFolder,
                        __ZN14OZDynamicCurve17getKeypointHandleERK7FigTimedPPv, __ZN14OZDynamicCurve17isEnabledKeypointEPvRK7FigTimePb,
                        __ZN14OZDynamicCurve18isOpenEdgeKeypointEPvPb, __ZN14OZDynamicCurve18reparametrizeCurveEv,
                        __ZN14OZDynamicCurve19getCurrentMaxValueUERK7FigTimePd, __ZN14OZDynamicCurve19getCurrentMinValueUERK7FigTimePd,
                        __ZN14OZDynamicCurve19isKeypointFlattenedEPvPb, __ZN14OZDynamicCurve19setOpenEdgeKeypointEPvb,
                        __ZN14OZDynamicCurve20getNumberOfKeypointsEv, __ZN14OZDynamicCurve21getCurveInterpolationEPjPbS1_,
                        __ZN14OZDynamicCurve21getKeypointHandleListERNSt3__16vectorIPvNS0_9allocatorIS2_EEEE, __ZN14OZDynamicCurve21setCurveExtrapolationEjj,
                        __ZN14OZDynamicCurve21setKeypointBiasLinearEPvRK7FigTimed, __ZN14OZDynamicCurve23setDefaultAtCurrentTimeEPvRK7FigTime,
                        __ZN14OZDynamicCurve23setKeypointInputHandlesEPvRK7FigTimed, __ZN14OZDynamicCurve24getKeypointOutputHandlesEPvRK7FigTimePd,
                        __ZN14OZDynamicCurve24setKeypointOutputHandlesEPvRK7FigTimed, __ZN14OZDynamicCurve25getNumberOfValidKeypointsERK7FigTime,
                        __ZN14OZDynamicCurve26getKeypointValidHandleListERK7FigTimeRNSt3__16vectorIPvNS3_9allocatorIS5_EEEE, __ZN14OZDynamicCurve26getNextValidKeypointHandleERK7FigTimePvPS3_,
                        __ZN14OZDynamicCurve27getFirstValidKeypointHandleERK7FigTimePPv, __ZN14OZDynamicCurve30getPreviousValidKeypointHandleERK7FigTimePvPS3_,
                        __ZN14OZDynamicCurve8getPointERK7FigTimedPd, __ZN14OZDynamicCurveC1ERKS_,
                        __ZN14OZDynamicCurveC2ERKS_, __ZN14OZDynamicCurveD0Ev,
                        __ZN14OZDynamicCurveD2Ev, __ZN14OZFootageLayer10parseBeginER22PCSerializerReadStream,
                        __ZN14OZFootageLayer15end_descendantsEv, __ZN14OZFootageLayer17begin_descendantsEv,
                        __ZN14OZFootageLayer18getNaturalDurationEv, __ZN14OZFootageLayer20getDescendantAtIndexEj,
                        __ZN14OZFootageLayer9writeBodyER23PCSerializerWriteStreambbb, __ZN14OZFootageLayerC1ERKS_j,
                        __ZN14OZFootageLayerC2ERKS_j, __ZN14OZFootageLayerD1Ev,
                        __ZN14OZFootageLayeraSERK11OZSceneNode, __ZN14OZGradientDataC2Ei,
                        __ZN14OZGradientDataD1Ev, __ZN14OZImageElement10parseBeginER22PCSerializerReadStream,
                        __ZN14OZImageElement10setDropPanEddRK7FigTime, __ZN14OZImageElement11getFitScaleERK13OZRenderState,
                        __ZN14OZImageElement12allowReplaceEv, __ZN14OZImageElement12getTimeRemapEv,
                        __ZN14OZImageElement12makeMediaRefEv, __ZN14OZImageElement12prerollBeginERK14OZRenderParamsR14PMFrameRequestdP13FFPrerollSync,
                        __ZN14OZImageElement12resetFitModeEv, __ZN14OZImageElement13didAddToSceneEP7OZScene,
                        __ZN14OZImageElement13offsetDropPanEddRK7FigTime, __ZN14OZImageElement14getHeliumGraphERK14OZRenderParamsP10HGRendererRP12CGColorSpaceP14PCMatrix44TmplIdE,
                        __ZN14OZImageElement14getTimeReverseEv, __ZN14OZImageElement14pruneAllTokensEPKc,
                        __ZN14OZImageElement14scheduleTokensERK14OZRenderParamsRKNSt3__16vectorINS3_4pairI7FigTimeNS4_IS6_NS3_9allocatorIS6_EEEEEENS7_ISA_EEEER14PMFrameRequestPNS4_IP15FFScheduleTokenNS7_ISI_EEEE, __ZN14OZImageElement15getEndConditionEv,
                        __ZN14OZImageElement15getRetimingHashEv, __ZN14OZImageElement15reloadResourcesEP9PGContext,
                        __ZN14OZImageElement15setDropZoneTypeENS_14OZDropZoneTypeE, __ZN14OZImageElement16calcHashForStateER23PCSerializerWriteStreamRK14OZRenderParamsRNSt3__14listIP19OZObjectManipulatorNS5_9allocatorIS8_EEEEb,
                        __ZN14OZImageElement16getFootageBoundsEP6PCRectIdERK14OZRenderParamsb, __ZN14OZImageElement17getRetimeSamplingEv,
                        __ZN14OZImageElement17pruneTokensAtTimeE7FigTimePKc, __ZN14OZImageElement18getNaturalDurationEv,
                        __ZN14OZImageElement18setDropZonePreviewEv, __ZN14OZImageElement19getRenderHashInHostER14OZRenderParamsR17PCHashWriteStream,
                        __ZN14OZImageElement19globalToFootageTimeE7FigTime, __ZN14OZImageElement19setDropZoneReplacedEi,
                        __ZN14OZImageElement19willRemoveFromSceneEP7OZScene, __ZN14OZImageElement20getDropZoneMediaTypeEv,
                        __ZN14OZImageElement20globalToMediaRefTimeE7FigTime, __ZN14OZImageElement20setDropZoneMediaTypeENS_19OZDropZoneMediaTypeE,
                        __ZN14OZImageElement21_OZImageElement_layerE, __ZN14OZImageElement21getRetimedHeliumGraphERK14OZRenderParamsP9OZFootageRS0_R14PMFrameRequestP10HGRendererRP12CGColorSpaceP14PCMatrix44TmplIdEPl,
                        __ZN14OZImageElement22getRetimeSamplingValueEv, __ZN14OZImageElement22setRetimeSamplingValueEi,
                        __ZN14OZImageElement23getDropZoneSourceBoundsEP6PCRectIdERK14OZRenderParamsb, __ZN14OZImageElement23getNaturalDurationFlagsEv,
                        __ZN14OZImageElement23pruneTokensExceptAtTimeE7FigTimePKc, __ZN14OZImageElement23resetFitModeToSceneDimsEv,
                        __ZN14OZImageElement24addEXRToneMapIfNecessaryEv, __ZN14OZImageElement24showHideDropZoneChannelsEbb,
                        __ZN14OZImageElement25_OZImageElement_dropWidthE, __ZN14OZImageElement25_OZImageElement_timeScaleE,
                        __ZN14OZImageElement25closeOpticalFlowCacheFileEv, __ZN14OZImageElement25hitCheckForDropZoneSourceERK9PCVector2IfERK13OZRenderStatePK8LiCameraR9PCVector3IdEj,
                        __ZN14OZImageElement26_OZImageElement_pageNumberE, __ZN14OZImageElement26getHeliumGraphFromMediaRefERK14OZRenderParamsRP12CGColorSpace,
                        __ZN14OZImageElement26resetRetimingHashToCurrentEv, __ZN14OZImageElement27getInverseDropZoneTransformER14PCMatrix44TmplIdERK14OZRenderParams,
                        __ZN14OZImageElement28_OZImageElement_loopDurationE, __ZN14OZImageElement29calculateFrameRequestSettingsERK14OZRenderParamsP9OZFootagePPS0_P14PMFrameRequestPfS9_,
                        __ZN14OZImageElement29getRetimedHeliumGraphBlendingERK14OZRenderParamsP9OZFootageRS0_R14PMFrameRequestP10HGRendererRP12CGColorSpaceP14PCMatrix44TmplIdEPl, __ZN14OZImageElement30_OZImageElement_dropHeightInfoE,
                        __ZN14OZImageElement31getDropZoneTransformForMediaRefERK6PCRectIdEd, __ZN14OZImageElement32_OZImageElement_retimeFrameCacheE,
                        __ZN14OZImageElement36getRetimedHeliumGraphNoInterpolationEP9OZFootageR14OZRenderParamsR14PMFrameRequestP10HGRendererRP12CGColorSpaceP14PCMatrix44TmplIdEPl, __ZN14OZImageElement4evalER14OZRenderParams,
                        __ZN14OZImageElement7gridFitERK6PCRectIdE, __ZN14OZImageElement8parseEndER22PCSerializerReadStream,
                        __ZN14OZImageElement9writeBodyER23PCSerializerWriteStreambbb, __ZN14OZImageElementC1ERKS_j,
                        __ZN14OZImageElementC2ERKS_j, __ZN14OZImageElementD1Ev,
                        __ZN14OZImageElementaSERK11OZSceneNode, __ZN14OZInterpolator12useKeypointsEv,
                        __ZN14OZInterpolator15getAdjustedMinUER8OZSplineRK7FigTimeS4_, __ZN14OZInterpolator24convertTangentsToHandlesER8OZSplinePdS2_,
                        __ZN14OZInterpolatorD0Ev, __ZN14OZInterpolatorD2Ev,
                        __ZN14OZLinkBehavior10willRemoveEv, __ZN14OZLinkBehavior12addToChannelEP13OZChannelBase,
                        __ZN14OZLinkBehavior12dumpChannelsEv, __ZN14OZLinkBehavior13addExpressionEjP23OZLinkChannelExpression,
                        __ZN14OZLinkBehavior14mixModeChangedEv, __ZN14OZLinkBehavior15updateApplyModeEv,
                        __ZN14OZLinkBehavior16buildExpressionsEv, __ZN14OZLinkBehavior16getLockingGroupsEv,
                        __ZN14OZLinkBehavior16getTargetChannelEP23OZLinkChannelExpression, __ZN14OZLinkBehavior17checkForRecursionEP19OZObjectManipulator,
                        __ZN14OZLinkBehavior17updateObjectStateEv, __ZN14OZLinkBehavior18commonDidAddToNodeEv,
                        __ZN14OZLinkBehavior19getLockDependenciesEP9OZLockingP15PCDirectedGraphIS1_EPNSt3__13setIS1_NS5_4lessIS1_EENS5_9allocatorIS1_EEEE, __ZN14OZLinkBehavior19sourceObjectChangedEv,
                        __ZN14OZLinkBehavior20applyLinkWhenChangedEv, __ZN14OZLinkBehavior20fixParamChannelNamesEv,
                        __ZN14OZLinkBehavior22sourceIsAmenableToMathEv, __ZN14OZLinkBehavior25_OZLinkBehavior_scaleChanE,
                        __ZN14OZLinkBehavior25didFinishLoadingIntoSceneEv, __ZN14OZLinkBehavior26allExpressionsWithinLimitsERK7FigTimeP23OZLinkChannelExpression,
                        __ZN14OZLinkBehavior29_OZLinkBehavior_applyModeChanE, __ZN14OZLinkBehavior29_OZLinkBehavior_easeRangeChanE,
                        __ZN14OZLinkBehavior29deleteExpressionParamChannelsEP23OZLinkChannelExpressionPNSt3__13setIP13OZChannelBaseNS2_4lessIS5_EENS2_9allocatorIS5_EEEE, __ZN14OZLinkBehavior33_OZLinkBehavior_customMixChanInfoE,
                        __ZN14OZLinkBehavior4copyERK10OZBehavior, __ZN14OZLinkBehavior6notifyEj,
                        __ZN14OZLinkBehavior8clearAllEb, __ZN14OZLinkBehavior9solveNodeEjR16OZCurveNodeParam,
                        __ZN14OZLinkBehavior9willResetEv, __ZN14OZLinkBehaviorC1EP9OZFactoryRK8PCStringj,
                        __ZN14OZLinkBehaviorC2EP9OZFactoryRK8PCStringj, __ZN14OZLinkBehaviorD0Ev,
                        __ZN14OZLinkBehaviorD2Ev, __ZN14OZLockingGroup12acquireLocksEv,
                        __ZN14OZLockingGroupD1Ev, __ZN14OZMaterialBase10deleteThisEP13OZChannelBase,
                        __ZN14OZMaterialBase10setNewNameERK8PCStringb, __ZN14OZMaterialBase11setIsEditedEbb,
                        __ZN14OZMaterialBase12copyMaterialEPS_, __ZN14OZMaterialBase12parseElementER22PCSerializerReadStreamR15PCStreamElement,
                        __ZN14OZMaterialBase16buildRenderGraphER14OZRenderParamsP14LiGraphBuilderRK18OZRenderGraphState, __ZN14OZMaterialBase17willResetMaterialEv,
                        __ZN14OZMaterialBase20performDragOperationEP13OZFactoryBaseP13OZChannelBasejjjjRK7FigTime, __ZN14OZMaterialBase21setPresetFromMaterialEPS_,
                        __ZN14OZMaterialBase23removeThisFromBehaviorsEv, __ZN14OZMaterialBase6selectEv,
                        __ZN14OZMaterialBase8parseEndER22PCSerializerReadStream, __ZN14OZMaterialBase9allowDragEP13OZFactoryBaseP13OZChannelBasejPjS4_j,
                        __ZN14OZMaterialBaseC2EP9OZFactoryRK8PCStringj, __ZN14OZMaterialBaseD0Ev,
                        __ZN14OZMaterialBaseD2Ev, __ZN14OZNULLBehaviorC1EP9OZFactoryRK8PCStringj,
                        __ZN14OZNULLBehaviorC2EP9OZFactoryRK8PCStringj, __ZN14OZNULLBehaviorD0Ev,
                        __ZN14OZNULLBehaviorD2Ev, __ZN14OZProfilerStatC2EPKci,
                        __ZN14OZRampBehavior9solveNodeEjRK7FigTimedd, __ZN14OZRampBehaviorC1ERKS_j,
                        __ZN14OZRampBehaviorC2ERKS_j, __ZN14OZRampBehaviorD1Ev,
                        __ZN14OZRampBehavioraSERK10OZBehavior, __ZN14OZRateBehavior9solveNodeEjRK7FigTimedd,
                        __ZN14OZRateBehaviorC1ERKS_j, __ZN14OZRateBehaviorC2ERKS_j,
                        __ZN14OZRateBehaviorD1Ev, __ZN14OZRateBehavioraSERK10OZBehavior,
                        __ZN14OZRenderParams12setImageTypeE11PCImageType, __ZN14OZRenderParams13deleteControlEv,
                        __ZN14OZRenderParams14setRenderModelERK13PCRenderModel, __ZN14OZRenderParams15setImageContextEP9PGContext,
                        __ZN14OZRenderParams16setRenderQualityE9OZQuality, __ZN14OZRenderParams17setFFInputContextEP11FFSVContext,
                        __ZN14OZRenderParams19copyFromViewerStateEP13OZViewerState, __ZN14OZRenderParams5printEv,
                        __ZN14OZRenderParams8setWidthEl, __ZN14OZRenderParamsC1ERKS_,
                        __ZN14OZRenderParamsC2ERKS_, __ZN14OZRenderParamsD1Ev,
                        __ZN14OZRetimingUtil10IsReversedEP19OZChannelObjectRoot, __ZN14OZRetimingUtil11GetDurationEP19OZChannelObjectRoot,
                        __ZN14OZRetimingUtil12GetMaxOffsetEP19OZChannelObjectRootNS_15SceneTimeOptionE, __ZN14OZRetimingUtil12GetTimeRemapEP19OZChannelObjectRoot,
                        __ZN14OZRetimingUtil12SetTimeRemapEP19OZChannelObjectRooti, __ZN14OZRetimingUtil13CanRetimeFullEP11OZSceneNode,
                        __ZN14OZRetimingUtil13FixLoopOffsetEP19OZChannelObjectRootRK7FigTime, __ZN14OZRetimingUtil13SetLoopOffsetEP19OZChannelObjectRootRK7FigTime,
                        __ZN14OZRetimingUtil14GetMaxDurationEP19OZChannelObjectRoot, __ZN14OZRetimingUtil14RemapTimeValueEP19OZChannelObjectRootRK7FigTime,
                        __ZN14OZRetimingUtil15CanRetimeSimpleEP11OZSceneNode, __ZN14OZRetimingUtil15GetEndConditionEP19OZChannelObjectRoot,
                        __ZN14OZRetimingUtil15GetMaxTimeScaleEP19OZChannelObjectRoot, __ZN14OZRetimingUtil15SetEndConditionEP19OZChannelObjectRooti,
                        __ZN14OZRetimingUtil16GetMaxLoopOffsetEP19OZChannelObjectRoot, __ZN14OZRetimingUtil16ResetRetimeFrameEP19OZChannelObjectRootRK7FigTime,
                        __ZN14OZRetimingUtil16RetimingExaminer19getTimeScaleChannelEP19OZChannelObjectRoot, __ZN14OZRetimingUtil16RetimingExaminer21getTimeReverseChannelEP19OZChannelObjectRoot,
                        __ZN14OZRetimingUtil16RetimingExaminer22getEndConditionChannelEP19OZChannelObjectRoot, __ZN14OZRetimingUtil16RetimingExaminer23getDurationCacheChannelEP19OZChannelObjectRoot,
                        __ZN14OZRetimingUtil16RetimingExaminerC1Ev, __ZN14OZRetimingUtil16RetimingExaminerD0Ev,
                        __ZN14OZRetimingUtil16RetimingExaminerD2Ev, __ZN14OZRetimingUtil17CopyRetimingStateEP19OZChannelObjectRootS1_,
                        __ZN14OZRetimingUtil19GetRootSetForSetEndERNSt3__16vectorIP19OZChannelObjectRootNS0_9allocatorIS3_EEEERNS0_3mapIS3_NS_8RootInfoENS0_4lessIS3_EENS4_INS0_4pairIKS3_S9_EEEEEEb, __ZN14OZRetimingUtil19GetTimeScaleChannelEP19OZChannelObjectRoot,
                        __ZN14OZRetimingUtil21FixForRemovedBehaviorEP19OZChannelObjectRootRK7FigTime, __ZN14OZRetimingUtil21GetRetimeFrameChannelEP19OZChannelObjectRoot,
                        __ZN14OZRetimingUtil21GetTimingGroupChannelEP19OZChannelObjectRoot, __ZN14OZRetimingUtil22FixLoadedRetimingStateEP19OZChannelObjectRootRK7FigTime,
                        __ZN14OZRetimingUtil22GetLoopDurationChannelEP19OZChannelObjectRoot, __ZN14OZRetimingUtil22SetTimeOffsetAndExtentEP19OZChannelObjectRootRK7FigTimeRK11PCTimeRangeS4_,
                        __ZN14OZRetimingUtil23SetDefaultRetimingStateEP19OZChannelObjectRoot, __ZN14OZRetimingUtil25GetRootSetForSetTimeScaleERNSt3__16vectorIP19OZChannelObjectRootNS0_9allocatorIS3_EEEERNS0_3mapIS3_NS_8RootInfoENS0_4lessIS3_EENS4_INS0_4pairIKS3_S9_EEEEEE,
                        __ZN14OZRetimingUtil28GetRootSetForSetLoopDurationERNSt3__16vectorIP19OZChannelObjectRootNS0_9allocatorIS3_EEEERNS0_3mapIS3_NS_8RootInfoENS0_4lessIS3_EENS4_INS0_4pairIKS3_S9_EEEEEE, __ZN14OZRetimingUtil29GetRetimeNaturalDurationFlagsEP19OZChannelObjectRoot,
                        __ZN14OZRetimingUtil6GetEndEP19OZChannelObjectRoot, __ZN14OZRetimingUtil9GetMaxEndEP19OZChannelObjectRoot,
                        __ZN14OZRetimingUtil9GetOffsetEP19OZChannelObjectRoot, __ZN14OZSpinBehavior11accumForcesEP17OZSimulationStateP15OZTransformNode,
                        __ZN14OZSpinBehavior15isRateIncrementEv, __ZN14OZSpinBehavior18accumInitialValuesEP17OZSimulationStateP15OZTransformNode,
                        __ZN14OZSpinBehavior21getHUDAngularVelocityEP9PCVector3IdEPd, __ZN14OZSpinBehavior8calcAxisEP9PCVector3IdE,
                        __ZN14OZSpinBehaviorC1ERS_j, __ZN14OZSpinBehaviorC2ERS_j,
                        __ZN14OZSpinBehaviorD1Ev, __ZN14OZSpinBehavioraSERK10OZBehavior,
                        __ZN14OZStaticVertex12swapTangentsEv, __ZN14OZStaticVertex15flattenTangentsERK7FigTime,
                        __ZN14OZStaticVertex16setInputTangentsEddRK7FigTime, __ZN14OZStaticVertex17setOutputTangentsEddRK7FigTime,
                        __ZN14OZStaticVertex6isFlatEv, __ZN14OZStaticVertex7isEqualEPK8OZVertex,
                        __ZN14OZStaticVertex8getValueEP7FigTimePdRKS0_, __ZN14OZStaticVertex9isEnabledERK7FigTime,
                        __ZN14OZStaticVertexC1EP15OZDynamicVertexRK7FigTime, __ZN14OZStaticVertexC1ERKS_,
                        __ZN14OZStaticVertexC2ERK7FigTimed, __ZN14OZStaticVertexD0Ev,
                        __ZN14OZStaticVertexD2Ev, __ZN14OZStaticVertexltERKS_,
                        __ZN14OZStopBehavior14getNeededRangeEjP16OZCurveNodeParam, __ZN14OZStopBehavior9solveNodeEjRK7FigTimedd,
                        __ZN14OZStopBehaviorC1ERKS_j, __ZN14OZStopBehaviorC2ERKS_j,
                        __ZN14OZStopBehaviorD1Ev, __ZN14OZStopBehavioraSERK10OZBehavior,
                        __ZN14OZWindBehavior11accumForcesEP17OZSimulationStateP15OZTransformNode, __ZN14OZWindBehaviorC1EP9OZFactoryRK8PCStringj,
                        __ZN14OZWindBehaviorC2EP9OZFactoryRK8PCStringj, __ZN14OZWindBehaviorD0Ev,
                        __ZN14OZWindBehaviorD2Ev, __ZN14PCTimecodeMode14getInitializedEv,
                        __ZN14PCTimecodeMode15refTimecodeModeERK8PCString, __ZN14PCTimecodeMode16k60FPS_DropFrameEv,
                        __ZN14PCTimecodeMode19k60FPS_NonDropFrameEv, __ZN14PCTimecodeMode4Nm25Ev,
                        __ZN14PCTimecodeMode6Nm30DFEv, __ZN14PCTimecodeMode6Nm60DFEv,
                        __ZN14PCTimecodeMode7getListEv, __ZN14PCTimecodeModeC2EPKciiii,
                        __ZN14PCTimecodeModeD2Ev, __ZN14PCWorkingColor5BLACKEP12CGColorSpace,
                        __ZN14PCWorkingColor6setRGBEfff, __ZN14PCWorkingColorC1EP12CGColorSpace,
                        __ZN14PCWorkingColorC1ERK7PCColorP12CGColorSpace, __ZN14PCWorkingColorC1EffffP12CGColorSpace,
                        __ZN14PCWorkingColorC2EP12CGColorSpace, __ZN14PCWorkingColorC2ERK7PCColorP12CGColorSpace,
                        __ZN14PCWorkingColorC2EffffP12CGColorSpace, __ZN14PCWorkingColoraSERK7PCColor,
                        __ZN14PCWorkingColormLERKS_, __ZN14PCWorkingColorpLERKS_,
                        __ZN14PGTextureCache13disableLimitsEv, __ZN14PGTextureCache3addERKNSt3__110shared_ptrI9PGTextureEERK14PCMatrix44TmplIdEiRK9PCHash128db,
                        __ZN14PGTextureCache4findEiRK9PCHash128P14PCMatrix44TmplIdE, __ZN14PGTextureCache6removeERK9PCHash128,
                        __ZN14PGTextureCache8instanceEv, __ZN14PGTextureCacheC2Ev,
                        __ZN14PMFrameRequest14setAlphaInvertEb, __ZN14PMFrameRequestC1Ev,
                        __ZN14PMMediaManager10findPluginEPKc, __ZN14PMMediaManager10findReaderERK5PCURLb,
                        __ZN14PMMediaManager15_isRenderEngineE, __ZN14PMMediaManager15setVideoOptionsEP19PMFormatDescription,
                        __ZN14PMMediaManager20supportsVideoOptionsEP19PMFormatDescription, __ZN14PMMediaManager4openERK5PCURLPP6PMClipP17PMPluginInterfaceb,
                        __ZN14PMMediaManager9_instanceE, __ZN14PMMediaManagerC1Ev,
                        __ZN14PMMediaManagerD0Ev, __ZN14PMMediaManagerD2Ev,
                        __ZN14PSParticleType10prerollEndERK14OZRenderParamsR14PMFrameRequest, __ZN14PSParticleType11remapTokensERK14OZRenderParamsRNSt3__16vectorINS3_4pairI7FigTimeNS4_IS6_NS3_9allocatorIS6_EEEEEENS7_ISA_EEEER14PMFrameRequest,
                        __ZN14PSParticleType12prerollBeginERK14OZRenderParamsR14PMFrameRequestdP13FFPrerollSync, __ZN14PSParticleType13addLineSpriteERN9PSEmitter12RenderParamsEP10PSParticleR17OZSimStateElementR12PSHeliumNode,
                        __ZN14PSParticleType13didAddToSceneEP7OZScene, __ZN14PSParticleType13simAddObjectsEP17OZSystemSimulatorR15OZSimStateArrayd,
                        __ZN14PSParticleType14addPointSpriteERN9PSEmitter12RenderParamsEP10PSParticleR17OZSimStateElementR12PSHeliumNode, __ZN14PSParticleType14createParticleEjRK7FigTime,
                        __ZN14PSParticleType14getTokensImageERK14OZRenderParamsRKNSt3__16vectorINS3_4pairI7FigTimeNS4_IS6_NS3_9allocatorIS6_EEEEEENS7_ISA_EEEER14PMFrameRequest, __ZN14PSParticleType14preRenderFrameERK14OZRenderParamsR12PSHeliumNode,
                        __ZN14PSParticleType14scheduleTokensERK14OZRenderParamsRKNSt3__16vectorINS3_4pairI7FigTimeNS4_IS6_NS3_9allocatorIS6_EEEEEENS7_ISA_EEEER14PMFrameRequestPNS4_IP15FFScheduleTokenNS7_ISI_EEEE, __ZN14PSParticleType15cacheSourceNodeEv,
                        __ZN14PSParticleType15getSourceOutputERN9PSEmitter12RenderParamsERK7FigTimeP14PCMatrix44TmplIdEP6PCRectIdEPNSt3__110shared_ptrI9PGTextureEEPNSD_I8PCBitmapEEP5HGRefI6HGNodeE, __ZN14PSParticleType15isColorModifiedEv,
                        __ZN14PSParticleType15setImageNodeRefEj, __ZN14PSParticleType16addOutlineSpriteERN9PSEmitter12RenderParamsEP10PSParticleR17OZSimStateElementR12PSHeliumNode,
                        __ZN14PSParticleType16calcHashForStateER23PCSerializerWriteStreamRK14OZRenderParamsRNSt3__14listIP19OZObjectManipulatorNS5_9allocatorIS8_EEEEb, __ZN14PSParticleType16simGetFirstFrameERK7FigTime,
                        __ZN14PSParticleType17getParticleBoundsER17OZSimStateElementRK13OZRenderStateP6PCRectIdE, __ZN14PSParticleType18createParticleTypeERK8PCStringj,
                        __ZN14PSParticleType18getNaturalDurationEv, __ZN14PSParticleType18setGeodePropertiesERN9PSEmitter12RenderParamsERK18OZRenderGraphStateP7LiGeode,
                        __ZN14PSParticleType18updateReferenceIDsEPNSt3__13mapIjjNS0_4lessIjEENS0_9allocatorINS0_4pairIKjjEEEEEE, __ZN14PSParticleType19hintTokensWillImageERK14OZRenderParamsRKNSt3__16vectorINS3_4pairI7FigTimeNS4_IS6_NS3_9allocatorIS6_EEEEEENS7_ISA_EEEER14PMFrameRequest,
                        __ZN14PSParticleType19simGetTransformNodeEv, __ZN14PSParticleType20estimateRenderMemoryERKN9PSEmitter12RenderParamsER17OZSimStateElementRNSt3__13setI9PCHash128NS6_4lessIS8_EENS6_9allocatorIS8_EEEE,
                        __ZN14PSParticleType20getSourceImageBoundsERK13OZRenderStateP6PCRectIdE, __ZN14PSParticleType20globalToParticleTimeERK7FigTimed,
                        __ZN14PSParticleType20simGetForceBehaviorsERNSt3__14listIP20OZSimulationBehaviorNS0_9allocatorIS3_EEEERK7FigTime, __ZN14PSParticleType21getLineParticleBoundsER17OZSimStateElementRK7FigTimeP6PCRectIdE,
                        __ZN14PSParticleType21simAnythingToSimulateEv, __ZN14PSParticleType21willGetParticleBoundsEv,
                        __ZN14PSParticleType22getImageParticleBoundsER17OZSimStateElementRK13OZRenderStateP6PCRectIdE, __ZN14PSParticleType22getPointParticleBoundsER17OZSimStateElementRK7FigTimeP6PCRectIdE,
                        __ZN14PSParticleType23getInitialParticleColorERK7FigTimeP10PSParticlejP7PCColor, __ZN14PSParticleType23isColorModifiedOverLifeEv,
                        __ZN14PSParticleType23pruneTokensExceptAtTimeE7FigTimePKc, __ZN14PSParticleType24getImageParticleMatrix3DERKN9PSEmitter12RenderParamsEPK10PSParticleRK17OZSimStateElementP14PCMatrix44TmplIdE,
                        __ZN14PSParticleType24simGetCollisionBehaviorsERNSt3__14listIP20OZSimulationBehaviorNS0_9allocatorIS3_EEEERK7FigTime, __ZN14PSParticleType24simGetSceneFrameDurationEv,
                        __ZN14PSParticleType25_PSParticleType_shapeChanE, __ZN14PSParticleType25applyAllSequenceBehaviorsERK7FigTimePK10PSParticleR17PSSequencedValues,
                        __ZN14PSParticleType25simDoesDependOnSceneNodesERNSt3__13setIjNS0_4lessIjEENS0_9allocatorIjEEEE, __ZN14PSParticleType26addProjectedParticleBoundsERKN9PSEmitter12RenderParamsER17OZSimStateElementR6PCRectIdE,
                        __ZN14PSParticleType27_PSParticleType_spinVarChanE, __ZN14PSParticleType27applyScaleOverLifeBehaviorsEPNSt3__14listIP10OZBehaviorNS0_9allocatorIS3_EEEERK7FigTimeSA_SA_SA_R9PCVector3IdE,
                        __ZN14PSParticleType27getChannelFromRefAndVersionEP12OZChannelRefd, __ZN14PSParticleType27shouldDoLocalParticleRenderEv,
                        __ZN14PSParticleType28_PSParticleType_lifetimeChanE, __ZN14PSParticleType28_PSParticleType_speedVarChanE,
                        __ZN14PSParticleType28estimateRenderMemoryBallparkERK14OZRenderParamsPb, __ZN14PSParticleType29_PSParticleType_colorModeChanE,
                        __ZN14PSParticleType29_PSParticleType_speedChanInfoE, __ZN14PSParticleType30_PSParticleType_initialNumChanE,
                        __ZN14PSParticleType30addProjectedLineParticleBoundsERKN9PSEmitter12RenderParamsER17OZSimStateElementR6PCRectIdE, __ZN14PSParticleType31_PSParticleType_lifetimeVarChanE,
                        __ZN14PSParticleType31addProjectedImageParticleBoundsERKN9PSEmitter12RenderParamsER17OZSimStateElementR6PCRectIdE, __ZN14PSParticleType32_PSParticleType_anchorDabsToChanE,
                        __ZN14PSParticleType32_PSParticleType_lifetimeChanInfoE, __ZN14PSParticleType32_PSParticleType_posOffsetVarChanE,
                        __ZN14PSParticleType32_PSParticleType_speedVarChanInfoE, __ZN14PSParticleType33_PSParticleType_pointSizeChanInfoE,
                        __ZN14PSParticleType33estimateRenderMemoryImageBallparkERK14OZRenderParamsPb, __ZN14PSParticleType34_PSParticleType_pointSpacingOSChanE,
                        __ZN14PSParticleType36_PSParticleType_sourceHoldFramesChanE, __ZN14PSParticleType37_PSParticleType_strokeWidthOSChanInfoE,
                        __ZN14PSParticleType38_PSParticleType_sourceStartFrameOSChanE, __ZN14PSParticleType40_PSParticleType_sourceStartFrameChanInfoE,
                        __ZN14PSParticleType7getSeedEv, __ZN14PSParticleType8getStateEjRK7FigTimePP15OZSimStateArrayPb,
                        __ZN14PSParticleType9addSpriteERN9PSEmitter12RenderParamsEP10PSParticleR17OZSimStateElementR12PSHeliumNode, __ZN14PSParticleType9getBoundsEP6PCRectIdERK13OZRenderState,
                        __ZN14PSParticleType9writeBodyER23PCSerializerWriteStreambbb, __ZN14PSParticleTypeC1ERS_j,
                        __ZN14PSParticleTypeC2ERS_j, __ZN14PSParticleTypeD1Ev,
                        __ZN14PSParticleTypeaSERK11OZSceneNode, __ZN14PSTextureCache13removeTextureERKNSt3__110shared_ptrI9PGTextureEE,
                        __ZN14PSTextureCache16getTextureForKeyERK9PCHash128, __ZN14PSTextureCache8InstanceEv,
                        __ZN14PSTextureCache9_instanceE, __ZN14ShadowMapsLazymLERK14PCMatrix44TmplIdE,
                        __ZN14TXCoreTextFont22getBoundingRectForFontEdPK14PCMatrix33TmplIdE, __ZN14TXCoreTextFontC1EjRK8PCString,
                        __ZN14TXCoreTextFontD0Ev, __ZN14TXCoreTextFontD2Ev,
                        __ZN14TXTextBehavior19getPreviewSceneNodeEv, __ZN14TXTextBehaviorC1ERKS_j,
                        __ZN14TXTextBehaviorC2ERKS_j, __ZN14TXTextBehaviorD1Ev,
                        __ZN14TXTextBehavioraSERK10OZBehavior, __ZN14TXTextStyleRun11writeHeaderER23PCSerializerWriteStreamb,
                        __ZN14TXTextStyleRun8setStyleEP11TXTextStyle, __ZN14TXTextStyleRunC1EP11TXTextStyle,
                        __ZN14TXTextStyleRunC1EP11TXTextStylejj, __ZN14TXTextStyleRunC2EP11TXTextStyle,
                        __ZN14TXTextStyleRunC2EP11TXTextStylejj, __ZN14TXTextStyleRunD0Ev,
                        __ZN14TXTextStyleRunD2Ev, __ZN14TXTextureDecal9getHeliumER7LiAgent,
                        __ZN14TXTextureDecalC2E5PCPtrI13LiImageSourceE, __ZN14TXTextureGlyph16getCachedMetricsERK9PCHash128,
                        __ZN14TXTextureGlyphD0Ev, __ZN14TXTextureGlyphD2Ev,
                        __ZN15BumpTextureImpl5startEv, __ZN15BumpTextureImplC2ERK5PCURLRK17LiBumpTextureInfo,
                        __ZN15BumpTextureImplD1Ev, __ZN15CachedImageInfo13SetSourceNodeEP33PVInstructionGraphImageSourceNode,
                        __ZN15CachedImageInfoC1Ev, __ZN15CachedImageInfoD1Ev,
                        __ZN15CubeTextureImpl11makeTextureERN5ProGL2GLE, __ZN15CubeTextureImplC1ERK17LiCubeTextureInfoP12CGColorSpace,
                        __ZN15CubeTextureImplD0Ev, __ZN15CubeTextureImplD2Ev,
                        __ZN15HGCVPixelBuffer6createE5HGRefI19HGCVPixelBufferPoolEmmj, __ZN15HGCVPixelBuffer6createEmm,
                        __ZN15HGCVPixelBuffer7_createEP10__CVBufferb, __ZN15HGCVPixelBufferC1E5HGRefI19HGCVPixelBufferPoolEP10__CVBuffer,
                        __ZN15HGCVPixelBufferD0Ev, __ZN15HGCVPixelBufferD2Ev,
                        __ZN15HGExecUnitStack11commitStackEP19__simd128_float32_tm, __ZN15HGExecUnitStack11rewindStackEjP11HGStackPage,
                        __ZN15HGExecUnitStack13setStackStateE12HGStackState, __ZN15HGExecUnitStack20ALLOC_PADDING_FACTORE,
                        __ZN15HGExecUnitStack4tickEv, __ZN15HGExecUnitStack8validateEv,
                        __ZN15HGExecUnitStack9stackSizeEv, __ZN15HGExecUnitStackC1Ev,
                        __ZN15HGExecUnitStackD1Ev, __ZN15HGExecutionUnit10ClearStatsEv,
                        __ZN15HGExecutionUnit10RenderTileEP5HGVec6HGRectP6HGNodei, __ZN15HGExecutionUnit11CommitStackEP19__simd128_float32_tm,
                        __ZN15HGExecutionUnit13GetStackStateEv, __ZN15HGExecutionUnit7BgnExecEv,
                        __ZN15HGExecutionUnit7ExecuteEv, __ZN15HGExecutionUnit8PopStatsEv,
                        __ZN15HGExecutionUnit9StackSizeEv, __ZN15HGExecutionUnitC1EP10HGRendereri,
                        __ZN15HGExecutionUnitD1Ev, __ZN15HGFlipAndOffset10GetProgramEP10HGRenderer,
                        __ZN15HGFlipAndOffset11BindTextureEP9HGHandleri, __ZN15HGFlipAndOffset12SetParameterEiffff,
                        __ZN15HGFlipAndOffset23SupportsInplaceBlendingEf, __ZN15HGFlipAndOffset6GetROIEP10HGRendereri6HGRect,
                        __ZN15HGFlipAndOffsetC1Ev, __ZN15HGFlipAndOffsetD0Ev,
                        __ZN15HGFlipAndOffsetD2Ev, __ZN15HGGLContextEAGL10setCurrentE14HGGLContextPtr,
                        __ZN15HGGLContextEAGL11getPriorityEv, __ZN15HGGLContextEAGL13getShareGroupEv,
                        __ZN15HGGLContextEAGL16getVirtualScreenEv, __ZN15HGGLContextEAGL5shareE14HGGLContextPtr,
                        __ZN15HGGLContextEAGL6createEv, __ZN15HGGLContextEAGL7contextEv,
                        __ZN15HGGLContextEAGLC1Ev, __ZN15HGGLContextEAGLD0Ev,
                        __ZN15HGGLContextEAGLD2Ev, __ZN15HGGLContextImplD1Ev,
                        __ZN15HGGLShaderCache10ClearStatsEv, __ZN15HGGLShaderCache10TestShaderE14HGGLContextPtrPNS_5EntryEP8HGLimits,
                        __ZN15HGGLShaderCache10TestShaderE14HGGLContextPtrRKN8HGString6DigestEP8HGLimitsPPNS_5EntryE, __ZN15HGGLShaderCache12CancelShaderE14HGGLContextPtrPvi,
                        __ZN15HGGLShaderCache12DeleteShaderE14HGGLContextPtrPvi, __ZN15HGGLShaderCache13CompileShaderE14HGGLContextPtrPNS_5EntryEPv,
                        __ZN15HGGLShaderCache20GetShaderCompileTimeEv, __ZN15HGGLShaderCache4GrowEm,
                        __ZN15HGGLShaderCache5ResetEi, __ZN15HGGLShaderCache6EnableE14HGGLContextPtrPNS_5EntryEyPv,
                        __ZN15HGGLShaderCache6EnableE14HGGLContextPtrRKN8HGString6DigestEyPv, __ZN15HGGLShaderCache7DisableE14HGGLContextPtrj,
                        __ZN15HGGLShaderCache8AddEntryEmRK8HGStringRKNS0_6DigestE, __ZN15HGGLShaderCache8GetEntryEPKc,
                        __ZN15HGGLShaderCache8GetEntryERKN8HGString6DigestE, __ZN15HGGLShaderCacheC1Ev,
                        __ZN15HGGLShaderCacheD1Ev, __ZN15HGModulatedBlur12SetParameterEiffff,
                        __ZN15HGModulatedBlur9GetOutputEP10HGRenderer, __ZN15HGModulatedBlurC2Ev,
                        __ZN15HGModulatedBlurD1Ev, __ZN15HGNodeWithDepth10RenderPageEP6HGPage,
                        __ZN15HGNodeWithDepth11_writeDepthEv, __ZN15HGNodeWithDepth12_doDepthTestEv,
                        __ZN15HGNodeWithDepth14_preRenderTileEP6HGTile, __ZN15HGNodeWithDepth15_renderOneInputEP6HGTileii,
                        __ZN15HGNodeWithDepth18_saveDepthForInputEi, __ZN15HGNodeWithDepth8SetStateEP10HGRendereri,
                        __ZN15HGNodeWithDepthC1Ev, __ZN15HGNodeWithDepthD0Ev,
                        __ZN15HGNodeWithDepthD2Ev, __ZN15HGProfilerGuardIL19HGProfilerGuardMode0EEC2EP10HGProfiler,
                        __ZN15HGProfilerGuardIL19HGProfilerGuardMode0EED2Ev, __ZN15HGProfilerGuardIL19HGProfilerGuardMode1EEC2EP10HGProfiler,
                        __ZN15HGProfilerGuardIL19HGProfilerGuardMode1EED2Ev, __ZN15HGRenderContext11DumpContextEv,
                        __ZN15HGRenderContext11SetWorkModeENS_8WorkModeE, __ZN15HGRenderContext14PushRenderTimeEd,
                        __ZN15HGRenderContext18SetRenderStatsFlagEb, __ZN15HGRenderContext21SetRenderStatsMaxValsEm,
                        __ZN15HGRenderContext23SetDefaultFilteringModeE12HGFilterMode, __ZN15HGRenderContext25SetGraphConcatenationFlagEb,
                        __ZN15HGRenderContext4LockEv, __ZN15HGRenderContext7GetTypeEv,
                        __ZN15HGRenderContextC1EP10HGRenderer, __ZN15HGRenderContextC2EP10HGRenderer,
                        __ZN15HGRenderContextD0Ev, __ZN15HGRenderContextD2Ev,
                        __ZN15HGShaderBinding4pushERKS_, __ZN15HGShaderBinding6isliveEj,
                        __ZN15HGUnpremultiplyC1Ev, __ZN15HGUnpremultiplyD0Ev,
                        __ZN15HGUnpremultiplyD2Ev, __ZN15HG_RENDERER_ENV14LOG_LEVEL_INITE,
                        __ZN15HG_RENDERER_ENV15FORCE_PAGE_SIZEE, __ZN15HG_RENDERER_ENV18LOG_LEVEL_GL_TRACEE,
                        __ZN15HG_RENDERER_ENV19TRACK_TEXTURE_USAGEE, __ZN15HG_RENDERER_ENV20FORCE_SINGLE_CONTEXTE,
                        __ZN15HG_RENDERER_ENV20LOG_LEVEL_TEXMANAGERE, __ZN15HG_RENDERER_ENV20USE_V210_BGRA_FORMATE,
                        __ZN15HG_RENDERER_ENV21FORCE_SINGLE_DOT_FILEE, __ZN15HG_RENDERER_ENV22TEX_PADDING_CUSHIONINGE,
                        __ZN15HG_RENDERER_ENV24FORCE_POST_RENDER_FINISHE, __ZN15HG_RENDERER_ENV26FORCE_TEXTURE_STORAGE_HINTE,
                        __ZN15HG_RENDERER_ENV27LOAD_TEXTURE_TILE_ALIGNMENTE, __ZN15HG_RENDERER_ENV27VALIDATE_CURRENT_GL_CONTEXTE,
                        __ZN15HG_RENDERER_ENV28FORCE_POST_READPIXELS_FINISHE, __ZN15HG_RENDERER_ENV29FORCE_RECYCLE_SHARED_TEXTURESE,
                        __ZN15HG_RENDERER_ENV30MAX_TEXTURE_QUEUE_SIZE_PERCENTE, __ZN15HG_RENDERER_ENV31CLIENT_STORAGE_RECYCLING_POLICYE,
                        __ZN15HG_RENDERER_ENV31MAX_TEXTURE_UNUSED_SIZE_PERCENTE, __ZN15HG_RENDERER_ENV33FORCE_INTERLEAVED_RENDER_READBACKE,
                        __ZN15HG_RENDERER_ENV4InitEv, __ZN15HG_RENDERER_ENVC1Ev,
                        __ZN15HGradientLinear6GetROIEP10HGRendereri6HGRect, __ZN15HGradientLinearC2Ev,
                        __ZN15HGradientLinearD1Ev, __ZN15HGradientRadial6GetROIEP10HGRendereri6HGRect,
                        __ZN15HGradientRadialC2Ev, __ZN15HGradientRadialD1Ev,
                        __ZN15HgcAnalyzeGrain10GetProgramEP10HGRenderer, __ZN15HgcAnalyzeGrain11BindTextureEP9HGHandleri,
                        __ZN15HgcAnalyzeGrain12SetParameterEiffff, __ZN15HgcAnalyzeGrain6GetDODEP10HGRendereri6HGRect,
                        __ZN15HgcAnalyzeGrain9GetOutputEP10HGRenderer, __ZN15HgcAnalyzeGrainC2Ev,
                        __ZN15HgcAnalyzeGrainD1Ev, __ZN15HgcBadFilmGrain10GetProgramEP10HGRenderer,
                        __ZN15HgcBadFilmGrain11BindTextureEP9HGHandleri, __ZN15HgcBadFilmGrain12SetParameterEiffff,
                        __ZN15HgcBadFilmGrain6GetDODEP10HGRendereri6HGRect, __ZN15HgcBadFilmGrain9GetOutputEP10HGRenderer,
                        __ZN15HgcBadFilmGrainC2Ev, __ZN15HgcBadFilmGrainD1Ev,
                        __ZN15HgcChannelMixer10GetProgramEP10HGRenderer, __ZN15HgcChannelMixer11BindTextureEP9HGHandleri,
                        __ZN15HgcChannelMixer12SetParameterEiffff, __ZN15HgcChannelMixer6GetDODEP10HGRendereri6HGRect,
                        __ZN15HgcChannelMixer9GetOutputEP10HGRenderer, __ZN15HgcChannelMixerC2Ev,
                        __ZN15HgcChannelMixerD1Ev, __ZN15HgcCheckerboard10GetProgramEP10HGRenderer,
                        __ZN15HgcCheckerboard11BindTextureEP9HGHandleri, __ZN15HgcCheckerboard12SetParameterEiffff,
                        __ZN15HgcCheckerboard6GetDODEP10HGRendereri6HGRect, __ZN15HgcCheckerboard9GetOutputEP10HGRenderer,
                        __ZN15HgcCheckerboardC2Ev, __ZN15HgcCheckerboardD1Ev,
                        __ZN15HgcColorBalance12GetParameterEiPf, __ZN15HgcColorBalance9GetOutputEP10HGRenderer,
                        __ZN15HgcColorBalanceC2Ev, __ZN15HgcColorBalanceD1Ev,
                        __ZN15HgcColorCorrect10RenderTileEP6HGTile, __ZN15HgcColorCorrect12GetParameterEiPf,
                        __ZN15HgcColorCorrect4BindEP9HGHandler, __ZN15HgcColorCorrect6GetDODEP10HGRendereri6HGRect,
                        __ZN15HgcColorCorrect9GetOutputEP10HGRenderer, __ZN15HgcColorCorrectC2Ev,
                        __ZN15HgcColorCorrectD1Ev, __ZN15HgcContrastLuma10GetProgramEP10HGRenderer,
                        __ZN15HgcContrastLuma11BindTextureEP9HGHandleri, __ZN15HgcContrastLuma12SetParameterEiffff,
                        __ZN15HgcContrastLuma6GetDODEP10HGRendereri6HGRect, __ZN15HgcContrastLuma9GetOutputEP10HGRenderer,
                        __ZN15HgcContrastLumaC2Ev, __ZN15HgcContrastLumaD1Ev,
                        __ZN15HgcLocateScreen10GetProgramEP10HGRenderer, __ZN15HgcLocateScreen11BindTextureEP9HGHandleri,
                        __ZN15HgcLocateScreen12SetParameterEiffff, __ZN15HgcLocateScreen6GetDODEP10HGRendereri6HGRect,
                        __ZN15HgcLocateScreen9GetOutputEP10HGRenderer, __ZN15HgcLocateScreenC2Ev,
                        __ZN15HgcLocateScreenD1Ev, __ZN15HgcSimpleBorder10GetProgramEP10HGRenderer,
                        __ZN15HgcSimpleBorder11BindTextureEP9HGHandleri, __ZN15HgcSimpleBorder12SetParameterEiffff,
                        __ZN15HgcSimpleBorder6GetDODEP10HGRendereri6HGRect, __ZN15HgcSimpleBorder9GetOutputEP10HGRenderer,
                        __ZN15HgcSimpleBorderC2Ev, __ZN15HgcSimpleBorderD1Ev,
                        __ZN15HgcSpillRemoval10GetProgramEP10HGRenderer, __ZN15HgcSpillRemoval11BindTextureEP9HGHandleri,
                        __ZN15HgcSpillRemoval12SetParameterEiffff, __ZN15HgcSpillRemoval6GetDODEP10HGRendereri6HGRect,
                        __ZN15HgcSpillRemoval9GetOutputEP10HGRenderer, __ZN15HgcSpillRemovalC2Ev,
                        __ZN15HgcSpillRemovalD1Ev, __ZN15LiClipPlaneInfo3getEi,
                        __ZN15LiClipPlaneInfoC2Ev, __ZN15LiDepthPeelInfoC2Ev,
                        __ZN15LiDofExtentBaseC1Ev, __ZN15LiFBOCompositor11_shaderCopyE,
                        __ZN15LiFBOCompositor12_shaderBlendE, __ZN15LiFBOCompositor12initColorTexERN5ProGL2GLERNS0_13TextureHandleEii,
                        __ZN15LiFBOCompositor12setupShadersEv, __ZN15LiFBOCompositor14beginDrawToFBOEv,
                        __ZN15LiFBOCompositor18initMultisampleFBOERN5ProGL11FramebufferERNS0_18RenderbufferHandleES4_iii, __ZN15LiFBOCompositor4finiEv,
                        __ZN15LiFBOCompositor7deleterEj, __ZN15LiFBOCompositorC2Ei,
                        __ZN15LiFBOCompositorD2Ev, __ZN15LiMaterialLayer13computeVertexERK12LayerContextR17SurfaceProperties,
                        __ZN15LiMaterialLayer16sampleLayerColorERK17LiLayeredMaterialRK22LiMaterialLayerUniformbb, __ZN15LiMaterialLayer20setUnlimitedSamplersEb,
                        __ZN15LiMaterialLayer22texturePlacementVertexEN8ProShade21TextureTransformBasisE9PCVector3IbERNS0_4VarTINS0_4NodeEEES7_S7_, __ZN15LiMaterialLayer24calculateTriplanarNormalEv,
                        __ZN15LiMaterialLayer27getSurfaceSpecularIntensityERK17LiLayeredMaterialRK22LiMaterialLayerUniform, __ZN15LiMaterialLayer27getSurfaceSpecularShininessERK17LiLayeredMaterialRK22LiMaterialLayerUniformRKN8ProShade9Sampler2DERKNS6_7UniformE,
                        __ZN15LiMaterialLayer29sampleTextureMap1DRadialNoiseEN8ProShade7SamplerE9PCVector3IbERKNS0_4VarTINS0_4NodeEEERK17SamplerAttributes, __ZN15LiMaterialLayer34getSurfaceSpecularAnisotropicAngleERK17LiLayeredMaterialRK22LiMaterialLayerUniform,
                        __ZN15LiMaterialLayer7getHashEv, __ZN15LiMaterialLayer9writeHashER17PCHashWriteStream,
                        __ZN15LiPolygonDrawer13getHeliumNodeEv, __ZN15LiPolygonDrawerD0Ev,
                        __ZN15LiPolygonDrawerD2Ev, __ZN15LiSceneIteratorI7LiGeode21LiSceneIteratorAlwaysE4nextEv,
                        __ZN15LiSceneIteratorI7LiLight21LiSceneIteratorAlwaysE4nextEv, __ZN15LiSolidRenderer10renderTileEP13LiSceneObjectRK20LiTextureCoordinatorjjjjjjjj,
                        __ZN15LiSolidRenderer11renderSceneERN5ProGL2GLEP13LiSceneObjectRK20LiTextureCoordinatorjj, __ZN15LiSolidRenderer12setOutputFboEj,
                        __ZN15LiSolidRenderer13setShouldTileEb, __ZN15LiSolidRenderer17setupTransparencyERN5ProGL2GLEP13LiSceneObjectRK20LiTextureCoordinator,
                        __ZN15LiSolidRenderer19setProjectionMatrixERK14PCMatrix44TmplIdE, __ZN15LiSolidRenderer21renderMultisampleTileERN5ProGL2GLEP13LiSceneObjectRK20LiTextureCoordinatorRNS0_11FramebufferES9_jjjjjjjjjjb,
                        __ZN15LiSolidRenderer24renderNonMultisampleTileERN5ProGL2GLEP13LiSceneObjectRK20LiTextureCoordinatorRNS0_11FramebufferEjjjjjjjjjb, __ZN15LiSolidRenderer24setMaxTransparencyLayersEi,
                        __ZN15LiSolidRenderer8drawTileEjjjjjjj, __ZN15LiSolidRenderer9setupTileEjjjjjjj,
                        __ZN15LiSolidRendererC2Ev, __ZN15LiSolidRendererD1Ev,
                        __ZN15LightShadowInfoC1Ev, __ZN15NoPaddingPolicy10adjustRectE6HGRect,
                        __ZN15NoPoolingPolicy32waitForQueuedForDeletionTexturesEv, __ZN15OZChannelBool3D15setDefaultValueEbbb,
                        __ZN15OZChannelBool3D4copyEPK13OZChannelBaseb, __ZN15OZChannelBool3D4getYERK7FigTimed,
                        __ZN15OZChannelBool3D4setXERK7FigTimed, __ZN15OZChannelBool3D4setZERK7FigTimed,
                        __ZN15OZChannelBool3D8getValueERK7FigTimePbS3_S3_d, __ZN15OZChannelBool3D8setValueERK7FigTimebbb,
                        __ZN15OZChannelBool3DC1EP9OZFactoryRK8PCStringjj, __ZN15OZChannelBool3DC1ERKS_P15OZChannelFolder,
                        __ZN15OZChannelBool3DC1EbbbRK8PCStringP15OZChannelFolderjjj, __ZN15OZChannelBool3DC2EP9OZFactoryRK8PCStringjj,
                        __ZN15OZChannelBool3DC2ERKS_P15OZChannelFolder, __ZN15OZChannelBool3DC2EbbbRK8PCStringP15OZChannelFolderjjj,
                        __ZN15OZChannelButton16getCallbackBlockEv, __ZN15OZChannelButton18getObjCWrapperNameEv,
                        __ZN15OZChannelButton20_OZChannelButtonInfoE, __ZN15OZChannelButton4copyEPK13OZChannelBaseb,
                        __ZN15OZChannelButtonC1EP9OZFactoryRK8PCStringj, __ZN15OZChannelButtonC1ERK8PCStringP15OZChannelFolderjj,
                        __ZN15OZChannelButtonC2EP9OZFactoryRK8PCStringP15OZChannelFolderjj, __ZN15OZChannelButtonC2EPFvPvES0_RK8PCStringP15OZChannelFolderjj,
                        __ZN15OZChannelButtonC2ERKS_P15OZChannelFolder, __ZN15OZChannelButtonD1Ev,
                        __ZN15OZChannelDouble18getObjCWrapperNameEv, __ZN15OZChannelDouble20_OZChannelDoubleInfoE,
                        __ZN15OZChannelFolder10parseBeginER22PCSerializerReadStream, __ZN15OZChannelFolder11endPlaybackERK7FigTime,
                        __ZN15OZChannelFolder11setIsSplineEb, __ZN15OZChannelFolder12generateKeysEjj,
                        __ZN15OZChannelFolder12nextKeypointEP7FigTimej, __ZN15OZChannelFolder12setFoldFlagsEj,
                        __ZN15OZChannelFolder13beginPlaybackERK7FigTimejjS2_, __ZN15OZChannelFolder13hasDescendantEPK13OZChannelBase,
                        __ZN15OZChannelFolder13isKeyframableEv, __ZN15OZChannelFolder14beginRecordingERK7FigTime,
                        __ZN15OZChannelFolder14moveKeypointToERK7FigTimeS2_bb, __ZN15OZChannelFolder14setKeyframableEbb,
                        __ZN15OZChannelFolder15deleteKeypointsERK7FigTimeS2_, __ZN15OZChannelFolder15retimeKeypointsEdRK7FigTime,
                        __ZN15OZChannelFolder16allowsAssignmentEPK13OZChannelBase, __ZN15OZChannelFolder16deleteKeypointAtERK7FigTime,
                        __ZN15OZChannelFolder16removeDescendantEP13OZChannelBase, __ZN15OZChannelFolder16setExtrapolationEjj,
                        __ZN15OZChannelFolder18allHaveKeypointsAtERK7FigTime, __ZN15OZChannelFolder18getObjCWrapperNameEv,
                        __ZN15OZChannelFolder19allocateDescendantsEv, __ZN15OZChannelFolder20getDescendantObjectsEPNSt3__16vectorIjNS0_9allocatorIjEEEE,
                        __ZN15OZChannelFolder20removeAllDescendantsEb, __ZN15OZChannelFolder21insertDescendantAfterEPK13OZChannelBasePS0_,
                        __ZN15OZChannelFolder22findMatchingDescendantEPK13OZChannelBase, __ZN15OZChannelFolder22hasMoreThanOneKeypointEv,
                        __ZN15OZChannelFolder24copyKeyframesFromChannelERK7FigTimeP13OZChannelBase, __ZN15OZChannelFolder25registerRecordingCallbackEPFvP13OZChannelBaseRK7FigTimePvES5_b,
                        __ZN15OZChannelFolder26updateCurrentRecordingTimeERK7FigTime, __ZN15OZChannelFolder27unregisterRecordingCallbackEPFvP13OZChannelBaseRK7FigTimePvES5_,
                        __ZN15OZChannelFolder29markFactoriesForSerializationER23PCSerializerWriteStreamb, __ZN15OZChannelFolder4bakeERK11PCTimeRangeRK7FigTime,
                        __ZN15OZChannelFolder4lockEbb, __ZN15OZChannelFolder8isSplineEv,
                        __ZN15OZChannelFolder8setValueERK13OZChannelBase, __ZN15OZChannelFolder9push_backEP13OZChannelBase,
                        __ZN15OZChannelFolderC1EP9OZFactoryRK8PCStringPS_jjj, __ZN15OZChannelFolderC1ERK8PCStringPS_jjj,
                        __ZN15OZChannelFolderC1ERKS_PS_, __ZN15OZChannelFolderC2EP9OZFactoryRK8PCStringjj,
                        __ZN15OZChannelFolderC2ERKS_, __ZN15OZChannelFolderD0Ev,
                        __ZN15OZChannelFolderD2Ev, __ZN15OZChannelFoldereqERKS_,
                        __ZN15OZChannelLevels13getBlackValueERK7FigTimed, __ZN15OZChannelLevels13getWhiteValueERK7FigTimed,
                        __ZN15OZChannelLevels13setGammaValueERK7FigTimedb, __ZN15OZChannelLevels18getObjCWrapperNameEv,
                        __ZN15OZChannelLevels8getBlackEv, __ZN15OZChannelLevels8getWhiteEv,
                        __ZN15OZChannelLevelsC1EP9OZFactoryRK8PCStringjj, __ZN15OZChannelLevelsC1ERKS_P15OZChannelFolder,
                        __ZN15OZChannelLevelsC2EP9OZFactoryRK8PCStringjj, __ZN15OZChannelLevelsC2ERKS_P15OZChannelFolder,
                        __ZN15OZChannelUint1620_OZChannelUint16ImplE, __ZN15OZChannelUint3218getObjCWrapperNameEv,
                        __ZN15OZChannelUint3220_OZChannelUint32InfoE, __ZN15OZClampBehavior17updateHiddenFlagsEPNSt3__14listIP10OZBehaviorNS0_9allocatorIS3_EEEE,
                        __ZN15OZClampBehavior9solveNodeEjRK7FigTimedd, __ZN15OZClampBehaviorC1ERKS_j,
                        __ZN15OZClampBehaviorC2ERKS_j, __ZN15OZClampBehaviorD1Ev,
                        __ZN15OZClampBehavioraSERK10OZBehavior, __ZN15OZDynamicSpline11deriveCurveER8OZVertexRK7FigTimeb,
                        __ZN15OZDynamicSpline12appendVertexERK7FigTimedS2_, __ZN15OZDynamicSpline12sampleSplineERK7FigTimeS2_RjPNSt3__16vectorIS0_NS4_9allocatorIS0_EEEEPNS5_IdNS6_IdEEEES2_b,
                        __ZN15OZDynamicSpline12sampleSplineEddRjPNSt3__16vectorIdNS1_9allocatorIdEEEES6_RK7FigTime, __ZN15OZDynamicSpline13disableVertexEPvRK7FigTime,
                        __ZN15OZDynamicSpline15setVertexSmoothEPvbRK7FigTime, __ZN15OZDynamicSpline16getVertexChannelEPv,
                        __ZN15OZDynamicSpline16updateVertexBiasEPv, __ZN15OZDynamicSpline17isSplineFlattenedEv,
                        __ZN15OZDynamicSpline19reverseWindingOrderERK7FigTime, __ZN15OZDynamicSpline21setVertexInputHandlesEPvddRK7FigTimeb,
                        __ZN15OZDynamicSpline22setVertexOutputHandlesEPvddRK7FigTimeb, __ZN15OZDynamicSpline24enabledBehaviorForVertexEPv,
                        __ZN15OZDynamicSpline28setDefaultValueAtCurrentTimeERK7FigTime, __ZN15OZDynamicSpline9setVertexEPvRK7FigTimedS3_,
                        __ZN15OZDynamicSplineC1ERKS_P13OZSplineState, __ZN15OZDynamicSplineC2ERKS_P13OZSplineState,
                        __ZN15OZDynamicSplineD1Ev, __ZN15OZDynamicVertex10setChannelEP21OZChannelVertexFolder,
                        __ZN15OZDynamicVertex10updateBiasEv, __ZN15OZDynamicVertex13resetTangentsEv,
                        __ZN15OZDynamicVertex15enabledBehaviorEv, __ZN15OZDynamicVertex16getInputTangentsEPdS0_RK7FigTime,
                        __ZN15OZDynamicVertex17getOutputTangentsEPdS0_RK7FigTime, __ZN15OZDynamicVertex18offsetVertexInTimeERK7FigTime,
                        __ZN15OZDynamicVertex23_OZDynamicVertex_tanInVE, __ZN15OZDynamicVertex24_OZDynamicVertex_enabledE,
                        __ZN15OZDynamicVertex3_idE, __ZN15OZDynamicVertex7getBiasERK7FigTime,
                        __ZN15OZDynamicVertex7setBiasEdRK7FigTime, __ZN15OZDynamicVertex9isEnabledERK7FigTime,
                        __ZN15OZDynamicVertexC1ERK7FigTimedS2_, __ZN15OZDynamicVertexC2ERK7FigTimedS2_,
                        __ZN15OZDynamicVertexD0Ev, __ZN15OZDynamicVertexD2Ev,
                        __ZN15OZDynamicVertexltERKS_, __ZN15OZElementRender17fixPixelTransformER7LiAgentP14PCMatrix44TmplIdERK18LiRenderParameters,
                        __ZN15OZElementRenderC2EP9OZElementP11OZImageNodeRK14OZRenderParams, __ZN15OZFocusBehavior12didAddToNodeEP11OZSceneNode,
                        __ZN15OZFocusBehavior22didAddSceneNodeToSceneEP7OZScene, __ZN15OZFocusBehavior8isActiveEv,
                        __ZN15OZFocusBehavior9solveNodeEjRK7FigTimedd, __ZN15OZFocusBehaviorC1ERKS_j,
                        __ZN15OZFocusBehaviorC2ERKS_j, __ZN15OZFocusBehaviorD1Ev,
                        __ZN15OZFocusBehavioraSERK10OZBehavior, __ZN15OZInterpolators15getInterpolatorEj,
                        __ZN15OZInterpolatorsC1ERKS_, __ZN15OZInterpolatorsC2ERKS_,
                        __ZN15OZInterpolatorsD1Ev, __ZN15OZInterpolatorsaSERKS_,
                        __ZN15OZLayer_Factory9_instanceE, __ZN15OZLiFxGenerator13filteredEdgesEv,
                        __ZN15OZLiFxGenerator20estimateRenderMemoryERNSt3__13setI9PCHash128NS0_4lessIS2_EENS0_9allocatorIS2_EEEE, __ZN15OZLiFxGenerator9getHeliumER7LiAgent,
                        __ZN15OZLiFxGeneratorC1Ev, __ZN15OZLiFxGeneratorC2Ev,
                        __ZN15OZLightingStyle11getLightSetEi, __ZN15OZRecordingNode11endPlaybackERK7FigTime,
                        __ZN15OZRecordingNode11getMinValueEb, __ZN15OZRecordingNode12getLastValueEv,
                        __ZN15OZRecordingNode13beginPlaybackERK7FigTimejjS2_, __ZN15OZRecordingNode14beginRecordingERK7FigTime,
                        __ZN15OZRecordingNode17updateCurrentTimeERK7FigTime, __ZN15OZRecordingNode9cloneNodeEv,
                        __ZN15OZRecordingNode9solveNodeERK7FigTimedd, __ZN15OZRecordingNodeC1ERKS_,
                        __ZN15OZRecordingNodeC2EP12OZSplineNode, __ZN15OZRecordingNodeC2ERKS_P12OZSplineNode,
                        __ZN15OZRecordingNodeD1Ev, __ZN15OZRecordingNodeaSERKS_,
                        __ZN15OZRenderManager13getGLRendererEv, __ZN15OZRenderManager17canRenderThisSizeEiiN10PCBitDepth4TypeE,
                        __ZN15OZRenderManagerC1EP7OZScene, __ZN15OZRenderManagerD1Ev,
                        __ZN15OZSceneSettings10parseBeginER22PCSerializerReadStream, __ZN15OZSceneSettings11writeHeaderER23PCSerializerWriteStreamb,
                        __ZN15OZSceneSettings12setFrameRateEdb, __ZN15OZSceneSettings14setAnimateFlagEb,
                        __ZN15OZSceneSettings15setGlyphOSCModeEj, __ZN15OZSceneSettings21kMaximumSceneDurationE,
                        __ZN15OZSceneSettings22getHostAppProjectWidthEv, __ZN15OZSceneSettings23getHostAppProjectHeightEv,
                        __ZN15OZSceneSettings8parseEndER22PCSerializerReadStream, __ZN15OZSceneSettingsC1ERKS_,
                        __ZN15OZSceneSettingsC2ERKS_, __ZN15OZShaderManager11getInstanceEv,
                        __ZN15OZShaderManager9_instanceE, __ZN15OZShaderManager9getShaderEPKc,
                        __ZN15OZShaderManagerC2Ev, __ZN15OZShaderManagerD1Ev,
                        __ZN15OZShapeBehavior10didReorderEP10OZBehavior, __ZN15OZShapeBehavior10parseBeginER22PCSerializerReadStream,
                        __ZN15OZShapeBehavior11reorderChanEP13OZChannelBasePNSt3__14listIP10OZBehaviorNS2_9allocatorIS5_EEEERNS2_15__list_iteratorIS5_PvEE, __ZN15OZShapeBehavior12didAddVertexEi,
                        __ZN15OZShapeBehavior12parseElementER22PCSerializerReadStreamR15PCStreamElement, __ZN15OZShapeBehavior15setupCurveNodesEv,
                        __ZN15OZShapeBehavior16reorderCurveNodeEP24OZShapeBehaviorCurveNodePNSt3__14listIP10OZBehaviorNS2_9allocatorIS5_EEEERNS2_15__list_iteratorIS5_PvEE, __ZN15OZShapeBehavior16willRemoveVertexEi,
                        __ZN15OZShapeBehavior17canAddToSceneNodeEP11OZSceneNode, __ZN15OZShapeBehavior17reorderSingleChanEP9OZChannelPNSt3__14listIP10OZBehaviorNS2_9allocatorIS5_EEEERNS2_15__list_iteratorIS5_PvEE,
                        __ZN15OZShapeBehavior18restoreAffectedIDsEv, __ZN15OZShapeBehavior19getGlobalCacheEntryEi7FigTime,
                        __ZN15OZShapeBehavior19removeNodesFromChanEP13OZChannelBase, __ZN15OZShapeBehavior20removeAffectedVertexEi,
                        __ZN15OZShapeBehavior21resetAffectedVerticesEv, __ZN15OZShapeBehavior22createGlobalCacheEntryEi7FigTime,
                        __ZN15OZShapeBehavior22didAddSceneNodeToSceneEP7OZScene, __ZN15OZShapeBehavior24setupCurveNodesForVertexEP21OZChannelVertexFolderS1_,
                        __ZN15OZShapeBehavior26isVertexAffectedByBehaviorEi, __ZN15OZShapeBehavior29solveNodeFromPreviousBehaviorEP9OZChannelRK7FigTime,
                        __ZN15OZShapeBehavior6notifyEj, __ZN15OZShapeBehavior7disableEv,
                        __ZN15OZShapeBehavior8willBakeER11PCTimeRange, __ZN15OZShapeBehavior9writeBodyER23PCSerializerWriteStreambbb,
                        __ZN15OZShapeBehaviorC1ERS_j, __ZN15OZShapeBehaviorC2ERS_j,
                        __ZN15OZShapeBehaviorD1Ev, __ZN15OZShapeBehavioraSERK10OZBehavior,
                        __ZN15OZSimStateArray14setOwnedObjectEP8PCShared, __ZN15OZSimStateArray8stepFromEPS_7FigTimed,
                        __ZN15OZSimStateArrayC1ERKS_, __ZN15OZSimStateArrayC1Ev,
                        __ZN15OZSimStateArrayC2Ej, __ZN15OZSimStateArrayD1Ev,
                        __ZN15OZSimStateArrayaSERKS_, __ZN15OZThrowBehavior11accumForcesEP17OZSimulationStateP15OZTransformNode,
                        __ZN15OZThrowBehavior16setHUDVelocitiesE7FigTimeRK9PCVector3IdE, __ZN15OZThrowBehavior17updateHiddenFlagsEPNSt3__14listIP10OZBehaviorNS0_9allocatorIS3_EEEE,
                        __ZN15OZThrowBehavior18isRebuildUIChannelEP13OZChannelBase, __ZN15OZThrowBehaviorC1EP9OZFactoryRK8PCStringj,
                        __ZN15OZThrowBehaviorC2EP9OZFactoryRK8PCStringj, __ZN15OZThrowBehaviorD0Ev,
                        __ZN15OZThrowBehaviorD2Ev, __ZN15OZTimeMarkerSet10parseBeginER22PCSerializerReadStream,
                        __ZN15OZTimeMarkerSet12parseElementER22PCSerializerReadStreamR15PCStreamElement, __ZN15OZTimeMarkerSet13findTopMarkerERK11PCTimeRange,
                        __ZN15OZTimeMarkerSet15findFirstMarkerE7FigTimeS0_, __ZN15OZTimeMarkerSet18findPreviousMarkerE7FigTime,
                        __ZN15OZTimeMarkerSet8_readingE, __ZN15OZTimeMarkerSet9writeBodyER23PCSerializerWriteStreambbb,
                        __ZN15OZTimeMarkerSetC1Ev, __ZN15OZTimeMarkerSetC2Ev,
                        __ZN15OZTimelineState11writeHeaderER23PCSerializerWriteStreamb, __ZN15OZTimelineState15setDisplayAudioEb,
                        __ZN15OZTimelineState15setDisplayRangeERK11PCTimeRange, __ZN15OZTimelineState17setDisplayEffectsEb,
                        __ZN15OZTimelineState19setDisplayKeyframesEb, __ZN15OZTimelineState20setVideoVerticalZoomEd,
                        __ZN15OZTimelineState8parseEndER22PCSerializerReadStream, __ZN15OZTimelineStateC1ERKS_,
                        __ZN15OZTimelineStateC2ERKS_, __ZN15OZTransformNode10copyAtTimeEPK11OZSceneNode7FigTime,
                        __ZN15OZTransformNode11computeSpinE7FigTime, __ZN15OZTransformNode11setRotationEdRK7FigTime,
                        __ZN15OZTransformNode12parseElementER22PCSerializerReadStreamR15PCStreamElement, __ZN15OZTransformNode12setRotationYEdRK7FigTime,
                        __ZN15OZTransformNode13didAddToSceneEP7OZScene, __ZN15OZTransformNode14setTranslationEddRK7FigTime,
                        __ZN15OZTransformNode16calcHashForStateER23PCSerializerWriteStreamRK14OZRenderParamsRNSt3__14listIP19OZObjectManipulatorNS5_9allocatorIS8_EEEEb, __ZN15OZTransformNode17offsetTranslationEdddRK7FigTimeb,
                        __ZN15OZTransformNode19setInitialTransformEPK8LiCameraRK9PCVector2IdEPKS_RK13OZRenderState, __ZN15OZTransformNode21isAffectedByBehaviorsEv,
                        __ZN15OZTransformNode23getFaceProjectionMatrixEP14PCMatrix44TmplIdERK14OZRenderParams, __ZN15OZTransformNode27getCommonAncestorTransformsEPS_RK13OZRenderStateP14PCMatrix44TmplIdES6_,
                        __ZN15OZTransformNode29projectPointToLocalFromObjectEP9OZElementRK9PCVector3IdERK13OZRenderState, __ZN15OZTransformNode4bakeEv,
                        __ZN15OZTransformNode8hitCheckERK9PCVector2IfERK13OZRenderStatePK8LiCameraR9PCVector3IdEj, __ZN15OZTransformNode8setPivotEdddRK7FigTime,
                        __ZN15OZTransformNode8setShearEddRK7FigTime, __ZN15OZTransformNodeC1EP9OZFactoryRK8PCStringj,
                        __ZN15OZTransformNodeC2EP9OZFactoryRK8PCStringj, __ZN15OZTransformNodeD0Ev,
                        __ZN15OZTransformNodeD2Ev, __ZN15PCStreamElement10aToFigTimeEPPKcP7FigTime,
                        __ZN15PCStreamElementC2EjP7PCScopeP12PCSerializer, __ZN15PCStreamElementD1Ev,
                        __ZN15PCXMLReadStream10abortParseEv, __ZN15PCXMLReadStream13createElementEjP7PCScopeP12PCSerializer,
                        __ZN15PCXMLReadStream5parseEv, __ZN15PCXMLReadStream9stopParseEv,
                        __ZN15PCXMLReadStreamC1EPKch, __ZN15PCXMLReadStreamC2EPK8__CFData,
                        __ZN15PCXMLReadStreamC2ERK5PCURL, __ZN15PCXMLReadStreamD1Ev,
                        __ZN15PGContextHelper13getPGLContextEPK9PGContext, __ZN15PGContextHelper15createPGContextERKN5ProGL13ContextHandleE,
                        __ZN15PGTextureHelper12new2DTextureERKN5ProGL13TextureHandleE, __ZN15PGTextureHelperclEP9PGTexture,
                        __ZN15PMClipFinalizerC2EP10HGRenderer, __ZN15PMClipFinalizerD2Ev,
                        __ZN15PMStillInstance5closeEv, __ZN15PMStillInstanceC2Ev,
                        __ZN15PMStillInstanceD1Ev, __ZN15PSEmitterRender11getBoundaryER7LiAgentP6PCRectIdE,
                        __ZN15PSEmitterRender20estimateRenderMemoryERNSt3__13setI9PCHash128NS0_4lessIS2_EENS0_9allocatorIS2_EEEE, __ZN15PSEmitterRender9getHeliumER7LiAgent,
                        __ZN15PSEmitterRenderC2EP9PSEmitterRK14OZRenderParams, __ZN15PSGradDabRender20estimateRenderMemoryERNSt3__13setI9PCHash128NS0_4lessIS2_EENS0_9allocatorIS2_EEEE,
                        __ZN15PSGradDabRenderC1ER17OZChannelGradientRK14OZRenderParams, __ZN15PSGradDabRenderD0Ev,
                        __ZN15PSGradDabRenderD2Ev, __ZN15PVRenderContext16OutputColorSpaceEv,
                        __ZN15PVRenderContext30WorkingColorSpaceConformIntentEv, __ZN15PVRenderContextC2EP25PVVideoCompositingContext,
                        __ZN15PVRenderManager15SetPerfLogLevelEi, __ZN15PVRenderManager16ExecuteRenderJobER5HGRefI11HGRenderJobE,
                        __ZN15PVRenderManager17GetRootSharegroupEv, __ZN15PVRenderManager17GetTextureFactoryEPK17HGGLRenderContext,
                        __ZN15PVRenderManager18SetupPoolingPolicyE5HGRefI17HGGLRenderContextE, __ZN15PVRenderManager21FlushTextureFactoriesEv,
                        __ZN15PVRenderManager22GetImageTextureFactoryEv, __ZN15PVRenderManager28GetThumbnailCPURenderContextEv,
                        __ZN15PVRenderManager8INSTANCEEv, __ZN15PVRenderManagerC2Ev,
                        __ZN15PVRenderManagerD1Ev, __ZN15TXChannelString19setAttributedStringEPK20__CFAttributedString,
                        __ZN15TXChannelStringC1EP9OZFactoryRK8PCStringj, __ZN15TXChannelStringC1ERKS_P15OZChannelFolder,
                        __ZN15TXChannelStringC2ERK8PCStringP15OZChannelFolderjj, __ZN15TXCoreTextGlyph10getTextureEP6PCRectIdERK14TXGlyphRequestRbR14PCMatrix44TmplIdEibPv,
                        __ZN15TXCoreTextGlyph12getTransformERK14TXGlyphRequest, __ZN15TXCoreTextGlyph15getAdvanceWidthERK14TXGlyphRequest,
                        __ZN15TXCoreTextGlyph19makeTextureGlyphRepERK14TXGlyphRequest, __ZN15TXCoreTextGlyph4initEj,
                        __ZN15TXCoreTextGlyph9getBitmapEP6PCRectIdERK14TXGlyphRequestbb, __ZN15TXCoreTextGlyphC1EttP6TXFont,
                        __ZN15TXCoreTextGlyphD0Ev, __ZN15TXCoreTextGlyphD2Ev,
                        __ZN15TXCrawlBehavior12didAddToNodeEP11OZSceneNode, __ZN15TXCrawlBehaviorC1ERKS_j,
                        __ZN15TXCrawlBehaviorC2ERKS_j, __ZN15TXCrawlBehaviorD1Ev,
                        __ZN15TXCrawlBehavioraSERK10OZBehavior, __ZN15TXOutlineFilter20estimateRenderMemoryERNSt3__13setI9PCHash128NS0_4lessIS2_EENS0_9allocatorIS2_EEEE,
                        __ZN15TXOutlineFilter9getHeliumER7LiAgent, __ZN15TXOutlineFilterC2E5PCPtrI12TXTextObjectERK14OZRenderParamsRb,
                        __ZN15TXTextGenerator16calcHashForStateER23PCSerializerWriteStreamRK14OZRenderParamsRNSt3__14listIP19OZObjectManipulatorNS5_9allocatorIS8_EEEE, __ZN15TXTextGenerator16prepareForRenderERK14OZRenderParams,
                        __ZN15TXTextGenerator17getOriginalBoundsEP6PCRectIdERK14OZRenderParams, __ZN15TXTextGeneratorC1EP9OZFactoryRK8PCStringj,
                        __ZN15TXTextGeneratorC2EP9OZFactoryRK8PCStringj, __ZN15TXTextGeneratorD0Ev,
                        __ZN15TXTextGeneratorD2Ev, __ZN16HDirectionalBlur4initERK9PCVector2IdE,
                        __ZN16HDirectionalBlur9GetOutputEP10HGRenderer, __ZN16HDirectionalBlurC2Ev,
                        __ZN16HDirectionalBlurD1Ev, __ZN16HGApplyNDLUTInfoC2EmmffNS_16LUTStorageFormatE,
                        __ZN16HGFxImageStorageC2EP7FxImage, __ZN16HGFxImageStorageD1Ev,
                        __ZN16HGGLBlendingInfo3GetEjb, __ZN16HGGLRendererInfo16GetIsIntelHD3000EPKS_,
                        __ZN16HGGLRendererInfo17GetGLRendererInfoEmPPS_14HGGLContextPtr, __ZN16HGGLRendererInfo17UpdateStringsInfoEv,
                        __ZN16HGGLRendererInfo20IsValidVirtualScreenEj, __ZN16HGGLRendererInfoC1E14HGGLContextPtr,
                        __ZN16HGGLRendererInfoC2E14HGGLContextPtr, __ZN16HGGLRendererInfoD0Ev,
                        __ZN16HGGLRendererInfoD2Ev, __ZN16HGGammaUnPremult10RenderTileEP6HGTile,
                        __ZN16HGGammaUnPremult12SetParameterEiffff, __ZN16HGGammaUnPremult8SetLabelEPKf,
                        __ZN16HGGammaUnPremultC1Ev, __ZN16HGGammaUnPremultD0Ev,
                        __ZN16HGGammaUnPremultD2Ev, __ZN16HGGradientLinearC1Ev,
                        __ZN16HGGradientLinearD0Ev, __ZN16HGGradientLinearD2Ev,
                        __ZN16HGGradientRadial10RenderTileEP6HGTile, __ZN16HGGradientRadial12GetParameterEiPf,
                        __ZN16HGGradientRadial4BindEP9HGHandler, __ZN16HGGradientRadial6GetROIEP10HGRendereri6HGRect,
                        __ZN16HGGradientRadialC1Ev, __ZN16HGGradientRadialD0Ev,
                        __ZN16HGGradientRadialD2Ev, __ZN16HGLightWrapBlend16SetDepthBlendingEb,
                        __ZN16HGLightWrapBlend9GetOutputEP10HGRenderer, __ZN16HGLightWrapBlendC2Ev,
                        __ZN16HGLightWrapBlendD1Ev, __ZN16HGLinearFilter2D10applyPolarE4HGOpPFffffEffS2_ffPA2_Kfj,
                        __ZN16HGLinearFilter2D3setEiifj, __ZN16HGLinearFilter2D4copyEiiiiPKfij,
                        __ZN16HGLinearFilter2D4fillEiiiifj, __ZN16HGLinearFilter2D5applyE4HGOp19__simd128_float32_tj,
                        __ZN16HGLinearFilter2D5resetEii, __ZN16HGLinearFilter2D6resizeEiiiii,
                        __ZN16HGLinearFilter2D7compactEv, __ZN16HGLinearFilter2D7setTypeE14HGFilterPresetj,
                        __ZN16HGLinearFilter2D8identityEj, __ZN16HGLinearFilter2D9correlateERKS_,
                        __ZN16HGLinearFilter2D9translateEii, __ZN16HGLinearFilter2DC1E14HGFilterPreset,
                        __ZN16HGLinearFilter2DC1ERKS_, __ZN16HGLinearFilter2DC1Eii,
                        __ZN16HGLinearFilter2DC2E14HGFilterPreset, __ZN16HGLinearFilter2DC2ERKS_,
                        __ZN16HGLinearFilter2DC2Eii, __ZN16HGLinearFilter2DD1Ev,
                        __ZN16HGLinearFilter2DaSERKS_, __ZN16HGMetalResourcesC1EPK17HGMetalDeviceInfo,
                        __ZN16HGMetalResourcesD0Ev, __ZN16HGMetalResourcesD2Ev,
                        __ZN16HGPBOReadbackJobC2E14HGGLContextPtrP12HGRenderNode, __ZN16HGPBOReadbackJobD1Ev,
                        __ZN16HGPixelBufferObj10CopyBitmapEP8HGBitmap, __ZN16HGPixelBufferObj10ReadPixelsE6HGRect8HGFormatjj,
                        __ZN16HGPixelBufferObj12CreateBitmapEv, __ZN16HGPixelBufferObj15StartCopyBitmapEP8HGBitmap,
                        __ZN16HGPixelBufferObj6ResizeE6HGRect8HGFormat, __ZN16HGPixelBufferObj9usageModeEj,
                        __ZN16HGPixelBufferObjC2E14HGGLContextPtr, __ZN16HGPixelBufferObjD1Ev,
                        __ZN16HGPrefilterUtils18GetPrefilterRadiusENS_10KernelTypeEff, __ZN16HGRenderExecUnit12StartRunLoopEv,
                        __ZN16HGRenderExecUnit16ExecuteRenderGPUEP11HGRenderJob, __ZN16HGRenderExecUnit30DecrementNumEnqueuedRenderJobsEv,
                        __ZN16HGRenderExecUnit33ExecuteCopyCPUBitmapToHGGLTextureEP12HGRenderNode, __ZN16HGRenderExecUnit5IsGPUEv,
                        __ZN16HGRenderExecUnit8GetLabelEv, __ZN16HGRenderExecUnitC1EP15HGRenderContextP13HGRenderQueuei,
                        __ZN16HGRenderExecUnitC2EP15HGRenderContextP13HGRenderQueuei, __ZN16HGRenderExecUnitD1Ev,
                        __ZN16HGSampleRectStat3addEiiii, __ZN16HGSampleRectStatC2E6HGRectS0_RK6HGNodei,
                        __ZN16HGSampleRectStatD2Ev, __ZN16HGSynchronizable4WaitEv,
                        __ZN16HGSynchronizable6NotifyEv, __ZN16HGSynchronizable9NotifyAllEv,
                        __ZN16HGSynchronizableC2Ev, __ZN16HGSynchronizableD1Ev,
                        __ZN16HGTextureManager10finishSyncEP8__GLsync, __ZN16HGTextureManager10texImage2DEjiiiiijjPKv,
                        __ZN16HGTextureManager11TextureInfoC1Ev, __ZN16HGTextureManager11TextureInfoC2Ev,
                        __ZN16HGTextureManager11TexturePool6unlockEv, __ZN16HGTextureManager11TexturePool8delUsageERKNS_12TextureEntryE,
                        __ZN16HGTextureManager11TexturePoolC2Ev, __ZN16HGTextureManager11TexturePoolD1Ev,
                        __ZN16HGTextureManager11bindTextureEjj, __ZN16HGTextureManager11deleteQueueEv,
                        __ZN16HGTextureManager11testTextureEj, __ZN16HGTextureManager12TextureEntryC1Ev,
                        __ZN16HGTextureManager12TextureEntryC2Ev, __ZN16HGTextureManager12TextureUsage3delERKNS_12TextureEntryE,
                        __ZN16HGTextureManager12TextureUsage8addUsageERKS0_, __ZN16HGTextureManager12TextureUsageC1Ev,
                        __ZN16HGTextureManager12_findTextureEPjRKNS_11TextureInfoE, __ZN16HGTextureManager12setPurgeableEjb,
                        __ZN16HGTextureManager13_dumpMaxUsageEv, __ZN16HGTextureManager13activeTextureEj,
                        __ZN16HGTextureManager13createTextureEPjj, __ZN16HGTextureManager13deleteTextureEPKjbPv,
                        __ZN16HGTextureManager13removeTextureEj, __ZN16HGTextureManager14getNumTexturesENS_15SizeRequestTypeENS_19SizeRequestLocationE,
                        __ZN16HGTextureManager14textureSize_MBEjj8HGFormat, __ZN16HGTextureManager15TexturePoolLockC2EPNS_11TexturePoolE,
                        __ZN16HGTextureManager15TexturePoolLockD2Ev, __ZN16HGTextureManager15freeTexturePoolEPv,
                        __ZN16HGTextureManager15releaseFromPoolERNSt3__116__deque_iteratorINS_12TextureEntryEPS2_RS2_PS3_lLl42EEE, __ZN16HGTextureManager16_allocateTextureEPjjjjjjj,
                        __ZN16HGTextureManager16_initTexturePoolEv, __ZN16HGTextureManager16maxTextureSizeGLE8HGFormat,
                        __ZN16HGTextureManager17_printTextureListEiPvRNS_12TextureUsageE, __ZN16HGTextureManager17adjustTextureSizeE6HGRect,
                        __ZN16HGTextureManager18_printFreeTexturesEiPvRNS_12TextureUsageE, __ZN16HGTextureManager18_printUsedTexturesEiPvRNS_12TextureUsageE,
                        __ZN16HGTextureManager18_uninitTexturePoolEv, __ZN16HGTextureManager18deleteRenderbufferEj,
                        __ZN16HGTextureManager20_printQueuedTexturesEiPvRNS_12TextureUsageE, __ZN16HGTextureManager20canAllocateTextureGLEjj8HGFormat,
                        __ZN16HGTextureManager21_uninitTexManagerListEv, __ZN16HGTextureManager21getAuxiliaryGLContextEv,
                        __ZN16HGTextureManager21maxTextureSizeHint_MBEv, __ZN16HGTextureManager22storageRecyclingPolicyENS_29TextureStorageRecyclingPolicyE,
                        __ZN16HGTextureManager23_poolPreAllocateTextureEjjjjj, __ZN16HGTextureManager23setTexturePaddingPolicyE5HGRefI22HGTexturePaddingPolicyE,
                        __ZN16HGTextureManager24_waitForOneQueuedTextureEv, __ZN16HGTextureManager24textureSizeAvailableHintEjj8HGFormat,
                        __ZN16HGTextureManager25_getFreeTotalTextureCountEPv, __ZN16HGTextureManager25_getFreeTotalTextureUsageEPv,
                        __ZN16HGTextureManager25_poolWaitForQueuedTextureEv, __ZN16HGTextureManager26PostTextureDeleteEventList4lockEv,
                        __ZN16HGTextureManager26PostTextureDeleteEventList8addEventEPv, __ZN16HGTextureManager26PostTextureDeleteEventList8popEventEv,
                        __ZN16HGTextureManager26PostTextureDeleteEventListC2Ev, __ZN16HGTextureManager26PostTextureDeleteEventListD2Ev,
                        __ZN16HGTextureManager26setMaxTextureMemShareRatioEf, __ZN16HGTextureManager27_getInUsedTotalTextureCountEv,
                        __ZN16HGTextureManager27_getInUsedTotalTextureUsageEv, __ZN16HGTextureManager27_getQueuedTotalTextureCountEv,
                        __ZN16HGTextureManager27_getQueuedTotalTextureUsageEv, __ZN16HGTextureManager4initEv,
                        __ZN16HGTextureManager8testSyncEP8__GLsync, __ZN16HGTextureManager9renderBgnEv,
                        __ZN16HGTextureManagerC1EP12HGGLRenderer, __ZN16HGTextureManagerC2EP12HGGLRenderer,
                        __ZN16HGTextureManagerD1Ev, __ZN16HGYUV420BiPlanar13HGYUV420To44412SetParameterEiffff,
                        __ZN16HGYUV420BiPlanar13HGYUV420To44425GetOutputFor444ConversionEP10HGRenderer, __ZN16HGYUV420BiPlanar13HGYUV420To444C1ENS_11SubSamplingE,
                        __ZN16HGYUV420BiPlanar13HGYUV420To444D0Ev, __ZN16HGYUV420BiPlanar13HGYUV420To444D2Ev,
                        __ZN16HGYUV420BiPlanar13HGYUV420ToRGB18GetOutputForXRsRGBEP10HGRendererP6HGNode, __ZN16HGYUV420BiPlanar13HGYUV420ToRGB25GetOutputFor444ConversionEP10HGRenderer,
                        __ZN16HGYUV420BiPlanar13HGYUV420ToRGBC1ENS_11SubSamplingE, __ZN16HGYUV420BiPlanar13HGYUV420ToRGBD0Ev,
                        __ZN16HGYUV420BiPlanar13HGYUV420ToRGBD2Ev, __ZN16HGYUV420BiPlanar17HGYUV444To420LumaC1Ev,
                        __ZN16HGYUV420BiPlanar17HGYUV444To420LumaD0Ev, __ZN16HGYUV420BiPlanar17HGYUV444To420LumaD2Ev,
                        __ZN16HGYUV420BiPlanar19HGYUV444To420ChromaC1Ev, __ZN16HGYUV420BiPlanar19HGYUV444To420ChromaD0Ev,
                        __ZN16HGYUV420BiPlanar19HGYUV444To420ChromaD2Ev, __ZN16HGrowShrinkMatteC1Ev,
                        __ZN16HGrowShrinkMatteD0Ev, __ZN16HGrowShrinkMatteD2Ev,
                        __ZN16HgcBlur_cs9s_opt10RenderTileEP6HGTile, __ZN16HgcBlur_cs9s_opt12GetParameterEiPf,
                        __ZN16HgcBlur_cs9s_opt4BindEP9HGHandler, __ZN16HgcBlur_cs9s_opt6GetDODEP10HGRendereri6HGRect,
                        __ZN16HgcBlur_cs9s_opt9GetOutputEP10HGRenderer, __ZN16HgcBlur_cs9s_optC2Ev,
                        __ZN16HgcBlur_cs9s_optD1Ev, __ZN16HgcGlowCombineFx10GetProgramEP10HGRenderer,
                        __ZN16HgcGlowCombineFx11BindTextureEP9HGHandleri, __ZN16HgcGlowCombineFx12SetParameterEiffff,
                        __ZN16HgcGlowCombineFx6GetDODEP10HGRendereri6HGRect, __ZN16HgcGlowCombineFx9GetOutputEP10HGRenderer,
                        __ZN16HgcGlowCombineFxC2Ev, __ZN16HgcGlowCombineFxD1Ev,
                        __ZN16HgcGradientBlend10GetProgramEP10HGRenderer, __ZN16HgcGradientBlend11BindTextureEP9HGHandleri,
                        __ZN16HgcGradientBlend12SetParameterEiffff, __ZN16HgcGradientBlend6GetDODEP10HGRendereri6HGRect,
                        __ZN16HgcGradientBlend9GetOutputEP10HGRenderer, __ZN16HgcGradientBlendC2Ev,
                        __ZN16HgcGradientBlendD1Ev, __ZN16HgcGradientBlur210GetProgramEP10HGRenderer,
                        __ZN16HgcGradientBlur211BindTextureEP9HGHandleri, __ZN16HgcGradientBlur212SetParameterEiffff,
                        __ZN16HgcGradientBlur26GetDODEP10HGRendereri6HGRect, __ZN16HgcGradientBlur29GetOutputEP10HGRenderer,
                        __ZN16HgcGradientBlur2C2Ev, __ZN16HgcGradientBlur2D1Ev,
                        __ZN16HgcHueSaturation10GetProgramEP10HGRenderer, __ZN16HgcHueSaturation11BindTextureEP9HGHandleri,
                        __ZN16HgcHueSaturation12SetParameterEiffff, __ZN16HgcHueSaturation6GetDODEP10HGRendereri6HGRect,
                        __ZN16HgcHueSaturation9GetOutputEP10HGRenderer, __ZN16HgcHueSaturationC2Ev,
                        __ZN16HgcHueSaturationD1Ev, __ZN16HgcTXPremulColor10GetProgramEP10HGRenderer,
                        __ZN16HgcTXPremulColor11BindTextureEP9HGHandleri, __ZN16HgcTXPremulColor12SetParameterEiffff,
                        __ZN16HgcTXPremulColor6GetDODEP10HGRendereri6HGRect, __ZN16HgcTXPremulColor9GetOutputEP10HGRenderer,
                        __ZN16HgcTXPremulColorC2Ev, __ZN16HgcTXPremulColorD1Ev,
                        __ZN16HgcUnpremultiply10GetProgramEP10HGRenderer, __ZN16HgcUnpremultiply11BindTextureEP9HGHandleri,
                        __ZN16HgcUnpremultiply12SetParameterEiffff, __ZN16HgcUnpremultiply6GetDODEP10HGRendereri6HGRect,
                        __ZN16HgcUnpremultiply9GetOutputEP10HGRenderer, __ZN16HgcUnpremultiplyC2Ev,
                        __ZN16HgcUnpremultiplyD1Ev, __ZN16LiHeDepthCompare6GetDODEP10HGRendereri6HGRect,
                        __ZN16LiHeDepthCompareC1ERK5HGRefI6HGNodeEbRK14PCMatrix44TmplIdES8_, __ZN16LiHeDepthCompareD0Ev,
                        __ZN16LiHeDepthCompareD2Ev, __ZN16LiHeLightAmbientC1ERK5HGRefI6HGNodeERK20PCWorkingColorVector,
                        __ZN16LiHeLightAmbientC2ERK5HGRefI6HGNodeERK20PCWorkingColorVector, __ZN16LiHeLightAmbientD0Ev,
                        __ZN16LiHeLightAmbientD2Ev, __ZN16LiImageAlphaFill8setColorERK20PCWorkingColorVector,
                        __ZN16LiImageAlphaFillC1Ev, __ZN16LiImageAlphaFillD0Ev,
                        __ZN16LiImageAlphaFillD2Ev, __ZN16LiImageTransform20estimateRenderMemoryERNSt3__13setI9PCHash128NS0_4lessIS2_EENS0_9allocatorIS2_EEEE,
                        __ZN16LiImageTransform9getHeliumER7LiAgent, __ZN16LiPlanarGroupSet5printEv,
                        __ZN16LiPlanarGroupSet9transformERK16LiPlaneTransform, __ZN16LiPlanarGroupSetC1Ev,
                        __ZN16LiPlanarGroupSetC2Ev, __ZN16LiPlanarGroupSetD2Ev,
                        __ZN16LiPlaneTransform7computeEv, __ZN16LiPlaneTransformC1ERKS_,
                        __ZN16LiPlaneTransformC2ERK14PCMatrix44TmplIdEb, __ZN16LiPlaneTransformC2Ev,
                        __ZN16LiPlaneTransformaSERKS_, __ZN16LiRenderInstance12collectGeodeEP7LiGeodeR14LiCollectState,
                        __ZN16LiRenderInstance13maybePrintLogEv, __ZN16LiRenderInstance15isObjectInFocusERK14PCMatrix44TmplIdE,
                        __ZN16LiRenderInstance16getRootTransformEv, __ZN16LiRenderInstance19setRenderParametersERK18LiRenderParameters,
                        __ZN16LiRenderInstance20estimateRenderMemoryERNSt3__13setI9PCHash128NS0_4lessIS2_EENS0_9allocatorIS2_EEEEP13LiSceneObject, __ZN16LiRenderInstance7collectEv,
                        __ZN16LiRenderInstance9collect3DEP13LiSceneObjectR14LiCollectState, __ZN16LiRenderInstanceC1EP10LiRendererRK13PCRenderModel,
                        __ZN16LiRenderInstanceD0Ev, __ZN16LiRenderInstanceD2Ev,
                        __ZN16LiTextureFactoryC2ERKNSt3__110shared_ptrI20LiTextureFactoryImplEE, __ZN16MyCGInstanceData17newImageWithAlphaEP7CGImage,
                        __ZN16MyCGInstanceData4openERK5PCURL, __ZN16MyCGInstanceData8hasAlphaEP7CGImage,
                        __ZN16MyCGInstanceDataC2Ev, __ZN16MyCGInstanceDataD1Ev,
                        __ZN16OZCameraBehavior10flushCacheEv, __ZN16OZCameraBehavior10willRemoveEv,
                        __ZN16OZCameraBehavior13getInputDeltaEiRK7FigTimed, __ZN16OZCameraBehavior16getFocalDistanceEP17OZChannelBehaviorP8OZCameraRK7FigTime,
                        __ZN16OZCameraBehavior21getPositionBeforeThisEP15OZTransformNodeRK7FigTime, __ZN16OZCameraBehavior22didAddSceneNodeToSceneEP7OZScene,
                        __ZN16OZCameraBehavior25getValueOfAffectedChannelERK7FigTimei, __ZN16OZCameraBehavior31addTransRotCurveNodesToChannelsEP11OZSceneNodebb,
                        __ZN16OZCameraBehavior6notifyEj, __ZN16OZCameraBehavior8parseEndER22PCSerializerReadStream,
                        __ZN16OZCameraBehaviorC1EP9OZFactoryRK8PCStringj, __ZN16OZCameraBehaviorC2EP9OZFactoryRK8PCStringj,
                        __ZN16OZCameraBehaviorD0Ev, __ZN16OZCameraBehaviorD2Ev,
                        __ZN16OZCamera_Factory9_instanceE, __ZN16OZChanFootageRef10setFootageEP9OZFootage,
                        __ZN16OZChanFootageRefC1ERK18OZChanSceneNodeRefP15OZChannelFolder, __ZN16OZChanFootageRefC1EdRK8PCStringP15OZChannelFolderjj,
                        __ZN16OZChanFootageRefC2ERK18OZChanSceneNodeRefP15OZChannelFolder, __ZN16OZChanFootageRefC2EdRK8PCStringP15OZChannelFolderjj,
                        __ZN16OZChanFootageRefD1Ev, __ZN16OZChannelDecibel18getObjCWrapperNameEv,
                        __ZN16OZChannelDecibel21_OZChannelDecibelInfoE, __ZN16OZChannelPercent21_OZChannelPercentInfoE,
                        __ZN16OZChannelPercent23_OZChannelPercent50ImplE, __ZN16OZChannelPercentC1EP9OZFactoryRK8PCStringP15OZChannelFolderjjP13OZChannelImplP13OZChannelInfo,
                        __ZN16OZChannelPercentC1ERK8PCStringP15OZChannelFolderjjP13OZChannelImplP13OZChannelInfo, __ZN16OZChannelPercentC1EdRK8PCStringP15OZChannelFolderjjP13OZChannelImplP13OZChannelInfo,
                        __ZN16OZChannelPercentC2EP9OZFactoryRK8PCStringjP13OZChannelImplP13OZChannelInfo, __ZN16OZChannelPercentC2ERKS_P15OZChannelFolder,
                        __ZN16OZChannelPercentD0Ev, __ZN16OZChannelPercentD2Ev,
                        __ZN16OZChannelScale3D25setValueOffsetByBehaviorsERK7FigTimeddd, __ZN16OZChannelScale3D8setValueERK7FigTimeddd,
                        __ZN16OZChannelScale3DC1EP9OZFactoryRK8PCStringj, __ZN16OZChannelScale3DC1ERKS_P15OZChannelFolder,
                        __ZN16OZChannelScale3DC2EP9OZFactoryRK8PCStringP15OZChannelFolderjj, __ZN16OZChannelScale3DC2ERK8PCStringP15OZChannelFolderjj,
                        __ZN16OZChannelScale3DC2EdddRK8PCStringP15OZChannelFolderjj, __ZN16OZCloneGenerator11createCloneERK8PCStringj,
                        __ZN16OZCloneGenerator12getTimeRemapEv, __ZN16OZCloneGenerator12prerollBeginERK14OZRenderParamsR14PMFrameRequestdP13FFPrerollSync,
                        __ZN16OZCloneGenerator13setSourceNodeEP11OZImageNode, __ZN16OZCloneGenerator14getRetimeFrameEv,
                        __ZN16OZCloneGenerator14getTokensImageERK14OZRenderParamsRKNSt3__16vectorINS3_4pairI7FigTimeNS4_IS6_NS3_9allocatorIS6_EEEEEENS7_ISA_EEEER14PMFrameRequest, __ZN16OZCloneGenerator14scheduleTokensERK14OZRenderParamsRKNSt3__16vectorINS3_4pairI7FigTimeNS4_IS6_NS3_9allocatorIS6_EEEEEENS7_ISA_EEEER14PMFrameRequestPNS4_IP15FFScheduleTokenNS7_ISI_EEEE,
                        __ZN16OZCloneGenerator15getLoopDurationEv, __ZN16OZCloneGenerator16getDurationCacheEv,
                        __ZN16OZCloneGenerator17getRetimeSamplingEv, __ZN16OZCloneGenerator18getNaturalDurationEv,
                        __ZN16OZCloneGenerator19hintTokensWillImageERK14OZRenderParamsRKNSt3__16vectorINS3_4pairI7FigTimeNS4_IS6_NS3_9allocatorIS6_EEEEEENS7_ISA_EEEER14PMFrameRequest, __ZN16OZCloneGenerator21getPixelAspectRatioRNEv,
                        __ZN16OZCloneGenerator21makeRenderImageSourceER14OZRenderParamsRK18OZRenderGraphStateb, __ZN16OZCloneGenerator23pruneTokensExceptAtTimeE7FigTimePKc,
                        __ZN16OZCloneGenerator25getImageBoundsWithEffectsEP6PCRectIdERK13OZRenderState, __ZN16OZCloneGenerator35doesTransformFromLocalToScreenSpaceERK14OZRenderParams,
                        __ZN16OZCloneGenerator7setNameERK8PCStringb, __ZN16OZCloneGenerator8getMasksERNSt3__14listIP11OZSceneNodeNS0_9allocatorIS3_EEEE,
                        __ZN16OZCloneGenerator9getBoundsEP6PCRectIdERK13OZRenderState, __ZN16OZCloneGeneratorC1EP9OZFactoryRK8PCStringj,
                        __ZN16OZCloneGeneratorC2EP9OZFactoryRK8PCStringj, __ZN16OZCloneGeneratorD0Ev,
                        __ZN16OZCloneGeneratorD2Ev, __ZN16OZEffect_Factory9_instanceE,
                        __ZN16OZExportSettings11writeHeaderER23PCSerializerWriteStreamb, __ZN16OZExportSettings16setRenderQualityE15OZExportQuality,
                        __ZN16OZExportSettings9writeBodyER23PCSerializerWriteStreambbb, __ZN16OZExportSettingsC1Ev,
                        __ZN16OZExportSettingsC2Ev, __ZN16OZExportSettingsD1Ev,
                        __ZN16OZExportSettingsaSERKS_, __ZN16OZFontCollection13getFontFamilyEi,
                        __ZN16OZFontCollectionC1ERK8PCStringS2_, __ZN16OZFontCollectionD0Ev,
                        __ZN16OZFontCollectionD2Ev, __ZN16OZFxProgressData10setControlEPK16OZProcessControl,
                        __ZN16OZGradientRadial6updateE7FigTime, __ZN16OZGradientRadialC1ER17OZChannelGradientiP12CGColorSpace,
                        __ZN16OZGradientRadialC2ER17OZChannelGradientiP12CGColorSpace, __ZN16OZGradientRadialD0Ev,
                        __ZN16OZGradientRadialD2Ev, __ZN16OZGradientSource9getHeliumER7LiAgent,
                        __ZN16OZGradientSourceC2Ev, __ZN16OZImageGenerator13didAddToSceneEP7OZScene,
                        __ZN16OZImageGenerator14variesOverTimeEv, __ZN16OZImageGenerator18getNaturalDurationEv,
                        __ZN16OZImageGenerator21pixelTransformSupportERK18LiRenderParametersR14OZRenderParams, __ZN16OZImageGenerator24setTimeOffsetAndDurationE7FigTimeS0_,
                        __ZN16OZImageGenerator4evalER14OZRenderParams, __ZN16OZImageGenerator9getHeliumER7LiAgentRK14OZRenderParams,
                        __ZN16OZImageGeneratorC1ERKS_j, __ZN16OZImageGeneratorC2ERKS_j,
                        __ZN16OZImageGeneratorD1Ev, __ZN16OZImageGeneratoraSERK11OZSceneNode,
                        __ZN16OZInspectorState11writeHeaderER23PCSerializerWriteStreamb, __ZN16OZInspectorState20isExpandedForChannelEP13OZChannelBase,
                        __ZN16OZInspectorState21storesStateForChannelEP13OZChannelBase, __ZN16OZInspectorState23setIsExpandedForChannelEbP13OZChannelBase,
                        __ZN16OZInspectorState8parseEndER22PCSerializerReadStream, __ZN16OZInspectorStateC1ERKS_,
                        __ZN16OZInspectorStateC2ERKS_, __ZN16OZLightingFolder39_OZLightingFolder_channelShininessIndexE,
                        __ZN16OZLightingFolder4copyERKS_RK7FigTime, __ZN16OZLightingFolder5resetEv,
                        __ZN16OZLightingFolder9writeBodyER23PCSerializerWriteStreambbb, __ZN16OZLightingFolderC1EP9OZFactoryRK8PCStringj,
                        __ZN16OZLightingFolderC1ERKS_, __ZN16OZLightingFolderC2EP9OZFactoryRK8PCStringP15OZChannelFolderjj,
                        __ZN16OZLightingFolderC2ERK8PCStringP15OZChannelFolderjj, __ZN16OZLightingFolderC2ERKS_P15OZChannelFolder,
                        __ZN16OZLightingFolderD1Ev, __ZN16OZLightingFolderaSERKS_,
                        __ZN16OZLockingElement19getLockDependenciesEP9OZLockingP15PCDirectedGraphIS1_EPNSt3__13setIS1_NS5_4lessIS1_EENS5_9allocatorIS1_EEEE, __ZN16OZLockingElementC2ERK9OZElementj,
                        __ZN16OZMoveToBehavior9solveNodeEjRK7FigTimedd, __ZN16OZMoveToBehaviorC1ERKS_j,
                        __ZN16OZMoveToBehaviorC2ERKS_j, __ZN16OZMoveToBehaviorD1Ev,
                        __ZN16OZMoveToBehavioraSERK10OZBehavior, __ZN16OZNegateBehaviorC1EP9OZFactoryRK8PCStringj,
                        __ZN16OZNegateBehaviorC2EP9OZFactoryRK8PCStringj, __ZN16OZNegateBehaviorD0Ev,
                        __ZN16OZNegateBehaviorD2Ev, __ZN16OZProcessControl17setHeliumRendererEP10HGRenderer,
                        __ZN16OZProcessControl5abortEP11PCSemaphore, __ZN16OZProcessControl7abortedEv,
                        __ZN16OZProcessControlC2Ev, __ZN16OZProcessControlD1Ev,
                        __ZN16OZRotoshapeStyle14calcStaticHashER23PCSerializerWriteStreamRNSt3__14listIP19OZObjectManipulatorNS2_9allocatorIS5_EEEE, __ZN16OZRotoshapeStyleC1EP9OZFactoryRK8PCStringj,
                        __ZN16OZRotoshapeStyleC2EP9OZFactoryRK8PCStringj, __ZN16OZSpringBehavior11accumForcesEP17OZSimulationStateP15OZTransformNode,
                        __ZN16OZSpringBehaviorC1EP9OZFactoryRK8PCStringj, __ZN16OZSpringBehaviorC2EP9OZFactoryRK8PCStringj,
                        __ZN16OZSpringBehaviorD0Ev, __ZN16OZSpringBehaviorD2Ev,
                        __ZN16OZVortexBehavior17updateHiddenFlagsEPNSt3__14listIP10OZBehaviorNS0_9allocatorIS3_EEEE, __ZN16OZVortexBehavior18accumInitialValuesEP15OZSimStateArrayiP15OZTransformNode,
                        __ZN16OZVortexBehavior18isRebuildUIChannelEP13OZChannelBase, __ZN16OZVortexBehaviorC1ERS_j,
                        __ZN16OZVortexBehaviorC2ERS_j, __ZN16OZVortexBehaviorD1Ev,
                        __ZN16OZVortexBehavioraSERK10OZBehavior, __ZN16PCFileReadStream5writeEPKvy,
                        __ZN16PCFileReadStream6setPosEy, __ZN16PCFileReadStreamC2ERK5PCURL,
                        __ZN16PCFileReadStreamD1Ev, __ZN16PCThreadSpecificI10OZDocumentE7destroyEPS0_,
                        __ZN16PCThreadSpecificI16OZFxProgressDataE7destroyEPS0_, __ZN16PCThreadSpecificI26OZFxPixelTransformsAPIDataE7destroyEPS0_,
                        __ZN16PCThreadSpecificINSt3__15stackI21OZMETimeConverterDataNS0_5dequeIS2_NS0_9allocatorIS2_EEEEEEE7destroyEPS7_, __ZN16PCXMLWriteStream10endElementEv,
                        __ZN16PCXMLWriteStream10writeArrayEPfj, __ZN16PCXMLWriteStream10writeValueERK6PCUUID,
                        __ZN16PCXMLWriteStream10writeValueERK8PCString, __ZN16PCXMLWriteStream10writeValueEf,
                        __ZN16PCXMLWriteStream10writeValueEj, __ZN16PCXMLWriteStream10writeValueEy,
                        __ZN16PCXMLWriteStream14writeAttributeEjRK6PCUUID, __ZN16PCXMLWriteStream14writeAttributeEjRK8PCString,
                        __ZN16PCXMLWriteStream14writeAttributeEjf, __ZN16PCXMLWriteStream14writeAttributeEjj,
                        __ZN16PCXMLWriteStream14writeAttributeEjy, __ZN16PCXMLWriteStream16getAttributeInfoEj,
                        __ZN16PCXMLWriteStream22writeOptionalAttributeEjRK8PCString, __ZN16PCXMLWriteStreamC1ER8PCStreamjj,
                        __ZN16PGContextDeleterclEP9PGContext, __ZN16PGTextureCubeMapD1Ev,
                        __ZN16POTPaddingPolicy10adjustRectE6HGRect, __ZN16POTPaddingPolicyC2Ev,
                        __ZN16POTPaddingPolicyD1Ev, __ZN16PSSolidDabRender11getBoundaryER7LiAgentP6PCRectIdE,
                        __ZN16PSSolidDabRender9getHeliumER7LiAgent, __ZN16PSSolidDabRenderC2ERK14OZRenderParams,
                        __ZN16PSSolidDabRenderD1Ev, __ZN16TXCollectionEnum14undoDidReplaceEv,
                        __ZN16TXCollectionEnumC1ERK8PCStringP9OZFactoryS2_P15OZChannelFolderjjP13OZChannelImplP13OZChannelInfo, __ZN16TXCollectionEnumC1ERKS_P15OZChannelFolder,
                        __ZN16TXCollectionEnumC1EjRK8PCStringS2_P9OZFactoryP15OZChannelFolderjjP13OZChannelImplP13OZChannelInfo, __ZN16TXCollectionEnumC2ERK8PCStringP9OZFactoryS2_P15OZChannelFolderjjP13OZChannelImplP13OZChannelInfo,
                        __ZN16TXCollectionEnumC2ERKS_P15OZChannelFolder, __ZN16TXCollectionEnumC2EjRK8PCStringS2_P9OZFactoryP15OZChannelFolderjjP13OZChannelImplP13OZChannelInfo,
                        __ZN16TXCollectionEnumD1Ev, __ZN16TXCrawlCurveNode14getNeededRangeEP16OZCurveNodeParam,
                        __ZN16TXCrawlCurveNode9solveNodeER16OZCurveNodeParam, __ZN16TXCrawlCurveNodeC1EP15TXCrawlBehaviorP9OZChannel,
                        __ZN16TXCrawlCurveNodeC2EP15TXCrawlBehaviorP9OZChannel, __ZN16TXCrawlCurveNodeD0Ev,
                        __ZN16TXCrawlCurveNodeD2Ev, __ZN16TXParagraphStyle11setTabToPosEjd,
                        __ZN16TXParagraphStyle12cycleTabTypeEj, __ZN16TXParagraphStyle12parseElementER22PCSerializerReadStreamR15PCStreamElement,
                        __ZN16TXParagraphStyle12setAscendersEPdj, __ZN16TXParagraphStyle13containsTabAtEd,
                        __ZN16TXParagraphStyle13getTabAtIndexEj, __ZN16TXParagraphStyle13setLineBreaksEPmj,
                        __ZN16TXParagraphStyle16calcHashForStateER23PCSerializerWriteStreamRK14OZRenderParamsRNSt3__14listIP19OZObjectManipulatorNS5_9allocatorIS8_EEEE, __ZN16TXParagraphStyle16setJustificationEi,
                        __ZN16TXParagraphStyle17setTabAtPosToTypeEd9TXTabType, __ZN16TXParagraphStyle18pushDirectionalRunE16TXDirectionalRun,
                        __ZN16TXParagraphStyle19getAlignmentChannelEv, __ZN16TXParagraphStyle21directionalRunAtIndexEj,
                        __ZN16TXParagraphStyle22shiftDirectionalRunsByEi, __ZN16TXParagraphStyle24getAscenderForCharOffsetEj,
                        __ZN16TXParagraphStyle27calcHashForStateAndSetDirtyERK14OZRenderParamsP12TXTextLayout, __ZN16TXParagraphStyle29directionalRunForCursorOffsetEdPl,
                        __ZN16TXParagraphStyle32directionalRunForCharacterOffsetEdPl, __ZN16TXParagraphStyle33_TXParagraphStyle_lineSpacingInfoE,
                        __ZN16TXParagraphStyle7getTabsEv, __ZN16TXParagraphStyle8setStartEm,
                        __ZN16TXParagraphStyle9deleteTabEj, __ZN16TXParagraphStyle9insertTabEd9TXTabType,
                        __ZN16TXParagraphStyle9setLengthEm, __ZN16TXParagraphStyleC1EP12TXTextLayout,
                        __ZN16TXParagraphStyleC2EP12TXTextLayout, __ZN16TXParagraphStyleD0Ev,
                        __ZN16TXParagraphStyleD2Ev, __ZN16TXScrollBehavior12didAddToNodeEP11OZSceneNode,
                        __ZN16TXScrollBehaviorC1ERKS_j, __ZN16TXScrollBehaviorC2ERKS_j,
                        __ZN16TXScrollBehaviorD1Ev, __ZN16TXScrollBehavioraSERK10OZBehavior,
                        __ZN16TXSelectionRangeaSERKS_, __ZN16TXSequenceParams12getSpreadEndE7FigTime,
                        __ZN16TXSequenceParams14getSpreadBeginE7FigTime, __ZN16TXSequenceParams15getSelectionEndE7FigTime,
                        __ZN16TXSequenceParams23objectLocalToGlobalTimeE7FigTime, __ZN16TXSequenceParams25selectionIndexToCharIndexEj7FigTime,
                        __ZN16TXSequenceParams6getEndE7FigTime, __ZN16TXSequenceParams7shuffleEjd,
                        __ZN16TXSequenceParams8getValueEddP9OZChanneld, __ZN16TXSequenceParamsC1EP15OZChannelFolderjP22TXTextSequenceBehavior,
                        __ZN16TXSequenceParamsC2EP15OZChannelFolderjP22TXTextSequenceBehavior, __ZN16TXSequenceParamsD1Ev,
                        __ZN16TXTypeOnBehavior10willRemoveEv, __ZN16TXTypeOnBehavior15createCurveNodeEP9OZChannel,
                        __ZN16TXTypeOnBehavior21typeOnBehaviorDidLoadEv, __ZN16TXTypeOnBehavior9getTypeOnE7FigTimed,
                        __ZN16TXTypeOnBehaviorC1ERKS_j, __ZN16TXTypeOnBehaviorC2ERKS_j,
                        __ZN16TXTypeOnBehaviorD1Ev, __ZN16TXTypeOnBehavioraSERK10OZBehavior,
                        __ZN17BumpMaterialLayer13computeNormalERK12LayerContextR17SurfaceProperties, __ZN17BumpMaterialLayer13sampleLeanMapERKN8ProShade4VarTINS0_4NodeEEERK22LiMaterialLayerUniform,
                        __ZN17BumpMaterialLayer17adjustBumpMapGainERK22LiMaterialLayerUniformRKN8ProShade4VarTINS3_4NodeEEE, __ZN17BumpMaterialLayer20sampleRegularBumpMapERK17LiLayeredMaterialRK22LiMaterialLayerUniformRK17SurfacePropertiesb,
                        __ZN17BumpMaterialLayer7Replace4evalERK12LayerContextR17SurfaceProperties, __ZN17BumpMaterialLayer9writeHashER17PCHashWriteStream,
                        __ZN17BumpMaterialLayerC2EPv, __ZN17CheckTransparencyC2ERKNSt3__113shared_futureINS0_10shared_ptrI8PCBitmapEEEE,
                        __ZN17DocTemplateParser10parseBeginER22PCSerializerReadStream, __ZN17DocTemplateParser8parseEndER22PCSerializerReadStream,
                        __ZN17DocumentAccessJob4WaitEv, __ZN17DocumentAccessJobD0Ev,
                        __ZN17DocumentAccessJobD2Ev, __ZN17FlatMaterialLayer13computeNormalERK12LayerContextR17SurfaceProperties,
                        __ZN17FlatMaterialLayer3Add4evalERK12LayerContextR17SurfaceProperties, __ZN17FlatMaterialLayer7Replace4evalERK12LayerContextR17SurfaceProperties,
                        __ZN17FlatMaterialLayer8isOpaqueERbP17LiLayeredMaterialR18LiTextureEvaluator, __ZN17FlatMaterialLayerC1EPv,
                        __ZN17HConvolvePass8Tap10RenderPageEP6HGPage, __ZN17HGApplyNDLUTEntry8CopyDataEPK16HGApplyNDLUTInfo,
                        __ZN17HGApplyNDLUTEntryC1EPN10HGLUTCache7LUTInfoEP10HGRenderer, __ZN17HGApplyNDLUTEntryD0Ev,
                        __ZN17HGApplyNDLUTEntryD2Ev, __ZN17HGDefaultPolicies22getStudioPoolingPolicyEyb,
                        __ZN17HGGLRenderContext11GetPriorityEv, __ZN17HGGLRenderContext11SetPriorityEN11HGGLContext8PriorityE,
                        __ZN17HGGLRenderContext22SetGPURendererTileSizeEm, __ZN17HGGLRenderContext23SetTexturePoolingPolicyE5HGRefI22HGTexturePoolingPolicyE,
                        __ZN17HGGLRenderContext26SetTexturePoolVRAMFractionEf, __ZN17HGGLRenderContextC1E14HGGLContextPtrj,
                        __ZN17HGGLRenderContextC1EP16HGGLRendererInfo, __ZN17HGGLRenderContextC2E14HGGLContextPtrj,
                        __ZN17HGGLRenderContextC2EP16HGGLRendererInfo, __ZN17HGGLRenderContextD1Ev,
                        __ZN17HGLUTCacheManager11getLUTCacheEPN10HGLUTCache15LUTEntryFactoryE, __ZN17HGLUTCacheManagerC1EP10HGRenderer,
                        __ZN17HGLUTCacheManagerD1Ev, __ZN17HGMetalBufferPool13releaseBufferE15HGMTLBufferType,
                        __ZN17HGMetalBufferPool9newBufferEm, __ZN17HGMetalBufferPoolC2E15HGMTLDeviceType,
                        __ZN17HGMetalBufferPoolD2Ev, __ZN17HGMetalDeviceInfo5_initEv,
                        __ZN17HGMetalDeviceInfoC2Ev, __ZN17HGMetalDeviceInfoD1Ev,
                        __ZN17HGStackStateGuardC1EP15HGExecutionUnit, __ZN17HGStackStateGuardD1Ev,
                        __ZN17HGradientColorize6GetDODEP10HGRendereri6HGRect, __ZN17HGradientColorizeC1Ev,
                        __ZN17HGradientColorizeD0Ev, __ZN17HGradientColorizeD2Ev,
                        __ZN17HSampleTiledNoise6GetDODEP10HGRendereri6HGRect, __ZN17HgcAddNoiseNormal10RenderTileEP6HGTile,
                        __ZN17HgcAddNoiseNormal12GetParameterEiPf, __ZN17HgcAddNoiseNormal4BindEP9HGHandler,
                        __ZN17HgcAddNoiseNormal6GetROIEP10HGRendereri6HGRect, __ZN17HgcAddNoiseNormalC1Ev,
                        __ZN17HgcAddNoiseNormalD0Ev, __ZN17HgcAddNoiseNormalD2Ev,
                        __ZN17HgcBlur_cs9s_rect10RenderTileEP6HGTile, __ZN17HgcBlur_cs9s_rect12GetParameterEiPf,
                        __ZN17HgcBlur_cs9s_rect4BindEP9HGHandler, __ZN17HgcBlur_cs9s_rect6GetROIEP10HGRendereri6HGRect,
                        __ZN17HgcBlur_cs9s_rectC1Ev, __ZN17HgcBlur_cs9s_rectD0Ev,
                        __ZN17HgcBlur_cs9s_rectD2Ev, __ZN17HgcBlur_g4u2_rect10RenderTileEP6HGTile,
                        __ZN17HgcBlur_g4u2_rect12GetParameterEiPf, __ZN17HgcBlur_g4u2_rect4BindEP9HGHandler,
                        __ZN17HgcBlur_g4u2_rect6GetROIEP10HGRendereri6HGRect, __ZN17HgcBlur_g4u2_rectC1Ev,
                        __ZN17HgcBlur_g4u2_rectD0Ev, __ZN17HgcBlur_g4u2_rectD2Ev,
                        __ZN17HgcChannelBalance10RenderTileEP6HGTile, __ZN17HgcChannelBalance12GetParameterEiPf,
                        __ZN17HgcChannelBalance4BindEP9HGHandler, __ZN17HgcChannelBalance6GetROIEP10HGRendereri6HGRect,
                        __ZN17HgcChannelBalanceC1Ev, __ZN17HgcChannelBalanceD0Ev,
                        __ZN17HgcChannelBalanceD2Ev, __ZN17HgcGradientLinear10RenderTileEP6HGTile,
                        __ZN17HgcGradientLinear12GetParameterEiPf, __ZN17HgcGradientLinear4BindEP9HGHandler,
                        __ZN17HgcGradientLinear6GetROIEP10HGRendereri6HGRect, __ZN17HgcGradientLinearC1Ev,
                        __ZN17HgcGradientLinearD0Ev, __ZN17HgcGradientLinearD2Ev,
                        __ZN17HgcGradientRadial10RenderTileEP6HGTile, __ZN17HgcGradientRadial12GetParameterEiPf,
                        __ZN17HgcGradientRadial4BindEP9HGHandler, __ZN17HgcGradientRadial6GetROIEP10HGRendereri6HGRect,
                        __ZN17HgcGradientRadialC1Ev, __ZN17HgcGradientRadialD0Ev,
                        __ZN17HgcGradientRadialD2Ev, __ZN17HgcShapeAlphaBias10RenderTileEP6HGTile,
                        __ZN17HgcShapeAlphaBias12GetParameterEiPf, __ZN17HgcShapeAlphaBias4BindEP9HGHandler,
                        __ZN17HgcShapeAlphaBias6GetROIEP10HGRendereri6HGRect, __ZN17HgcShapeAlphaBiasC1Ev,
                        __ZN17HgcShapeAlphaBiasD0Ev, __ZN17HgcShapeAlphaBiasD2Ev,
                        __ZN17LiDepthPeelHelper7getPeelERN8ProShade4VarTINS0_4NodeEEERNS0_9Sampler2DE, __ZN17LiHeLightInitPass6GetROIEP10HGRendereri6HGRect,
                        __ZN17LiHeLightInitPassC1Ev, __ZN17LiHeLightInitPassC2Ev,
                        __ZN17LiImageProjection20estimateRenderMemoryERNSt3__13setI9PCHash128NS0_4lessIS2_EENS0_9allocatorIS2_EEEE, __ZN17LiImageProjection8setInputEP13LiImageSource,
                        __ZN17LiImageProjectionC1EP13LiImageSource, __ZN17LiImageProjectionC2EP13LiImageSource,
                        __ZN17LiImageReflection12setBlendModeE11PCBlendMode, __ZN17LiImageReflection18setReflectionInputEP13LiImageSource,
                        __ZN17LiImageReflection9getHeliumER7LiAgent, __ZN17LiImageReflectionC2Ev,
                        __ZN17LiLayeredMaterial11clearLayersEv, __ZN17LiLayeredMaterial11insertLayerEiRK5PCPtrI15LiMaterialLayerE,
                        __ZN17LiLayeredMaterial12setMultipassEb, __ZN17LiLayeredMaterial16debugPrintLayersEv,
                        __ZN17LiLayeredMaterial17environmentMatrixE, __ZN17LiLayeredMaterial18environmentQualityE,
                        __ZN17LiLayeredMaterial19sampleEnvCubeMapLodERK17SurfacePropertiesRN8ProShade14SamplerCubeLodERKNS3_4VarTINS3_4NodeEEESA_, __ZN17LiLayeredMaterial20environmentIntensityE,
                        __ZN17LiLayeredMaterial20setSamplerPropertiesEPKN8ProShade11SamplerNodeERK5HGRefI6HGNodeERK6PCRectIdERK14PCMatrix44TmplIdE, __ZN17LiLayeredMaterial20setUseEnvironmentMapEb,
                        __ZN17LiLayeredMaterial21sampleDiffEnvGradientERK17SurfacePropertiesRKN8ProShade4VarTINS3_4NodeEEES8_, __ZN17LiLayeredMaterial21sampleSpecEnvCubeMapsERK17SurfacePropertiesRKN8ProShade4VarTINS3_4NodeEEES8_,
                        __ZN17LiLayeredMaterial21sampleSpecEnvironmentERK17SurfacePropertiesRKN8ProShade4VarTINS3_4NodeEEE, __ZN17LiLayeredMaterial21textureDiffEnvCubeMapE,
                        __ZN17LiLayeredMaterial22textureDiffEnvGradientE, __ZN17LiLayeredMaterial23colorCorrectEnvironmentERKN8ProShade4VarTINS0_4NodeEEE,
                        __ZN17LiLayeredMaterial26sampleAnisoSpecEnvironmentERK17SurfacePropertiesRKN8ProShade4VarTINS3_4NodeEEE, __ZN17LiLayeredMaterial27setUseSpecularContributionsEb,
                        __ZN17LiLayeredMaterial29textureSpecEnvCubeMapBlurHighE, __ZN17LiLayeredMaterial30textureSpecEnvGradientBlurHighE,
                        __ZN17LiLayeredMaterial7getHashEv, __ZN17LiLayeredMaterial8isOpaqueER18LiTextureEvaluator,
                        __ZN17LiLayeredMaterialC2Ev, __ZN17LiLayeredMaterialD1Ev,
                        __ZN17LiLightProperties10lightAngleEv, __ZN17LiLightProperties14getAttenuationEv,
                        __ZN17LiLightPropertiesC1ERK7LiLightR11LiLightInfoR17SurfacePropertiesb, __ZN17LiPlanarGroupHerd3addEP16LiPlanarGroupSet,
                        __ZN17LiPlanarGroupHerdD1Ev, __ZN17LiPolygonInstance12getBlendModeEv,
                        __ZN17LiPolygonInstance19addReflectionFilterEv, __ZN17LiPolygonInstance20makeReflectionFilterEv,
                        __ZN17LiPolygonInstance4cropERK7PCPlaneIdEb, __ZN17LiPolygonInstance4drawER9LiBlender,
                        __ZN17LiPolygonInstance7defocusEP14PCMatrix44TmplIdEP9LiDofInfo, __ZN17LiPolygonInstance8makeNodeERK9LiClipSet,
                        __ZN17LiPolygonInstance8setPlaneERK9PCVector4IdE, __ZN17LiPolygonInstance9getOutputEv,
                        __ZN17LiPolygonInstance9intersectEP14LiIntersectionP7LiShard, __ZN17LiPolygonInstance9makePieceEv,
                        __ZN17LiPolygonInstanceC1EP16LiRenderInstance, __ZN17LiPolygonInstanceD0Ev,
                        __ZN17LiPolygonInstanceD2Ev, __ZN17OZAlignToBehavior13getBoundsTypeEi,
                        __ZN17OZAlignToBehavior14getSourceFrameERK7FigTime, __ZN17OZAlignToBehavior15setupCurveNodesEv,
                        __ZN17OZAlignToBehavior16getLockingGroupsEv, __ZN17OZAlignToBehavior18finishInitializingEv,
                        __ZN17OZAlignToBehavior19getLockDependenciesEP9OZLockingP15PCDirectedGraphIS1_EPNSt3__13setIS1_NS5_4lessIS1_EENS5_9allocatorIS1_EEEE, __ZN17OZAlignToBehavior24setupCurveNodeForChannelER15OZChannelDoublei,
                        __ZN17OZAlignToBehavior6notifyEj, __ZN17OZAlignToBehavior9solveNodeEjRK7FigTimedd,
                        __ZN17OZAlignToBehaviorC1ERKS_j, __ZN17OZAlignToBehaviorC2ERKS_j,
                        __ZN17OZAlignToBehaviorD1Ev, __ZN17OZAlignToBehavioraSERK10OZBehavior,
                        __ZN17OZAverageBehavior9solveNodeEjR16OZCurveNodeParam, __ZN17OZAverageBehaviorC1ERKS_j,
                        __ZN17OZAverageBehaviorC2ERKS_j, __ZN17OZAverageBehaviorD1Ev,
                        __ZN17OZAverageBehavioraSERK10OZBehavior, __ZN17OZChannelBehavior10willRemoveEv,
                        __ZN17OZChannelBehavior12didAddToNodeEP11OZSceneNode, __ZN17OZChannelBehavior13clearChannelsEv,
                        __ZN17OZChannelBehavior15affectsBehaviorEP10OZBehavior, __ZN17OZChannelBehavior16reorderCurveNodeEP19OZBehaviorCurveNodePNSt3__14listIP10OZBehaviorNS2_9allocatorIS5_EEEERNS2_15__list_iteratorIS5_PvEE,
                        __ZN17OZChannelBehavior17reorderSingleChanEP9OZChannelPNSt3__14listIP10OZBehaviorNS2_9allocatorIS5_EEEERNS2_15__list_iteratorIS5_PvEE, __ZN17OZChannelBehavior18addAffectedChannelEP13OZChannelBase,
                        __ZN17OZChannelBehavior19removeNodesFromChanEP13OZChannelBase, __ZN17OZChannelBehavior22addObserverIfNecessaryEv,
                        __ZN17OZChannelBehavior22dirtyIsEvalCyclicCacheEv, __ZN17OZChannelBehavior25getChannelValueBeforeThisEP9OZChannelRK7FigTime,
                        __ZN17OZChannelBehavior26removeNodesReferencingChanEP13OZChannelBase, __ZN17OZChannelBehavior6notifyEj,
                        __ZN17OZChannelBehaviorC1EP9OZFactoryRK8PCStringj, __ZN17OZChannelBehaviorC2EP9OZFactoryRK8PCStringj,
                        __ZN17OZChannelBehaviorD0Ev, __ZN17OZChannelBehaviorD2Ev,
                        __ZN17OZChannelGradient10isModifiedEb, __ZN17OZChannelGradient11_gGammaImplE,
                        __ZN17OZChannelGradient11getGradientERK7FigTimeP12CGColorSpacePfj, __ZN17OZChannelGradient11getGradientERK7FigTimeP12CGColorSpacePtj,
                        __ZN17OZChannelGradient12parseElementER22PCSerializerReadStreamR15PCStreamElement, __ZN17OZChannelGradient15getGradientHashERK7FigTimeNS_6FormatEP12CGColorSpacej,
                        __ZN17OZChannelGradient16allowsAssignmentEPK13OZChannelBase, __ZN17OZChannelGradient18getObjCWrapperNameEv,
                        __ZN17OZChannelGradient29markFactoriesForSerializationER23PCSerializerWriteStreamb, __ZN17OZChannelGradient6assignEPK13OZChannelBase,
                        __ZN17OZChannelGradient8parseEndER22PCSerializerReadStream, __ZN17OZChannelGradient9writeBodyER23PCSerializerWriteStreambbb,
                        __ZN17OZChannelGradientC1EP9OZFactoryRK8PCStringj, __ZN17OZChannelGradientC1ERKS_P15OZChannelFolder,
                        __ZN17OZChannelGradientC2EP9OZFactoryRK8PCStringj, __ZN17OZChannelGradientC2ERKS_P15OZChannelFolder,
                        __ZN17OZChannelGradientD1Ev, __ZN17OZChannelPosition10getNormalsERK7FigTimePdS3_P14PCMatrix44TmplIdE,
                        __ZN17OZChannelPosition14_gPositionImplE, __ZN17OZChannelPosition14willBeModifiedEj,
                        __ZN17OZChannelPosition17getPositionOnPathERK7FigTimedPdS3_S3_S3_S3_P14PCMatrix44TmplIdE, __ZN17OZChannelPosition21generatePathFromShapeERK7FigTimeR14OZChannelCurveb,
                        __ZN17OZChannelPosition34getPositionReparametrizedWithRangeERK7FigTimedPdS3_S3_, __ZN17OZChannelPosition4copyEPK13OZChannelBaseb,
                        __ZN17OZChannelPosition9getLengthERK7FigTimeP14PCMatrix44TmplIdE, __ZN17OZChannelPositionC1ERK8PCStringP15OZChannelFolderjjjP13OZChannelImplP13OZChannelInfo,
                        __ZN17OZChannelPositionC1EddRK8PCStringP15OZChannelFolderjjjP13OZChannelImplP13OZChannelInfo, __ZN17OZChannelPositionC2ERK8PCStringP15OZChannelFolderjjjP13OZChannelImplP13OZChannelInfo,
                        __ZN17OZChannelPositionC2EddRK8PCStringP15OZChannelFolderjjjP13OZChannelImplP13OZChannelInfo, __ZN17OZChannelPositionD1Ev,
                        __ZN17OZChannelPositionaSERKS_, __ZN17OZChannelProgress22_OZChannelProgressImplE,
                        __ZN17OZChannelProgressC1EP9OZFactoryRK8PCStringP15OZChannelFolderjj, __ZN17OZChannelProgressC1ERK8PCStringP15OZChannelFolderjj,
                        __ZN17OZChannelProgressC1EdRK8PCStringP15OZChannelFolderjj, __ZN17OZChannelProgressC2EP9OZFactoryRK8PCStringj,
                        __ZN17OZChannelProgressC2ERKS_P15OZChannelFolder, __ZN17OZChannelTimecode18getObjCWrapperNameEv,
                        __ZN17OZChannelTimecode22_OZChannelTimecodeInfoE, __ZN17OZCompoundChannel11removeValueERK7FigTime,
                        __ZN17OZCompoundChannel13compoundResetEP9OZChannelb, __ZN17OZCompoundChannel15removeAllValuesERK7FigTime,
                        __ZN17OZCompoundChannel18getObjCWrapperNameEv, __ZN17OZCompoundChannel19numberOfKeypointsAtERK7FigTime,
                        __ZN17OZCompoundChannel21compoundAddKeypointAtEP9OZChannelRK7FigTimeb, __ZN17OZCompoundChannel24compoundDeleteKeypointAtEP9OZChannelRK7FigTimeb,
                        __ZN17OZCompoundChannel4copyEPK13OZChannelBaseb, __ZN17OZCompoundChannel8setValueEjRK7FigTime,
                        __ZN17OZCompoundChannelC1EP9OZFactoryRK8PCStringP15OZChannelFolderjjbj, __ZN17OZCompoundChannelC1ERKS_P15OZChannelFolder,
                        __ZN17OZCompoundChannelC2EP9OZFactoryRK8PCStringjj, __ZN17OZCompoundChannelD0Ev,
                        __ZN17OZCompoundChannelD2Ev, __ZN17OZCompoundChanneleqERKS_,
                        __ZN17OZFootage_Factory9_instanceE, __ZN17OZFramingBehavior13cacheVelocityERK7FigTimeRK9PCVector3IdE,
                        __ZN17OZFramingBehavior14velocityCachedERK7FigTimeR9PCVector3IdE, __ZN17OZFramingBehavior18getTargetTransformEP14PCMatrix44TmplIdERK13OZRenderState,
                        __ZN17OZFramingBehavior20performDragOperationEP13OZFactoryBaseP13OZChannelBasejjjjRK7FigTime, __ZN17OZFramingBehavior22calculateFramingOffsetEv,
                        __ZN17OZFramingBehavior6notifyEj, __ZN17OZFramingBehaviorC1EP9OZFactoryRK8PCStringj,
                        __ZN17OZFramingBehaviorC2EP9OZFactoryRK8PCStringj, __ZN17OZFramingBehaviorD0Ev,
                        __ZN17OZFramingBehaviorD2Ev, __ZN17OZGenericBehavior10addChannelEP13OZChannelBase,
                        __ZN17OZGenericBehavior10willRemoveEv, __ZN17OZGenericBehavior12didAddToNodeEP11OZSceneNode,
                        __ZN17OZGenericBehavior13removeChannelEP13OZChannelBase, __ZN17OZGenericBehavior15affectsBehaviorEP10OZBehavior,
                        __ZN17OZGenericBehavior16willDeleteObjectEP19OZObjectManipulator, __ZN17OZGenericBehavior17willDeleteChannelEP13OZChannelBase,
                        __ZN17OZGenericBehavior18updateReferenceIDsEPNSt3__13mapIjjNS0_4lessIjEENS0_9allocatorINS0_4pairIKjjEEEEEE, __ZN17OZGenericBehavior21areChannelsCompatibleEP13OZChannelBaseS1_,
                        __ZN17OZGenericBehavior22genericBehaviorDidLoadEb, __ZN17OZGenericBehavior29markFactoriesForSerializationER23PCSerializerWriteStreamb,
                        __ZN17OZGenericBehavior9writeBodyER23PCSerializerWriteStreambbb, __ZN17OZGenericBehaviorC1ERKS_j,
                        __ZN17OZGenericBehaviorC2ERKS_j, __ZN17OZGenericBehaviorD1Ev,
                        __ZN17OZGenericBehavioraSERK10OZBehavior, __ZN17OZGravityBehaviorC1EP9OZFactoryRK8PCStringj,
                        __ZN17OZGravityBehaviorC2EP9OZFactoryRK8PCStringj, __ZN17OZGravityBehaviorD0Ev,
                        __ZN17OZGravityBehaviorD2Ev, __ZN17OZImageMaskRender11calcStretchER7LiAgent,
                        __ZN17OZImageMaskRender12getClampNodeER7LiAgent, __ZN17OZImageMaskRender19getStencilClampNodeER7LiAgent,
                        __ZN17OZImageMaskRender9getHeliumER7LiAgent, __ZN17OZImageMaskRenderC2EP11OZImageNodeRK14OZRenderParamsN13LiImageSource10ImageSpaceE,
                        __ZN17OZImageNodeRender13filteredEdgesEv, __ZN17OZImageNodeRender21pixelTransformSupportERK18LiRenderParameters,
                        __ZN17OZImageNodeRender9getHeliumER7LiAgent, __ZN17OZImageNodeRenderC1Ev,
                        __ZN17OZImageNodeRenderC2Ev, __ZN17OZLayeredMaterial10parseBeginER22PCSerializerReadStream,
                        __ZN17OZLayeredMaterial11deleteLayerEj, __ZN17OZLayeredMaterial12copyMaterialEP14OZMaterialBase,
                        __ZN17OZLayeredMaterial12parseElementER22PCSerializerReadStreamR15PCStreamElement, __ZN17OZLayeredMaterial14makeLiMaterialERK14OZRenderParamsRK18OZRenderGraphStateRK26OZMaterialConstructionInfoR20OZMaterialStatistics,
                        __ZN17OZLayeredMaterial16calcHashForStateER23PCSerializerWriteStreamRK14OZRenderParamsRNSt3__14listIP19OZObjectManipulatorNS5_9allocatorIS8_EEEE, __ZN17OZLayeredMaterial18getImageNodeIDListERNSt3__14listIjNS0_9allocatorIjEEEE,
                        __ZN17OZLayeredMaterial20getTextureTokensLockEv, __ZN17OZLayeredMaterial20performDragOperationEP13OZFactoryBaseP13OZChannelBasejjjjRK7FigTime,
                        __ZN17OZLayeredMaterial21setPresetFromMaterialEP14OZMaterialBase, __ZN17OZLayeredMaterial22getSourceOperationMaskEP13OZChannelBaseb,
                        __ZN17OZLayeredMaterial26getImageAndFillChannelListERNSt3__14listI19OZFillSelectionPairNS0_9allocatorIS2_EEEE, __ZN17OZLayeredMaterial28updateGlobalPlacementUIStateEv,
                        __ZN17OZLayeredMaterial29doAnyLayersUseSharedTransformEv, __ZN17OZLayeredMaterial31fixupImageChannelsOffsetChannelEv,
                        __ZN17OZLayeredMaterial35getSequenceChannelsForMaterialLayerEP19OZMaterialLayerBase, __ZN17OZLayeredMaterial4initEv,
                        __ZN17OZLayeredMaterial8parseEndER22PCSerializerReadStream, __ZN17OZLayeredMaterial9pushLayerEP15OZChannelFolder,
                        __ZN17OZLayeredMaterialC1EP9OZFactoryRK8PCStringj, __ZN17OZLayeredMaterialC2EP9OZFactoryRK8PCStringj,
                        __ZN17OZLayeredMaterialD0Ev, __ZN17OZLayeredMaterialD2Ev,
                        __ZN17OZObjectSimulator10cacheStateEP17OZSimulationStateRK7FigTimeb, __ZN17OZObjectSimulator10eulerSolveEP17OZSimulationStateS1_RK7FigTimed,
                        __ZN17OZObjectSimulator10printCacheEv, __ZN17OZObjectSimulator12getBehaviorsERNSt3__14listIP20OZSimulationBehaviorNS0_9allocatorIS3_EEEEbb,
                        __ZN17OZObjectSimulator13midPointSolveEP17OZSimulationStateS1_RK7FigTimed, __ZN17OZObjectSimulator14OZSimAccumNodeC1ERKS0_,
                        __ZN17OZObjectSimulator14OZSimAccumNodeC2ERKS0_, __ZN17OZObjectSimulator14getCachedStateERK7FigTimeS2_P17OZSimulationStateb,
                        __ZN17OZObjectSimulator15getAllBehaviorsERNSt3__14listIP20OZSimulationBehaviorNS0_9allocatorIS3_EEEE, __ZN17OZObjectSimulator15getStateElementERK7FigTimej,
                        __ZN17OZObjectSimulator16handleCollisionsEP17OZSimulationStateS1_bPb, __ZN17OZObjectSimulator18accumInitialValuesEP17OZSimulationState,
                        __ZN17OZObjectSimulator18anythingToSimulateEj, __ZN17OZObjectSimulator18getInitialPositionEP17OZSimulationState,
                        __ZN17OZObjectSimulator18updateBehaviorListEv, __ZN17OZObjectSimulator19willRemoveFromSceneEP7OZScene,
                        __ZN17OZObjectSimulator21getCollisionBehaviorsERNSt3__14listIP20OZSimulationBehaviorNS0_9allocatorIS3_EEEE, __ZN17OZObjectSimulator22doesDependOnSceneNodesERNSt3__13setIjNS0_4lessIjEENS0_9allocatorIjEEEE,
                        __ZN17OZObjectSimulator23shouldAccumInitialValueEP20OZSimulationBehaviorbbRK7FigTime, __ZN17OZObjectSimulator5solveEP17OZSimulationStateS1_RK7FigTimed,
                        __ZN17OZObjectSimulator7didBakeEv, __ZN17OZObjectSimulator8willBakeEv,
                        __ZN17OZObjectSimulatorC2EP15OZTransformNode, __ZN17OZObjectSimulatorD1Ev,
                        __ZN17OZPointAtBehavior10flushCacheEv, __ZN17OZPointAtBehavior9solveNodeEjRK7FigTimedd,
                        __ZN17OZPointAtBehaviorC1ERKS_j, __ZN17OZPointAtBehaviorC2ERKS_j,
                        __ZN17OZPointAtBehaviorD1Ev, __ZN17OZPointAtBehavioraSERK10OZBehavior,
                        __ZN17OZPublishSettings10addChannelEPK13OZChannelBasebS2_, __ZN17OZPublishSettings11writeHeaderER23PCSerializerWriteStreamb,
                        __ZN17OZPublishSettings13addChannelRecEPK13OZChannelBaseS2_, __ZN17OZPublishSettings13removeChannelEPK13OZChannelBaseb,
                        __ZN17OZPublishSettings16getTargetChannelERK8PCString, __ZN17OZPublishSettings17PublishingResetCBEP13OZChannelBasePv,
                        __ZN17OZPublishSettings17hasAnimatedValuesEv, __ZN17OZPublishSettings20findChannelWithValueEP15OZChannelFolderj,
                        __ZN17OZPublishSettings22cleanUpMissingChannelsEv, __ZN17OZPublishSettings22publishFlaggedChansRecEP15OZChannelFolder,
                        __ZN17OZPublishSettings23TreatTargetFolderAsUnitEPK15OZChannelFolder, __ZN17OZPublishSettings23primaryAnimationChannelEv,
                        __ZN17OZPublishSettings24getTargetChannelForProxyEP9OZChannel, __ZN17OZPublishSettings26PublishingSceneRootResetCBEP13OZChannelBasePv,
                        __ZN17OZPublishSettings27publishBuildOptionsIfNeededEv, __ZN17OZPublishSettings29markFactoriesForSerializationER23PCSerializerWriteStreamb,
                        __ZN17OZPublishSettings32didFinishLoadingIntoMotionEffectEv, __ZN17OZPublishSettings8clearAllEv,
                        __ZN17OZPublishSettings9writeBodyER23PCSerializerWriteStreambbb, __ZN17OZPublishSettingsC1ERKS_,
                        __ZN17OZPublishSettingsC2EP7OZScene, __ZN17OZPublishSettingsC2ERKS_P7OZScene,
                        __ZN17OZPublishSettingsD1Ev, __ZN17OZPublishSettingsaSERKS_,
                        __ZN17OZRepelorBehaviorC1ERS_j, __ZN17OZRepelorBehaviorC2ERS_j,
                        __ZN17OZRepelorBehaviorD1Ev, __ZN17OZRepelorBehavioraSERK10OZBehavior,
                        __ZN17OZReverseBehavior9solveNodeEjRK7FigTimedd, __ZN17OZReverseBehaviorC1ERKS_j,
                        __ZN17OZReverseBehaviorC2ERKS_j, __ZN17OZReverseBehaviorD1Ev,
                        __ZN17OZReverseBehavioraSERK10OZBehavior, __ZN17OZRotoshapeRender20estimateRenderMemoryERNSt3__13setI9PCHash128NS0_4lessIS2_EENS0_9allocatorIS2_EEEE,
                        __ZN17OZRotoshapeRender9getHeliumER7LiAgent, __ZN17OZRotoshapeRenderC2EP11OZRotoshapeRK14OZRenderParams,
                        __ZN17OZSimStateElement8stepFromEPS_dd14PCMatrix33TmplIdE, __ZN17OZSimStateElementC1Ev,
                        __ZN17OZSimStateElementC2Ev, __ZN17OZSimStateElementD2Ev,
                        __ZN17OZSimulationState14GetCommonGroupEP15OZTransformNodeS1_, __ZN17OZSimulationState15getNodePositionERK7FigTimeP15OZTransformNodeS4_P9PCVector3IdE,
                        __ZN17OZSimulationState21getTransformedCornersEP9OZElementP9PCVector3IdES4_S4_S4_, __ZN17OZSimulationState8stepFromEPS_S0_RK7FigTimed,
                        __ZN17OZSystemSimulator10flushCacheEbb, __ZN17OZSystemSimulator13didAddToSceneEP7OZScene,
                        __ZN17OZSystemSimulator14calcStaticHashER23PCSerializerWriteStreamRNSt3__14listIP19OZObjectManipulatorNS2_9allocatorIS5_EEEEP11OZSceneNode, __ZN17OZSystemSimulator14getDerivativesEP15OZSimStateArray,
                        __ZN17OZSystemSimulator16calcHashForStateER23PCSerializerWriteStreamRK14OZRenderParamsRNSt3__14listIP19OZObjectManipulatorNS5_9allocatorIS8_EEEEP11OZSceneNode, __ZN17OZSystemSimulator17updateLocalCoordsEP15OZSimStateArray,
                        __ZN17OZSystemSimulator19willRemoveFromSceneEP7OZScene, __ZN17OZSystemSimulator6notifyEj,
                        __ZN17OZSystemSimulatorC1EP17OZSimulatedSystem, __ZN17OZSystemSimulatorD0Ev,
                        __ZN17OZSystemSimulatorD2Ev, __ZN17OZWriggleBehavior12parseElementER22PCSerializerReadStreamR15PCStreamElement,
                        __ZN17OZWriggleBehavior16canAffectObjectsEv, __ZN17OZWriggleBehavior17didSetChannelInfoEPK13OZChannelInfoP9OZChannel,
                        __ZN17OZWriggleBehavior18isRebuildUIChannelEP13OZChannelBase, __ZN17OZWriggleBehavior5dirtyEv,
                        __ZN17OZWriggleBehavior9solveNodeEjRK7FigTimedd, __ZN17OZWriggleBehaviorC1ERKS_j,
                        __ZN17OZWriggleBehaviorC2ERKS_j, __ZN17OZWriggleBehaviorD1Ev,
                        __ZN17OZWriggleBehavioraSERK10OZBehavior, __ZN17OZWriteOnBehavior11getPositionERK7FigTimeS2_,
                        __ZN17OZWriteOnBehavior15createCurveNodeEP9OZChannel, __ZN17OZWriteOnBehavior18isRebuildUIChannelEP13OZChannelBase,
                        __ZN17OZWriteOnBehavior22getCurveNodeForChannelEP9OZChannel, __ZN17OZWriteOnBehavior7didBakeEv,
                        __ZN17OZWriteOnBehavior8willBakeER11PCTimeRange, __ZN17OZWriteOnBehavior9solveNodeEP13OZChannelBaseRK7FigTimedd,
                        __ZN17OZWriteOnBehaviorC1ERKS_j, __ZN17OZWriteOnBehaviorC2ERKS_j,
                        __ZN17OZWriteOnBehaviorD1Ev, __ZN17OZWriteOnBehavioraSERK10OZBehavior,
                        __ZN17PAEKeyerDrawAlpha23renderPieEdgeSegment_GLERKNSt3__16vectorI5Vec2fNS0_9allocatorIS2_EEEES7_RKS2_5HGRefI8HGGLNodeE, __ZN17PAEKeyerDrawAlpha28renderPieEdgeSegment_TolQuadERK5Vec2fS2_S2_S2_S2_S2_S2_S2_ffRK5OMPieS5_i5HGRefI8HGGLNodeE,
                        __ZN17PAEKeyerDrawAlpha32renderPieEdgeSegment_TolSoftQuadERK5Vec2fS2_S2_S2_S2_S2_S2_S2_S2_ffRK5OMPieS5_i5HGRefI8HGGLNodeE, __ZN17PCAutoreleasePoolC1Ev,
                        __ZN17PCAutoreleasePoolD1Ev, __ZN17PCColorSpaceCache10genericRGBEv,
                        __ZN17PCColorSpaceCache11cgDeviceRGBEv, __ZN17PCColorSpaceCache11rec709GammaEv,
                        __ZN17PCColorSpaceCache12cgLinearGrayEv, __ZN17PCColorSpaceCache13cgGamma22GrayEv,
                        __ZN17PCColorSpaceCache14cgDefaultSpaceEv, __ZN17PCColorSpaceCache17getColorSpaceByIDENS_2IDE,
                        __ZN17PCColorSpaceCache18identifyColorSpaceEP12CGColorSpace, __ZN17PCColorSpaceCache19getCGColorSpaceByIDENS_2IDE,
                        __ZN17PCColorSpaceCache6cgsRGBEv, __ZN17PCColorSpaceCache8cgLinearEv,
                        __ZN17PCFileWriteStream4readEPvy, __ZN17PCFileWriteStream6getPosEv,
                        __ZN17PCFileWriteStreamC1ERK5PCURL, __ZN17PCFileWriteStreamD0Ev,
                        __ZN17PCFileWriteStreamD2Ev, __ZN17PCHashWriteStream10writeArrayEPdj,
                        __ZN17PCHashWriteStream10writeArrayEPjj, __ZN17PCHashWriteStream10writeValueEPKv,
                        __ZN17PCHashWriteStream10writeValueERK7FigTime, __ZN17PCHashWriteStream10writeValueERK9PCHash128,
                        __ZN17PCHashWriteStream10writeValueEb, __ZN17PCHashWriteStream10writeValueEd,
                        __ZN17PCHashWriteStream10writeValueEh, __ZN17PCHashWriteStream10writeValueEj,
                        __ZN17PCHashWriteStream10writeValueEt, __ZN17PCHashWriteStream10writeValueEy,
                        __ZN17PCHashWriteStream14writeAttributeEjRK6PCUUID, __ZN17PCHashWriteStream14writeAttributeEjRK8PCString,
                        __ZN17PCHashWriteStream14writeAttributeEjf, __ZN17PCHashWriteStream14writeAttributeEjj,
                        __ZN17PCHashWriteStream14writeAttributeEjy, __ZN17PCHashWriteStream16getAttributeInfoEj,
                        __ZN17PCHashWriteStream22writeOptionalAttributeEjRK8PCString, __ZN17PCHashWriteStream5printEv,
                        __ZN17PCHashWriteStream7getHashEv, __ZN17PCHashWriteStream9_printMD5E,
                        __ZN17PCHashWriteStreamC1Ev, __ZN17PCHashWriteStreamD0Ev,
                        __ZN17PCHashWriteStreamD2Ev, __ZN17PCImageAttributesC1Ev,
                        __ZN17PCImageAttributesC2Ev, __ZN17PCSingletonObjectI7PCMutexN13PCConsoleLock12SingletonTagELi1000000000EE5_deadE,
                        __ZN17PMPluginInterfaceC1Ev, __ZN17PSEmitter_Factory9_instanceE,
                        __ZN17PSPenTiltBehavior12getTiltPolarEd, __ZN17PSPenTiltBehavior15getAbsoluteTiltEd,
                        __ZN17PSPenTiltBehavior16setIsInteractiveEb, __ZN17PSPenTiltBehavior18isRebuildUIChannelEP13OZChannelBase,
                        __ZN17PSPenTiltBehaviorC1ERKS_j, __ZN17PSPenTiltBehaviorC2ERKS_j,
                        __ZN17PSPenTiltBehaviorD1Ev, __ZN17PSReplicatorPType13getReplicatorEv,
                        __ZN17PSReplicatorPType14createParticleEjRK7FigTime, __ZN17PSReplicatorPType15simFlushedCacheEP17OZSystemSimulator,
                        __ZN17PSReplicatorPType16simGetFirstFrameERK7FigTime, __ZN17PSReplicatorPType21createReplicatorPTypeERK8PCStringj,
                        __ZN17PSReplicatorPType22simShouldStepFromCacheEv, __ZN17PSReplicatorPType24updateGradientStringNameEb,
                        __ZN17PSReplicatorPTypeC1EP9OZFactoryRK8PCStringj, __ZN17PSReplicatorPTypeC2EP9OZFactoryRK8PCStringj,
                        __ZN17PSReplicatorPTypeD0Ev, __ZN17PSReplicatorPTypeD2Ev,
                        __ZN17PSSequencedValuesC1Ev, __ZN17RenderbufferCache18createRenderbufferEjjjj,
                        __ZN17RenderbufferCache20_releaseRenderbufferEj, __ZN17RenderbufferCache8_cleanupEv,
                        __ZN17RenderbufferCacheC2Ev, __ZN17RenderbufferCacheD2Ev,
                        __ZN17SimpleTextureImpl5startEv, __ZN17SimpleTextureImplC2ERK5PCURLN13PCPixelFormat12ChannelOrderEP12CGColorSpace,
                        __ZN17SimpleTextureImplD1Ev, __ZN17TXFadeOnCurveNode14getNeededRangeEP16OZCurveNodeParam,
                        __ZN17TXFadeOnCurveNode9solveNodeER16OZCurveNodeParam, __ZN17TXFadeOnCurveNodeC1EP16TXTypeOnBehaviorP9OZChannel,
                        __ZN17TXFadeOnCurveNodeC2EP16TXTypeOnBehaviorP9OZChannel, __ZN17TXFadeOnCurveNodeD0Ev,
                        __ZN17TXFadeOnCurveNodeD2Ev, __ZN17TXNumberGenerator12parseElementER22PCSerializerReadStreamR15PCStreamElement,
                        __ZN17TXNumberGenerator14generateStringER8PCStringRK14OZRenderParams, __ZN17TXNumberGenerator19getPreviewSceneNodeEv,
                        __ZN17TXNumberGenerator9writeBodyER23PCSerializerWriteStreambbb, __ZN17TXNumberGeneratorC1ERKS_j,
                        __ZN17TXNumberGeneratorC2ERKS_j, __ZN17TXNumberGeneratorD1Ev,
                        __ZN17TXNumberGeneratoraSERK11OZSceneNode, __ZN17TXScrollCurveNode9cloneNodeEv,
                        __ZN17TXScrollCurveNode9solveNodeERK7FigTimedd, __ZN17TXScrollCurveNodeC1ERKS_,
                        __ZN17TXScrollCurveNodeC2ERKS_, __ZN17TXScrollCurveNodeD1Ev,
                        __ZN17TXTypeOnCurveNode14getNeededRangeEP16OZCurveNodeParam, __ZN17TXTypeOnCurveNode9solveNodeER16OZCurveNodeParam,
                        __ZN17TXTypeOnCurveNodeC1EP16TXTypeOnBehaviorP9OZChannel, __ZN17TXTypeOnCurveNodeC2EP16TXTypeOnBehaviorP9OZChannel,
                        __ZN17TXTypeOnCurveNodeD0Ev, __ZN17TXTypeOnCurveNodeD2Ev,
                        __ZN17__HGStats_private10StatsTimer11getProfilerEv, __ZN17__HGStats_private10StatsTimer7destroyEv,
                        __ZN17__HGStats_private10StatsTimerC1Ev, __ZN17__HGStats_private10StatsTimerD0Ev,
                        __ZN17__HGStats_private10StatsTimerD2Ev, __ZN17__HGStats_private12StatsProfileC2Ev,
                        __ZN17__HGStats_private12StatsProfileD1Ev, __ZN17__HGStats_private12StatsProfilepLERKNS_5StatsE,
                        __ZN17__HGStats_private13NodeKeyMergerI6HGNodeS1_EclEPS1_, __ZN17__HGStats_private15NodePixelsStatsC1Em,
                        __ZN17__HGStats_private15NodePixelsStatsC2Em, __ZN17__HGStats_private15NodePixelsStatspLERKS0_,
                        __ZN17__HGStats_private5probeI6HGNodeEEvPT_RNS_12StatsProfileERNS_15NodePixelsStatsEd, __ZN17__HGStats_private5probeIKSt9type_infoEEvPT_RNS_12StatsProfileERNS_15NodePixelsStatsEd,
                        __ZN17__HGStats_private7opNamesE, __ZN17__HGStats_private8RoiStatsC1Ev,
                        __ZN17__HGStats_private8RoiStatsC2Ev, __ZN17__HGStats_privatelsERNSt3__113basic_ostreamIcNS0_11char_traitsIcEEEENS_11RoiStatsOut10_out_ratioE,
                        __ZN17__HGStats_privatelsERNSt3__113basic_ostreamIcNS0_11char_traitsIcEEEENS_11RoiStatsOut14_out_in_pixelsE, __ZN17__HGStats_privatelsERNSt3__113basic_ostreamIcNS0_11char_traitsIcEEEENS_7NodeOutI6HGNodeE10_out_labelE,
                        __ZN17__HGStats_privatelsERNSt3__113basic_ostreamIcNS0_11char_traitsIcEEEENS_7NodeOutIK6HGNodeE10_out_labelE, __ZN17__HGStats_privatelsERNSt3__113basic_ostreamIcNS0_11char_traitsIcEEEENS_7NodeOutIKSt9type_infoE10_out_labelE,
                        __ZN17__HGStats_privatelsERNSt3__113basic_ostreamIcNS0_11char_traitsIcEEEENS_7NodeOutISt9type_infoE10_out_labelE, __ZN17__HGStats_privatelsERNSt3__113basic_ostreamIcNS0_11char_traitsIcEEEENS_8StatsOut10_out_bytesE,
                        __ZN17__HGStats_privatelsERNSt3__113basic_ostreamIcNS0_11char_traitsIcEEEENS_8StatsOut11_out_pixelsE, __ZN17__HGStats_privatelsERNSt3__113basic_ostreamIcNS0_11char_traitsIcEEEENS_8StatsOut14_out_timeshareE,
                        __ZN17__HGStats_privatelsERNSt3__113basic_ostreamIcNS0_11char_traitsIcEEEENS_8StatsOut18_out_all_timeshareE, __ZN17__HGStats_privatelsERNSt3__113basic_ostreamIcNS0_11char_traitsIcEEEENS_8StatsOut8_out_allE,
                        __ZN18DepthBufferManager11enableDepthEbbjb, __ZN18DepthBufferManager12disableDepthEv,
                        __ZN18DepthBufferManager14hasDepthBufferEv, __ZN18DepthBufferManager4initEP10HGRenderer,
                        __ZN18DepthBufferManager6uninitEv, __ZN18DepthBufferManagerD0Ev,
                        __ZN18DepthBufferManagerD2Ev, __ZN18DepthFilterProgramC2Ev,
                        __ZN18HContrastBezierRGB6GetROIEP10HGRendereri6HGRect, __ZN18HGAnisotropicXForm10RenderTileEP6HGTile,
                        __ZN18HGAnisotropicXForm12GetTransformEv, __ZN18HGAnisotropicXForm12SetParameterEiffff,
                        __ZN18HGAnisotropicXForm4BindEP9HGHandler, __ZN18HGAnisotropicXForm6GetDODEP10HGRendereri6HGRect,
                        __ZN18HGAnisotropicXForm8SetInputEiP6HGNode, __ZN18HGAnisotropicXFormC1EP8HGMipmap,
                        __ZN18HGAnisotropicXFormC2EP8HGMipmap, __ZN18HGAnisotropicXFormD0Ev,
                        __ZN18HGAnisotropicXFormD2Ev, __ZN18HGMetalShadersPairC2Ev,
                        __ZN18HGMetalShadersPairD2Ev, __ZN18HGMetalTexturePool10newTextureEmmm,
                        __ZN18HGMetalTexturePool5cleanEv, __ZN18HGMetalTexturePoolC2E15HGMTLDeviceType,
                        __ZN18HGMetalTexturePoolD2Ev, __ZN18HgcColorGamma_bias10RenderTileEP6HGTile,
                        __ZN18HgcColorGamma_bias12GetParameterEiPf, __ZN18HgcColorGamma_bias4BindEP9HGHandler,
                        __ZN18HgcColorGamma_bias6GetROIEP10HGRendereri6HGRect, __ZN18HgcColorGamma_biasC1Ev,
                        __ZN18HgcColorGamma_biasD0Ev, __ZN18HgcColorGamma_biasD2Ev,
                        __ZN18HgcCropShaderBlend11BindTextureEP9HGHandleri, __ZN18HgcCropShaderBlend12SetParameterEiffff,
                        __ZN18HgcCropShaderBlend6GetDODEP10HGRendereri6HGRect, __ZN18HgcCropShaderBlend9GetOutputEP10HGRenderer,
                        __ZN18HgcCropShaderBlendC2Ev, __ZN18HgcCropShaderBlendD1Ev,
                        __ZN18HgcMaskCompReplace10GetProgramEP10HGRenderer, __ZN18HgcMaskCompReplace11BindTextureEP9HGHandleri,
                        __ZN18HgcMaskCompReplace12SetParameterEiffff, __ZN18HgcMaskCompReplace6GetDODEP10HGRendereri6HGRect,
                        __ZN18HgcMaskCompReplace9GetOutputEP10HGRenderer, __ZN18HgcMaskCompReplaceC2Ev,
                        __ZN18HgcMaskCompReplaceD1Ev, __ZN18HgcPMStripOddField10GetProgramEP10HGRenderer,
                        __ZN18HgcPMStripOddField11BindTextureEP9HGHandleri, __ZN18HgcPMStripOddField12SetParameterEiffff,
                        __ZN18HgcPMStripOddField6GetDODEP10HGRendereri6HGRect, __ZN18HgcPMStripOddField9GetOutputEP10HGRenderer,
                        __ZN18HgcPMStripOddFieldC2Ev, __ZN18HgcPMStripOddFieldD1Ev,
                        __ZN18HgcRetimeAddBlend210GetProgramEP10HGRenderer, __ZN18HgcRetimeAddBlend211BindTextureEP9HGHandleri,
                        __ZN18HgcRetimeAddBlend212SetParameterEiffff, __ZN18HgcRetimeAddBlend26GetDODEP10HGRendereri6HGRect,
                        __ZN18HgcRetimeAddBlend29GetOutputEP10HGRenderer, __ZN18HgcRetimeAddBlend2C2Ev,
                        __ZN18HgcRetimeAddBlend2D1Ev, __ZN18HgcShrinkGrowMatte10GetProgramEP10HGRenderer,
                        __ZN18HgcShrinkGrowMatte11BindTextureEP9HGHandleri, __ZN18HgcShrinkGrowMatte12SetParameterEiffff,
                        __ZN18HgcShrinkGrowMatte6GetDODEP10HGRendereri6HGRect, __ZN18HgcShrinkGrowMatte9GetOutputEP10HGRenderer,
                        __ZN18HgcShrinkGrowMatteC2Ev, __ZN18HgcShrinkGrowMatteD1Ev,
                        __ZN18HgcToneParamCurve110GetProgramEP10HGRenderer, __ZN18HgcToneParamCurve111BindTextureEP9HGHandleri,
                        __ZN18HgcToneParamCurve112SetParameterEiffff, __ZN18HgcToneParamCurve16GetDODEP10HGRendereri6HGRect,
                        __ZN18HgcToneParamCurve19GetOutputEP10HGRenderer, __ZN18HgcToneParamCurve1C2Ev,
                        __ZN18HgcToneParamCurve1D1Ev, __ZN18HgcToneParamCurve210GetProgramEP10HGRenderer,
                        __ZN18HgcToneParamCurve211BindTextureEP9HGHandleri, __ZN18HgcToneParamCurve212SetParameterEiffff,
                        __ZN18HgcToneParamCurve26GetDODEP10HGRendereri6HGRect, __ZN18HgcToneParamCurve29GetOutputEP10HGRenderer,
                        __ZN18HgcToneParamCurve2C2Ev, __ZN18HgcToneParamCurve2D1Ev,
                        __ZN18HgcToneParamCurve310GetProgramEP10HGRenderer, __ZN18HgcToneParamCurve311BindTextureEP9HGHandleri,
                        __ZN18HgcToneParamCurve312SetParameterEiffff, __ZN18HgcToneParamCurve36GetDODEP10HGRendereri6HGRect,
                        __ZN18HgcToneParamCurve39GetOutputEP10HGRenderer, __ZN18HgcToneParamCurve3C2Ev,
                        __ZN18HgcToneParamCurve3D1Ev, __ZN18HgcToneParamCurve410GetProgramEP10HGRenderer,
                        __ZN18HgcToneParamCurve411BindTextureEP9HGHandleri, __ZN18HgcToneParamCurve412SetParameterEiffff,
                        __ZN18HgcToneParamCurve46GetDODEP10HGRendereri6HGRect, __ZN18HgcToneParamCurve49GetOutputEP10HGRenderer,
                        __ZN18HgcToneParamCurve4C2Ev, __ZN18HgcToneParamCurve4D1Ev,
                        __ZN18LiGradientEnvCache5_lockE, __ZN18LiImageFilterChain7connectEv,
                        __ZN18LiImageFilterChain7getTailEv, __ZN18LiImageFilterChain8setInputEP13LiImageSource,
                        __ZN18LiImageFilterChainC1Ev, __ZN18LiImageFilterChainC2Ev,
                        __ZN18LiRenderBackground11getDelegateERK18LiRenderParameters, __ZN18LiRenderBackground20estimateRenderMemoryERNSt3__13setI9PCHash128NS0_4lessIS2_EENS0_9allocatorIS2_EEEE,
                        __ZN18LiRenderBackground9getHeliumER7LiAgent, __ZN18LiRenderBackgroundC2EP10LiRenderer,
                        __ZN18LiRenderParameters17setHeliumRendererEP10HGRenderer, __ZN18LiRenderParametersC2ERK13PCRenderModel,
                        __ZN18LiTextureStoreImpl12addTokenImplERK9PCHash128RKNSt3__110shared_ptrI23LiTextureStoreTokenImplEE, __ZN18OMKeyer2DColorUtil19getCompressionAngleEfff,
                        __ZN18OMKeyer2DColorUtil7rgb2hslERK5Vec3fRS0_, __ZN18OZAlignSimBehavior11accumForcesEP15OZSimStateArray,
                        __ZN18OZAlignSimBehavior18accumInitialValuesEP15OZSimStateArrayi, __ZN18OZAlignSimBehavior18calcMaskVecAndNewZE7FigTimeP9PCVector3IdES3_,
                        __ZN18OZAlignSimBehaviorC1EP9OZFactoryRK8PCStringj, __ZN18OZAlignSimBehaviorC2EP9OZFactoryRK8PCStringj,
                        __ZN18OZAlignSimBehaviorD0Ev, __ZN18OZAlignSimBehaviorD2Ev,
                        __ZN18OZBehavior_Factory9_instanceE, __ZN18OZBrownianBehavior11accumForcesEP17OZSimulationStateP15OZTransformNode,
                        __ZN18OZBrownianBehavior33_OZBrownianBehavior_frequencyChanE, __ZN18OZBrownianBehavior37_OZBrownianBehavior_amplitudeStepChanE,
                        __ZN18OZBrownianBehavior37_OZBrownianBehavior_magnitudeChanInfoE, __ZN18OZBrownianBehaviorC1EP9OZFactoryRK8PCStringj,
                        __ZN18OZBrownianBehaviorC2EP9OZFactoryRK8PCStringj, __ZN18OZBrownianBehaviorD0Ev,
                        __ZN18OZBrownianBehaviorD2Ev, __ZN18OZChanRotoshapeRef12setRotoshapeEP11OZRotoshape,
                        __ZN18OZChanRotoshapeRefC1EP9OZFactoryRK8PCStringP15OZChannelFolderjj, __ZN18OZChanRotoshapeRefC1EP9OZFactorydRK8PCStringP15OZChannelFolderjj,
                        __ZN18OZChanRotoshapeRefC1ERK8PCStringP15OZChannelFolderjj, __ZN18OZChanRotoshapeRefC2EP9OZFactoryRK18OZChanSceneNodeRefP15OZChannelFolder,
                        __ZN18OZChanRotoshapeRefC2EP9OZFactoryRK8PCStringj, __ZN18OZChanRotoshapeRefC2ERK18OZChanSceneNodeRefP15OZChannelFolder,
                        __ZN18OZChanRotoshapeRefC2EdRK8PCStringP15OZChannelFolderjj, __ZN18OZChanRotoshapeRefD1Ev,
                        __ZN18OZChanSceneNodeRef10parseBeginER22PCSerializerReadStream, __ZN18OZChanSceneNodeRef16removeDependencyEv,
                        __ZN18OZChanSceneNodeRef4copyEPK13OZChannelBaseb, __ZN18OZChanSceneNodeRef7setNodeEP11OZSceneNode,
                        __ZN18OZChanSceneNodeRef8setValueERK7FigTimedb, __ZN18OZChanSceneNodeRefC1EP9OZFactoryRK8PCStringj,
                        __ZN18OZChanSceneNodeRefC1EP9OZFactorydRK8PCStringP15OZChannelFolderjj, __ZN18OZChanSceneNodeRefC1ERKS_P15OZChannelFolder,
                        __ZN18OZChanSceneNodeRefC2EP9OZFactoryRK8PCStringP15OZChannelFolderjj, __ZN18OZChanSceneNodeRefC2EP9OZFactoryRKS_P15OZChannelFolder,
                        __ZN18OZChanSceneNodeRefC2ERK8PCStringP15OZChannelFolderjj, __ZN18OZChanSceneNodeRefC2EdRK8PCStringP15OZChannelFolderjj,
                        __ZN18OZChanSceneNodeRefD1Ev, __ZN18OZChanSceneNodeRefaSERKS_,
                        __ZN18OZChannelBlendModeC1ERK8PCStringP9OZFactoryS2_P15OZChannelFolderjj, __ZN18OZChannelBlendModeC1ERKS_P15OZChannelFolder,
                        __ZN18OZChannelBlendModeC2EP9OZFactoryRK8PCStringj, __ZN18OZChannelBlendModeC2ERK8PCStringS2_P15OZChannelFolderjj,
                        __ZN18OZChannelBlendModeC2EjRK8PCStringS2_P15OZChannelFolderjj, __ZN18OZChannelBlendModeD1Ev,
                        __ZN18OZChannelBlindData10isModifiedEb, __ZN18OZChannelBlindData11removeValueERK7FigTimeb,
                        __ZN18OZChannelBlindData12hasKeypointsEj, __ZN18OZChannelBlindData12parseElementER22PCSerializerReadStreamR15PCStreamElement,
                        __ZN18OZChannelBlindData13addKeypointAtERK7FigTime, __ZN18OZChannelBlindData14moveKeypointToERK7FigTimeS2_bb,
                        __ZN18OZChannelBlindData14setDefaultDataE8PCString, __ZN18OZChannelBlindData15setDefaultValueEPv,
                        __ZN18OZChannelBlindData16copyInternalDataERKS_, __ZN18OZChannelBlindData16getPluginDataPtrERK7FigTime,
                        __ZN18OZChannelBlindData16setPluginDataPtrERK7FigTimePvb, __ZN18OZChannelBlindData20getNumberOfKeyframesEv,
                        __ZN18OZChannelBlindData23_OZChannelBlindDataImplE, __ZN18OZChannelBlindData29setValueAndIgnoreRecordOptionERK7FigTime,
                        __ZN18OZChannelBlindData6assignEPK13OZChannelBase, __ZN18OZChannelBlindData9moveValueERK7FigTimeS2_b,
                        __ZN18OZChannelBlindDataC1EP9OZFactoryRK8PCStringj, __ZN18OZChannelBlindDataC1ERKS_P15OZChannelFolder,
                        __ZN18OZChannelBlindDataC2ERK8PCStringPvP15OZChannelFolderjj, __ZN18OZChannelBlindDataD0Ev,
                        __ZN18OZChannelBlindDataD2Ev, __ZN18OZChannelEnumLayerC1EjRK8PCStringS2_P15OZChannelFolderjjP13OZChannelImplP13OZChannelInfo,
                        __ZN18OZChannelEnumLayerC2EjRK8PCStringS2_P15OZChannelFolderjjP13OZChannelImplP13OZChannelInfo, __ZN18OZChannelHistogram10getWhiteInEi,
                        __ZN18OZChannelHistogram11getWhiteOutEi, __ZN18OZChannelHistogram15getBlackInValueEiRK7FigTimed,
                        __ZN18OZChannelHistogram16getBlackOutValueEiRK7FigTimed, __ZN18OZChannelHistogram18getObjCWrapperNameEv,
                        __ZN18OZChannelHistogram8getGammaEi, __ZN18OZChannelHistogramC1EP9OZFactoryRK8PCStringjj,
                        __ZN18OZChannelHistogramC1ERKS_P15OZChannelFolder, __ZN18OZChannelHistogramC2EP9OZFactoryRK8PCStringjj,
                        __ZN18OZChannelHistogramC2ERKS_P15OZChannelFolder, __ZN18OZChannelHistogramD1Ev,
                        __ZN18OZChannelSceneNode12setSceneNodeEP11OZSceneNode, __ZN18OZChannelSceneNode21channelValueWillBeSetEP9OZChannelRK7FigTimed,
                        __ZN18OZChannelSceneNode7compareEPK13OZChannelBase, __ZN18OZChannelSceneNodeC1EP9OZFactoryRK8PCStringj,
                        __ZN18OZChannelSceneNodeC1ERKS_P15OZChannelFolder, __ZN18OZChannelSceneNodeC2EP9OZFactoryRK8PCStringj,
                        __ZN18OZChannelSceneNodeC2ERKS_P15OZChannelFolder, __ZN18OZChannelSceneNodeD1Ev,
                        __ZN18OZChannelSceneNodeaSERKS_, __ZN18OZCoreTextTypefaceC2ERK8PCStringS2_jP12OZFontFamily,
                        __ZN18OZCoreTextTypefaceD1Ev, __ZN18OZDiscreteBehavior17didSetChannelInfoEPK13OZChannelInfoP9OZChannel,
                        __ZN18OZDiscreteBehaviorC1EP9OZFactoryRK8PCStringj, __ZN18OZDiscreteBehaviorC2EP9OZFactoryRK8PCStringj,
                        __ZN18OZDiscreteBehaviorD0Ev, __ZN18OZDiscreteBehaviorD2Ev,
                        __ZN18OZEaseInterpolator8easeTimeER8OZSplineRK7FigTimePvS5_, __ZN18OZFxPlugSharedBase10isPKPlugInEv,
                        __ZN18OZFxPlugSharedBase10setup3DAPIEP7LiAgent, __ZN18OZFxPlugSharedBase12prerollBeginERK14OZRenderParamsR14PMFrameRequestdP13FFPrerollSync,
                        __ZN18OZFxPlugSharedBase14getTokensImageERK14OZRenderParamsRKNSt3__16vectorINS3_4pairI7FigTimeNS4_IS6_NS3_9allocatorIS6_EEEEEENS7_ISA_EEEER14PMFrameRequest, __ZN18OZFxPlugSharedBase14scheduleTokensERK14OZRenderParamsRKNSt3__16vectorINS3_4pairI7FigTimeNS4_IS6_NS3_9allocatorIS6_EEEEEENS7_ISA_EEEER14PMFrameRequestPNS4_IP15FFScheduleTokenNS7_ISI_EEEE,
                        __ZN18OZFxPlugSharedBase15isPluginMissingER8PCString, __ZN18OZFxPlugSharedBase17finishPluginSetupEv,
                        __ZN18OZFxPlugSharedBase17pruneTokensAtTimeERK7FigTimePKc, __ZN18OZFxPlugSharedBase18getTimesToScheduleERKNSt3__16vectorINS0_4pairI7FigTimeNS1_IS3_NS0_9allocatorIS3_EEEEEENS4_IS7_EEEEjRS9_,
                        __ZN18OZFxPlugSharedBase18writeDynamicParamsER23PCSerializerWriteStreamP15OZChannelFolder, __ZN18OZFxPlugSharedBase19FieldFromFieldOrderEPKvS1_RK14OZRenderParams,
                        __ZN18OZFxPlugSharedBase19cleanupRenderParamsEP14OZRenderParams, __ZN18OZFxPlugSharedBase20_deleteKilledFiltersEv,
                        __ZN18OZFxPlugSharedBase21destroyPluginInstanceEv, __ZN18OZFxPlugSharedBase21pushDynamicParamScopeER22PCSerializerReadStream,
                        __ZN18OZFxPlugSharedBase23getFieldModeFromFootageEP20OZFieldRenderingModeP9OZFootage, __ZN18OZFxPlugSharedBase24getBestRenderingBehaviorEP7LiAgentPbS2_7FigTime,
                        __ZN18OZFxPlugSharedBase24updateInputPointsChannelEv, __ZN18OZFxPlugSharedBase25getFxPlugPixelAspectRatioEv,
                        __ZN18OZFxPlugSharedBase26writeDynamicParameterGroupER23PCSerializerWriteStreamP15OZChannelFolder, __ZN18OZFxPlugSharedBase27updateAbsolutePointsChannelEv,
                        __ZN18OZFxPlugSharedBase29cleanupHandlersAfterRenderingEv, __ZN18OZFxPlugSharedBase36allocateAndRegisterParameterHandlersEbP15OZChannelFolderP24OZFxPlugParameterHandleri,
                        __ZN18OZFxPlugSharedBase45markDynamicParameterFactoriesForSerializationEv, __ZN18OZFxPlugSharedBase7setRateERK14OZRenderParamsR14PMFrameRequestd,
                        __ZN18OZFxPlugSharedBaseC2ERK8PCStringP15OZChannelFolderib, __ZN18OZFxPlugSharedBaseD0Ev,
                        __ZN18OZFxPlugSharedBaseD2Ev, __ZN18OZGLGradientRadial25computeTexgenCoefficientsEv,
                        __ZN18OZGLGradientRadial6enableEv, __ZN18OZGLGradientRadial7disableEv,
                        __ZN18OZGLGradientRadialC1ER17OZChannelGradientiP12CGColorSpaceb, __ZN18OZGLGradientRadialC2ER17OZChannelGradientiP12CGColorSpaceb,
                        __ZN18OZGLGradientRadialD0Ev, __ZN18OZGLGradientRadialD2Ev,
                        __ZN18OZGenericCurveNodeC1ERKS_, __ZN18OZGenericCurveNodeC2ERKS_,
                        __ZN18OZGenericCurveNodeD1Ev, __ZN18OZMaterial_Factory9_instanceE,
                        __ZN18OZProfilerTimeStat13removeCounterEPS_, __ZN18OZProfilerTimeStat5resetEv,
                        __ZN18OZProfilerTimeStat9addWaiterEPS_, __ZN18OZProfilerTimeStatC2EPKci,
                        __ZN18OZRenderGraphStateC2Ev, __ZN18OZRetimingBehavior12didAddToNodeEP11OZSceneNode,
                        __ZN18OZRetimingBehavior15addRetimingNodeEP11OZSceneNode, __ZN18OZRetimingBehavior17canAddToSceneNodeEP11OZSceneNode,
                        __ZN18OZRetimingBehavior9solveNodeEjR16OZCurveNodeParam, __ZN18OZRetimingBehaviorC1EP9OZFactoryRK8PCStringj,
                        __ZN18OZRetimingBehaviorC2EP9OZFactoryRK8PCStringj, __ZN18OZRetimingBehaviorD0Ev,
                        __ZN18OZRetimingBehaviorD2Ev, __ZN18OZRigEditModeEntryC1EPK13OZChannelBase,
                        __ZN18OZRigEditModeEntryC2EPK13OZChannelBase, __ZN18OZRigEditModeEntryaSERKS_,
                        __ZN18OZSceneArrangement14pickCoordinateERK7PCArrayINS_7ElementE14PCArray_TraitsIS1_EE, __ZN18OZSceneArrangement18moveElementToPlaneERKNS_7ElementERK9PCVector4IdE,
                        __ZN18OZSceneArrangement5alignEv, __ZN18OZSceneArrangement7ElementC1Ev,
                        __ZN18OZSceneArrangement7ElementC2Ev, __ZN18OZSceneArrangementC2EP7OZSceneid,
                        __ZN18OZShapeEdgePolygon17checkWindingOrderEv, __ZN18OZShapeEdgeTexture10_instancesE,
                        __ZN18OZShapeEdgeTexture11createArrayEiNS_6KernelE, __ZN18OZShapeEdgeTexture11inverseSineEdd,
                        __ZN18OZShapeEdgeTexture13getHeliumNodeEP10HGRendererNS_6KernelE, __ZN18OZShapeEdgeTexture16createHeliumNodeEP10HGRendererNS_6KernelE,
                        __ZN18OZShapeEdgeTexture19createHeliumTextureENS_6KernelEidP12HGGLRenderer, __ZN18OZShapeEdgeTexture20getDefaultResolutionEv,
                        __ZN18OZShapeEdgeTexture4evalEddNS_6KernelE, __ZN18OZShapeEdgeTexture6linearEdd,
                        __ZN18OZShapeEdgeTexture9getKernelEv, __ZN18OZShapeEdgeTextureC1ENS_6KernelE,
                        __ZN18OZShapeEdgeTextureD1Ev, __ZN18OZSimpleCacheArray11findTextureEmRK9PCHash128,
                        __ZN18OZSimpleCacheArray5clearEm, __ZN18OZSimpleCacheArrayC1Ev,
                        __ZN18OZSimpleImageCache10kUnlimitedE, __ZN18OZSimpleImageCache5clearEv,
                        __ZN18OZSimpleImageCacheC1Ev, __ZN18OZSimpleImageCacheC2Ev,
                        __ZN18OZWriteOnCurveNode9cloneNodeEv, __ZN18OZWriteOnCurveNode9solveNodeERK7FigTimedd,
                        __ZN18OZWriteOnCurveNodeC1ERKS_, __ZN18OZWriteOnCurveNodeC2ERKS_,
                        __ZN18OZWriteOnCurveNodeD1Ev, __ZN18PAEFxBitmapStorageC1EmPU26objcproto15PROAPIAccessing11objc_object,
                        __ZN18PAEFxBitmapStorageD0Ev, __ZN18PAEFxBitmapStorageD2Ev,
                        __ZN18PCBufferReadStream5writeEPKvy, __ZN18PCBufferReadStream6setPosEy,
                        __ZN18PCBufferReadStreamC2EPK8__CFData, __ZN18PCBufferReadStreamD1Ev,
                        __ZN18PCColorSpaceHandle13setColorSpaceEP12CGColorSpace, __ZN18PCColorSpaceHandle16isSameColorSpaceERKS_S1_,
                        __ZN18PCColorSpaceHandle6getMD5EP12CGColorSpace, __ZN18PCColorSpaceHandleC1EP12CGColorSpace,
                        __ZN18PCColorSpaceHandleC1ERKS_, __ZN18PCColorSpaceHandleC2EP12CGColorSpace,
                        __ZN18PCColorSpaceHandleC2ERKS_, __ZN18PCColorSpaceHandleD1Ev,
                        __ZN18PCColorSpaceHandleaSERKS_, __ZN18PCXMLStreamElement10getAsInt32EPi,
                        __ZN18PCXMLStreamElement10initParamsEv, __ZN18PCXMLStreamElement11getAsStringEP8PCString,
                        __ZN18PCXMLStreamElement11getAsUInt64EPy, __ZN18PCXMLStreamElement12addAttributeEjPKc,
                        __ZN18PCXMLStreamElement24appendContentWithNewlineEPcb, __ZN18PCXMLStreamElement9getAsUUIDEv,
                        __ZN18PCXMLStreamElementC2EjP7PCScopeP12PCSerializer, __ZN18PCXMLStreamElementD1Ev,
                        __ZN18PGFramebufferStack4bindERN5ProGL2GLERK13PGFramebuffer, __ZN18PGFramebufferStackC1ERKN5ProGL13ContextHandleE,
                        __ZN18PGFramebufferStackD1Ev, __ZN18PMAudioDescriptionC1ERKS_,
                        __ZN18PMAudioDescriptionC2ERKS_, __ZN18PMAudioDescriptionaSERKS_,
                        __ZN18PMLayerDescriptionC1Ev, __ZN18PMLayerDescriptionC2Ev,
                        __ZN18PSPenSpeedBehavior14getPenPropertyEdb, __ZN18PSPenSpeedBehavior17getDefaultApplyToEv,
                        __ZN18PSPenSpeedBehaviorC1ERKS_j, __ZN18PSPenSpeedBehaviorC2ERKS_j,
                        __ZN18PSPenSpeedBehaviorD1Ev, __ZN18PSSequenceBehavior10parseBeginER22PCSerializerReadStream,
                        __ZN18PSSequenceBehavior11arAddToUndoERK8PCStringi, __ZN18PSSequenceBehavior12arAddChannelEP13OZChannelBase,
                        __ZN18PSSequenceBehavior12getInfluenceERK7FigTimed, __ZN18PSSequenceBehavior13getNumObjectsERK7FigTime,
                        __ZN18PSSequenceBehavior15arRemoveChannelEP13OZChannelBase, __ZN18PSSequenceBehavior17canAddToSceneNodeEP11OZSceneNode,
                        __ZN18PSSequenceBehavior17updateHiddenFlagsEPNSt3__14listIP10OZBehaviorNS0_9allocatorIS3_EEEE, __ZN18PSSequenceBehavior18getValuesRemapTimeERK7FigTimedR17PSSequencedValues,
                        __ZN18PSSequenceBehavior22arGetObjectManipulatorEv, __ZN18PSSequenceBehavior22getValuesWithInfluenceERK7FigTimedR17PSSequencedValues,
                        __ZN18PSSequenceBehavior29percentIndexToNormalizedIndexEdRK7FigTime, __ZN18PSSequenceBehavior8getStartERK7FigTime,
                        __ZN18PSSequenceBehavior9didInsertEP11OZSceneNodeP10OZBehavior, __ZN18PSSequenceBehaviorC1EP9OZFactoryRK8PCStringj,
                        __ZN18PSSequenceBehaviorC2EP9OZFactoryRK8PCStringj, __ZN18PSSequenceBehaviorD0Ev,
                        __ZN18PSSequenceBehaviorD2Ev, __ZN18PVAVFRenderContext10RenderSizeEv,
                        __ZN18PVAVFRenderContext15RenderTransformEv, __ZN18PVAVFRenderContextC1EP25PVVideoCompositingContextP31AVVideoCompositionRenderContextb,
                        __ZN18ReleaseDocumentJob6RunJobEv, __ZN18ReleaseDocumentJobC2EPv,
                        __ZN18SimRecursionSentryC2Ev, __ZN18SimRecursionSentryD2Ev,
                        __ZN18TXChannelAlignment4copyEPK13OZChannelBaseb, __ZN18TXChannelAlignmentC1ERK8PCStringP15OZChannelFolderjj,
                        __ZN18TXChannelAlignmentC2EP9OZFactoryRK8PCStringj, __ZN18TXChannelAlignmentC2ERKS_P15OZChannelFolder,
                        __ZN18TXCoreTextTypefaceC2ERK8PCStringS2_jP12OZFontFamily, __ZN18TXCoreTextTypefaceD1Ev,
                        __ZN18TXGlyphGroupRender13buildLightingER7LiGeodeRK10LiLightSetRK14OZRenderParams, __ZN18TXGlyphGroupRenderC1EP12TXTextLayoutRK14OZRenderParamsm,
                        __ZN18TXScrollUpBehavior10getYOffsetE7FigTime, __ZN18TXScrollUpBehaviorC1ERKS_j,
                        __ZN18TXScrollUpBehaviorC2ERKS_j, __ZN18TXScrollUpBehaviorD1Ev,
                        __ZN18TXScrollUpBehavioraSERK10OZBehavior, __ZN18TXSequenceBehavior10parseBeginER22PCSerializerReadStream,
                        __ZN18TXSequenceBehavior11addMaterialEP14OZMaterialBasej, __ZN18TXSequenceBehavior12arAddChannelEP13OZChannelBase,
                        __ZN18TXSequenceBehavior12getChanValueERK7FigTimedP9OZChannel, __ZN18TXSequenceBehavior12getSelectionERK7FigTimeRNSt3__16vectorI19OZSequenceSelectionNS3_9allocatorIS5_EEEERb,
                        __ZN18TXSequenceBehavior13arHideChannelEP13OZChannelBase, __ZN18TXSequenceBehavior13makeSelectionERK7FigTimedddddb,
                        __ZN18TXSequenceBehavior14removeMaterialEj, __ZN18TXSequenceBehavior15computePositionEid,
                        __ZN18TXSequenceBehavior16arGetChannelListERNSt3__16vectorIP13OZChannelBaseNS0_9allocatorIS3_EEEE, __ZN18TXSequenceBehavior16sceneNodeDidLoadEv,
                        __ZN18TXSequenceBehavior17getKeyframeExtentEP7FigTimeS1_, __ZN18TXSequenceBehavior17getSelectionValueERK7FigTimedP9OZChanneld,
                        __ZN18TXSequenceBehavior18getSpreadInPercentEv, __ZN18TXSequenceBehavior19clearInfluenceCacheERK7FigTime,
                        __ZN18TXSequenceBehavior20charIndexToUnitIndexEj, __ZN18TXSequenceBehavior20objectIndexToPercentEj,
                        __ZN18TXSequenceBehavior22arGetObjectManipulatorEv, __ZN18TXSequenceBehavior22getCustomAnimationTimeERK7FigTimed,
                        __ZN18TXSequenceBehavior22getObjectSpanInPercentEv, __ZN18TXSequenceBehavior23getCustomAnimationValueERK7FigTimedP9OZChanneld,
                        __ZN18TXSequenceBehavior24getSequenceFromSelectionERK7FigTimedbRNSt3__16vectorI19OZSequenceSelectionNS3_9allocatorIS5_EEEE, __ZN18TXSequenceBehavior25fixControlsFolderLocationEv,
                        __ZN18TXSequenceBehavior26hideParentAndRemoveChannelEP13OZChannelBase, __ZN18TXSequenceBehavior28isTextSequenceChannelEnabledEjjj,
                        __ZN18TXSequenceBehavior29addSequencedChannelsRecursiveEPKNSt3__16vectorIP13OZChannelBaseNS0_9allocatorIS3_EEEEj, __ZN18TXSequenceBehavior33attachDescendantSequencedChannelsEP15OZChannelFolder,
                        __ZN18TXSequenceBehavior34updateMaterialSequenceChannelFlagsEv, __ZN18TXSequenceBehavior41sequenceChannelsMatchTextSequenceChannelsEv,
                        __ZN18TXSequenceBehavior6notifyEj, __ZN18TXSequenceBehavior8getRangeEv,
                        __ZN18TXSequenceBehavior8parseEndER22PCSerializerReadStream, __ZN18TXSequenceBehaviorC1EP9OZFactoryRK8PCStringj,
                        __ZN18TXSequenceBehaviorC2EP9OZFactoryRK8PCStringj, __ZN18TXSequenceBehaviorD0Ev,
                        __ZN18TXSequenceBehaviorD2Ev, __ZN18TXSequenceChannels11findChannelEjjj,
                        __ZN18TXSequenceChannels15makeChannelListEv, __ZN18TXSequenceChannels16getMaterialColorEjj7FigTimeP7PCColord,
                        __ZN18TXSequenceChannels16specularMetallicEj7FigTimePdd, __ZN18TXSequenceChannels17specularIntensityEj7FigTimePdd,
                        __ZN18TXSequenceChannels18addTrackingChannelEj, __ZN18TXSequenceChannels21removeTrackingChannelEj,
                        __ZN18TXSequenceChannels23getEnvironmentIntensityEj7FigTimePdd, __ZN18TXSequenceChannels24isMaterialChannelEnabledEjj,
                        __ZN18TXSequenceChannels26getEnvironmentReflectivityEj7FigTimePdd, __ZN18TXSequenceChannels27copyMaterialSequenceFoldersEPKNSt3__16vectorIP13OZChannelBaseNS0_9allocatorIS3_EEEE,
                        __ZN18TXSequenceChannels28_TXSequenceChannels_glowBlurE, __ZN18TXSequenceChannels29getDescendantInMaterialFolderEP15OZChannelFolderj,
                        __ZN18TXSequenceChannels30_TXSequenceChannels_glowRadiusE, __ZN18TXSequenceChannels32_TXSequenceChannels_faceBlurInfoE,
                        __ZN18TXSequenceChannels32_TXSequenceChannels_outlineWidthE, __ZN18TXSequenceChannels34_TXSequenceChannels_dropShadowBlurE,
                        __ZN18TXSequenceChannels34removeMaterialLayerChannelsAtIndexEjj, __ZN18TXSequenceChannels35_TXSequenceChannels_outlineBlurInfoE,
                        __ZN18TXSequenceChannels36_TXSequenceChannels_outlineWidthInfoE, __ZN18TXSequenceChannels36pushChannelIntoChannelListAtPositionEP13OZChannelBasej,
                        __ZN18TXSequenceChannels38_TXSequenceChannels_dropShadowDistanceE, __ZN18TXSequenceChannels42_TXSequenceChannels_dropShadowDistanceInfoE,
                        __ZN18TXSequenceChannelsC1ERKS_P15OZChannelFolder, __ZN18TXSequenceChannelsC2ERKS_P15OZChannelFolder,
                        __ZN18TXSequenceChannelsD1Ev, __ZN18TXSequenceChannelsaSERKS_,
                        __ZN18TXTextObjectRender16_mipmapDataMutexE, __ZN18TXTextObjectRender17fixPixelTransformER7LiAgentP14PCMatrix44TmplIdERK18LiRenderParameters,
                        __ZN18TXTextObjectRender20estimateRenderMemoryERNSt3__13setI9PCHash128NS0_4lessIS2_EENS0_9allocatorIS2_EEEE, __ZN18TXTextObjectRender22_cachedMipmapInfoMutexE,
                        __ZN18TXTextObjectRenderC1EP12TXTextObjectRK14OZRenderParams, __ZN18TXTextObjectRenderD0Ev,
                        __ZN18TXTextObjectRenderD2Ev, __ZN18TXTextStyleManager9_instanceE,
                        __ZN18TXTextStyleManagerC2Ev, __ZN18TXTextStyleManagerD1Ev,
                        __ZN18TXTextureAtlasNode16computeAtlasSizeEP6HGPageP14TXTextureAtlas, __ZN18TXTextureAtlasNode6renderEP6HGPage,
                        __ZN18TextureDeleteQueue10threadLoopEv, __ZN18TextureDeleteQueue13DeleteRequest4testEv,
                        __ZN18TextureDeleteQueue13DeleteRequestC1EP16HGTextureManagerNS1_12TextureEntryEPvb, __ZN18TextureDeleteQueue13DeleteRequestD1Ev,
                        __ZN18TextureDeleteQueue13enqueueDeleteEP16HGTextureManagerNS0_12TextureEntryEPvbb, __ZN18TextureDeleteQueue16_popFrontRequestEv,
                        __ZN18TextureDeleteQueue23executeFinishedRequestsEb, __ZN18TextureDeleteQueue4lockEv,
                        __ZN18TextureDeleteQueue5_stopEb, __ZN18TextureDeleteQueue6_startEb,
                        __ZN18TextureDeleteQueue6unlockEv, __ZN18TextureDeleteQueueC1Ev,
                        __ZN18TextureDeleteQueueD0Ev, __ZN18TextureDeleteQueueD2Ev,
                        __ZN19BorderPaddingPolicyC1Ej, __ZN19BorderPaddingPolicyD0Ev,
                        __ZN19BorderPaddingPolicyD2Ev, __ZN19FindGraphDuplicates16addCurrentStringEv,
                        __ZN19HContrastBezierLuma6GetDODEP10HGRendereri6HGRect, __ZN19HGCVPixelBufferPool13releaseBufferEP10__CVBuffer,
                        __ZN19HGCVPixelBufferPool9newBufferEmmj, __ZN19HGCVPixelBufferPoolC2Ev,
                        __ZN19HGCVPixelBufferPoolD1Ev, __ZN19HGColorGammaLUTInfoC1EmffN12HGColorGamma16hgColorGammaFormE19__simd128_float32_tS2_S2_S2_S2_S2_S2_N16HGApplyNDLUTInfo16LUTStorageFormatE,
                        __ZN19HGConvolutionShader10RenderTileEP6HGTile, __ZN19HGConvolutionShader6GetROIEP10HGRendereri6HGRect,
                        __ZN19HGConvolutionShader8addRoundERK16HGLinearFilter2Diiib, __ZN19HGConvolutionShaderC2Ev,
                        __ZN19HGConvolutionShaderD1Ev, __ZN19HGMetalBlendingInfo3GetEjb,
                        __ZN19HGTexturePoolHandleD0Ev, __ZN19HGTexturePoolHandleD2Ev,
                        __ZN19HgcColorBalanceClip10RenderTileEP6HGTile, __ZN19HgcColorBalanceClip12GetParameterEiPf,
                        __ZN19HgcColorBalanceClip4BindEP9HGHandler, __ZN19HgcColorBalanceClip6GetROIEP10HGRendereri6HGRect,
                        __ZN19HgcColorBalanceClipC1Ev, __ZN19HgcColorBalanceClipD0Ev,
                        __ZN19HgcColorBalanceClipD2Ev, __ZN19HgcConvolvePass8tap10RenderTileEP6HGTile,
                        __ZN19HgcConvolvePass8tap12GetParameterEiPf, __ZN19HgcConvolvePass8tap4BindEP9HGHandler,
                        __ZN19HgcConvolvePass8tap6GetROIEP10HGRendereri6HGRect, __ZN19HgcConvolvePass8tapC1Ev,
                        __ZN19HgcConvolvePass8tapD0Ev, __ZN19HgcConvolvePass8tapD2Ev,
                        __ZN19HgcGradientColorize10RenderTileEP6HGTile, __ZN19HgcGradientColorize12GetParameterEiPf,
                        __ZN19HgcGradientColorize4BindEP9HGHandler, __ZN19HgcGradientColorize6GetROIEP10HGRendereri6HGRect,
                        __ZN19HgcGradientColorizeC1Ev, __ZN19HgcGradientColorizeD0Ev,
                        __ZN19HgcGradientColorizeD2Ev, __ZN19HgcMaskCompSubtract10RenderTileEP6HGTile,
                        __ZN19HgcMaskCompSubtract12GetParameterEiPf, __ZN19HgcMaskCompSubtract4BindEP9HGHandler,
                        __ZN19HgcMaskCompSubtract6GetROIEP10HGRendereri6HGRect, __ZN19HgcMaskCompSubtractC1Ev,
                        __ZN19HgcMaskCompSubtractD0Ev, __ZN19HgcMaskCompSubtractD2Ev,
                        __ZN19HgcPMStripEvenField10RenderTileEP6HGTile, __ZN19HgcPMStripEvenField12GetParameterEiPf,
                        __ZN19HgcPMStripEvenField4BindEP9HGHandler, __ZN19HgcPMStripEvenField6GetROIEP10HGRendereri6HGRect,
                        __ZN19HgcPMStripEvenFieldC1Ev, __ZN19HgcPMStripEvenFieldD0Ev,
                        __ZN19HgcPMStripEvenFieldD2Ev, __ZN19HgcSampleTiledNoise10RenderTileEP6HGTile,
                        __ZN19HgcSampleTiledNoise12GetParameterEiPf, __ZN19HgcSampleTiledNoise4BindEP9HGHandler,
                        __ZN19HgcSampleTiledNoise6GetROIEP10HGRendereri6HGRect, __ZN19HgcSampleTiledNoiseC1Ev,
                        __ZN19HgcSampleTiledNoiseD0Ev, __ZN19HgcSampleTiledNoiseD2Ev,
                        __ZN19HgcShapeSoftEdgeClr10RenderTileEP6HGTile, __ZN19HgcShapeSoftEdgeClr12GetParameterEiPf,
                        __ZN19HgcShapeSoftEdgeClr14RenderFragmentEP10HGFragmentP6HGTile, __ZN19HgcShapeSoftEdgeClr5SetupEPv,
                        __ZN19HgcShapeSoftEdgeClr6GetROIEP10HGRendereri6HGRect, __ZN19HgcShapeSoftEdgeClrC1Ev,
                        __ZN19HgcShapeSoftEdgeClrD0Ev, __ZN19HgcShapeSoftEdgeClrD2Ev,
                        __ZN19InitializeMotionJobC1Ev, __ZN19LiAsyncBitmapLoaderC1E9PCHash128RK5PCURLN13PCPixelFormat12ChannelOrderERK18PCColorSpaceHandleb,
                        __ZN19LiAsyncBitmapLoaderclEv, __ZN19LiCachedImageFilter20estimateRenderMemoryERNSt3__13setI9PCHash128NS0_4lessIS2_EENS0_9allocatorIS2_EEEE,
                        __ZN19LiHeProgramMaxBlend10RenderTileEP6HGTile, __ZN19LiHeProgramMaxBlend12GetParameterEiPf,
                        __ZN19LiHeProgramMaxBlend4BindEP9HGHandler, __ZN19LiHeProgramMaxBlend6GetROIEP10HGRendereri6HGRect,
                        __ZN19LiHeProgramMaxBlendC1Ev, __ZN19LiHeProgramMaxBlendD0Ev,
                        __ZN19LiHeProgramMaxBlendD2Ev, __ZN19LiHeRGBAdditionNode6GetROIEP10HGRendereri6HGRect,
                        __ZN19LiHeRGBAdditionNodeC2ERK5HGRefI6HGNodeES4_, __ZN19LiSSAASolidRenderer11getTileSizeEjjPjS0_,
                        __ZN19LiSSAASolidRenderer14downsampleTileERN5ProGL2GLEjjjjjjj, __ZN19LiSSAASolidRenderer18filterDepthTextureEjjjjjj,
                        __ZN19LiSSAASolidRenderer25getFullSizePaddedTileSizeEPjS0_jj, __ZN19LiSSAASolidRenderer9setupTileEjjjjjjj,
                        __ZN19LiSSAASolidRendererC2Ev, __ZN19LiSSAASolidRendererD1Ev,
                        __ZN19LiShadowGenMaterial11makeProgramERK9LiContext, __ZN19LiTextureStoreTokenC1ERKNSt3__110shared_ptrI23LiTextureStoreTokenImplEE,
                        __ZN19MotionPoolingPolicy12cleanThePoolEv, __ZN19MotionPoolingPolicy32waitForQueuedForDeletionTexturesEv,
                        __ZN19MotionPoolingPolicyC2Ev, __ZN19MotionPoolingPolicyD1Ev,
                        __ZN19OZAttractorBehavior11accumForcesEP15OZSimStateArrayP15OZTransformNode, __ZN19OZAttractorBehavior13getMaskVectorEP9PCVector3IdEPj,
                        __ZN19OZAttractorBehavior14calcAttractionEP17OZSimulationStateP15OZTransformNodeP9PCVector3IdE, __ZN19OZAttractorBehaviorC1EP9OZFactoryRK8PCStringj,
                        __ZN19OZAttractorBehaviorC2EP9OZFactoryRK8PCStringj, __ZN19OZAttractorBehaviorD0Ev,
                        __ZN19OZAttractorBehaviorD2Ev, __ZN19OZBehaviorCurveNode14getNeededRangeEP16OZCurveNodeParam,
                        __ZN19OZBehaviorCurveNode9solveNodeER16OZCurveNodeParam, __ZN19OZBehaviorCurveNodeC1ERKS_,
                        __ZN19OZBehaviorCurveNodeC2ERKS_, __ZN19OZBehaviorCurveNodeD1Ev,
                        __ZN19OZChannel2D_Factory9_instanceE, __ZN19OZChannelEnumRetimeC1ERK8PCStringS2_P15OZChannelFolderjj,
                        __ZN19OZChannelEnumRetimeC2ERK8PCStringS2_P15OZChannelFolderjj, __ZN19OZChannelHelpButton18getObjCWrapperNameEv,
                        __ZN19OZChannelHelpButtonC1EPFvPvES0_RK8PCStringP15OZChannelFolderjj, __ZN19OZChannelHelpButtonC1ERK8PCStringP15OZChannelFolderjj,
                        __ZN19OZChannelHelpButtonC2EPFvPvES0_RK8PCStringP15OZChannelFolderjj, __ZN19OZChannelHelpButtonC2ERK8PCStringP15OZChannelFolderjj,
                        __ZN19OZChannelObjectRoot11addBehaviorEP20OZSimulationBehavior, __ZN19OZChannelObjectRoot12parseElementER22PCSerializerReadStreamR15PCStreamElement,
                        __ZN19OZChannelObjectRoot14removeBehaviorEP20OZSimulationBehavior, __ZN19OZChannelObjectRoot15isChannelRiggedEPK13OZChannelBase,
                        __ZN19OZChannelObjectRoot17serializeSelfOnlyER23PCSerializerWriteStreambb, __ZN19OZChannelObjectRoot18getGlobalTimeRangeEv,
                        __ZN19OZChannelObjectRoot18updateReferenceIDsEPNSt3__13mapIjjNS0_4lessIjEENS0_9allocatorINS0_4pairIKjjEEEEEE, __ZN19OZChannelObjectRoot19insertBehaviorAfterEP20OZSimulationBehaviorS1_,
                        __ZN19OZChannelObjectRoot20shouldAddKeypointAt0ERK7FigTime, __ZN19OZChannelObjectRoot21findNodeRefDescendantEP11OZSceneNodeP15OZChannelFolder,
                        __ZN19OZChannelObjectRoot30recomputeTimeRangeFromChildrenEbbbbb, __ZN19OZChannelObjectRoot36isChannelAffectedBySelectedBehaviorsEP13OZChannelBase,
                        __ZN19OZChannelObjectRoot4copyEPK13OZChannelBaseb, __ZN19OZChannelObjectRoot8parseEndER22PCSerializerReadStream,
                        __ZN19OZChannelObjectRoot9writeBodyER23PCSerializerWriteStreambbb, __ZN19OZChannelObjectRootC1EP9OZFactoryRK8PCStringj,
                        __ZN19OZChannelObjectRootC1ERKS_P15OZChannelFolder, __ZN19OZChannelObjectRootC2EP9OZFactoryRK8PCStringj,
                        __ZN19OZChannelObjectRootC2ERKS_P15OZChannelFolder, __ZN19OZChannelObjectRootD1Ev,
                        __ZN19OZChannelObjectRootaSERKS_, __ZN19OZChannelPosition3D10derivePathERK7FigTimedddb,
                        __ZN19OZChannelPosition3D10getTangentERK7FigTimedR9PCVector3IdE, __ZN19OZChannelPosition3D11setBinormalEPvddd,
                        __ZN19OZChannelPosition3D12getBinormalsERK7FigTimePdS3_S3_, __ZN19OZChannelPosition3D14offsetPositionERK7FigTimedddb,
                        __ZN19OZChannelPosition3D15getOrientationsERK7FigTimedPdS3_S3_P9PCVector3IdEbRS5_b, __ZN19OZChannelPosition3D17getPositionOnPathERK7FigTimedPdS3_S3_S3_S3_S3_S3_,
                        __ZN19OZChannelPosition3D17insertBezierPointERK7FigTimeddd, __ZN19OZChannelPosition3D18getTimeAndDistanceERK7FigTimePS0_Pd,
                        __ZN19OZChannelPosition3D20isInZEqualsZeroPlaneEv, __ZN19OZChannelPosition3D24getCachedVectorsWithLockEPPdS1_S1_S1_S1_Pi,
                        __ZN19OZChannelPosition3D28convertTimeToParametricValueERK7FigTime, __ZN19OZChannelPosition3D35getPositionsReparametrizedWithRangeERK7FigTimedRNSt3__16vectorIdNS3_9allocatorIdEEEES8_S8_S8_,
                        __ZN19OZChannelPosition3D4is2DEv, __ZN19OZChannelPosition3D9getLengthERK7FigTime,
                        __ZN19OZChannelPosition3DC1ERK8PCStringP15OZChannelFolderjjj, __ZN19OZChannelPosition3DC1EdddRK8PCStringP15OZChannelFolderjjj,
                        __ZN19OZChannelPosition3DC2ERK8PCStringP15OZChannelFolderjjj, __ZN19OZChannelPosition3DC2EdddRK8PCStringP15OZChannelFolderjjj,
                        __ZN19OZChannelPosition3DD1Ev, __ZN19OZChannelPosition3DaSERKS_,
                        __ZN19OZChannelRotation3D13compoundResetEP9OZChannelb, __ZN19OZChannelRotation3D15setValueAsQuatdERK6PCQuatIdERK7FigTime,
                        __ZN19OZChannelRotation3D18getObjCWrapperNameEv, __ZN19OZChannelRotation3D20interpWillBeModifiedEj,
                        __ZN19OZChannelRotation3D21setCurveInterpolationEj, __ZN19OZChannelRotation3D22initCustomInterpolatorEv,
                        __ZN19OZChannelRotation3D24compoundDeleteKeypointAtEP9OZChannelRK7FigTimeb, __ZN19OZChannelRotation3D4copyEPK13OZChannelBaseb,
                        __ZN19OZChannelRotation3D8setValueEP9OZChannelRK7FigTimed, __ZN19OZChannelRotation3DC1ERK8PCStringP15OZChannelFolderjjjP13OZChannelImplP13OZChannelInfo,
                        __ZN19OZChannelRotation3DC1EdddRK8PCStringP15OZChannelFolderjjjP13OZChannelImplP13OZChannelInfo, __ZN19OZChannelRotation3DC2ERK8PCStringP15OZChannelFolderjjjP13OZChannelImplP13OZChannelInfo,
                        __ZN19OZChannelRotation3DC2EdddRK8PCStringP15OZChannelFolderjjjP13OZChannelImplP13OZChannelInfo, __ZN19OZChannelRotation3DD1Ev,
                        __ZN19OZChannelRotation3DaSERKS_, __ZN19OZChannelShearAngle24_OZChannelShearAngleImplE,
                        __ZN19OZChannelStringEnum10parseBeginER22PCSerializerReadStream, __ZN19OZChannelStringEnum12parseElementER22PCSerializerReadStreamR15PCStreamElement,
                        __ZN19OZChannelStringEnum17indexOfSaveStringER8PCString, __ZN19OZChannelStringEnum21getSelectedSaveStringEv,
                        __ZN19OZChannelStringEnum28setValueFromParsedSaveStringEv, __ZN19OZChannelStringEnum33initSaveStringsFromChannelStringsEv,
                        __ZN19OZChannelStringEnum9writeBodyER23PCSerializerWriteStreambbb, __ZN19OZChannelStringEnumC1ERK8PCStringP9OZFactoryS2_P15OZChannelFolderjj,
                        __ZN19OZChannelStringEnumC1ERKS_P15OZChannelFolder, __ZN19OZChannelStringEnumC2EP9OZFactoryRK8PCStringj,
                        __ZN19OZChannelStringEnumC2ERK8PCStringS2_P15OZChannelFolderjj, __ZN19OZChannelStringEnumC2EjRK8PCStringS2_P15OZChannelFolderjj,
                        __ZN19OZCollisionBehavior16handleCollisionsEP15OZTransformNodeP17OZSimulationStateS3_bPb, __ZN19OZCollisionBehaviorC1ERS_j,
                        __ZN19OZCollisionBehaviorC2ERS_j, __ZN19OZCollisionBehaviorD1Ev,
                        __ZN19OZCollisionBehavioraSERK10OZBehavior, __ZN19OZFadeInOutBehavior13getMultiplierE7FigTime,
                        __ZN19OZFadeInOutBehavior36_OZFadeInOutBehavior_fadeOutTimeChanE, __ZN19OZFadeInOutBehavior40_OZFadeInOutBehavior_startTimeOffsetChanE,
                        __ZN19OZFadeInOutBehaviorC1ERKS_j, __ZN19OZFadeInOutBehaviorC2ERKS_j,
                        __ZN19OZFadeInOutBehaviorD1Ev, __ZN19OZFadeInOutBehavioraSERK10OZBehavior,
                        __ZN19OZFolderLightShadow12initChannelsEv, __ZN19OZFolderLightShadow5colorEv,
                        __ZN19OZFolderLightShadow7opacityEv, __ZN19OZFolderLightShadowC1EP9OZFactoryRK8PCStringP15OZChannelFolderjjb,
                        __ZN19OZFolderLightShadowC1ERK8PCStringP15OZChannelFolderjj, __ZN19OZFolderLightShadowC2EP9OZFactoryRK8PCStringP15OZChannelFolderjjb,
                        __ZN19OZFolderLightShadowC2ERK8PCStringP15OZChannelFolderjj, __ZN19OZFolderLightShadowD0Ev,
                        __ZN19OZFolderLightShadowD2Ev, __ZN19OZGenericBehaviorV1C1EP9OZFactoryRK8PCStringj,
                        __ZN19OZGenericBehaviorV1C2EP9OZFactoryRK8PCStringj, __ZN19OZGenericBehaviorV1aSERK10OZBehavior,
                        __ZN19OZGenericBehaviorV2C1EP9OZFactoryRK8PCStringj, __ZN19OZGenericBehaviorV2C2EP9OZFactoryRK8PCStringj,
                        __ZN19OZGenericBehaviorV2aSERK10OZBehavior, __ZN19OZGradientGeneratorC1ERKS_j,
                        __ZN19OZGradientGeneratorC2ERKS_j, __ZN19OZGradientGeneratorD1Ev,
                        __ZN19OZImageMask_Factory9_instanceE, __ZN19OZLiCachingDelegate12enableLimitsEv,
                        __ZN19OZLiCachingDelegate15getBitmapForKeyERK9PCHash128, __ZN19OZLiCachingDelegate8instanceEv,
                        __ZN19OZLiCachingDelegateC1Ev, __ZN19OZLockingGroupMutex4lockEv,
                        __ZN19OZMaterialFlatLayer19anyGradientChannelsEv, __ZN19OZMaterialFlatLayer29appendLayersToLayeredMaterialERN19OZMaterialLayerBase19LayeredMaterialInfoE,
                        __ZN19OZMaterialFlatLayer8parseEndER22PCSerializerReadStream, __ZN19OZMaterialFlatLayerC1EP9OZFactoryRK8PCStringj,
                        __ZN19OZMaterialFlatLayerC1ERKS_P15OZChannelFolder, __ZN19OZMaterialFlatLayerC2EP9OZFactoryRK8PCStringj,
                        __ZN19OZMaterialFlatLayerC2ERKS_P15OZChannelFolder, __ZN19OZMaterialFlatLayerD1Ev,
                        __ZN19OZMaterialLayerBase11writeHeaderER23PCSerializerWriteStreamb, __ZN19OZMaterialLayerBase14resetToDefaultEv,
                        __ZN19OZMaterialLayerBase16allowsAssignmentEPK13OZChannelBase, __ZN19OZMaterialLayerBase19getSequenceChannelsEv,
                        __ZN19OZMaterialLayerBase20getTextureTokensLockEv, __ZN19OZMaterialLayerBase22getDefaultSublayerTypeEi,
                        __ZN19OZMaterialLayerBase23layerUIParameterChangedEv, __ZN19OZMaterialLayerBase27showHideLayerSubtypeChannelEv,
                        __ZN19OZMaterialLayerBase38makeMaterialLayerSequenceChannelFolderEv, __ZN19OZMaterialLayerBase8addTokenERK9PCHash128RK19LiTextureStoreToken,
                        __ZN19OZMaterialLayerBase8parseEndER22PCSerializerReadStream, __ZN19OZMaterialLayerBaseC2EP9OZFactoryRK8PCStringP15OZChannelFolderjj,
                        __ZN19OZMaterialLayerBaseC2ERKS_P15OZChannelFolder, __ZN19OZMaterialLayerBaseD1Ev,
                        __ZN19OZObjectManipulator13getPasteEntryEP13OZChannelBase, __ZN19OZObjectManipulator15getHashForStateER23PCSerializerWriteStreamRK14OZRenderParamsRNSt3__14listIPS_NS5_9allocatorIS7_EEEE,
                        __ZN19OZObjectManipulator17appendIndexToNameEv, __ZN19OZObjectManipulator20invalidateStaticHashEv,
                        __ZN19OZObjectManipulator21shouldRenumberChannelEP13OZChannelBase, __ZN19OZObjectManipulator23prepareForDragOperationEP11OZPasteListP13OZChannelBasejj,
                        __ZN19OZObjectManipulator4lockEv, __ZN19OZObjectManipulator6enableEb,
                        __ZN19OZObjectManipulator7disableEb, __ZN19OZObjectManipulator8isCachedER14OZRenderParams,
                        __ZN19OZObjectManipulator9allowDragEP13OZFactoryBaseP13OZChannelBasejPjS4_j, __ZN19OZOscillateBehavior12parseElementER22PCSerializerReadStreamR15PCStreamElement,
                        __ZN19OZOscillateBehavior17didSetChannelInfoEPK13OZChannelInfoP9OZChannel, __ZN19OZOscillateBehavior38didSkipApplyingToNonkeyframableChannelEP9OZChannel,
                        __ZN19OZOscillateBehavior9solveNodeEjRK7FigTimedd, __ZN19OZOscillateBehaviorC1ERKS_j,
                        __ZN19OZOscillateBehaviorC2ERKS_j, __ZN19OZOscillateBehaviorD1Ev,
                        __ZN19OZOscillateBehavioraSERK10OZBehavior, __ZN19OZPreferenceManager11getAutosaveEv,
                        __ZN19OZPreferenceManager11getRendererEv, __ZN19OZPreferenceManager11isVOEnabledEv,
                        __ZN19OZPreferenceManager11setPlayModeEi, __ZN19OZPreferenceManager11setViewModeEi,
                        __ZN19OZPreferenceManager12getGridColorEv, __ZN19OZPreferenceManager12setVOEnabledEb,
                        __ZN19OZPreferenceManager13getDropAtTimeEv, __ZN19OZPreferenceManager13getSpellCheckEv,
                        __ZN19OZPreferenceManager13setDropAtTimeE12OZDropAtTime, __ZN19OZPreferenceManager13setSpellCheckEb,
                        __ZN19OZPreferenceManager14getContentPathER8PCString, __ZN19OZPreferenceManager14getGridSpacingEv,
                        __ZN19OZPreferenceManager14getGuidesColorEv, __ZN19OZPreferenceManager14getVOComponentEv,
                        __ZN19OZPreferenceManager14setGridSpacingEj, __ZN19OZPreferenceManager14setStrokeWidthEd,
                        __ZN19OZPreferenceManager15getGlyphOSCModeEv, __ZN19OZPreferenceManager15getShowToolInfoEv,
                        __ZN19OZPreferenceManager15setGlyphOSCModeEj, __ZN19OZPreferenceManager15setShowToolInfoEb,
                        __ZN19OZPreferenceManager16getAudioSyncModeEv, __ZN19OZPreferenceManager16getInsetViewSizeEv,
                        __ZN19OZPreferenceManager16getRulerLocationEv, __ZN19OZPreferenceManager16postNotificationEj,
                        __ZN19OZPreferenceManager16setInsetViewModeE15OZInsetViewMode, __ZN19OZPreferenceManager16setNumUndoLevelsEi,
                        __ZN19OZPreferenceManager16setUse2DRendererEb, __ZN19OZPreferenceManager17getFilmZonesColorER22PCManagedColorTemplateILN17PCColorSpaceCache2IDE0EE,
                        __ZN19OZPreferenceManager17getLimitFrameRateEv, __ZN19OZPreferenceManager17getPrefetchAmountEv,
                        __ZN19OZPreferenceManager17getSafeZonesColorER22PCManagedColorTemplateILN17PCColorSpaceCache2IDE0EE, __ZN19OZPreferenceManager17getTextViewHeightEv,
                        __ZN19OZPreferenceManager17setFilmZonesColorEP7NSColor, __ZN19OZPreferenceManager17setOverlayOptionsEj,
                        __ZN19OZPreferenceManager17setPreloadFootageEb, __ZN19OZPreferenceManager17setTextViewHeightEf,
                        __ZN19OZPreferenceManager18getCachePercentageEv, __ZN19OZPreferenceManager18getFullViewOpacityEv,
                        __ZN19OZPreferenceManager18getLastVRAMWarningEv, __ZN19OZPreferenceManager18getRotomaskFeatherEv,
                        __ZN19OZPreferenceManager18getTimeDisplayModeEv, __ZN19OZPreferenceManager18setDisplayTimecodeEb,
                        __ZN19OZPreferenceManager18setLargeStillsModeE13OZLargeStills, __ZN19OZPreferenceManager18setMediaTypeColumnEb,
                        __ZN19OZPreferenceManager18setShowCurveEditorEb, __ZN19OZPreferenceManager18setVODuringPlayingEb,
                        __ZN19OZPreferenceManager19getAutosaveIntervalEv, __ZN19OZPreferenceManager19getDropPaletteDelayEv,
                        __ZN19OZPreferenceManager19getInfoBarColorModeEv, __ZN19OZPreferenceManager19getMediaDepthColumnEv,
                        __ZN19OZPreferenceManager19getRecordingOptionsEv, __ZN19OZPreferenceManager19getSmartGuidesColorEv,
                        __ZN19OZPreferenceManager19setAbortSlowRendersEb, __ZN19OZPreferenceManager19setDefaultGroupTypeE18OZDefaultGroupType,
                        __ZN19OZPreferenceManager19setFirstFrameNumberEd, __ZN19OZPreferenceManager19setInfoBarShowColorEb,
                        __ZN19OZPreferenceManager19setMediaInUseColumnEb, __ZN19OZPreferenceManager19setSmartGuidesColorEP7NSColor,
                        __ZN19OZPreferenceManager19updateVODynamicallyEv, __ZN19OZPreferenceManager20getAutosaveVaultPathEv,
                        __ZN19OZPreferenceManager20getGroundPlaneColor1ER14PCWorkingColor, __ZN19OZPreferenceManager20getGroundPlaneColor2ER14PCWorkingColor,
                        __ZN19OZPreferenceManager20getIsStrokeSmoothingEv, __ZN19OZPreferenceManager20getMediaVerticalZoomEv,
                        __ZN19OZPreferenceManager20getRemoveUnusedMediaEv, __ZN19OZPreferenceManager20getRotomaskCurvatureEv,
                        __ZN19OZPreferenceManager20getStrokeOutlineModeEv, __ZN19OZPreferenceManager20getUseTexturedCanvasEv,
                        __ZN19OZPreferenceManager20isGroundPlaneVisibleEv, __ZN19OZPreferenceManager20setAutosaveVaultPathEP8NSString,
                        __ZN19OZPreferenceManager20setGroundPlaneColor1EP7NSColor, __ZN19OZPreferenceManager20setIsStrokeSmoothingEb,
                        __ZN19OZPreferenceManager20setMediaVerticalZoomEd, __ZN19OZPreferenceManager20setRemoveUnusedMediaEb,
                        __ZN19OZPreferenceManager20setRotomaskCurvatureEd, __ZN19OZPreferenceManager20setStrokeOutlineModeEj,
                        __ZN19OZPreferenceManager20setUseHeliumInCanvasEb, __ZN19OZPreferenceManager21get3rdPartyPluginPathEv,
                        __ZN19OZPreferenceManager21getFieldRenderingModeEv, __ZN19OZPreferenceManager21getLayersDisplayMasksEv,
                        __ZN19OZPreferenceManager21getLibraryClickToPlayEv, __ZN19OZPreferenceManager21getMediaPreviewColumnEv,
                        __ZN19OZPreferenceManager21getRotoshapeFillColorER7PCColor, __ZN19OZPreferenceManager21getRotoshapeRoundnessEv,
                        __ZN19OZPreferenceManager21getTaskListAutoclosesEv, __ZN19OZPreferenceManager21set3rdPartyPluginPathEP8NSString,
                        __ZN19OZPreferenceManager21setFieldRenderingModeE20OZFieldRenderingMode, __ZN19OZPreferenceManager21setGroundPlaneSpacingEj,
                        __ZN19OZPreferenceManager21setLayersDisplayMasksEb, __ZN19OZPreferenceManager21setLibraryClickToPlayEb,
                        __ZN19OZPreferenceManager21setMediaPreviewColumnEb, __ZN19OZPreferenceManager21setRotoshapeFillColorEP7NSColor,
                        __ZN19OZPreferenceManager21setRotoshapeStyleNameER8PCString, __ZN19OZPreferenceManager21setTimeViewUpdateModeE20OZTimeViewUpdateMode,
                        __ZN19OZPreferenceManager22getCacheFootageEnabledEv, __ZN19OZPreferenceManager22getDefaultProjectWidthEv,
                        __ZN19OZPreferenceManager22getLayersOpacityColumnEv, __ZN19OZPreferenceManager22getLibraryPhotosSourceEv,
                        __ZN19OZPreferenceManager22getMediaDataRateColumnEv, __ZN19OZPreferenceManager22getMediaFileSizeColumnEv,
                        __ZN19OZPreferenceManager22getRenderingTechnologyEv, __ZN19OZPreferenceManager22resetAutosaveVaultPathEv,
                        __ZN19OZPreferenceManager22setCacheFootageEnabledEb, __ZN19OZPreferenceManager22setDefaultProjectWidthEj,
                        __ZN19OZPreferenceManager22setLayersOpacityColumnEb, __ZN19OZPreferenceManager22setLibraryPhotosSourceEP8NSString,
                        __ZN19OZPreferenceManager22setMediaDataRateColumnEb, __ZN19OZPreferenceManager22setMediaFileSizeColumnEb,
                        __ZN19OZPreferenceManager22setRenderingTechnologyE21LiRenderingTechnology, __ZN19OZPreferenceManager22updateVODuringPlaybackEv,
                        __ZN19OZPreferenceManager23getDefaultProjectHeightEv, __ZN19OZPreferenceManager23getFilmZonesAspectRatioEv,
                        __ZN19OZPreferenceManager23getFreezeCacheVaultPathEv, __ZN19OZPreferenceManager23getLayersDisplayEffectsEv,
                        __ZN19OZPreferenceManager23getMediaAudioRateColumnEv, __ZN19OZPreferenceManager23getMediaFrameSizeColumnEv,
                        __ZN19OZPreferenceManager23getOpticalFlowCachePathEv, __ZN19OZPreferenceManager23getSkipTemplatePreviewsEv,
                        __ZN19OZPreferenceManager23getTimelineDisplayMasksEv, __ZN19OZPreferenceManager23setDefaultProjectHeightEj,
                        __ZN19OZPreferenceManager23setFilmZonesAspectRatioEf, __ZN19OZPreferenceManager23setFreezeCacheVaultPathEP8NSString,
                        __ZN19OZPreferenceManager23setLayersDisplayEffectsEb, __ZN19OZPreferenceManager23setMediaAudioRateColumnEb,
                        __ZN19OZPreferenceManager23setMediaFrameSizeColumnEb, __ZN19OZPreferenceManager23setOpticalFlowCachePathEP8NSString,
                        __ZN19OZPreferenceManager23setSkipTemplatePreviewsEb, __ZN19OZPreferenceManager23setTimelineDisplayMasksEb,
                        __ZN19OZPreferenceManager24getCompensateAspectRatioEv, __ZN19OZPreferenceManager24getDefaultProjectBGColorEv,
                        __ZN19OZPreferenceManager24getPreviewBackgroundModeEv, __ZN19OZPreferenceManager24getRotoshapeOutlineColorEv,
                        __ZN19OZPreferenceManager24getStrokeApplyPenSpeedToEv, __ZN19OZPreferenceManager24setCompensateAspectRatioEb,
                        __ZN19OZPreferenceManager24setHasConvertedAutosavesEb, __ZN19OZPreferenceManager24setPreviewBackgroundModeE23OZPreviewBackgroundMode,
                        __ZN19OZPreferenceManager24setRotoshapeOutlineWidthEd, __ZN19OZPreferenceManager24setTimelineThumbnailModeE23OZTimelineThumbnailMode,
                        __ZN19OZPreferenceManager25getAudioEditorRegionCheckEv, __ZN19OZPreferenceManager25getIsRotoshapeFillEnabledEv,
                        __ZN19OZPreferenceManager25getMediaAudioFormatColumnEv, __ZN19OZPreferenceManager25getPreviewBackgroundColorER22PCManagedColorTemplateILN17PCColorSpaceCache2IDE0EE,
                        __ZN19OZPreferenceManager25getTimelineDisplayEffectsEv, __ZN19OZPreferenceManager25setDefaultProjectDurationEd,
                        __ZN19OZPreferenceManager25setIsRotoshapeFillEnabledEb, __ZN19OZPreferenceManager25setMediaAudioFormatColumnEb,
                        __ZN19OZPreferenceManager25setPreviewBackgroundColorEP7NSColor, __ZN19OZPreferenceManager26getAllowSubframeKeyframingEv,
                        __ZN19OZPreferenceManager26getPublishedTextViewHeightEv, __ZN19OZPreferenceManager26getRotoshapeMaskColorIndexEv,
                        __ZN19OZPreferenceManager26setMediaFileModifiedColumnEb, __ZN19OZPreferenceManager26setRotoshapeMaskColorIndexEi,
                        __ZN19OZPreferenceManager27getDefaultAutosaveVaultPathEv, __ZN19OZPreferenceManager27getFreezeCacheLimitSizeUnitEv,
                        __ZN19OZPreferenceManager27getSafeZonesTitlePercentageEv, __ZN19OZPreferenceManager27getTimelineDisplayBehaviorsEv,
                        __ZN19OZPreferenceManager27setAutosaveCopiesPerProjectEi, __ZN19OZPreferenceManager27setFilmZonesAspectRatioNameEP8NSString,
                        __ZN19OZPreferenceManager27setIsStrokeRecordingWriteOnEb, __ZN19OZPreferenceManager27setStrokeApplyPenPressureToEj,
                        __ZN19OZPreferenceManager27setTimelineDisplayKeyframesEb, __ZN19OZPreferenceManager28getDefaultProjectDurInFramesEd,
                        __ZN19OZPreferenceManager28getIsDefaultStillDurInFramesEv, __ZN19OZPreferenceManager28getSafeZonesActionPercentageEv,
                        __ZN19OZPreferenceManager28getTimelineVideoVerticalZoomEv, __ZN19OZPreferenceManager28setIsDefaultStillDurInFramesEb,
                        __ZN19OZPreferenceManager28setSafeZonesActionPercentageEf, __ZN19OZPreferenceManager28setTimelineVideoVerticalZoomEd,
                        __ZN19OZPreferenceManager29getSometimesSelectParentGroupEv, __ZN19OZPreferenceManager29setSometimesSelectParentGroupEb,
                        __ZN19OZPreferenceManager30getDefaultFreezeCacheVaultPathEv, __ZN19OZPreferenceManager30getUseProjectDurationForStillsEv,
                        __ZN19OZPreferenceManager30setIsDefaultProjectDurInFramesEb, __ZN19OZPreferenceManager33getNewDocumentShowTemplateBrowserEv,
                        __ZN19OZPreferenceManager36getShouldSuppressOlderVersionWarningEv, __ZN19OZPreferenceManager4keysEv,
                        __ZN19OZPreferenceManager7setBoolERK8PCStringb, __ZN19OZPreferenceManager9_instanceE,
                        __ZN19OZPreferenceManager9setSnapToE12OZSnapToType, __ZN19OZPreferenceManagerC2Ev,
                        __ZN19OZPreferenceManagerD1Ev, __ZN19OZProjectPanelState10parseBeginER22PCSerializerReadStream,
                        __ZN19OZProjectPanelState12parseElementER22PCSerializerReadStreamR15PCStreamElement, __ZN19OZProjectPanelState17setDisplayEffectsEb,
                        __ZN19OZProjectPanelState19setDisplayBehaviorsEb, __ZN19OZProjectPanelState19setMediaInUseColumnEb,
                        __ZN19OZProjectPanelState20setMediaVerticalZoomEd, __ZN19OZProjectPanelState21setMediaPreviewColumnEb,
                        __ZN19OZProjectPanelState22setLayersPreviewColumnEb, __ZN19OZProjectPanelState22setMediaDurationColumnEb,
                        __ZN19OZProjectPanelState23setMediaAudioRateColumnEb, __ZN19OZProjectPanelState23setMediaFrameSizeColumnEb,
                        __ZN19OZProjectPanelState25setMediaAudioFormatColumnEb, __ZN19OZProjectPanelState26setMediaFileModifiedColumnEb,
                        __ZN19OZProjectPanelState8parseEndER22PCSerializerReadStream, __ZN19OZProjectPanelStateC1ERKS_,
                        __ZN19OZProjectPanelStateC2ERKS_, __ZN19OZRandomizeBehaviorC1EP9OZFactoryRK8PCStringj,
                        __ZN19OZRandomizeBehaviorC2EP9OZFactoryRK8PCStringj, __ZN19OZRandomizeBehaviorD0Ev,
                        __ZN19OZRandomizeBehaviorD2Ev, __ZN19OZReflexiveBehavior10willRemoveEv,
                        __ZN19OZReflexiveBehavior19setAffectsLeafNodesEb, __ZN19OZReflexiveBehavior22didAddSceneNodeToSceneEP7OZScene,
                        __ZN19OZReflexiveBehavior6notifyEj, __ZN19OZReflexiveBehavior9didInsertEP11OZSceneNodeP10OZBehavior,
                        __ZN19OZReflexiveBehaviorC1ERS_j, __ZN19OZReflexiveBehaviorC2ERS_j,
                        __ZN19OZReflexiveBehaviorD1Ev, __ZN19OZReflexiveBehavioraSERK10OZBehavior,
                        __ZN19OZRepelFromBehaviorC1ERS_j, __ZN19OZRepelFromBehaviorC2ERS_j,
                        __ZN19OZRepelFromBehaviorD1Ev, __ZN19OZRepelFromBehavioraSERK10OZBehavior,
                        __ZN19OZRotoshape_Factory9_instanceE, __ZN19OZShapeRenderParamsC1ERS_b,
                        __ZN19OZShapeRenderParamsC2ERS_b, __ZN19OZShapeRenderParamsD0Ev,
                        __ZN19OZShapeRenderParamsD2Ev, __ZN19OZSnapAlignBehavior11solveHelperEj7FigTimed,
                        __ZN19OZSnapAlignBehavior9solveNodeEjR16OZCurveNodeParam, __ZN19OZSnapAlignBehaviorC1EP9OZFactoryRK8PCStringj,
                        __ZN19OZSnapAlignBehaviorC2EP9OZFactoryRK8PCStringj, __ZN19OZSnapAlignBehaviorD0Ev,
                        __ZN19OZSnapAlignBehaviorD2Ev, __ZN19OZZoomInOutBehavior23addCurveNodesToChannelsEP11OZSceneNode,
                        __ZN19OZZoomInOutBehaviorC1EP9OZFactoryRK8PCStringj, __ZN19OZZoomInOutBehaviorC2EP9OZFactoryRK8PCStringj,
                        __ZN19OZZoomInOutBehaviorD0Ev, __ZN19OZZoomInOutBehaviorD2Ev,
                        __ZN19PCBufferWriteStream10copyBufferEv, __ZN19PCBufferWriteStream4readEPvy,
                        __ZN19PCBufferWriteStream5writeEPKvy, __ZN19PCBufferWriteStream6setPosEy,
                        __ZN19PCBufferWriteStream9getBufferEv, __ZN19PCBufferWriteStreamC2Eii,
                        __ZN19PCBufferWriteStreamD1Ev, __ZN19PCConditionVariable4waitEP7PCMutex,
                        __ZN19PCConditionVariable9broadcastEv, __ZN19PCConditionVariableC2Ev,
                        __ZN19PCConditionVariableD2Ev, __ZN19PCEvaluatorWaveDataC1Eddddddi,
                        __ZN19PCEvaluatorWaveDataC2Eddddddi, __ZN19PCEvaluatorWaveDataD1Ev,
                        __ZN19PCEvaluatorWaveDataaSERKS_, __ZN19PGFramebufferHelper20getFramebufferHandleER13PGFramebuffer,
                        __ZN19PMFormatDescriptionC1ERKS_, __ZN19PMFormatDescriptionC2ERKS_,
                        __ZN19RendererMutexLocker4lockEv, __ZN19RendererMutexLockerC1EP10HGRenderer,
                        __ZN19RendererMutexLockerD1Ev, __ZN19SimplePoolingPolicy14setMaxPoolSizeEm,
                        __ZN19SimplePoolingPolicy26setMaxFinishQueueSizeRatioEf, __ZN19SimplePoolingPolicy9renderEndEv,
                        __ZN19SimplePoolingPolicyC2Ev, __ZN19SimplePoolingPolicyD1Ev,
                        __ZN19TXCachedGlyphRender11getBoundaryER7LiAgentP6PCRectIdE, __ZN19TXCachedGlyphRender20estimateRenderMemoryERNSt3__13setI9PCHash128NS0_4lessIS2_EENS0_9allocatorIS2_EEEE,
                        __ZN19TXCachedGlyphRender9getHeliumER7LiAgent, __ZN19TXCachedGlyphRenderC2EP12TXTextLayoutP12TXTextObjectRK14OZRenderParamsj,
                        __ZN19TXCrawlLeftBehaviorC1EP9OZFactoryRK8PCStringj, __ZN19TXCrawlLeftBehaviorC2EP9OZFactoryRK8PCStringj,
                        __ZN19TXCrawlLeftBehaviorD0Ev, __ZN19TXCrawlLeftBehaviorD2Ev,
                        __ZN19TXSequenceCurveNode9solveNodeERK7FigTimedd, __ZN19TXSequenceCurveNodeC1ERKS_,
                        __ZN19TXSequenceCurveNodeC2ERKS_, __ZN19TXSequenceCurveNodeD1Ev,
                        __ZN19TXTextInput_Factory9_instanceE, __ZN19TXTimeDateGenerator10parseBeginER22PCSerializerReadStream,
                        __ZN19TXTimeDateGenerator11setTimeDateE7FigTimeP6NSDate, __ZN19TXTimeDateGenerator13didAddToSceneEP7OZScene,
                        __ZN19TXTimeDateGenerator15updateFormatterEv, __ZN19TXTimeDateGenerator18setCurrentTimeDateE7FigTime,
                        __ZN19TXTimeDateGenerator24_TXTimeDateGenerator_endE, __ZN19TXTimeDateGenerator30_TXTimeDateGenerator_dateStyleE,
                        __ZN19TXTimeDateGenerator30_TXTimeDateGenerator_valueInfoE, __ZN19TXTimeDateGenerator9writeBodyER23PCSerializerWriteStreambbb,
                        __ZN19TXTimeDateGeneratorC1ERKS_j, __ZN19TXTimeDateGeneratorC2ERKS_j,
                        __ZN19TXTimeDateGeneratorD1Ev, __ZN19TXTimecodeGenerator16prepareForRenderERK13OZRenderState,
                        __ZN19TXTimecodeGenerator18showBackgroundRectEv, __ZN19TXTimecodeGenerator29setTimecodeBaseForMotionOrFCPEbb,
                        __ZN19TXTimecodeGeneratorC1EP9OZFactoryRK8PCStringj, __ZN19TXTimecodeGeneratorC2EP9OZFactoryRK8PCStringj,
                        __ZN19TXTimecodeGeneratorD0Ev, __ZN19TXTimecodeGeneratorD2Ev,
                        __ZN20DefaultPaddingPolicy10adjustRectE6HGRect, __ZN20DefaultPaddingPolicyC2Ev,
                        __ZN20DefaultPaddingPolicyD1Ev, __ZN20DepthBufferPushGuardC1ER18DepthBufferManager,
                        __ZN20DepthBufferPushGuardD1Ev, __ZN20DiffuseMaterialLayer10getDiffuseERK22LiMaterialLayerUniformR17LiLightPropertiesRK17SurfaceProperties,
                        __ZN20DiffuseMaterialLayer12setBlendModeENS_9BlendModeE, __ZN20DiffuseMaterialLayer15AddDiffuseColor4evalERK12LayerContextR17SurfaceProperties,
                        __ZN20DiffuseMaterialLayer19ReplaceDiffuseColor4evalERK12LayerContextR17SurfaceProperties, __ZN20DiffuseMaterialLayer20MultiplyDiffuseColor4evalERK12LayerContextR17SurfaceProperties,
                        __ZN20DiffuseMaterialLayer26SimpleMultiplyDiffuseColor4evalERK12LayerContextR17SurfaceProperties, __ZN20DiffuseMaterialLayer29OverWhiteMultiplyDiffuseColor4evalERK12LayerContextR17SurfaceProperties,
                        __ZN20DiffuseMaterialLayer9writeHashER17PCHashWriteStream, __ZN20DiffuseMaterialLayerC2EPv,
                        __ZN20HGAnisotropicSampler10RenderPageEP6HGPage, __ZN20HGAnisotropicSampler11BindTextureEP9HGHandleri,
                        __ZN20HGAnisotropicSampler4InitEP10HGRendererP18HGAnisotropicXFormP8HGMipmapii6HGRect, __ZN20HGAnisotropicSampler6GetROIEP10HGRendereri6HGRect,
                        __ZN20HGAnisotropicSampler7GetPageEP6HGPage6HGRectS2_12HGFilterModeji, __ZN20HGAnisotropicSampler9GetOutputEP10HGRenderer,
                        __ZN20HGAnisotropicSamplerC2Ev, __ZN20HGAnisotropicSamplerD1Ev,
                        __ZN20HGCVGLTextureFactory14_createTextureE5HGRefI10HGCVBitmapE, __ZN20HGCVGLTextureFactory6createE5HGRefI10HGCVBitmapE,
                        __ZN20HGCVGLTextureFactory6createEP10__CVBuffer8HGFormatm, __ZN20HGCVGLTextureFactoryC2E14HGGLContextPtrf,
                        __ZN20HGCVGLTextureFactoryD1Ev, __ZN20HUnderwaterRefractV213SetMaxOffsetsEff,
                        __ZN20HUnderwaterRefractV26GetROIEP10HGRendereri6HGRect, __ZN20HUnderwaterRefractV2C1Ev,
                        __ZN20HUnderwaterRefractV2D0Ev, __ZN20HUnderwaterRefractV2D2Ev,
                        __ZN20HgcContrastBezierRGB10RenderTileEP6HGTile, __ZN20HgcContrastBezierRGB12GetParameterEiPf,
                        __ZN20HgcContrastBezierRGB4BindEP9HGHandler, __ZN20HgcContrastBezierRGB6GetROIEP10HGRendereri6HGRect,
                        __ZN20HgcContrastBezierRGBC1Ev, __ZN20HgcContrastBezierRGBD0Ev,
                        __ZN20HgcContrastBezierRGBD2Ev, __ZN20HgcMaskCompFirstPass10RenderTileEP6HGTile,
                        __ZN20HgcMaskCompFirstPass12GetParameterEiPf, __ZN20HgcMaskCompFirstPass4BindEP9HGHandler,
                        __ZN20HgcMaskCompFirstPass6GetROIEP10HGRendereri6HGRect, __ZN20HgcMaskCompFirstPassC1Ev,
                        __ZN20HgcMaskCompFirstPassD0Ev, __ZN20HgcMaskCompFirstPassD2Ev,
                        __ZN20HgcMaskCompIntersect10RenderTileEP6HGTile, __ZN20HgcMaskCompIntersect12GetParameterEiPf,
                        __ZN20HgcMaskCompIntersect4BindEP9HGHandler, __ZN20HgcMaskCompIntersect6GetROIEP10HGRendereri6HGRect,
                        __ZN20HgcMaskCompIntersectC1Ev, __ZN20HgcMaskCompIntersectD0Ev,
                        __ZN20HgcMaskCompIntersectD2Ev, __ZN20LiCachedGaussianBlur17fixPixelTransformER7LiAgentP14PCMatrix44TmplIdERK18LiRenderParameters,
                        __ZN20LiCachedGaussianBlur9getHeliumER7LiAgent, __ZN20LiCachedGaussianBlurC2E5PCPtrI12TXTextObjectERK14OZRenderParams,
                        __ZN20LiHeLightDirectionalC1Ev, __ZN20LiHeLightDirectionalC2Ev,
                        __ZN20LiHeLightDirectionalD1Ev, __ZN20LiHeLightSpotSurface16setScreenToLocalERK14PCMatrix44TmplIdE,
                        __ZN20LiHeLightSpotSurfaceC1Ev, __ZN20LiHeLightSpotSurfaceC2Ev,
                        __ZN20LiHeLightSpotSurfaceD1Ev, __ZN20LiHeReflectionShader10GetProgramEP10HGRenderer,
                        __ZN20LiHeReflectionShader11BindTextureEP9HGHandleri, __ZN20LiHeReflectionShader12SetParameterEiffff,
                        __ZN20LiHeReflectionShader6GetDODEP10HGRendereri6HGRect, __ZN20LiHeReflectionShader9GetOutputEP10HGRenderer,
                        __ZN20LiHeReflectionShaderC2Ev, __ZN20LiHeReflectionShaderD1Ev,
                        __ZN20LiHeSpotLightStencil6GetDODEP10HGRendereri6HGRect, __ZN20LiHeSpotLightStencilC1ERK5HGRefI6HGNodeERK9PCVector3IdES8_S8_ffRK14PCMatrix44TmplIdE,
                        __ZN20LiHeSpotLightStencilC2ERK5HGRefI6HGNodeERK9PCVector3IdES8_S8_ffRK14PCMatrix44TmplIdE, __ZN20LiMaterialProperties10getZExtentERK14PCMatrix44TmplIdERK6PCRectIdE,
                        __ZN20LiMaterialPropertiesC2Ev, __ZN20LiMaterialPropertiesD2Ev,
                        __ZN20LiTextureCoordinator29setAnyTextureWithTransparencyEb, __ZN20LiTextureCoordinatorC2Ev,
                        __ZN20LiTextureCoordinatorD1Ev, __ZN20LiTextureFactoryImplC2ERK9PCHash128,
                        __ZN20LiTextureFactoryImplD1Ev, __ZN20LiTextureImageSource20estimateRenderMemoryERNSt3__13setI9PCHash128NS0_4lessIS2_EENS0_9allocatorIS2_EEEE,
                        __ZN20LiTextureImageSource9getHeliumER7LiAgent, __ZN20OZATSUIGlyphRenderer12renderWithCGEPK7TXGlyphPK14TXCoreTextFontjdbdPPvP18PCColorSpaceHandleR6PCRectIdERdP14PCMatrix33TmplIdEbb,
                        __ZN20OZATSUIGlyphRenderer19createBitmapContextEiiPPvbP18PCColorSpaceHandle, __ZN20OZATSUIGlyphRenderer9_instanceE,
                        __ZN20OZATSUIGlyphRendererC2Ev, __ZN20OZATSUIGlyphRendererD1Ev,
                        __ZN20OZAudioLayer_Factory9_instanceE, __ZN20OZBezierInterpolator14uForCurveValueER8OZSplinePvS2_RK7FigTimeS5_dRNSt3__16vectorIS3_NS6_9allocatorIS3_EEEE,
                        __ZN20OZBezierInterpolator15getMinMaxValuesER8OZSplinePvS2_RK7FigTimeS5_PdS6_, __ZN20OZBezierInterpolator4evalEPdd,
                        __ZN20OZBezierInterpolator9subDivideER8OZSplineRK7FigTimePvS5_S5_, __ZN20OZBezierInterpolatorC2Ev,
                        __ZN20OZBezierInterpolatorD1Ev, __ZN20OZChanObjectManipRef11setObjectIDEj,
                        __ZN20OZChanObjectManipRef25_OZChanObjectManipRefImplE, __ZN20OZChanObjectManipRef27setAlwaysUpdateDefaultValueEb,
                        __ZN20OZChanObjectManipRefC1EP9OZFactoryRK8PCStringP15OZChannelFolderjj, __ZN20OZChanObjectManipRefC1EP9OZFactoryRKS_P15OZChannelFolder,
                        __ZN20OZChanObjectManipRefC1ERK8PCStringP15OZChannelFolderjj, __ZN20OZChanObjectManipRefC1EdRK8PCStringP15OZChannelFolderjj,
                        __ZN20OZChanObjectManipRefC2EP9OZFactoryRK8PCStringj, __ZN20OZChanObjectManipRefC2EP9OZFactorydRK8PCStringP15OZChannelFolderjj,
                        __ZN20OZChanObjectManipRefC2ERKS_P15OZChannelFolder, __ZN20OZChanObjectManipRefD0Ev,
                        __ZN20OZChanObjectManipRefD2Ev, __ZN20OZChannel2DOverRange10parseBeginER22PCSerializerReadStream,
                        __ZN20OZChannel2DOverRange14moveKeypointToERK7FigTimeS2_bb, __ZN20OZChannel2DOverRange17getValueOverRangeERK7FigTimedPdS3_,
                        __ZN20OZChannel2DOverRange17setValueOverRangeERK7FigTimeddd, __ZN20OZChannel2DOverRange18getObjCWrapperNameEv,
                        __ZN20OZChannel2DOverRange8parseEndER22PCSerializerReadStream, __ZN20OZChannel2DOverRangeC1EP9OZFactoryRK8PCStringP15OZChannelFolderjjP13OZChannelImplP13OZChannelInfo,
                        __ZN20OZChannel2DOverRangeC1ERK8PCStringP15OZChannelFolderjjP13OZChannelImplP13OZChannelInfo, __ZN20OZChannel2DOverRangeC1EddRK8PCStringP15OZChannelFolderjjP13OZChannelImplP13OZChannelInfo,
                        __ZN20OZChannel2DOverRangeC2EP9OZFactoryRK8PCStringj, __ZN20OZChannel2DOverRangeC2ERKS_P15OZChannelFolder,
                        __ZN20OZChannelAspectRatio18getObjCWrapperNameEv, __ZN20OZChannelAspectRatio25_OZChannelAspectRatioInfoE,
                        __ZN20OZChannelRetimeFrameC1ERKS_P15OZChannelFolder, __ZN20OZChannelRetimeFrameC2EP9OZFactoryRK8PCStringj,
                        __ZN20OZChannelRetimeFrameC2EdRK8PCStringP15OZChannelFolderjj, __ZN20OZChannelRetimeFrameD1Ev,
                        __ZN20OZConvexInterpolator11interpolateER8OZSplineRK7FigTimePvS5_S4_bb, __ZN20OZConvexInterpolatorC1Ev,
                        __ZN20OZConvexInterpolatorD0Ev, __ZN20OZConvexInterpolatorD2Ev,
                        __ZN20OZDollyInOutBehavior9solveNodeEjRK7FigTimedd, __ZN20OZDollyInOutBehaviorC1ERKS_j,
                        __ZN20OZDollyInOutBehaviorC2ERKS_j, __ZN20OZDollyInOutBehaviorD1Ev,
                        __ZN20OZDollyInOutBehavioraSERK10OZBehavior, __ZN20OZEaseInInterpolator14uForCurveValueER8OZSplinePvS2_RK7FigTimeS5_dRNSt3__16vectorIS3_NS6_9allocatorIS3_EEEE,
                        __ZN20OZEaseInInterpolator9subDivideER8OZSplineRK7FigTimePvS5_S5_, __ZN20OZFadeInOutCurveNode9cloneNodeEv,
                        __ZN20OZFadeInOutCurveNode9solveNodeERK7FigTimedd, __ZN20OZFadeInOutCurveNodeC1ERKS_,
                        __ZN20OZFadeInOutCurveNodeC2ERKS_, __ZN20OZFadeInOutCurveNodeD1Ev,
                        __ZN20OZGrowShrinkBehavior10willRemoveEv, __ZN20OZGrowShrinkBehavior13getScaleRatesE7FigTimePdS1_,
                        __ZN20OZGrowShrinkBehavior14getYMultiplierE7FigTime, __ZN20OZGrowShrinkBehavior16getHUDScaleRatesEPdS0_,
                        __ZN20OZGrowShrinkBehavior16setHUDScaleRatesEdd, __ZN20OZGrowShrinkBehavior17updateHiddenFlagsEPNSt3__14listIP10OZBehaviorNS0_9allocatorIS3_EEEE,
                        __ZN20OZGrowShrinkBehavior18isRebuildUIChannelEP13OZChannelBase, __ZN20OZGrowShrinkBehavior35_OZGrowShrinkBehavior_scaleDestChanE,
                        __ZN20OZGrowShrinkBehavior39_OZGrowShrinkBehavior_endTimeOffsetChanE, __ZN20OZGrowShrinkBehavior39_OZGrowShrinkBehavior_incrementTypeChanE,
                        __ZN20OZGrowShrinkBehavior39_OZGrowShrinkBehavior_scaleRateChanInfoE, __ZN20OZGrowShrinkBehaviorC1EP9OZFactoryRK8PCStringj,
                        __ZN20OZGrowShrinkBehaviorC2EP9OZFactoryRK8PCStringj, __ZN20OZGrowShrinkBehaviorD0Ev,
                        __ZN20OZGrowShrinkBehaviorD2Ev, __ZN20OZHackedPMRAutoTimerC1EPK10__CFStringS2_S2_d,
                        __ZN20OZHackedPMRAutoTimerD1Ev, __ZN20OZLinearInterpolator11interpolateER8OZSplineRK7FigTimePvS5_S4_bb,
                        __ZN20OZLinearInterpolator15getMinMaxValuesER8OZSplinePvS2_RK7FigTimeS5_PdS6_, __ZN20OZLinearInterpolatorC1Ev,
                        __ZN20OZLinearInterpolatorD0Ev, __ZN20OZLinearInterpolatorD2Ev,
                        __ZN20OZMaterialStatistics15registerTextureERKN5ProGL13TextureHandleE, __ZN20OZMaterialStatisticsC1Ev,
                        __ZN20OZMotionPathBehavior10parseBeginER22PCSerializerReadStream, __ZN20OZMotionPathBehavior12isEvalCyclicEv,
                        __ZN20OZMotionPathBehavior14setPathChannelEP19OZChannelPosition3D, __ZN20OZMotionPathBehavior15initializePathsEv,
                        __ZN20OZMotionPathBehavior16setInterpolationEv, __ZN20OZMotionPathBehavior17updateHiddenFlagsEPNSt3__14listIP10OZBehaviorNS0_9allocatorIS3_EEEE,
                        __ZN20OZMotionPathBehavior18isRebuildUIChannelEP13OZChannelBase, __ZN20OZMotionPathBehavior21getInitialTranslationE7FigTimePdS1_S1_,
                        __ZN20OZMotionPathBehavior28_OZMotionPathBehavior_radiusE, __ZN20OZMotionPathBehavior31_OZMotionPathBehavior_frequencyE,
                        __ZN20OZMotionPathBehavior33_OZMotionPathBehavior_waveDampingE, __ZN20OZMotionPathBehavior35_OZMotionPathBehavior_frequencyInfoE,
                        __ZN20OZMotionPathBehavior35_OZMotionPathBehavior_waveFrequencyE, __ZN20OZMotionPathBehavior37_OZMotionPathBehavior_waveDampingInfoE,
                        __ZN20OZMotionPathBehavior39_OZMotionPathBehavior_waveAmplitudeInfoE, __ZN20OZMotionPathBehavior5resetEv,
                        __ZN20OZMotionPathBehavior8parseEndER22PCSerializerReadStream, __ZN20OZMotionPathBehaviorC1EP9OZFactoryRK8PCStringj,
                        __ZN20OZMotionPathBehaviorC2EP9OZFactoryRK8PCStringj, __ZN20OZMotionPathBehaviorD0Ev,
                        __ZN20OZMotionPathBehaviorD2Ev, __ZN20OZProcessInstruction7_nextIDE,
                        __ZN20OZProcessInstructionC2EjPKci, __ZN20OZSCurveInterpolator9subDivideER8OZSplineRK7FigTimePvS5_S5_,
                        __ZN20OZSCurveInterpolatorC2Ev, __ZN20OZSCurveInterpolatorD1Ev,
                        __ZN20OZSimulationBehavior11accumForcesEP15OZSimStateArrayP15OZTransformNode, __ZN20OZSimulationBehavior16_MTF_IDGeneratorE,
                        __ZN20OZSimulationBehavior17canAddToSceneNodeEP11OZSceneNode, __ZN20OZSimulationBehaviorC1EP9OZFactoryRK8PCStringj,
                        __ZN20OZSimulationBehaviorC2EP9OZFactoryRK8PCStringj, __ZN20OZSimulationBehaviorD0Ev,
                        __ZN20OZSimulationBehaviorD2Ev, __ZN20OZSplineInterpolator11interpolateER8OZSplineRK7FigTimePvS5_dbb,
                        __ZN20OZSplineInterpolator24convertHandlesToTangentsER8OZSplinePdS2_, __ZN20OZSplineInterpolator4evalEPdd,
                        __ZN20OZSplineInterpolator9bisectionEPdd, __ZN20OZSplineInterpolatorC2Ev,
                        __ZN20OZSplineInterpolatorD1Ev, __ZN20OZTransitiveBehavior10clearScopeEv,
                        __ZN20OZTransitiveBehavior10willRemoveEv, __ZN20OZTransitiveBehavior12didAddToNodeEP11OZSceneNode,
                        __ZN20OZTransitiveBehavior17canAddToSceneNodeEP11OZSceneNode, __ZN20OZTransitiveBehavior18addToAffectedNodesEP11OZSceneNode,
                        __ZN20OZTransitiveBehavior18updateReferenceIDsEPNSt3__13mapIjjNS0_4lessIjEENS0_9allocatorINS0_4pairIKjjEEEEEE, __ZN20OZTransitiveBehavior22didAddSceneNodeToSceneEP7OZScene,
                        __ZN20OZTransitiveBehavior23removeFromAffectedNodesEj, __ZN20OZTransitiveBehavior5dirtyEv,
                        __ZN20OZTransitiveBehavior8parseEndER22PCSerializerReadStream, __ZN20OZTransitiveBehavior9didInsertEP11OZSceneNodeP10OZBehavior,
                        __ZN20OZTransitiveBehaviorC1EP9OZFactoryRK8PCStringj, __ZN20OZTransitiveBehaviorC2EP9OZFactoryRK8PCStringj,
                        __ZN20OZTransitiveBehaviorD0Ev, __ZN20OZTransitiveBehaviorD2Ev,
                        __ZN20OZZoomObjectBehavior10flushCacheEv, __ZN20OZZoomObjectBehavior9solveNodeEjRK7FigTimedd,
                        __ZN20OZZoomObjectBehaviorC1ERKS_j, __ZN20OZZoomObjectBehaviorC2ERKS_j,
                        __ZN20OZZoomObjectBehaviorD1Ev, __ZN20OZZoomObjectBehavioraSERK10OZBehavior,
                        __ZN20PCWorkingColorVector7setRGBAEffff, __ZN20PCWorkingColorVectorC1Effff,
                        __ZN20PCWorkingColorVectorC2ERK14PCWorkingColor, __ZN20PCWorkingColorVectorC2Ev,
                        __ZN20PCWorkingColorVectormLERKS_, __ZN20PCWorkingColorVectorpLERKS_,
                        __ZN20PSReplicator_Factory9_instanceE, __ZN20TXCrawlRightBehaviorC1EP9OZFactoryRK8PCStringj,
                        __ZN20TXCrawlRightBehaviorC2EP9OZFactoryRK8PCStringj, __ZN20TXCrawlRightBehaviorD0Ev,
                        __ZN20TXCrawlRightBehaviorD2Ev, __ZN20TXScrollDownBehavior10getYOffsetE7FigTime,
                        __ZN20TXScrollDownBehaviorC1ERKS_j, __ZN20TXScrollDownBehaviorC2ERKS_j,
                        __ZN20TXScrollDownBehaviorD1Ev, __ZN20TXScrollDownBehavioraSERK10OZBehavior,
                        __ZN20TXTextScrollBehavior10parseBeginER22PCSerializerReadStream, __ZN20TXTextScrollBehavior12didAddToNodeEP11OZSceneNode,
                        __ZN20TXTextScrollBehavior17updateHiddenFlagsEPNSt3__14listIP10OZBehaviorNS0_9allocatorIS3_EEEE, __ZN20TXTextScrollBehavior20initializeParametersEv,
                        __ZN20TXTextScrollBehavior21hideShowChannelsInHUDEv, __ZN20TXTextScrollBehavior22getAdaptiveLineSpacingEv,
                        __ZN20TXTextScrollBehavior6notifyEj, __ZN20TXTextScrollBehaviorC1EP9OZFactoryRK8PCStringj,
                        __ZN20TXTextScrollBehaviorC2EP9OZFactoryRK8PCStringj, __ZN20TXTextScrollBehavioraSERK10OZBehavior,
                        __ZN21EmissiveMaterialLayer13computeNormalERK12LayerContextR17SurfaceProperties, __ZN21EmissiveMaterialLayerC1EPv,
                        __ZN21FxBalancedBlendRecord9setWeightEd, __ZN21FxBalancedBlendRecordC1Ev,
                        __ZN21FxBalancedBlendRecordC2Ev, __ZN21HGColorConformLUTData10getBytePtrEv,
                        __ZN21HGColorConformLUTData4copyEPKhmbm, __ZN21HGColorConformLUTDataC1Em8HGFormat,
                        __ZN21HGColorConformLUTDataD0Ev, __ZN21HGColorConformLUTDataD2Ev,
                        __ZN21HGLazyPDFBitmapLoader10RenderTileEP6HGTile, __ZN21HGLazyPDFBitmapLoader10setPDFSizeEii,
                        __ZN21HGLazyPDFBitmapLoader16_isPremultipliedE, __ZN21HGLazyPDFBitmapLoader25generatePlaceHolderBitmapEv,
                        __ZN21HGLazyPDFBitmapLoader8setImageERKNSt3__110shared_ptrI8PCBitmapEEP8HGBitmap, __ZN21HGLazyPDFBitmapLoaderC1EP14OZImageElementRK14OZRenderParamsP12CGColorSpace,
                        __ZN21HGLazyPDFBitmapLoaderD0Ev, __ZN21HGLazyPDFBitmapLoaderD2Ev,
                        __ZN21HGPBOReadbackExecUnit18ExecutePBOReadbackEP16HGPBOReadbackJob, __ZN21HGPBOReadbackExecUnitC1E14HGGLContextPtrP13HGRenderQueue,
                        __ZN21HGPBOReadbackExecUnitD0Ev, __ZN21HGPBOReadbackExecUnitD2Ev,
                        __ZN21HgcBlur_cs9s_opt_rect10GetProgramEP10HGRenderer, __ZN21HgcBlur_cs9s_opt_rect11BindTextureEP9HGHandleri,
                        __ZN21HgcBlur_cs9s_opt_rect12SetParameterEiffff, __ZN21HgcBlur_cs9s_opt_rect6GetDODEP10HGRendereri6HGRect,
                        __ZN21HgcBlur_cs9s_opt_rect9GetOutputEP10HGRenderer, __ZN21HgcBlur_cs9s_opt_rectC2Ev,
                        __ZN21HgcBlur_cs9s_opt_rectD1Ev, __ZN21HgcBlur_g4u2_noborder10GetProgramEP10HGRenderer,
                        __ZN21HgcBlur_g4u2_noborder11BindTextureEP9HGHandleri, __ZN21HgcBlur_g4u2_noborder12SetParameterEiffff,
                        __ZN21HgcBlur_g4u2_noborder6GetDODEP10HGRendereri6HGRect, __ZN21HgcBlur_g4u2_noborder9GetOutputEP10HGRenderer,
                        __ZN21HgcBlur_g4u2_noborderC2Ev, __ZN21HgcBlur_g4u2_noborderD1Ev,
                        __ZN21HgcColorBalanceNoClip10GetProgramEP10HGRenderer, __ZN21HgcColorBalanceNoClip11BindTextureEP9HGHandleri,
                        __ZN21HgcColorBalanceNoClip12SetParameterEiffff, __ZN21HgcColorBalanceNoClip6GetDODEP10HGRendereri6HGRect,
                        __ZN21HgcColorBalanceNoClip9GetOutputEP10HGRenderer, __ZN21HgcColorBalanceNoClipC2Ev,
                        __ZN21HgcColorBalanceNoClipD1Ev, __ZN21HgcContrastBezierLuma10GetProgramEP10HGRenderer,
                        __ZN21HgcContrastBezierLuma11BindTextureEP9HGHandleri, __ZN21HgcContrastBezierLuma12SetParameterEiffff,
                        __ZN21HgcContrastBezierLuma6GetDODEP10HGRendereri6HGRect, __ZN21HgcContrastBezierLuma9GetOutputEP10HGRenderer,
                        __ZN21HgcContrastBezierLumaC2Ev, __ZN21HgcContrastBezierLumaD1Ev,
                        __ZN21HgcNormalMapToBumpMap10GetProgramEP10HGRenderer, __ZN21HgcNormalMapToBumpMap11BindTextureEP9HGHandleri,
                        __ZN21HgcNormalMapToBumpMap12SetParameterEiffff, __ZN21HgcNormalMapToBumpMap6GetDODEP10HGRendereri6HGRect,
                        __ZN21HgcNormalMapToBumpMap9GetOutputEP10HGRenderer, __ZN21HgcNormalMapToBumpMapC2Ev,
                        __ZN21HgcNormalMapToBumpMapD1Ev, __ZN21HgcShapeGradientBlend10GetProgramEP10HGRenderer,
                        __ZN21HgcShapeGradientBlend11BindTextureEP9HGHandleri, __ZN21HgcShapeGradientBlend12SetParameterEiffff,
                        __ZN21HgcShapeGradientBlend6GetDODEP10HGRendereri6HGRect, __ZN21HgcShapeGradientBlend9GetOutputEP10HGRenderer,
                        __ZN21HgcShapeGradientBlendC2Ev, __ZN21HgcShapeGradientBlendD1Ev,
                        __ZN21HgcThresholdNoPremult10GetProgramEP10HGRenderer, __ZN21HgcThresholdNoPremult11BindTextureEP9HGHandleri,
                        __ZN21HgcThresholdNoPremult12SetParameterEiffff, __ZN21HgcThresholdNoPremult6GetDODEP10HGRendereri6HGRect,
                        __ZN21HgcThresholdNoPremult9GetOutputEP10HGRenderer, __ZN21HgcThresholdNoPremultC2Ev,
                        __ZN21HgcThresholdNoPremultD1Ev, __ZN21LiAgentRendererSentryC1ER7LiAgentP10HGRenderer,
                        __ZN21LiAgentRendererSentryD1Ev, __ZN21LiHeLightPointSurface16setScreenToLocalERK14PCMatrix44TmplIdE,
                        __ZN21LiHeLightPointSurfaceC1Ev, __ZN21LiHeLightPointSurfaceC2Ev,
                        __ZN21LiHeLightPointSurfaceD1Ev, __ZN21LiHePointLightStencil6GetDODEP10HGRendereri6HGRect,
                        __ZN21LiHePointLightStencilC1ERK5HGRefI6HGNodeERK9PCVector3IdES8_RK14PCMatrix44TmplIdE, __ZN21LiHePointLightStencilC2ERK5HGRefI6HGNodeERK9PCVector3IdES8_RK14PCMatrix44TmplIdE,
                        __ZN21LiHeShadowProgramPCSS10GetProgramEP10HGRenderer, __ZN21LiHeShadowProgramPCSS11BindTextureEP9HGHandleri,
                        __ZN21LiHeShadowProgramPCSS12SetParameterEiffff, __ZN21LiHeShadowProgramPCSS6GetDODEP10HGRendereri6HGRect,
                        __ZN21LiHeShadowProgramPCSS9GetOutputEP10HGRenderer, __ZN21LiHeShadowProgramPCSSC2Ev,
                        __ZN21LiHeShadowProgramPCSSD1Ev, __ZN21LiHeShadowProgramSoft10GetProgramEP10HGRenderer,
                        __ZN21LiHeShadowProgramSoft11BindTextureEP9HGHandleri, __ZN21LiHeShadowProgramSoft12SetParameterEiffff,
                        __ZN21LiHeShadowProgramSoft6GetDODEP10HGRendereri6HGRect, __ZN21LiHeShadowProgramSoft9GetOutputEP10HGRenderer,
                        __ZN21LiHeShadowProgramSoftC2Ev, __ZN21LiHeShadowProgramSoftD1Ev,
                        __ZN21LiHeSolidRendererNode10RenderPageEP6HGPage, __ZN21LiHeSolidRendererNode13setCameraInfoEPK8LiCamera,
                        __ZN21LiHeSolidRendererNode16prepareAllLightsEP13LiSceneObject, __ZN21LiHeSolidRendererNode20collectInputTexturesERN5ProGL2GLEP6HGPageRNSt3__16vectorI5HGRefI8HGBufferENS5_9allocatorIS9_EEEE,
                        __ZN21LiHeSolidRendererNode33createHeliumNodesFromImageSourcesERK5PCPtrI13LiSceneObjectEPK18LiRenderParameters, __ZN21LiHeSolidRendererNode6GetDODEP10HGRendereri6HGRect,
                        __ZN21LiHeSolidRendererNode8SetInputEiP6HGNode, __ZN21LiHeSolidRendererNode9setAATypeEi,
                        __ZN21LiHeSolidRendererNodeC2Ev, __ZN21LiHeSolidRendererNodeD1Ev,
                        __ZN21LiMaterialSamplerInfo3setERKN8ProShade7SamplerERK19LiTextureStoreTokenbRK14PCMatrix44TmplIdE, __ZN21LiMaterialSamplerInfo3setERKN8ProShade7SamplerERKN5ProGL13TextureHandleERK14PCMatrix44TmplIdE,
                        __ZN21LiRendererMutexLocker4lockEv, __ZN21LiRendererMutexLockerC1EP10HGRenderer,
                        __ZN21LiRendererMutexLockerD1Ev, __ZN21LiRenderingTechnology11setBitDepthEN10PCBitDepth4TypeE,
                        __ZN21LiRenderingTechnology12setLogHeliumEb, __ZN21LiRenderingTechnology12setShowDepthEb,
                        __ZN21LiRenderingTechnology14setFlagAtIndexEjb, __ZN21LiRenderingTechnology15setLogHeliumDotEb,
                        __ZN21LiRenderingTechnology16setNumberOfCoresEi, __ZN21LiRenderingTechnology16setVirtualScreenEi,
                        __ZN21LiRenderingTechnology17setRasterizeEdgesEb, __ZN21LiRenderingTechnology18setDoConcatenationEb,
                        __ZN21LiRenderingTechnology20setDisableProxyScrubEb, __ZN21LiRenderingTechnology21setNumberOfCoresToUseEi,
                        __ZN21LiRenderingTechnology22setUseHalfHeightFieldsEb, __ZN21LiRenderingTechnology23setDefocusIntersectionsEb,
                        __ZN21LiRenderingTechnology28setDisableAdaptiveProxyScrubEb, __ZN21LiRenderingTechnology8getFlagsEv,
                        __ZN21LiRenderingTechnology8setIsCPUEb, __ZN21LiRenderingTechnologyC1Ev,
                        __ZN21MultiGPUPoolingPolicy11setStrategyEb, __ZN21MultiGPUPoolingPolicy14_needsCleaningE5HGRefI19HGTexturePoolHandleE,
                        __ZN21MultiGPUPoolingPolicy16setMaxTextureAgeEf, __ZN21MultiGPUPoolingPolicy18preAllocateTextureEjjjjj,
                        __ZN21MultiGPUPoolingPolicy20setMaxQueueSizeRatioEf, __ZN21MultiGPUPoolingPolicy21setMaxUnusedSizeRatioEf,
                        __ZN21MultiGPUPoolingPolicy9renderEndEv, __ZN21MultiGPUPoolingPolicyC2Ev,
                        __ZN21MultiGPUPoolingPolicyD1Ev, __ZN21OZAttractedToBehavior11accumForcesEP15OZSimStateArrayP15OZTransformNode,
                        __ZN21OZAttractedToBehavior13getMaskVectorEP9PCVector3IdEPj, __ZN21OZAttractedToBehavior14calcAttractionEP17OZSimulationStateP15OZTransformNodeP9PCVector3IdE,
                        __ZN21OZAttractedToBehavior17getReferencedNodeEv, __ZN21OZAttractedToBehaviorC1ERS_j,
                        __ZN21OZAttractedToBehaviorC2ERS_j, __ZN21OZAttractedToBehaviorD1Ev,
                        __ZN21OZAttractedToBehavioraSERK10OZBehavior, __ZN21OZBSplineInterpolator12useKeypointsEv,
                        __ZN21OZBSplineInterpolator15evalBSplineNURBER8OZSplined, __ZN21OZBSplineInterpolator15getAdjustedMinUER8OZSplineRK7FigTimeS4_,
                        __ZN21OZBSplineInterpolator22evalBSplineOpenUniformER8OZSplined, __ZN21OZBSplineInterpolator26convertBSplineBiasToLinearEd,
                        __ZN21OZBSplineInterpolator26generatePeriodicKnotVectorER8OZSpline, __ZN21OZBSplineInterpolator30generateRationalBasisFunctionsEd,
                        __ZN21OZBSplineInterpolator8needInitER8OZSpline, __ZN21OZBSplineInterpolatorC1ERKS_,
                        __ZN21OZBSplineInterpolatorC2ERKS_, __ZN21OZBSplineInterpolatorD0Ev,
                        __ZN21OZBSplineInterpolatorD2Ev, __ZN21OZBSplineInterpolatoreqERKS_,
                        __ZN21OZChannelBehaviorRoot11setBehaviorEP10OZBehavior, __ZN21OZChannelBehaviorRoot7compareEPK13OZChannelBase,
                        __ZN21OZChannelBehaviorRootC1EP9OZFactoryRK8PCStringj, __ZN21OZChannelBehaviorRootC1ERKS_P15OZChannelFolder,
                        __ZN21OZChannelBehaviorRootC2EP9OZFactoryRK8PCStringj, __ZN21OZChannelBehaviorRootC2ERKS_P15OZChannelFolder,
                        __ZN21OZChannelBehaviorRootD1Ev, __ZN21OZChannelBehaviorRootaSERKS_,
                        __ZN21OZChannelBool_Factory9_instanceE, __ZN21OZChannelColorNoAlpha11setRedValueERK7FigTimedb,
                        __ZN21OZChannelColorNoAlpha13setGreenValueERK7FigTimedb, __ZN21OZChannelColorNoAlpha15setColorSpaceIDEN17PCColorSpaceCache2IDEb,
                        __ZN21OZChannelColorNoAlpha16_gColorBlackImplE, __ZN21OZChannelColorNoAlpha18_gColorSpaceIDImplE,
                        __ZN21OZChannelColorNoAlpha18selectRedPrototypeEd, __ZN21OZChannelColorNoAlpha20selectGreenPrototypeEd,
                        __ZN21OZChannelColorNoAlpha21_gColorRedSample2ImplE, __ZN21OZChannelColorNoAlpha22_gColorBlueSample2ImplE,
                        __ZN21OZChannelColorNoAlpha23_gColorGreenSample2ImplE, __ZN21OZChannelColorNoAlpha4copyEPK13OZChannelBaseb,
                        __ZN21OZChannelColorNoAlpha8setColorERK7FigTimeRK7PCColorb, __ZN21OZChannelColorNoAlphaC1EP9OZFactoryRK8PCStringjj,
                        __ZN21OZChannelColorNoAlphaC1ERKS_P15OZChannelFolder, __ZN21OZChannelColorNoAlphaC2EP9OZFactoryRK8PCStringP15OZChannelFolderjjj,
                        __ZN21OZChannelColorNoAlphaC2ERK8PCStringP15OZChannelFolderjjj, __ZN21OZChannelColorNoAlphaC2EdddRK8PCStringP15OZChannelFolderjjj,
                        __ZN21OZChannelEnumWithList10parseBeginER22PCSerializerReadStream, __ZN21OZChannelEnumWithList12insertStringERK8PCStringii,
                        __ZN21OZChannelEnumWithList12removeStringEi, __ZN21OZChannelEnumWithList8parseEndER22PCSerializerReadStream,
                        __ZN21OZChannelEnumWithList9writeBodyER23PCSerializerWriteStreambbb, __ZN21OZChannelEnumWithListC1EjRK8PCStringS2_P15OZChannelFolderjj,
                        __ZN21OZChannelEnumWithListC2EjRK8PCStringS2_P15OZChannelFolderjj, __ZN21OZChannelFont_Factory9_instanceE,
                        __ZN21OZChannelGammaFootage26_OZChannelGammaFootageImplE, __ZN21OZChannelMaterialRoot11setMaterialEP14OZMaterialBase,
                        __ZN21OZChannelMaterialRoot17willModifyChannelEP13OZChannelBasej, __ZN21OZChannelMaterialRoot5resetEv,
                        __ZN21OZChannelMaterialRoot8parseEndER22PCSerializerReadStream, __ZN21OZChannelMaterialRootC1EP9OZFactoryRK8PCStringj,
                        __ZN21OZChannelMaterialRootC1ERKS_P15OZChannelFolder, __ZN21OZChannelMaterialRootC2EP9OZFactoryRK8PCStringj,
                        __ZN21OZChannelMaterialRootC2ERKS_P15OZChannelFolder, __ZN21OZChannelMaterialRootD1Ev,
                        __ZN21OZChannelMaterialRootaSERKS_, __ZN21OZChannelQuad_Factory9_instanceE,
                        __ZN21OZChannelText_Factory9_instanceE, __ZN21OZChannelVertexFolder18getObjCWrapperNameEv,
                        __ZN21OZChannelVertexFolder19setVertexAlwaysSaveEb, __ZN21OZChannelVertexFolderC1EP9OZFactoryRK8PCStringj,
                        __ZN21OZChannelVertexFolderC1ERKS_P15OZChannelFolder, __ZN21OZChannelVertexFolderC2EP9OZFactoryRK8PCStringj,
                        __ZN21OZChannelVertexFolderC2ERKS_P15OZChannelFolder, __ZN21OZChannelVertexFolderD1Ev,
                        __ZN21OZConcaveInterpolator11interpolateER8OZSplineRK7FigTimePvS5_S4_bb, __ZN21OZConcaveInterpolatorC1Ev,
                        __ZN21OZConcaveInterpolatorD0Ev, __ZN21OZConcaveInterpolatorD2Ev,
                        __ZN21OZEaseOutInterpolator14uForCurveValueER8OZSplinePvS2_RK7FigTimeS5_dRNSt3__16vectorIS3_NS6_9allocatorIS3_EEEE, __ZN21OZEaseOutInterpolator9subDivideER8OZSplineRK7FigTimePvS5_S5_,
                        __ZN21OZExponentialBehaviorC1EP9OZFactoryRK8PCStringj, __ZN21OZExponentialBehaviorC2EP9OZFactoryRK8PCStringj,
                        __ZN21OZExponentialBehaviorD0Ev, __ZN21OZExponentialBehaviorD2Ev,
                        __ZN21OZFxGenerator_Factory9_instanceE, __ZN21OZFxPlugRenderContextC2ERK13PCRenderModel,
                        __ZN21OZGradientGroupShader15updateWithXFormE7FigTimeP14PCMatrix44TmplIdE, __ZN21OZGradientGroupShaderC1EP23OZChannelGradientExtrasP12CGColorSpaced,
                        __ZN21OZGradientGroupShaderC2EP23OZChannelGradientExtrasP12CGColorSpaced, __ZN21OZGradientGroupShaderD1Ev,
                        __ZN21OZGrowShrinkCurveNode14getNeededRangeEP16OZCurveNodeParam, __ZN21OZGrowShrinkCurveNode9solveNodeER16OZCurveNodeParam,
                        __ZN21OZGrowShrinkCurveNodeC1EP20OZGrowShrinkBehaviorP9OZChannelb, __ZN21OZGrowShrinkCurveNodeC2EP20OZGrowShrinkBehaviorP9OZChannelb,
                        __ZN21OZGrowShrinkCurveNodeD0Ev, __ZN21OZGrowShrinkCurveNodeD2Ev,
                        __ZN21OZHermiteInterpolatorC2Ev, __ZN21OZHermiteInterpolatorD1Ev,
                        __ZN21OZLiElementTimeRender15getSourceAtTimeE7FigTimebRK14OZRenderParams, __ZN21OZLiElementTimeRender24adjustCasterLocalToWorldERK7LiLightRK7LiGeodeR14PCMatrix44TmplIdER9LiPolygonR6PCRectIdE,
                        __ZN21OZLogarithmicBehavior15createCurveNodeEP9OZChannel, __ZN21OZLogarithmicBehaviorC1ERKS_j,
                        __ZN21OZLogarithmicBehaviorC2ERKS_j, __ZN21OZLogarithmicBehaviorD1Ev,
                        __ZN21OZLogarithmicBehavioraSERK10OZBehavior, __ZN21OZMotionPathCurveNode14getNeededRangeEP16OZCurveNodeParam,
                        __ZN21OZMotionPathCurveNode9cloneNodeEv, __ZN21OZMotionPathCurveNode9solveNodeER16OZCurveNodeParam,
                        __ZN21OZMotionPathCurveNodeC1EP10OZBehaviorP9OZChannel, __ZN21OZMotionPathCurveNodeC2EP10OZBehaviorP9OZChannel,
                        __ZN21OZMotionPathCurveNodeD0Ev, __ZN21OZMotionPathCurveNodeD2Ev,
                        __ZN21OZNotificationManager11hasObserverEPv, __ZN21OZNotificationManager14hasCPPObserverEP13OZCPPObserver,
                        __ZN21OZNotificationManager14printObserversEv, __ZN21OZNotificationManager15addObjCObserverEPvl,
                        __ZN21OZNotificationManager16postNotificationEj, __ZN21OZNotificationManager17willModifyChannelEPK13OZChannelBasej,
                        __ZN21OZNotificationManager18removeObjCObserverEPv, __ZN21OZNotificationManager18wasChannelModifiedERK12OZChannelRef,
                        __ZN21OZNotificationManager20unignoreObserverOnceEPvj, __ZN21OZNotificationManager21deleteRunLoopObserverEv,
                        __ZN21OZNotificationManager28setIsProcessingAutomaticallyEb, __ZN21OZNotificationManagerC2EP10OZDocumentb,
                        __ZN21OZNotificationManagerD2Ev, __ZN21OZProjectNode_Factory9_instanceE,
                        __ZN21OZSimulationCurveNode14getNeededRangeEP16OZCurveNodeParam, __ZN21OZSimulationCurveNode24getAllAffectingBehaviorsERNSt3__14listIP20OZSimulationBehaviorNS0_9allocatorIS3_EEEE,
                        __ZN21OZSimulationCurveNode9cloneNodeEv, __ZN21OZSimulationCurveNode9solveNodeERK7FigTimedd,
                        __ZN21OZSimulationCurveNodeC1ERKS_, __ZN21OZSimulationCurveNodeC2ERKS_,
                        __ZN21OZSimulationCurveNodeD1Ev, __ZN21OZSingleChanCurveNode13getNeededTimeERK7FigTime,
                        __ZN21OZSingleChanCurveNode14isPointToPointEv, __ZN21OZSingleChanCurveNode9cloneNodeEv,
                        __ZN21OZSingleChanCurveNode9solveNodeERK7FigTimedd, __ZN21OZSingleChanCurveNodeC1EP22OZSingleChanBehaviorIFP9OZChannelj,
                        __ZN21OZSingleChanCurveNodeC2EP22OZSingleChanBehaviorIFP9OZChannel, __ZN21OZSingleChanCurveNodeC2ERKS_,
                        __ZN21OZSingleChanCurveNodeD1Ev, __ZN21OZViewPanZoomSettingsC1Ev,
                        __ZN21OZViewPanZoomSettingsD1Ev, __ZN21OZViscousDragBehavior11accumForcesEP17OZSimulationStateP15OZTransformNode,
                        __ZN21OZViscousDragBehavior32_OZViscousDragBehavior_kChanInfoE, __ZN21OZViscousDragBehaviorC1ERS_j,
                        __ZN21OZViscousDragBehaviorC2ERS_j, __ZN21OZViscousDragBehaviorD1Ev,
                        __ZN21OZViscousDragBehavioraSERK10OZBehavior, __ZN21OZXSplineInterpolator11interpolateER8OZSplineRK7FigTimePvS5_S4_bb,
                        __ZN21OZXSplineInterpolator14initTempArraysER8OZSplineRK7FigTime, __ZN21OZXSplineInterpolator15getAdjustedMinUER8OZSplineRK7FigTimeS4_,
                        __ZN21OZXSplineInterpolator1gEddd, __ZN21OZXSplineInterpolator4initER8OZSplineRK7FigTime,
                        __ZN21OZXSplineInterpolator9subDivideER8OZSplineRK7FigTimePvS5_S5_, __ZN21OZXSplineInterpolatorC1Ev,
                        __ZN21OZXSplineInterpolatorC2Ev, __ZN21OZXSplineInterpolatorD1Ev,
                        __ZN21OZXSplineInterpolatoraSERKS_, __ZN21PSPenPressureBehavior14getPenPropertyEdb,
                        __ZN21PSPenPressureBehavior17getDefaultApplyToEv, __ZN21PSPenPressureBehaviorC1ERKS_j,
                        __ZN21PSPenPressureBehaviorC2ERKS_j, __ZN21PSPenPressureBehaviorD1Ev,
                        __ZN21PSPenPropertyBehavior10willRemoveEv, __ZN21PSPenPropertyBehavior13updateApplyToEv,
                        __ZN21PSPenPropertyBehavior16setIsInteractiveEb, __ZN21PSPenPropertyBehavior17updateHiddenFlagsEPNSt3__14listIP10OZBehaviorNS0_9allocatorIS3_EEEE,
                        __ZN21PSPenPropertyBehavior19addPenPropertyNodesEP11OZSceneNode, __ZN21PSPenPropertyBehavior23clearHUDVisibilityFlagsEPNSt3__14listIP10OZBehaviorNS0_9allocatorIS3_EEEE,
                        __ZN21PSPenPropertyBehavior9solveNodeERK7FigTimedd, __ZN21PSPenPropertyBehaviorC1ERKS_j,
                        __ZN21PSPenPropertyBehaviorC2ERKS_j, __ZN21PSPenPropertyBehaviorD1Ev,
                        __ZN21PSPenPropertyBehavioraSERK10OZBehavior, __ZN21SpecularMaterialLayer13computeNormalERK12LayerContextR17SurfaceProperties,
                        __ZN21SpecularMaterialLayer16getAnisoSpecularERK12LayerContextR17LiLightProperties, __ZN21SpecularMaterialLayer20ReplaceSpecularAccum4evalERK12LayerContextR17SurfaceProperties,
                        __ZN21SpecularMaterialLayer22setAnisoGrainDirectionERK12LayerContextRK22LiMaterialLayerUniformR17SurfaceProperties, __ZN21SpecularMaterialLayer5printERNSt3__113basic_ostreamIcNS0_11char_traitsIcEEEEi,
                        __ZN21SpecularMaterialLayerC1EPv, __ZN21TXChannelFont_Factory9_instanceE,
                        __ZN21TXTextScrollCurveNode21getOffsetPreInceptionE7FigTime, __ZN21TXTextScrollCurveNode9cloneNodeEv,
                        __ZN21TXTextScrollCurveNode9solveNodeER16OZCurveNodeParam, __ZN21TXTextScrollCurveNodeC1EP20TXTextScrollBehaviorP9OZChannelj,
                        __ZN21TXTextScrollCurveNodeC2EP20TXTextScrollBehaviorP9OZChannelj, __ZN21TXTextScrollCurveNodeD0Ev,
                        __ZN21TXTextScrollCurveNodeD2Ev, __ZN22ClusteredPaddingPolicyC1Ev,
                        __ZN22ClusteredPaddingPolicyD0Ev, __ZN22ClusteredPaddingPolicyD2Ev,
                        __ZN22HGGLPerformanceProfile4TestEjNS_8TestTypeEmPf, __ZN22HGTextureManagerHandleD0Ev,
                        __ZN22HGTextureManagerHandleD2Ev, __ZN22HGTexturePaddingPolicyD0Ev,
                        __ZN22HGTexturePaddingPolicyD2Ev, __ZN22HGTexturePoolingPolicy16setManagerHandleE5HGRefI22HGTextureManagerHandleE,
                        __ZN22HGTexturePoolingPolicyD0Ev, __ZN22HGTexturePoolingPolicyD2Ev,
                        __ZN22HgcHighlightOutOfGamut10RenderTileEP6HGTile, __ZN22HgcHighlightOutOfGamut12GetParameterEiPf,
                        __ZN22HgcHighlightOutOfGamut4BindEP9HGHandler, __ZN22HgcHighlightOutOfGamut6GetROIEP10HGRendereri6HGRect,
                        __ZN22HgcHighlightOutOfGamutC1Ev, __ZN22HgcHighlightOutOfGamutD0Ev,
                        __ZN22HgcHighlightOutOfGamutD2Ev, __ZN22HgcUnderwaterRefractV210RenderTileEP6HGTile,
                        __ZN22HgcUnderwaterRefractV212GetParameterEiPf, __ZN22HgcUnderwaterRefractV24BindEP9HGHandler,
                        __ZN22HgcUnderwaterRefractV26GetROIEP10HGRendereri6HGRect, __ZN22HgcUnderwaterRefractV2C1Ev,
                        __ZN22HgcUnderwaterRefractV2D0Ev, __ZN22HgcUnderwaterRefractV2D2Ev,
                        __ZN22LiEdgeTextureFinalizerC2EP10HGRenderer, __ZN22LiEdgeTextureFinalizerD2Ev,
                        __ZN22LiGradientEnvGenerator16setGradientImageEPf, __ZN22LiGradientEnvGenerator18getSpecularTextureEv,
                        __ZN22LiGradientEnvGenerator26getSpecularBlurHighTextureEv, __ZN22LiGradientEnvGeneratorC2Ev,
                        __ZN22LiMaterialLayerUniform3getEP17LiLayeredMaterialRK5PCPtrI15LiMaterialLayerE, __ZN22LiMaterialLayerUniform5setupERN8ProShade7SamplerERK8LiStringi,
                        __ZN22LiTextureFactoryHelper19makeFactoryWithImplERKNSt3__110shared_ptrI20LiTextureFactoryImplEE, __ZN22OZCardinalInterpolator11useTangentsEv,
                        __ZN22OZCardinalInterpolator24convertHandlesToTangentsER8OZSplinePdS2_, __ZN22OZCardinalInterpolatorC1Ed,
                        __ZN22OZCardinalInterpolatorD0Ev, __ZN22OZCardinalInterpolatorD2Ev,
                        __ZN22OZChanTransformNodeRef16setTransformNodeEP15OZTransformNode, __ZN22OZChanTransformNodeRefC1ERK18OZChanSceneNodeRefP15OZChannelFolder,
                        __ZN22OZChanTransformNodeRefC1EdRK8PCStringP15OZChannelFolderjj, __ZN22OZChanTransformNodeRefC2ERK18OZChanSceneNodeRefP15OZChannelFolder,
                        __ZN22OZChanTransformNodeRefC2EdRK8PCStringP15OZChannelFolderjj, __ZN22OZChanTransformNodeRefD1Ev,
                        __ZN22OZChannelAffectedNodes18getObjCWrapperNameEv, __ZN22OZChannelAffectedNodes27_OZChannelAffectedNodesInfoE,
                        __ZN22OZChannelColor_Factory9_instanceE, __ZN22OZChannelDiscreteColor13setColorIndexEj,
                        __ZN22OZChannelDiscreteColor16getSelectedColorEv, __ZN22OZChannelDiscreteColor20getDefaultColorIndexEv,
                        __ZN22OZChannelDiscreteColor24getSelectedColorForIndexEj, __ZN22OZChannelDiscreteColorC1ERK8PCStringP15OZChannelFolderjj,
                        __ZN22OZChannelDiscreteColorC2ERK8PCStringP15OZChannelFolderjj, __ZN22OZChannelEnumDimensionC1ERK8PCStringS2_P15OZChannelFolderjjP13OZChannelImpl,
                        __ZN22OZChannelEnumDimensionC2ERK8PCStringS2_P15OZChannelFolderjjP13OZChannelImpl, __ZN22OZChannelFrame_Factory9_instanceE,
                        __ZN22OZChannelMoveableImage4copyEPK13OZChannelBaseb, __ZN22OZChannelMoveableImageC1EP9OZFactoryRK8PCStringj,
                        __ZN22OZChannelMoveableImageC1ERKS_P15OZChannelFolder, __ZN22OZChannelMoveableImageC2EP9OZFactoryRK8PCStringj,
                        __ZN22OZChannelMoveableImageC2ERKS_P15OZChannelFolder, __ZN22OZChannelMoveableImageD1Ev,
                        __ZN22OZChannelScaleOverLife18getObjCWrapperNameEv, __ZN22OZChannelScaleOverLifeC1EP9OZFactoryRK8PCStringj,
                        __ZN22OZChannelScaleOverLifeC1ERKS_P15OZChannelFolder, __ZN22OZChannelScaleOverLifeC2EP9OZFactoryRK8PCStringP15OZChannelFolderjj,
                        __ZN22OZChannelScaleOverLifeC2ERK8PCStringP15OZChannelFolderjj, __ZN22OZChannelScaleOverLifeC2EjRK8PCStringS2_P15OZChannelFolderjj,
                        __ZN22OZChannelScaleOverLifeD1Ev, __ZN22OZChannelScale_Factory9_instanceE,
                        __ZN22OZChannelShear_Factory9_instanceE, __ZN22OZChannelVaryingFolder10parseBeginER22PCSerializerReadStream,
                        __ZN22OZChannelVaryingFolder14undoDidReplaceEv, __ZN22OZChannelVaryingFolder15undoWillReplaceEv,
                        __ZN22OZChannelVaryingFolder18getObjCWrapperNameEv, __ZN22OZChannelVaryingFolder6assignEPK13OZChannelBase,
                        __ZN22OZChannelVaryingFolder8setValueERK13OZChannelBase, __ZN22OZChannelVaryingFolderC1EP9OZFactoryRK8PCStringP15OZChannelFolderjj,
                        __ZN22OZChannelVaryingFolderC1ERK8PCStringP15OZChannelFolderjj, __ZN22OZChannelVaryingFolderC2EP9OZFactoryRK8PCStringP15OZChannelFolderjj,
                        __ZN22OZChannelVaryingFolderC2ERK8PCStringP15OZChannelFolderjj, __ZN22OZChannelVaryingFolderD0Ev,
                        __ZN22OZChannelVaryingFolderD2Ev, __ZN22OZConstantInterpolator14uForCurveValueER8OZSplinePvS2_RK7FigTimeS5_dRNSt3__16vectorIS3_NS6_9allocatorIS3_EEEE,
                        __ZN22OZConstantInterpolator9subDivideER8OZSplineRK7FigTimePvS5_S5_, __ZN22OZConstantInterpolatorC2Ev,
                        __ZN22OZConstantInterpolatorD1Ev, __ZN22OZExponentialCurveNode14getNeededRangeEP16OZCurveNodeParam,
                        __ZN22OZExponentialCurveNode9solveNodeER16OZCurveNodeParam, __ZN22OZExponentialCurveNodeC1EP10OZBehaviorP9OZChannel,
                        __ZN22OZExponentialCurveNodeC2EP10OZBehaviorP9OZChannel, __ZN22OZExponentialCurveNodeD0Ev,
                        __ZN22OZExponentialCurveNodeD2Ev, __ZN22OZFolderElementShadows5resetEv,
                        __ZN22OZFolderElementShadowsC1EP9OZFactoryRK8PCStringP15OZChannelFolderjj, __ZN22OZFolderElementShadowsC1ERK8PCStringP15OZChannelFolderjj,
                        __ZN22OZFolderElementShadowsC1ERKS_P15OZChannelFolder, __ZN22OZFolderElementShadowsC2EP9OZFactoryRK8PCStringj,
                        __ZN22OZFolderElementShadowsC2ERKS_, __ZN22OZFolderElementShadowsD0Ev,
                        __ZN22OZFolderElementShadowsD2Ev, __ZN22OZFootageLayer_Factory9_instanceE,
                        __ZN22OZFxPlugImageConverter15getBitmapAtTimeEPP8FxBitmap7FigTimeP11OZSceneNodeP9OZElementP11OZImageNodeP18OZFxPlugSharedBase5PCPtrI13LiImageSourceER14OZRenderParamsP10GLRendererR7LiAgentPNSt3__16vectorINSL_10shared_ptrI7PCImageEENSL_9allocatorISP_EEEER12FxRenderInfobP6HGRect, __ZN22OZFxPlugImageConverter18renderNodeToBitmapEPP8FxBitmapPNSt3__16vectorINS3_10shared_ptrI7PCImageEENS3_9allocatorIS7_EEEERK5HGRefI6HGNodeEP10HGRendererN13PCPixelFormat12ChannelOrderE6PCRectIiERK21LiRenderingTechnologydSL_IdE20OZFieldRenderingMode6FxTimemP12CGColorSpaceRK14OZRenderParamsP18OZFxPlugSharedBase,
                        __ZN22OZFxPlugImageConverter19getFootageFieldModeEP9OZFootage, __ZN22OZFxPlugImageConverter27createPCBitmapFromFxTextureEP9FxTexture,
                        __ZN22OZFxPlugImageConverter32convertBitmapDepthWithChannelMapEP8PCBitmapP8FxBitmapPKh, __ZN22OZLinkBehavior_Factory9_instanceE,
                        __ZN22OZLogarithmicCurveNode9cloneNodeEv, __ZN22OZLogarithmicCurveNode9solveNodeERK7FigTimedd,
                        __ZN22OZLogarithmicCurveNodeC1ERKS_, __ZN22OZLogarithmicCurveNodeC2ERKS_,
                        __ZN22OZLogarithmicCurveNodeD1Ev, __ZN22OZMaterialBumpMapLayer29appendLayersToLayeredMaterialERN19OZMaterialLayerBase19LayeredMaterialInfoE,
                        __ZN22OZMaterialBumpMapLayer38makeMaterialLayerSequenceChannelFolderEv, __ZN22OZMaterialBumpMapLayerC1EP9OZFactoryRK8PCStringP15OZChannelFolderjj,
                        __ZN22OZMaterialBumpMapLayerC1ERK8PCStringP15OZChannelFolderjj, __ZN22OZMaterialBumpMapLayerC2EP9OZFactoryRK8PCStringP15OZChannelFolderjj,
                        __ZN22OZMaterialBumpMapLayerC2ERK8PCStringP15OZChannelFolderjj, __ZN22OZMaterialBumpMapLayerD0Ev,
                        __ZN22OZMaterialBumpMapLayerD2Ev, __ZN22OZMaterialDiffuseLayer19anyGradientChannelsEv,
                        __ZN22OZMaterialDiffuseLayer23checkDeprecatedChannelsEv, __ZN22OZMaterialDiffuseLayer31copyDeprecatedIntensityChannelsER16OZChannelPercentR15OZChannelDouble,
                        __ZN22OZMaterialDiffuseLayer38makeMaterialLayerSequenceChannelFolderEv, __ZN22OZMaterialDiffuseLayerC1EP9OZFactoryRK8PCStringP15OZChannelFolderjj,
                        __ZN22OZMaterialDiffuseLayerC1ERK8PCStringP15OZChannelFolderjj, __ZN22OZMaterialDiffuseLayerC2EP9OZFactoryRK8PCStringP15OZChannelFolderjj,
                        __ZN22OZMaterialDiffuseLayerC2ERK8PCStringP15OZChannelFolderjj, __ZN22OZMaterialDiffuseLayerD0Ev,
                        __ZN22OZMaterialDiffuseLayerD2Ev, __ZN22OZMaterialLayersFolder11writeHeaderER23PCSerializerWriteStreamb,
                        __ZN22OZMaterialLayersFolder17indexOfDescendantEP13OZChannelBase, __ZN22OZMaterialLayersFolder4copyEPK13OZChannelBaseb,
                        __ZN22OZMaterialLayersFolder8parseEndER22PCSerializerReadStream, __ZN22OZMaterialLayersFolderC1EP9OZFactoryRK8PCStringP15OZChannelFolderjj,
                        __ZN22OZMaterialLayersFolderC1ERK8PCStringP15OZChannelFolderjj, __ZN22OZMaterialLayersFolderC2EP9OZFactoryRK8PCStringP15OZChannelFolderjj,
                        __ZN22OZMaterialLayersFolderC2ERK8PCStringP15OZChannelFolderjj, __ZN22OZMaterialLayersFolderD0Ev,
                        __ZN22OZMaterialLayersFolderD2Ev, __ZN22OZRampBehavior_Factory9_instanceE,
                        __ZN22OZRigWidgetAspectRatio21GetNameForAspectRatioEd, __ZN22OZRigWidgetAspectRatio6createERK8PCStringj,
                        __ZN22OZRigWidgetAspectRatioC1EP9OZFactoryRK8PCStringj, __ZN22OZRigWidgetAspectRatioC2EP9OZFactoryRK8PCStringj,
                        __ZN22OZRigWidgetAspectRatioD0Ev, __ZN22OZRigWidgetAspectRatioD2Ev,
                        __ZN22OZStopBehavior_Factory9_instanceE, __ZN22OZVortexAroundBehavior18accumInitialValuesEP15OZSimStateArrayiP15OZTransformNode,
                        __ZN22OZVortexAroundBehavior18isRebuildUIChannelEP13OZChannelBase, __ZN22OZVortexAroundBehaviorC1ERS_j,
                        __ZN22OZVortexAroundBehaviorC2ERS_j, __ZN22OZVortexAroundBehaviorD1Ev,
                        __ZN22OZVortexAroundBehavioraSERK10OZBehavior, __ZN22PCSerializerReadStream10getAsFloatER15PCStreamElementPf,
                        __ZN22PCSerializerReadStream10getAsInt64ER15PCStreamElementPx, __ZN22PCSerializerReadStream10popHandlerEv,
                        __ZN22PCSerializerReadStream11getAsStringER15PCStreamElementP8PCString, __ZN22PCSerializerReadStream11getAsUInt64ER15PCStreamElementPy,
                        __ZN22PCSerializerReadStream11pushHandlerEP12PCSerializer, __ZN22PCSerializerReadStream12setTimeScaleERK7FigTime,
                        __ZN22PCSerializerReadStream14destroyElementEP15PCStreamElement, __ZN22PCSerializerReadStream14getElementInfoEjPP7PCScopeS2_PP12PCSerializer,
                        __ZN22PCSerializerReadStream14processElementER15PCStreamElement, __ZN22PCSerializerReadStream9pushScopeEP7PCScope,
                        __ZN22PCSerializerReadStreamD1Ev, __ZN22PSParticleType_Factory9_instanceE,
                        __ZN22PSPenPropertyCurveNode9cloneNodeEv, __ZN22PSPenPropertyCurveNode9solveNodeERK7FigTimedd,
                        __ZN22PSPenPropertyCurveNodeC1ERKS_, __ZN22PSPenPropertyCurveNodeC2ERKS_,
                        __ZN22PSPenPropertyCurveNodeD1Ev, __ZN22PSSpinOverLifeBehavior11accumForcesEP15OZSimStateArrayP15OZTransformNode,
                        __ZN22PSSpinOverLifeBehavior15accumForcesRateEP15OZSimStateArray, __ZN22PSSpinOverLifeBehavior17canAddToSceneNodeEP11OZSceneNode,
                        __ZN22PSSpinOverLifeBehavior18accumInitialValuesEP15OZSimStateArrayiP15OZTransformNode, __ZN22PSSpinOverLifeBehavior22accumForcesDestinationEP15OZSimStateArray,
                        __ZN22PSSpinOverLifeBehaviorC1ERS_j, __ZN22PSSpinOverLifeBehaviorC2ERS_j,
                        __ZN22PSSpinOverLifeBehaviorD1Ev, __ZN22PSSpinOverLifeBehavioraSERK10OZBehavior,
                        __ZN22PVDeferredBitmapLoader8SetStateEP10HGRendereri, __ZN22PVDeferredBitmapLoaderC2E5HGRefI24PVDeferredBitmapProviderE,
                        __ZN22PVDeferredBitmapLoaderD1Ev, __ZN22PVRenderRequestHandler10BuildGraphEv,
                        __ZN22PVRenderRequestHandler13FinishRequestEv, __ZN22PVRenderRequestHandler13SetupRendererEv,
                        __ZN22PVRenderRequestHandler15StopRenderTimerEv, __ZN22PVRenderRequestHandler16StartRenderTimerEv,
                        __ZN22PVRenderRequestHandler20StartHandlingRequestEv, __ZN22PVRenderRequestHandler21RenderJobNotificationEP11HGRenderJob,
                        __ZN22PVRenderRequestHandler21StopWaitToRenderTimerEv, __ZN22PVRenderRequestHandler25SetupBitmapsOnRenderNodesEv,
                        __ZN22PVRenderRequestHandler5StateEv, __ZN22PVRenderRequestHandler9CancelJobEv,
                        __ZN22PVRenderRequestHandlerC2EPU34objcproto23PVRenderRequestDelegate11objc_objectN11PVPerfStats10FrameStatsE, __ZN22PVRenderRequestHandlerD1Ev,
                        __ZN22TXGrowShrinkBehavior1DC2EP9OZFactoryRK8PCStringj, __ZN22TXGrowShrinkBehavior1DD0Ev,
                        __ZN22TXGrowShrinkBehavior1DD2Ev, __ZN22TXOldSequenceCurveNode9solveNodeERK7FigTimedd,
                        __ZN22TXOldSequenceCurveNodeC1ERKS_, __ZN22TXOldSequenceCurveNodeC2ERKS_,
                        __ZN22TXOldSequenceCurveNodeD1Ev, __ZN22TXParagraphStyleFolder12parseElementER22PCSerializerReadStreamR15PCStreamElement,
                        __ZN22TXParagraphStyleFolderC1EP9OZFactoryRK8PCStringj, __ZN22TXParagraphStyleFolderC1ERKS_P15OZChannelFolder,
                        __ZN22TXParagraphStyleFolderC2EP9OZFactoryRK8PCStringj, __ZN22TXParagraphStyleFolderC2ERKS_P15OZChannelFolder,
                        __ZN22TXTextSequenceBehavior10addChannelEP13OZChannelBase, __ZN22TXTextSequenceBehavior12didAddToNodeEP11OZSceneNode,
                        __ZN22TXTextSequenceBehavior16addSequenceNodesEP13OZChannelBaseS1_, __ZN22TXTextSequenceBehavior16isChannelEnabledEj,
                        __ZN22TXTextSequenceBehavior16sceneNodeDidLoadEv, __ZN22TXTextSequenceBehavior19getPreviewSceneNodeEv,
                        __ZN22TXTextSequenceBehavior8parseEndER22PCSerializerReadStream, __ZN22TXTextSequenceBehaviorC1EP9OZFactoryRK8PCStringj,
                        __ZN22TXTextSequenceBehaviorC2EP9OZFactoryRK8PCStringj, __ZN22TXTextSequenceBehaviorD0Ev,
                        __ZN22TXTextSequenceBehaviorD2Ev, __ZN22TXTextTrackingBehavior10willRemoveEv,
                        __ZN22TXTextTrackingBehavior13getMultiplierE7FigTime, __ZN22TXTextTrackingBehavior8parseEndER22PCSerializerReadStream,
                        __ZN22TXTextTrackingBehaviorC1ERKS_j, __ZN22TXTextTrackingBehaviorC2ERKS_j,
                        __ZN22TXTextTrackingBehaviorD1Ev, __ZN22TXTextTrackingBehavioraSERK10OZBehavior,
                        __ZN22TextureDeleteQueueLockC1EP18TextureDeleteQueue, __ZN22TextureDeleteQueueLockD1Ev,
                        __ZN23HGMetalCommandBufferRef18waitUntilCompletedEv, __ZN23HGMetalCommandBufferRefC1E22HGMTLCommandBufferType,
                        __ZN23HGMetalCommandBufferRefD1Ev, __ZN23HGPagePullTexturesGuardC1EP6HGNodeP6HGPage,
                        __ZN23HGPagePullTexturesGuardD1Ev, __ZN23HGTexturePoolHandleImpl3endEv,
                        __ZN23HGTexturePoolHandleImpl5beginEv, __ZN23HGTexturePoolHandleImpl5emptyEv,
                        __ZN23HGTexturePoolHandleImplC1EP16HGTextureManager, __ZN23HGTexturePoolHandleImplD0Ev,
                        __ZN23HGTexturePoolHandleImplD2Ev, __ZN23HgcGradientLinearAffine10RenderTileEP6HGTile,
                        __ZN23HgcGradientLinearAffine12GetParameterEiPf, __ZN23HgcGradientLinearAffine4BindEP9HGHandler,
                        __ZN23HgcGradientLinearAffine6GetROIEP10HGRendereri6HGRect, __ZN23HgcGradientLinearAffineC1Ev,
                        __ZN23HgcGradientLinearAffineD0Ev, __ZN23HgcGradientLinearAffineD2Ev,
                        __ZN23HgcRasterizerTextureiOS10RenderTileEP6HGTile, __ZN23HgcRasterizerTextureiOS12GetParameterEiPf,
                        __ZN23HgcRasterizerTextureiOS14RenderFragmentEP10HGFragmentP6HGTile, __ZN23HgcRasterizerTextureiOS5SetupEPv,
                        __ZN23HgcRasterizerTextureiOS6GetROIEP10HGRendereri6HGRect, __ZN23HgcRasterizerTextureiOSC1Ev,
                        __ZN23HgcRasterizerTextureiOSD0Ev, __ZN23HgcRasterizerTextureiOSD2Ev,
                        __ZN23HgcSolidRendererBumpMap10RenderTileEP6HGTile, __ZN23HgcSolidRendererBumpMap12GetParameterEiPf,
                        __ZN23HgcSolidRendererBumpMap4BindEP9HGHandler, __ZN23HgcSolidRendererBumpMap6GetROIEP10HGRendereri6HGRect,
                        __ZN23HgcSolidRendererBumpMapC1Ev, __ZN23HgcSolidRendererBumpMapD0Ev,
                        __ZN23HgcSolidRendererBumpMapD2Ev, __ZN23LiCachingDelegateHelper13disableLimitsEv,
                        __ZN23LiCachingDelegateHelper3getEiRK9PCHash128R19LiTextureCacheEntry, __ZN23LiCachingDelegateHelper9getBitmapERK9PCHash128,
                        __ZN23LiHeBackgroundGeneratorC1Ev, __ZN23LiHeBackgroundGeneratorD0Ev,
                        __ZN23LiHeBackgroundGeneratorD2Ev, __ZN23LiHeDepthCompareProgram10RenderTileEP6HGTile,
                        __ZN23LiHeDepthCompareProgram12GetParameterEiPf, __ZN23LiHeDepthCompareProgram4BindEP9HGHandler,
                        __ZN23LiHeDepthCompareProgram6GetROIEP10HGRendereri6HGRect, __ZN23LiHeDepthCompareProgramC1Ev,
                        __ZN23LiHeDepthCompareProgramD0Ev, __ZN23LiHeDepthCompareProgramD2Ev,
                        __ZN23LiHeLightProgramAmbient10RenderTileEP6HGTile, __ZN23LiHeLightProgramAmbient12GetParameterEiPf,
                        __ZN23LiHeLightProgramAmbient4BindEP9HGHandler, __ZN23LiHeLightProgramAmbient6GetROIEP10HGRendereri6HGRect,
                        __ZN23LiHeLightProgramAmbientC1Ev, __ZN23LiHeLightProgramAmbientD0Ev,
                        __ZN23LiHeLightProgramAmbientD2Ev, __ZN23LiMaterialLayerOperator9writeHashER17PCHashWriteStream,
                        __ZN23LiTextureStoreTokenImplC2ERKNSt3__110shared_ptrI20LiTextureFactoryImplEE, __ZN23OZ3DExtrusionProperties16environmentSetupEv,
                        __ZN23OZ3DExtrusionProperties4initEv, __ZN23OZ3DExtrusionProperties6enableEbb,
                        __ZN23OZ3DExtrusionProperties9writeBodyER23PCSerializerWriteStreambbb, __ZN23OZ3DExtrusionPropertiesC1EP9OZFactoryRK8PCStringjj,
                        __ZN23OZ3DExtrusionPropertiesC1ERKS_P15OZChannelFolder, __ZN23OZ3DExtrusionPropertiesC2EP9OZFactoryRK8PCStringjj,
                        __ZN23OZ3DExtrusionPropertiesC2ERKS_P15OZChannelFolder, __ZN23OZ3DExtrusionPropertiesD1Ev,
                        __ZN23OZ3DExtrusionPropertiesaSERKS_, __ZN23OZChannelAngleOverRange12nextKeypointEP7FigTimej,
                        __ZN23OZChannelAngleOverRange12parseElementER22PCSerializerReadStreamR15PCStreamElement, __ZN23OZChannelAngleOverRange13addKeypointAtEd,
                        __ZN23OZChannelAngleOverRange13hasKeypointAtEd, __ZN23OZChannelAngleOverRange14moveKeypointToEddb,
                        __ZN23OZChannelAngleOverRange16deleteKeypointAtERK7FigTime, __ZN23OZChannelAngleOverRange16previousKeypointEP7FigTimej,
                        __ZN23OZChannelAngleOverRange17setValueOverRangeERK7FigTimedd, __ZN23OZChannelAngleOverRange18allHaveKeypointsAtERK7FigTime,
                        __ZN23OZChannelAngleOverRange18getObjCWrapperNameEv, __ZN23OZChannelAngleOverRange22getValueOverRangeAsIntERK7FigTimed,
                        __ZN23OZChannelAngleOverRange25getValueOverRangeAsDoubleERK7FigTimed, __ZN23OZChannelAngleOverRange8parseEndER22PCSerializerReadStream,
                        __ZN23OZChannelAngleOverRangeC1EP9OZFactoryRK8PCStringP15OZChannelFolderjjP13OZChannelImplP13OZChannelInfo, __ZN23OZChannelAngleOverRangeC1ERK8PCStringP15OZChannelFolderjjP13OZChannelImplP13OZChannelInfo,
                        __ZN23OZChannelAngleOverRangeC1EdRK8PCStringP15OZChannelFolderjjP13OZChannelImplP13OZChannelInfo, __ZN23OZChannelAngleOverRangeC2EP9OZFactoryRK8PCStringj,
                        __ZN23OZChannelAngleOverRangeC2ERKS_P15OZChannelFolder, __ZN23OZChannelBool3D_Factory9_instanceE,
                        __ZN23OZChannelDouble_Factory9_instanceE, __ZN23OZChannelEnumInterpMode18getObjCWrapperNameEv,
                        __ZN23OZChannelEnumInterpModeC1ERK8PCStringP9OZFactoryS2_P15OZChannelFolderjj, __ZN23OZChannelEnumInterpModeC1ERKS_P15OZChannelFolder,
                        __ZN23OZChannelEnumInterpModeC2EP9OZFactoryRK8PCStringj, __ZN23OZChannelEnumInterpModeC2ERK8PCStringS2_P15OZChannelFolderjj,
                        __ZN23OZChannelEnumInterpModeC2EjRK8PCStringS2_P15OZChannelFolderjj, __ZN23OZChannelGradientExtras18_gGradientTypeImplE,
                        __ZN23OZChannelGradientExtras4copyEPK13OZChannelBaseb, __ZN23OZChannelGradientExtrasC1EP9OZFactoryRK8PCStringj,
                        __ZN23OZChannelGradientExtrasC1ERKS_P15OZChannelFolder, __ZN23OZChannelGradientExtrasC2EP9OZFactoryRK8PCStringj,
                        __ZN23OZChannelGradientExtrasC2ERKS_P15OZChannelFolder, __ZN23OZChannelGradientExtrasD1Ev,
                        __ZN23OZChannelGradientFolder11cloneSampleEj, __ZN23OZChannelGradientFolder13sortAndRenameEv,
                        __ZN23OZChannelGradientFolder4flopERK7FigTime, __ZN23OZChannelGradientFolder8parseEndER22PCSerializerReadStream,
                        __ZN23OZChannelGradientFolderC2EP9OZFactoryRK8PCStringj, __ZN23OZChannelGradientFolderC2ERKS_P15OZChannelFolder,
                        __ZN23OZChannelGradientFolderD1Ev, __ZN23OZChannelGradientSample18getObjCWrapperNameEv,
                        __ZN23OZChannelGradientSample4copyEPK13OZChannelBaseb, __ZN23OZChannelGradientSampleC1EP9OZFactoryRK8PCStringP15OZChannelFolderjj,
                        __ZN23OZChannelGradientSampleC1EP9OZFactoryRK8PCStringj, __ZN23OZChannelGradientSampleC1ERKS_P15OZChannelFolder,
                        __ZN23OZChannelGradientSampleC2EP9OZFactoryRK8PCStringddiP15OZChannelFolderjj, __ZN23OZChannelGradientSampleC2ERK8PCStringP15OZChannelFolderjj,
                        __ZN23OZChannelGradientSampleD0Ev, __ZN23OZChannelGradientSampleD2Ev,
                        __ZN23OZChannelObjectRootBase10parseBeginER22PCSerializerReadStream, __ZN23OZChannelObjectRootBase13setTimeExtentERK11PCTimeRangeb,
                        __ZN23OZChannelObjectRootBase15isChannelRiggedEPK13OZChannelBase, __ZN23OZChannelObjectRootBase17serializeSelfOnlyER23PCSerializerWriteStreambb,
                        __ZN23OZChannelObjectRootBase18wasChannelModifiedEP13OZChannelBasePb, __ZN23OZChannelObjectRootBase21adjustToFrameDurationERK7FigTime,
                        __ZN23OZChannelObjectRootBase24calcHashForStateSelfOnlyER23PCSerializerWriteStreamRK7FigTime, __ZN23OZChannelObjectRootBase36isChannelAffectedBySelectedBehaviorsEP13OZChannelBase,
                        __ZN23OZChannelObjectRootBase42markVaryingFolderFactoriesForSerializationEP15OZChannelFolderR23PCSerializerWriteStream, __ZN23OZChannelObjectRootBase6assignEPK13OZChannelBase,
                        __ZN23OZChannelObjectRootBase9writeBodyER23PCSerializerWriteStreambbb, __ZN23OZChannelObjectRootBaseC1EP9OZFactoryRK8PCStringj,
                        __ZN23OZChannelObjectRootBaseC1ERKS_P15OZChannelFolder, __ZN23OZChannelObjectRootBaseC2EP9OZFactoryRK8PCStringj,
                        __ZN23OZChannelObjectRootBaseC2ERKS_P15OZChannelFolder, __ZN23OZChannelObjectRootBaseD1Ev,
                        __ZN23OZChannelObjectRootBaseaSERKS_, __ZN23OZChannelScaleOverRange10parseBeginER22PCSerializerReadStream,
                        __ZN23OZChannelScaleOverRange14moveKeypointToERK7FigTimeS2_bb, __ZN23OZChannelScaleOverRange17getValueOverRangeERK7FigTimedPdS3_,
                        __ZN23OZChannelScaleOverRange17setValueOverRangeERK7FigTimeddd, __ZN23OZChannelScaleOverRange18getObjCWrapperNameEv,
                        __ZN23OZChannelScaleOverRange8parseEndER22PCSerializerReadStream, __ZN23OZChannelScaleOverRangeC1EP9OZFactoryRK8PCStringP15OZChannelFolderjjP13OZChannelImplP13OZChannelInfo,
                        __ZN23OZChannelScaleOverRangeC1ERK8PCStringP15OZChannelFolderjjP13OZChannelImplP13OZChannelInfo, __ZN23OZChannelScaleOverRangeC1EddRK8PCStringP15OZChannelFolderjjP13OZChannelImplP13OZChannelInfo,
                        __ZN23OZChannelScaleOverRangeC2EP9OZFactoryRK8PCStringj, __ZN23OZChannelScaleOverRangeC2ERKS_P15OZChannelFolder,
                        __ZN23OZChannelSegmentVisitor11mapPingPongERK7FigTimeS2_S2_S2_bRb, __ZN23OZChannelSegmentVisitor11visitEaseInER8OZSplinePvS2_RK7FigTimeS5_S5_S5_d,
                        __ZN23OZChannelSegmentVisitor12visitEaseOutER8OZSplinePvS2_RK7FigTimeS5_S5_S5_d, __ZN23OZChannelSegmentVisitor13visitSegmentsERK9OZChannelRK7FigTimeS5_RS_,
                        __ZN23OZChannelSegmentVisitor15visitCatmullRomER8OZSplinePvS2_RK7FigTimeS5_S5_S5_d, __ZN23OZChannelSegmentVisitor16visitExponentialER8OZSplinePvS2_RK7FigTimeS5_S5_S5_d,
                        __ZN23OZChannelSegmentVisitor20mapProgressiveRepeatERK7FigTimeS2_S2_bRl, __ZN23OZChannelSegmentVisitor9visitEaseER8OZSplinePvS2_RK7FigTimeS5_S5_S5_d,
                        __ZN23OZChannelSegmentVisitorC2Ev, __ZN23OZChannelSegmentVisitorD1Ev,
                        __ZN23OZChannelUint16_Factory9_instanceE, __ZN23OZClampBehavior_Factory9_instanceE,
                        __ZN23OZLinkChannelExpression11setRangeMaxER15OZChannelDouble, __ZN23OZLinkChannelExpression12isNonNumericEv,
                        __ZN23OZLinkChannelExpression12sourceIsEnumEv, __ZN23OZLinkChannelExpression16getParamChannelsEPNSt3__16vectorIP13OZChannelBaseNS0_9allocatorIS3_EEEE,
                        __ZN23OZLinkChannelExpression17copyParamChannelsERKS_, __ZN23OZLinkChannelExpression18resolveChannelRefsEv,
                        __ZN23OZLinkChannelExpression19deleteParamChannelsEv, __ZN23OZLinkChannelExpression19getSourceValueRangeEv,
                        __ZN23OZLinkChannelExpression20getSourceSliderRangeEv, __ZN23OZLinkChannelExpression22sourceIsAmenableToMathEv,
                        __ZN23OZLinkChannelExpression4copyERKS_, __ZN23OZLinkChannelExpression9setOffsetER15OZChannelDouble,
                        __ZN23OZLinkChannelExpressionC1ERKS_P14OZLinkBehavior, __ZN23OZLinkChannelExpressionC2ERKS_P14OZLinkBehavior,
                        __ZN23OZLinkChannelExpressionD1Ev, __ZN23OZLinkChannelExpressionaSERKS_,
                        __ZN23OZMETimeConverterSentryC1Ev, __ZN23OZMETimeConverterSentryC2Ev,
                        __ZN23OZMETimeConverterSentryD2Ev, __ZN23OZMaterialCompoundLayer11getBumpGainEP12NSDictionaryRK7FigTimeRN19OZMaterialLayerBase19LayeredMaterialInfoE,
                        __ZN23OZMaterialCompoundLayer12setUpSamplerERN19OZMaterialLayerBase19LayeredMaterialInfoERK19LiTextureStoreTokenRN8ProShade7SamplerEjjbd, __ZN23OZMaterialCompoundLayer12setUpTextureERN19OZMaterialLayerBase19LayeredMaterialInfoERK19LiTextureStoreTokenjjbRN8ProShade7SamplerERNS6_7UniformERK18OZTexturePlacement,
                        __ZN23OZMaterialCompoundLayer12setUpTextureERN19OZMaterialLayerBase19LayeredMaterialInfoERN5ProGL13TextureHandleERN8ProShade7SamplerERNS6_7UniformERK18OZTexturePlacement, __ZN23OZMaterialCompoundLayer13getBoolForKeyEP8NSStringP12NSDictionaryb,
                        __ZN23OZMaterialCompoundLayer14setSubtypeTagsEv, __ZN23OZMaterialCompoundLayer15createBumpLayerERN19OZMaterialLayerBase19LayeredMaterialInfoERK7FigTimedbP12NSDictionaryPK10__CFNumberbfb,
                        __ZN23OZMaterialCompoundLayer16getCurrentLayersERK7FigTime, __ZN23OZMaterialCompoundLayer17createAbsorbLayerERN19OZMaterialLayerBase19LayeredMaterialInfoERK7FigTimeP12NSDictionaryffff,
                        __ZN23OZMaterialCompoundLayer18createDiffuseLayerERN19OZMaterialLayerBase19LayeredMaterialInfoERK7FigTimeP21OZChannelColorNoAlphaS7_dP12NSDictionaryN20DiffuseMaterialLayer9BlendModeEbfd, __ZN23OZMaterialCompoundLayer19appendSpecularLayerERN19OZMaterialLayerBase19LayeredMaterialInfoERK7FigTimeP12NSDictionary,
                        __ZN23OZMaterialCompoundLayer19getShouldRotateSideERK7FigTime, __ZN23OZMaterialCompoundLayer19setSpecularAngleMapERN19OZMaterialLayerBase19LayeredMaterialInfoERK5PCPtrI25SpecularMaterialLayerBaseEP12NSDictionaryRK18OZTexturePlacement,
                        __ZN23OZMaterialCompoundLayer20getSpecularShininessEP12NSDictionaryRK7FigTime, __ZN23OZMaterialCompoundLayer22getUseTriplanarMappingERK7FigTime,
                        __ZN23OZMaterialCompoundLayer23setSpecularShininessMapERN19OZMaterialLayerBase19LayeredMaterialInfoERK5PCPtrI21SpecularMaterialLayerEP12NSDictionaryRK18OZTexturePlacement, __ZN23OZMaterialCompoundLayer27getMetalShinyPercentChannelEv,
                        __ZN23OZMaterialCompoundLayer28setTransformValuesAsDefaultsEv, __ZN23OZMaterialCompoundLayer30updateLocalTransformVisibilityEv,
                        __ZN23OZMaterialCompoundLayerC2EP9OZFactoryRK8PCStringP15OZChannelFolderjj, __ZN23OZMaterialCompoundLayerC2ERKS_P15OZChannelFolder,
                        __ZN23OZMaterialEmissiveLayer19anyGradientChannelsEv, __ZN23OZMaterialEmissiveLayer21getColorChannelForHUDEv,
                        __ZN23OZMaterialEmissiveLayer29appendLayersToLayeredMaterialERN19OZMaterialLayerBase19LayeredMaterialInfoE, __ZN23OZMaterialEmissiveLayer38makeMaterialLayerSequenceChannelFolderEv,
                        __ZN23OZMaterialEmissiveLayerC1EP9OZFactoryRK8PCStringP15OZChannelFolderjj, __ZN23OZMaterialEmissiveLayerC1ERK8PCStringP15OZChannelFolderjj,
                        __ZN23OZMaterialEmissiveLayerC2EP9OZFactoryRK8PCStringP15OZChannelFolderjj, __ZN23OZMaterialEmissiveLayerC2ERK8PCStringP15OZChannelFolderjj,
                        __ZN23OZMaterialEmissiveLayerD0Ev, __ZN23OZMaterialEmissiveLayerD2Ev,
                        __ZN23OZMaterialSpecularLayer23checkDeprecatedChannelsEv, __ZN23OZMaterialSpecularLayer31copyDeprecatedIntensityChannelsER16OZChannelPercentR15OZChannelDouble,
                        __ZN23OZMaterialSpecularLayer31fixupImageChannelsOffsetChannelEP17OZLayeredMaterial, __ZN23OZMaterialSpecularLayer38makeMaterialLayerSequenceChannelFolderEv,
                        __ZN23OZMaterialSpecularLayerC1EP9OZFactoryRK8PCStringP15OZChannelFolderjj, __ZN23OZMaterialSpecularLayerC1ERK8PCStringP15OZChannelFolderjj,
                        __ZN23OZMaterialSpecularLayerC2EP9OZFactoryRK8PCStringP15OZChannelFolderjj, __ZN23OZMaterialSpecularLayerC2ERK8PCStringP15OZChannelFolderjj,
                        __ZN23OZMaterialSpecularLayerD0Ev, __ZN23OZMaterialSpecularLayerD2Ev,
                        __ZN23OZMsgTracerEnableSentryC2Eb, __ZN23OZMsgTracerEnableSentryD2Ev,
                        __ZN23OZProcessControlWrapperC1Ev, __ZN23OZProcessControlWrapperD0Ev,
                        __ZN23OZProcessControlWrapperD2Ev, __ZN23OZSingleChannelBehavior10parseBeginER22PCSerializerReadStream,
                        __ZN23OZSingleChannelBehavior12addToChannelEP13OZChannelBase, __ZN23OZSingleChannelBehavior12parseElementER22PCSerializerReadStreamR15PCStreamElement,
                        __ZN23OZSingleChannelBehavior13updateChanRefEPNSt3__13mapIjjNS0_4lessIjEENS0_9allocatorINS0_4pairIKjjEEEEEE, __ZN23OZSingleChannelBehavior14getNeededRangeEjP16OZCurveNodeParam,
                        __ZN23OZSingleChannelBehavior15createCurveNodeEP9OZChannel, __ZN23OZSingleChannelBehavior15setExcludeFlagsEj,
                        __ZN23OZSingleChannelBehavior16sceneNodeDidLoadEv, __ZN23OZSingleChannelBehavior17willDeleteChannelEP13OZChannelBase,
                        __ZN23OZSingleChannelBehavior18commonDidAddToNodeEv, __ZN23OZSingleChannelBehavior19Is3DCompoundChannelEP13OZChannelBase,
                        __ZN23OZSingleChannelBehavior21didUndoDeleteOfObjectEP19OZObjectManipulator, __ZN23OZSingleChannelBehavior22willDeleteObjectHelperEP19OZObjectManipulator,
                        __ZN23OZSingleChannelBehavior29GetDefaultExcludeFlagsForChanEP13OZChannelBase, __ZN23OZSingleChannelBehavior9solveNodeEjR16OZCurveNodeParam,
                        __ZN23OZSingleChannelBehavior9writeBodyER23PCSerializerWriteStreambbb, __ZN23OZSingleChannelBehaviorC1ERKS_j,
                        __ZN23OZSingleChannelBehaviorC2ERKS_j, __ZN23OZSingleChannelBehaviorD1Ev,
                        __ZN23OZSingleChannelBehavioraSERK10OZBehavior, __ZN23OZTransformNode_Factory9_instanceE,
                        __ZN23PCSerializerWriteStream9pushScopeEP7PCScope, __ZN23PGBeginEndContextSentry5beginEv,
                        __ZN23PGBeginEndContextSentryC1ERKNSt3__110shared_ptrIK9PGContextEE, __ZN23PGBeginEndContextSentryC2ERKNSt3__110shared_ptrIK9PGContextEE,
                        __ZN23PGBeginEndContextSentryD2Ev, __ZN23PSEmitterMoToFoBehavior22getParentTransformNodeEv,
                        __ZN23PSEmitterMoToFoBehaviorC1EP9OZFactoryRK8PCStringj, __ZN23PSEmitterMoToFoBehaviorC2EP9OZFactoryRK8PCStringj,
                        __ZN23PSEmitterMoToFoBehaviorD0Ev, __ZN23PSEmitterMoToFoBehaviorD2Ev,
                        __ZN23PSPaintSequenceBehavior11findEmitterEP11OZSceneNode, __ZN23PSPaintSequenceBehavior14normalizeIndexEdRK7FigTime,
                        __ZN23PSPaintSequenceBehavior16arGetChannelListERNSt3__16vectorIP13OZChannelBaseNS0_9allocatorIS3_EEEE, __ZN23PSPaintSequenceBehavior17canAddToSceneNodeEP11OZSceneNode,
                        __ZN23PSPaintSequenceBehavior18getOffsetAndDoWrapERK7FigTimeRdRb, __ZN23PSPaintSequenceBehaviorC1EP9OZFactoryRK8PCStringj,
                        __ZN23PSPaintSequenceBehaviorC2EP9OZFactoryRK8PCStringj, __ZN23PSScaleOverLifeBehavior10parseBeginER22PCSerializerReadStream,
                        __ZN23PSScaleOverLifeBehavior17updateHiddenFlagsEPNSt3__14listIP10OZBehaviorNS0_9allocatorIS3_EEEE, __ZN23PSScaleOverLifeBehavior37_PSScaleOverLifeBehavior_scaleEndChanE,
                        __ZN23PSScaleOverLifeBehavior39_PSScaleOverLifeBehavior_scaleBeginChanE, __ZN23PSScaleOverLifeBehavior42_PSScaleOverLifeBehavior_incrementTypeChanE,
                        __ZN23PSScaleOverLifeBehavior43_PSScaleOverLifeBehavior_scaleBeginChanInfoE, __ZN23PSScaleOverLifeBehavior8getScaleERK7FigTimeS2_R9PCVector3IdE,
                        __ZN23PSScaleOverLifeBehaviorC1EP9OZFactoryRK8PCStringj, __ZN23PSScaleOverLifeBehaviorC2EP9OZFactoryRK8PCStringj,
                        __ZN23PSScaleOverLifeBehaviorD0Ev, __ZN23PSScaleOverLifeBehaviorD2Ev,
                        __ZN23PVFrameStatsDescription10PrintStatsEPKN11PVPerfStats10FrameStatsES3_, __ZN23PVFrameStatsDescription11PrintLabelsEv,
                        __ZN23TXChannelString_Factory9_instanceE, __ZN23TXGrowShrinkCurveNode1D9cloneNodeEv,
                        __ZN23TXGrowShrinkCurveNode1D9solveNodeERK7FigTimedd, __ZN23TXGrowShrinkCurveNode1DC1ERKS_,
                        __ZN23TXGrowShrinkCurveNode1DC2ERKS_, __ZN23TXGrowShrinkCurveNode1DD1Ev,
                        __ZN23TXTextFromFileGenerator10parseBeginER22PCSerializerReadStream, __ZN23TXTextFromFileGenerator13didAddToSceneEP7OZScene,
                        __ZN23TXTextFromFileGenerator14generateStringER8PCStringRK14OZRenderParams, __ZN23TXTextFromFileGenerator6setURLER5PCURL,
                        __ZN23TXTextFromFileGenerator8parseEndER22PCSerializerReadStream, __ZN23TXTextFromFileGenerator9writeBodyER23PCSerializerWriteStreambbb,
                        __ZN23TXTextFromFileGeneratorC1ERKS_j, __ZN23TXTextFromFileGeneratorC2ERKS_j,
                        __ZN23TXTextFromFileGeneratorD1Ev, __ZN23TXTextGenerator_Factory9_instanceE,
                        __ZN24HGMetalSamplerStateCache19_createSamplerStateERKNS_4InfoE, __ZN24HGMetalSamplerStateCacheC2E15HGMTLDeviceType,
                        __ZN24HGMetalSamplerStateCacheD2Ev, __ZN24HgcBlur_cs9s_es_noborder10RenderTileEP6HGTile,
                        __ZN24HgcBlur_cs9s_es_noborder12GetParameterEiPf, __ZN24HgcBlur_cs9s_es_noborder4BindEP9HGHandler,
                        __ZN24HgcBlur_cs9s_es_noborder6GetROIEP10HGRendereri6HGRect, __ZN24HgcBlur_cs9s_es_noborderC1Ev,
                        __ZN24HgcBlur_cs9s_es_noborderD0Ev, __ZN24HgcBlur_cs9s_es_noborderD2Ev,
                        __ZN24HgcSpillRemovalDarkEdges10RenderTileEP6HGTile, __ZN24HgcSpillRemovalDarkEdges12GetParameterEiPf,
                        __ZN24HgcSpillRemovalDarkEdges4BindEP9HGHandler, __ZN24HgcSpillRemovalDarkEdges6GetROIEP10HGRendereri6HGRect,
                        __ZN24HgcSpillRemovalDarkEdgesC1Ev, __ZN24HgcSpillRemovalDarkEdgesD0Ev,
                        __ZN24HgcSpillRemovalDarkEdgesD2Ev, __ZN24LiAsyncBumpBitmapCreatorC1E9PCHash128NSt3__113shared_futureINS1_10shared_ptrI8PCBitmapEEEERK17LiBumpTextureInfo,
                        __ZN24LiAsyncBumpBitmapCreatorclEv, __ZN24LiHeLightProgramInitPass10RenderTileEP6HGTile,
                        __ZN24LiHeLightProgramInitPass12GetParameterEiPf, __ZN24LiHeLightProgramInitPass4BindEP9HGHandler,
                        __ZN24LiHeLightProgramInitPass6GetROIEP10HGRendereri6HGRect, __ZN24LiHeLightProgramInitPassC1Ev,
                        __ZN24LiHeLightProgramInitPassD0Ev, __ZN24LiHeLightProgramInitPassD2Ev,
                        __ZN24OZCameraBehavior_Factory9_instanceE, __ZN24OZCatmullRomInterpolatorC2Ev,
                        __ZN24OZCatmullRomInterpolatorD1Ev, __ZN24OZChanFootageRef_Factory9_instanceE,
                        __ZN24OZChannelDoubleOverRange10parseBeginER22PCSerializerReadStream, __ZN24OZChannelDoubleOverRange12nextKeypointEPd,
                        __ZN24OZChannelDoubleOverRange13addKeypointAtERK7FigTime, __ZN24OZChannelDoubleOverRange13hasKeypointAtERK7FigTimej,
                        __ZN24OZChannelDoubleOverRange14moveKeypointToERK7FigTimeS2_bb, __ZN24OZChannelDoubleOverRange14resetToDefaultEv,
                        __ZN24OZChannelDoubleOverRange16deleteKeypointAtEd, __ZN24OZChannelDoubleOverRange16previousKeypointEPd,
                        __ZN24OZChannelDoubleOverRange17setValueOverRangeEddd, __ZN24OZChannelDoubleOverRange18allHaveKeypointsAtEd,
                        __ZN24OZChannelDoubleOverRange21adjustToFrameDurationERK7FigTime, __ZN24OZChannelDoubleOverRange22getValueOverRangeAsIntEdd,
                        __ZN24OZChannelDoubleOverRange25getValueOverRangeAsDoubleEdd, __ZN24OZChannelDoubleOverRange9writeBodyER23PCSerializerWriteStreambbb,
                        __ZN24OZChannelDoubleOverRangeC1EP9OZFactoryRK8PCStringj, __ZN24OZChannelDoubleOverRangeC1ERKS_P15OZChannelFolder,
                        __ZN24OZChannelDoubleOverRangeC2EP9OZFactoryRK8PCStringP15OZChannelFolderjjP13OZChannelImplP13OZChannelInfo, __ZN24OZChannelDoubleOverRangeC2ERK8PCStringP15OZChannelFolderjjP13OZChannelImplP13OZChannelInfo,
                        __ZN24OZChannelDoubleOverRangeC2EdRK8PCStringP15OZChannelFolderjjP13OZChannelImplP13OZChannelInfo, __ZN24OZChannelHistogramSample4copyEPK13OZChannelBaseb,
                        __ZN24OZChannelHistogramSampleC1EP9OZFactoryRK8PCStringjj, __ZN24OZChannelHistogramSampleC1ERKS_P15OZChannelFolder,
                        __ZN24OZChannelHistogramSampleC2EP9OZFactoryRK8PCStringP15OZChannelFolderjjj, __ZN24OZChannelHistogramSampleC2ERK8PCStringP15OZChannelFolderjjj,
                        __ZN24OZChannelHistogramSampleC2EdddddRK8PCStringP15OZChannelFolderjjj, __ZN24OZChannelPositionPercent18getObjCWrapperNameEv,
                        __ZN24OZChannelPositionPercentC1ERK8PCStringP15OZChannelFolderjj, __ZN24OZChannelPositionPercentC1EddRK8PCStringP15OZChannelFolderjj,
                        __ZN24OZChannelPositionPercentC2ERK8PCStringP15OZChannelFolderjj, __ZN24OZChannelPositionPercentC2EddRK8PCStringP15OZChannelFolderjj,
                        __ZN24OZChannelTransformSwitch18getObjCWrapperNameEv, __ZN24OZChannelTransformSwitchC1EP9OZFactoryRK8PCStringP15OZChannelFolderjjj,
                        __ZN24OZChannelTransformSwitchC1ERK8PCStringP15OZChannelFolderjjj, __ZN24OZChannelTransformSwitchC1EbbbRK8PCStringP15OZChannelFolderjjj,
                        __ZN24OZChannelTransformSwitchC2EP9OZFactoryRK8PCStringjj, __ZN24OZChannelTransformSwitchC2ERKS_P15OZChannelFolder,
                        __ZN24OZCloneGenerator_Factory9_instanceE, __ZN24OZDriftAttractorBehaviorC1EP9OZFactoryRK8PCStringj,
                        __ZN24OZDriftAttractorBehaviorC2EP9OZFactoryRK8PCStringj, __ZN24OZDriftAttractorBehaviorD0Ev,
                        __ZN24OZDriftAttractorBehaviorD2Ev, __ZN24OZGenericOffsetCurveNode14getNeededRangeEP16OZCurveNodeParam,
                        __ZN24OZGenericOffsetCurveNode9solveNodeER16OZCurveNodeParam, __ZN24OZGenericOffsetCurveNodeC1EP10OZBehaviorP9OZChannelS3_,
                        __ZN24OZGenericOffsetCurveNodeC2EP10OZBehaviorP9OZChannelS3_, __ZN24OZGenericOffsetCurveNodeD0Ev,
                        __ZN24OZGenericOffsetCurveNodeD2Ev, __ZN24OZInterpolatorStrategies11getInstanceEv,
                        __ZN24OZInterpolatorStrategies9_instanceE, __ZN24OZInterpolatorStrategiesC2Ev,
                        __ZN24OZInterpolatorStrategiesD1Ev, __ZN24OZLightingFolder_Factory9_instanceE,
                        __ZN24OZMEChannelTimeConverter13PopConversionEv, __ZN24OZMEChannelTimeConverter17globalToLocalTimeEPK13OZChannelBaseRK7FigTime,
                        __ZN24OZMEChannelTimeConverter20GetCurrentConversionEv, __ZN24OZMaterialSubstanceLayer11getBumpGainEP12NSDictionaryRK7FigTimeRN19OZMaterialLayerBase19LayeredMaterialInfoE,
                        __ZN24OZMaterialSubstanceLayer13getLayerTypesEv, __ZN24OZMaterialSubstanceLayer13updateMetalUIEi,
                        __ZN24OZMaterialSubstanceLayer14resetToDefaultEv, __ZN24OZMaterialSubstanceLayer15updatePlasticUIENS_16PlasticColorTypeE,
                        __ZN24OZMaterialSubstanceLayer17hideAllParametersEv, __ZN24OZMaterialSubstanceLayer18getGradientChannelERK7FigTime,
                        __ZN24OZMaterialSubstanceLayer19appendSpecularLayerERN19OZMaterialLayerBase19LayeredMaterialInfoERK7FigTimeP12NSDictionary, __ZN24OZMaterialSubstanceLayer19setGenericColorTypeEj,
                        __ZN24OZMaterialSubstanceLayer20blocksMaterialsBelowEv, __ZN24OZMaterialSubstanceLayer20getSpecularIntensityEP12NSDictionaryRK7FigTime,
                        __ZN24OZMaterialSubstanceLayer21channelValueWillBeSetEP9OZChannelRK7FigTimed, __ZN24OZMaterialSubstanceLayer22appendMetalAbsorbLayerERN19OZMaterialLayerBase19LayeredMaterialInfoE,
                        __ZN24OZMaterialSubstanceLayer23layerUIParameterChangedEv, __ZN24OZMaterialSubstanceLayer26showParametersForSubstanceENS_13SubstanceTypeE,
                        __ZN24OZMaterialSubstanceLayer27isAnySharedTransformEnabledEv, __ZN24OZMaterialSubstanceLayer28setDefaultImageChannelValuesEv,
                        __ZN24OZMaterialSubstanceLayer29appendLayersToLayeredMaterialERN19OZMaterialLayerBase19LayeredMaterialInfoE, __ZN24OZMaterialSubstanceLayer30updateLocalTransformVisibilityEv,
                        __ZN24OZMaterialSubstanceLayer36channelChangeWillModifyMetalGradientEP13OZChannelBase, __ZN24OZMaterialSubstanceLayer8parseEndER22PCSerializerReadStream,
                        __ZN24OZMaterialSubstanceLayerC1EP9OZFactoryRK8PCStringP15OZChannelFolderjj, __ZN24OZMaterialSubstanceLayerC1ERK8PCStringP15OZChannelFolderjj,
                        __ZN24OZMaterialSubstanceLayerC2EP9OZFactoryRK8PCStringP15OZChannelFolderjj, __ZN24OZMaterialSubstanceLayerC2ERK8PCStringP15OZChannelFolderjj,
                        __ZN24OZMotionToForcesBehavior10willRemoveEv, __ZN24OZMotionToForcesBehavior11getSimStateERK7FigTimeP17OZSimulationState,
                        __ZN24OZMotionToForcesBehavior12didAddToNodeEP11OZSceneNode, __ZN24OZMotionToForcesBehavior16calcHashForStateER23PCSerializerWriteStreamRK14OZRenderParamsRNSt3__14listIP19OZObjectManipulatorNS5_9allocatorIS8_EEEE,
                        __ZN24OZMotionToForcesBehavior16sceneNodeDidLoadEv, __ZN24OZMotionToForcesBehavior18accumInitialValuesEP17OZSimulationStateP15OZTransformNode,
                        __ZN24OZMotionToForcesBehavior19isSceneNodeAnimatedEP11OZSceneNode, __ZN24OZMotionToForcesBehavior24accumInitialValuesHelperEP17OZSimulationStateP15OZTransformNode,
                        __ZN24OZMotionToForcesBehavior28willRemoveSceneNodeFromSceneEP7OZScene, __ZN24OZMotionToForcesBehavior34ignoreTransitiveBehaviorsBeforeNowEv,
                        __ZN24OZMotionToForcesBehavior7didBakeEv, __ZN24OZMotionToForcesBehaviorC1EP9OZFactoryRK8PCStringj,
                        __ZN24OZMotionToForcesBehaviorC2EP9OZFactoryRK8PCStringj, __ZN24OZMotionToForcesBehaviorD0Ev,
                        __ZN24OZMotionToForcesBehaviorD2Ev, __ZN24OZMoveToBehavior_Factory9_instanceE,
                        __ZN24OZOutputColorSpaceSentryC1ER14OZRenderParams, __ZN24OZOutputColorSpaceSentryC2ER14OZRenderParams,
                        __ZN24OZOutputColorSpaceSentryD1Ev, __ZN24OZRotationalDragBehavior11accumForcesEP15OZSimStateArrayP15OZTransformNode,
                        __ZN24OZRotationalDragBehaviorC1EP9OZFactoryRK8PCStringj, __ZN24OZRotationalDragBehaviorC2EP9OZFactoryRK8PCStringj,
                        __ZN24OZRotationalDragBehaviorD0Ev, __ZN24OZRotationalDragBehaviorD2Ev,
                        __ZN24OZRotoshapeStyle_Factory9_instanceE, __ZN24OZShapeBehaviorCurveNode9cloneNodeEv,
                        __ZN24OZShapeBehaviorCurveNode9solveNodeERK7FigTimedd, __ZN24OZShapeBehaviorCurveNodeC1ERKS_,
                        __ZN24OZShapeBehaviorCurveNodeC2ERKS_, __ZN24OZShapeBehaviorCurveNodeD1Ev,
                        __ZN24OZSpringBehavior_Factory9_instanceE, __ZN24PCRenderAbortedException17enableAbortRenderEv,
                        __ZN24PVDeferredBitmapProviderD0Ev, __ZN24PVDeferredBitmapProviderD2Ev,
                        __ZN24SpecularAngleTextureImpl5startEv, __ZN24SpecularAngleTextureImplC2ERK5PCURLN13PCPixelFormat12ChannelOrderEP12CGColorSpace,
                        __ZN24SpecularAngleTextureImplD1Ev, __ZN24TXDiscontinuousSelection10removeCharEj,
                        __ZN24TXDiscontinuousSelection7addCharEj, __ZN24TXDiscontinuousSelectionC1ERKS_,
                        __ZN24TXDiscontinuousSelectionC2ERKS_, __ZN24TXTextLayoutBehaviorNode9solveNodeER16OZCurveNodeParam,
                        __ZN24TXTextLayoutBehaviorNodeC1EP20TXTextScrollBehaviorP9OZChannel, __ZN24TXTextLayoutBehaviorNodeC2EP20TXTextScrollBehaviorP9OZChannel,
                        __ZN24TXTextLayoutBehaviorNodeD0Ev, __ZN24TXTextLayoutBehaviorNodeD2Ev,
                        __ZN25HGBMDFilmToneCurveLUTInfo12kMaxLogGammaE, __ZN25HGBMDFilmToneCurveLUTInfo1bE,
                        __ZN25HGBMDFilmToneCurveLUTInfo1dE, __ZN25HGBMDFilmToneCurveLUTInfo1kE,
                        __ZN25HGBMDFilmToneCurveLUTInfo1tE, __ZN25HGBMDFilmToneCurveLUTInfo4c_4KE,
                        __ZN25HGBMDFilmToneCurveLUTInfo4g_4KE, __ZN25HGBMDFilmToneCurveLUTInfo4m_4KE,
                        __ZN25HGBMDFilmToneCurveLUTInfoC1EmffbN16HGApplyNDLUTInfo16LUTStorageFormatE, __ZN25HGPremultiplyWhiteToBlack9GetOutputEP10HGRenderer,
                        __ZN25HGPremultiplyWhiteToBlackC2Ev, __ZN25HGPremultiplyWhiteToBlackD1Ev,
                        __ZN25HgcGradientLinearIdentity10GetProgramEP10HGRenderer, __ZN25HgcGradientLinearIdentity11BindTextureEP9HGHandleri,
                        __ZN25HgcGradientLinearIdentity12SetParameterEiffff, __ZN25HgcGradientLinearIdentity6GetDODEP10HGRendereri6HGRect,
                        __ZN25HgcGradientLinearIdentity9GetOutputEP10HGRenderer, __ZN25HgcGradientLinearIdentityC2Ev,
                        __ZN25HgcGradientLinearIdentityD1Ev, __ZN25HgcRasterizerGeneratoriOS10GetProgramEP10HGRenderer,
                        __ZN25HgcRasterizerGeneratoriOS11BindTextureEP9HGHandleri, __ZN25HgcRasterizerGeneratoriOS12SetParameterEiffff,
                        __ZN25HgcRasterizerGeneratoriOS4BindEP9HGHandler, __ZN25HgcRasterizerGeneratoriOS6GetROIEP10HGRendereri6HGRect,
                        __ZN25HgcRasterizerGeneratoriOSC1Ev, __ZN25HgcRasterizerGeneratoriOSD0Ev,
                        __ZN25HgcRasterizerGeneratoriOSD2Ev, __ZN25HgcTextureWrapClampToEdge10RenderTileEP6HGTile,
                        __ZN25HgcTextureWrapClampToEdge12GetParameterEiPf, __ZN25HgcTextureWrapClampToEdge4BindEP9HGHandler,
                        __ZN25HgcTextureWrapClampToEdge6GetROIEP10HGRendereri6HGRect, __ZN25HgcTextureWrapClampToEdgeC1Ev,
                        __ZN25HgcTextureWrapClampToEdgeD0Ev, __ZN25HgcTextureWrapClampToEdgeD2Ev,
                        __ZN25IVPlayerSourceBitmapFrame15CreatePVTextureEP12HGGLRenderer, __ZN25IVPlayerSourceBitmapFrame6BitmapEP10HGRendererj,
                        __ZN25IVPlayerSourceBitmapFrameC2E5HGRefI8HGBitmapE6CMTime6HGRect, __ZN25IVPlayerSourceHGNodeFrame4NodeEP10HGRenderer,
                        __ZN25IVPlayerSourceHGNodeFrame6FormatEj, __ZN25IVPlayerSourceHGNodeFrameC2E5HGRefI6HGNodeE6CMTime6HGRect,
                        __ZN25LiHeLightSurfaceFinalPass6GetROIEP10HGRendereri6HGRect, __ZN25LiHeLightSurfaceFinalPassC1Ev,
                        __ZN25LiHeLightSurfaceFinalPassC2Ev, __ZN25OZAlignToBehavior_Factory9_instanceE,
                        __ZN25OZBoundsCollisionBehavior12didAddToNodeEP11OZSceneNode, __ZN25OZBoundsCollisionBehavior22didAddSceneNodeToSceneEP7OZScene,
                        __ZN25OZBoundsCollisionBehavior8parseEndER22PCSerializerReadStream, __ZN25OZBoundsCollisionBehaviorC1ERS_j,
                        __ZN25OZBoundsCollisionBehaviorC2ERS_j, __ZN25OZBoundsCollisionBehaviorD1Ev,
                        __ZN25OZBoundsCollisionBehavioraSERK10OZBehavior, __ZN25OZChanElementOrFootageRef12setImageNodeEP11OZImageNode,
                        __ZN25OZChanElementOrFootageRefC1EP9OZFactoryRK8PCStringP15OZChannelFolderjj, __ZN25OZChanElementOrFootageRefC1EP9OZFactorydRK8PCStringP15OZChannelFolderjj,
                        __ZN25OZChanElementOrFootageRefC1ERK8PCStringP15OZChannelFolderjj, __ZN25OZChanElementOrFootageRefC2EP9OZFactoryRK18OZChanSceneNodeRefP15OZChannelFolder,
                        __ZN25OZChanElementOrFootageRefC2EP9OZFactoryRK8PCStringj, __ZN25OZChanElementOrFootageRefC2ERK18OZChanSceneNodeRefP15OZChannelFolder,
                        __ZN25OZChanElementOrFootageRefC2EdRK8PCStringP15OZChannelFolderjj, __ZN25OZChanElementOrFootageRefD1Ev,
                        __ZN25OZChanObjectRefWithPicker10getFootageEv, __ZN25OZChanObjectRefWithPicker10setFootageEP9OZFootage,
                        __ZN25OZChanObjectRefWithPicker16removeDependencyEv, __ZN25OZChanObjectRefWithPicker22addAcceptedFactoryUUIDE6PCUUID,
                        __ZN25OZChanObjectRefWithPicker25removeAcceptedFactoryUUIDE6PCUUID, __ZN25OZChanObjectRefWithPicker4copyEPK13OZChannelBase,
                        __ZN25OZChanObjectRefWithPicker7setNodeEP11OZSceneNode, __ZN25OZChanObjectRefWithPicker8setValueEdd,
                        __ZN25OZChanObjectRefWithPickerC1EP9OZFactoryRK8PCStringj, __ZN25OZChanObjectRefWithPickerC1EP9OZFactorydRK8PCStringP15OZChannelFolderjj,
                        __ZN25OZChanObjectRefWithPickerC1ERKS_P15OZChannelFolder, __ZN25OZChanObjectRefWithPickerC2EP9OZFactoryRK8PCStringP15OZChannelFolderjj,
                        __ZN25OZChanObjectRefWithPickerC2EP9OZFactoryRKS_P15OZChannelFolder, __ZN25OZChanObjectRefWithPickerC2ERK8PCStringP15OZChannelFolderjj,
                        __ZN25OZChanObjectRefWithPickerC2EdRK8PCStringP15OZChannelFolderjj, __ZN25OZChanObjectRefWithPickerD1Ev,
                        __ZN25OZChanObjectRefWithPickeraSERKS_, __ZN25OZChannelGradient_Factory9_instanceE,
                        __ZN25OZChannelImageWithOptions18getObjCWrapperNameEv, __ZN25OZChannelImageWithOptions36_OZChannelImageWithOptions_frameInfoE,
                        __ZN25OZChannelImageWithOptions7compareEPK13OZChannelBase, __ZN25OZChannelImageWithOptions8parseEndER22PCSerializerReadStream,
                        __ZN25OZChannelImageWithOptionsC1EP9OZFactoryRK8PCStringj, __ZN25OZChannelImageWithOptionsC1ERKS_P15OZChannelFolder,
                        __ZN25OZChannelImageWithOptionsC2EP9OZFactoryRK8PCStringj, __ZN25OZChannelImageWithOptionsC2ERKS_P15OZChannelFolder,
                        __ZN25OZChannelMaterialLayerMap22willSetSharedTransformEdP17OZLayeredMaterial, __ZN25OZChannelMaterialLayerMap28setImageChannelOffsetChannelEP17OZLayeredMaterial,
                        __ZN25OZChannelMaterialLayerMap4copyEPK13OZChannelBaseb, __ZN25OZChannelMaterialLayerMap7compareEPK13OZChannelBase,
                        __ZN25OZChannelMaterialLayerMapC1EP9OZFactoryRK8PCStringP15OZChannelFolderjj, __ZN25OZChannelMaterialLayerMapC1ERK8PCStringP15OZChannelFolderjj,
                        __ZN25OZChannelMaterialLayerMapC2EP9OZFactoryRK8PCStringP15OZChannelFolderjj, __ZN25OZChannelMaterialLayerMapC2ERK8PCStringP15OZChannelFolderjj,
                        __ZN25OZChannelMaterialMapScale13setBasisScaleEdd, __ZN25OZChannelMaterialMapScaleC1EP9OZFactoryRK8PCStringP15OZChannelFolderjj,
                        __ZN25OZChannelMaterialMapScaleC1ERK8PCStringP15OZChannelFolderjj, __ZN25OZChannelMaterialMapScaleC1EddRK8PCStringP15OZChannelFolderjj,
                        __ZN25OZChannelMaterialMapScaleC2EP9OZFactoryRK8PCStringj, __ZN25OZChannelMaterialMapScaleC2ERKS_P15OZChannelFolder,
                        __ZN25OZChannelPercentOverRange10parseBeginER22PCSerializerReadStream, __ZN25OZChannelPercentOverRange12nextKeypointEPd,
                        __ZN25OZChannelPercentOverRange13addKeypointAtERK7FigTime, __ZN25OZChannelPercentOverRange13hasKeypointAtERK7FigTimej,
                        __ZN25OZChannelPercentOverRange14moveKeypointToERK7FigTimeS2_bb, __ZN25OZChannelPercentOverRange14resetToDefaultEv,
                        __ZN25OZChannelPercentOverRange16deleteKeypointAtEd, __ZN25OZChannelPercentOverRange16previousKeypointEPd,
                        __ZN25OZChannelPercentOverRange17setValueOverRangeEddd, __ZN25OZChannelPercentOverRange18allHaveKeypointsAtEd,
                        __ZN25OZChannelPercentOverRange21adjustToFrameDurationERK7FigTime, __ZN25OZChannelPercentOverRange22getValueOverRangeAsIntEdd,
                        __ZN25OZChannelPercentOverRange25getValueOverRangeAsDoubleEdd, __ZN25OZChannelPercentOverRange9writeBodyER23PCSerializerWriteStreambbb,
                        __ZN25OZChannelPercentOverRangeC1EP9OZFactoryRK8PCStringj, __ZN25OZChannelPercentOverRangeC1ERKS_P15OZChannelFolder,
                        __ZN25OZChannelPercentOverRangeC2EP9OZFactoryRK8PCStringP15OZChannelFolderjjP13OZChannelImplP13OZChannelInfo, __ZN25OZChannelPercentOverRangeC2ERK8PCStringP15OZChannelFolderjjP13OZChannelImplP13OZChannelInfo,
                        __ZN25OZChannelPercentOverRangeC2EdRK8PCStringP15OZChannelFolderjjP13OZChannelImplP13OZChannelInfo, __ZN25OZChannelProgress_Factory9_instanceE,
                        __ZN25OZCompoundChannel_Factory9_instanceE, __ZN25OZExponentialInterpolator14uForCurveValueER8OZSplinePvS2_RK7FigTimeS5_dRNSt3__16vectorIS3_NS6_9allocatorIS3_EEEE,
                        __ZN25OZExponentialInterpolator9subDivideER8OZSplineRK7FigTimePvS5_S5_, __ZN25OZGenericBehavior_Factory9_instanceE,
                        __ZN25OZGenericReplaceCurveNode9cloneNodeEv, __ZN25OZGenericReplaceCurveNode9solveNodeERK7FigTimedd,
                        __ZN25OZGenericReplaceCurveNodeC1ERKS_, __ZN25OZGenericReplaceCurveNodeC2ERKS_,
                        __ZN25OZGenericReplaceCurveNodeD1Ev, __ZN25OZGravityBehavior_Factory9_instanceE,
                        __ZN25OZLogarithmicInterpolator11interpolateER8OZSplineRK7FigTimePvS5_S4_bb, __ZN25OZLogarithmicInterpolator15getMinMaxValuesER8OZSplinePvS2_RK7FigTimeS5_PdS6_,
                        __ZN25OZPointAtBehavior_Factory9_instanceE, __ZN25OZReverseBehavior_Factory9_instanceE,
                        __ZN25OZSimSystemMoToFoBehavior11accumForcesEP15OZSimStateArrayP15OZTransformNode, __ZN25OZSimSystemMoToFoBehavior12didAddToNodeEP11OZSceneNode,
                        __ZN25OZSimSystemMoToFoBehavior16findCachedValuesEPA3_dP6PCQuatIdEPbi7FigTimeS6_, __ZN25OZSimSystemMoToFoBehavior18accumInitialValuesEP15OZSimStateArrayiP15OZTransformNode,
                        __ZN25OZSimSystemMoToFoBehavior19updateTransformNodeEP15OZTransformNode, __ZN25OZSimSystemMoToFoBehavior24calcParentsInitialValuesEP17OZSimulationState,
                        __ZN25OZSimSystemMoToFoBehaviorC1ERS_j, __ZN25OZSimSystemMoToFoBehaviorC2ERS_j,
                        __ZN25OZSimSystemMoToFoBehaviorD1Ev, __ZN25OZSimSystemMoToFoBehavioraSERK10OZBehavior,
                        __ZN25OZWriteOnBehavior_Factory9_instanceE, __ZN25PCHashWriteStreamRecycler14getWriteStreamEv,
                        __ZN25PGSetCurrentContextSentryC1ERKNSt3__110shared_ptrIK9PGContextEE, __ZN25PGSetCurrentContextSentryC2EPK9PGContext,
                        __ZN25PGSetCurrentContextSentryC2Ev, __ZN25PGSetCurrentContextSentryD2Ev,
                        __ZN25PMAudioChannelDescriptionC1Ev, __ZN25PMAudioChannelDescriptionC2Ev,
                        __ZN25PSPenTiltBehavior_Factory9_instanceE, __ZN25PVCameraPreviewRenderNode6NotifyEP12HGRenderNode,
                        __ZN25PVCameraPreviewRenderNodeC2EU13block_pointerFvP17PVRenderedTextureE, __ZN25SpecularMaterialLayerBaseC2EPv,
                        __ZN26HGCanonLogToneCurveLUTInfo12kMaxLogGammaE, __ZN26HGCanonLogToneCurveLUTInfo15kMaxRec709GammaE,
                        __ZN26HGCanonLogToneCurveLUTInfo15kMinRec709GammaE, __ZN26HGCanonLogToneCurveLUTInfo1aE,
                        __ZN26HGCanonLogToneCurveLUTInfo1cE, __ZN26HGCanonLogToneCurveLUTInfoC1EmffN16HGApplyNDLUTInfo16LUTStorageFormatE,
                        __ZN26HGColorConformNodeListItemC1Ev, __ZN26HGColorConformNodeListItemD1Ev,
                        __ZN26HGGLSetCurrentContextGuardC1E14HGGLContextPtr, __ZN26HGGLSetCurrentContextGuardD1Ev,
                        __ZN26HGTextureManagerHandleImpl11getNumBytesEN16HGTextureManager15SizeRequestTypeENS0_19SizeRequestLocationE, __ZN26HGTextureManagerHandleImpl14getNumTexturesEN16HGTextureManager15SizeRequestTypeENS0_19SizeRequestLocationE,
                        __ZN26HGTextureManagerHandleImplC1EP16HGTextureManager, __ZN26HGTextureManagerHandleImplD0Ev,
                        __ZN26HGTextureManagerHandleImplD2Ev, __ZN26HgcGradientLinearTranslate10RenderTileEP6HGTile,
                        __ZN26HgcGradientLinearTranslate12GetParameterEiPf, __ZN26HgcGradientLinearTranslate4BindEP9HGHandler,
                        __ZN26HgcGradientLinearTranslate6GetROIEP10HGRendereri6HGRect, __ZN26HgcGradientLinearTranslateC1Ev,
                        __ZN26HgcGradientLinearTranslateD0Ev, __ZN26HgcGradientLinearTranslateD2Ev,
                        __ZN26HgcPremultiplyWhiteToBlack10RenderTileEP6HGTile, __ZN26HgcPremultiplyWhiteToBlack12GetParameterEiPf,
                        __ZN26HgcPremultiplyWhiteToBlack4BindEP9HGHandler, __ZN26HgcPremultiplyWhiteToBlack6GetROIEP10HGRendereri6HGRect,
                        __ZN26HgcPremultiplyWhiteToBlackC1Ev, __ZN26HgcPremultiplyWhiteToBlackD0Ev,
                        __ZN26HgcPremultiplyWhiteToBlackD2Ev, __ZN26HgcShapeSoftEdgeClrInPlace10RenderTileEP6HGTile,
                        __ZN26HgcShapeSoftEdgeClrInPlace12GetParameterEiPf, __ZN26HgcShapeSoftEdgeClrInPlace14RenderFragmentEP10HGFragmentP6HGTile,
                        __ZN26HgcShapeSoftEdgeClrInPlace5SetupEPv, __ZN26HgcShapeSoftEdgeClrInPlace6GetROIEP10HGRendereri6HGRect,
                        __ZN26HgcShapeSoftEdgeClrInPlaceC1Ev, __ZN26HgcShapeSoftEdgeClrInPlaceD0Ev,
                        __ZN26HgcShapeSoftEdgeClrInPlaceD2Ev, __ZN26HgcYUV420BiPlanar_601ToRGB10RenderTileEP6HGTile,
                        __ZN26HgcYUV420BiPlanar_601ToRGB12GetParameterEiPf, __ZN26HgcYUV420BiPlanar_601ToRGB4BindEP9HGHandler,
                        __ZN26HgcYUV420BiPlanar_601ToRGB6GetROIEP10HGRendereri6HGRect, __ZN26HgcYUV420BiPlanar_601ToRGBC1Ev,
                        __ZN26HgcYUV420BiPlanar_601ToRGBD0Ev, __ZN26HgcYUV420BiPlanar_601ToRGBD2Ev,
                        __ZN26HgcYUV420BiPlanar_709ToRGB10RenderTileEP6HGTile, __ZN26HgcYUV420BiPlanar_709ToRGB12GetParameterEiPf,
                        __ZN26HgcYUV420BiPlanar_709ToRGB4BindEP9HGHandler, __ZN26HgcYUV420BiPlanar_709ToRGB6GetROIEP10HGRendereri6HGRect,
                        __ZN26HgcYUV420BiPlanar_709ToRGBC1Ev, __ZN26HgcYUV420BiPlanar_709ToRGBD0Ev,
                        __ZN26HgcYUV420BiPlanar_709ToRGBD2Ev, __ZN26HgcYUV444BiPlanar_601ToRGB10RenderTileEP6HGTile,
                        __ZN26HgcYUV444BiPlanar_601ToRGB12GetParameterEiPf, __ZN26HgcYUV444BiPlanar_601ToRGB4BindEP9HGHandler,
                        __ZN26HgcYUV444BiPlanar_601ToRGB6GetROIEP10HGRendereri6HGRect, __ZN26HgcYUV444BiPlanar_601ToRGBC1Ev,
                        __ZN26HgcYUV444BiPlanar_601ToRGBD0Ev, __ZN26HgcYUV444BiPlanar_601ToRGBD2Ev,
                        __ZN26HgcYUV444BiPlanar_709ToRGB10RenderTileEP6HGTile, __ZN26HgcYUV444BiPlanar_709ToRGB12GetParameterEiPf,
                        __ZN26HgcYUV444BiPlanar_709ToRGB4BindEP9HGHandler, __ZN26HgcYUV444BiPlanar_709ToRGB6GetROIEP10HGRendereri6HGRect,
                        __ZN26HgcYUV444BiPlanar_709ToRGBC1Ev, __ZN26HgcYUV444BiPlanar_709ToRGBD0Ev,
                        __ZN26HgcYUV444BiPlanar_709ToRGBD2Ev, __ZN26LiHeProgramRGBAdditionNode10RenderTileEP6HGTile,
                        __ZN26LiHeProgramRGBAdditionNode12GetParameterEiPf, __ZN26LiHeProgramRGBAdditionNode4BindEP9HGHandler,
                        __ZN26LiHeProgramRGBAdditionNode6GetROIEP10HGRendereri6HGRect, __ZN26LiHeProgramRGBAdditionNodeC1Ev,
                        __ZN26LiHeProgramRGBAdditionNodeD0Ev, __ZN26LiHeProgramRGBAdditionNodeD2Ev,
                        __ZN26LiSolidRendererImageSource20estimateRenderMemoryERNSt3__13setI9PCHash128NS0_4lessIS2_EENS0_9allocatorIS2_EEEE, __ZN26LiSolidRendererImageSource24adjustCasterLocalToWorldERK7LiLightRK7LiGeodeR14PCMatrix44TmplIdER9LiPolygonR6PCRectIdE,
                        __ZN26LiSolidRendererImageSourceC1Ev, __ZN26LiSolidRendererImageSourceD0Ev,
                        __ZN26LiSolidRendererImageSourceD2Ev, __ZN26MaterialTextureTransformer23composeTextureTransformERK7FigTimeR29OZChannelMaterialMapTransformP17OZLayeredMaterialbP17OZChannelPositionP14OZChannelScaleP19OZChannelRotation3DidbfR14PCMatrix44TmplIdERN8ProShade21TextureTransformBasisE,
                        __ZN26MaterialTextureTransformer23composeTextureTransformERK9PCVector2IdEdS3_, __ZN26MaterialTextureTransformer27setTextureTransformChannelsERK7FigTimeRK14PCMatrix44TmplIdER11OZChannel2DR19OZChannelRotation3DR14OZChannelScale,
                        __ZN26OZAlignSimBehavior_Factory9_instanceE, __ZN26OZChanFootageRefWithPickerC1EP9OZFactoryRK8PCStringP15OZChannelFolderjj,
                        __ZN26OZChanFootageRefWithPickerC1EP9OZFactoryRKS_P15OZChannelFolder, __ZN26OZChanFootageRefWithPickerC1ERK8PCStringP15OZChannelFolderjj,
                        __ZN26OZChanFootageRefWithPickerC1EdRK8PCStringP15OZChannelFolderjj, __ZN26OZChanFootageRefWithPickerC2EP9OZFactoryRK8PCStringj,
                        __ZN26OZChanFootageRefWithPickerC2EP9OZFactorydRK8PCStringP15OZChannelFolderjj, __ZN26OZChanFootageRefWithPickerC2ERKS_P15OZChannelFolder,
                        __ZN26OZChanRotoshapeRef_Factory9_instanceE, __ZN26OZChannelBlendMode_Factory9_instanceE,
                        __ZN26OZChannelEnumLayer_Factory9_instanceE, __ZN26OZChannelGradientRGBFolder17getARGBFromLookupEdPfRKNSt3__13mapIdN23OZChannelGradientFolder6SampleENS1_4lessIdEENS1_9allocatorINS1_4pairIKdS4_EEEEEE,
                        __ZN26OZChannelGradientRGBFolder17getSampleBaseNameEv, __ZN26OZChannelGradientRGBFolder9_baseNameE,
                        __ZN26OZChannelGradientRGBFolder9getLookupERK7FigTimeRNSt3__13mapIdN23OZChannelGradientFolder6SampleENS3_4lessIdEENS3_9allocatorINS3_4pairIKdS6_EEEEEE, __ZN26OZChannelGradientRGBFolderC1EP9OZFactoryRK8PCStringj,
                        __ZN26OZChannelGradientRGBFolderC1ERKS_P15OZChannelFolder, __ZN26OZChannelGradientRGBFolderC2EP9OZFactoryRK8PCStringj,
                        __ZN26OZChannelGradientRGBFolderC2ERKS_P15OZChannelFolder, __ZN26OZChannelGradientRGBFolderD1Ev,
                        __ZN26OZChannelGradientSampleRGB18getObjCWrapperNameEv, __ZN26OZChannelGradientSampleRGBC1EP9OZFactoryRK8PCStringP15OZChannelFolderjj,
                        __ZN26OZChannelGradientSampleRGBC1ERK8PCStringP15OZChannelFolderjj, __ZN26OZChannelGradientSampleRGBC1ERKS_P15OZChannelFolder,
                        __ZN26OZChannelGradientSampleRGBC2EP9OZFactoryRK8PCStringj, __ZN26OZChannelGradientSampleRGBC2ERK8PCStringdddddiP15OZChannelFolderjj,
                        __ZN26OZChannelGradientSampleRGBD0Ev, __ZN26OZChannelGradientSampleRGBD2Ev,
                        __ZN26OZChannelGradientWithAngle33_OZChannelGradientWithAngle_angleE, __ZN26OZChannelGradientWithAngleC1EP9OZFactoryRK8PCStringP15OZChannelFolderjj,
                        __ZN26OZChannelGradientWithAngleC1ERK8PCStringP15OZChannelFolderjj, __ZN26OZChannelGradientWithAngleC2EP9OZFactoryRK8PCStringP15OZChannelFolderjj,
                        __ZN26OZChannelGradientWithAngleC2ERK8PCStringP15OZChannelFolderjj, __ZN26OZChannelGradientWithAngleD0Ev,
                        __ZN26OZChannelGradientWithAngleD2Ev, __ZN26OZChannelSceneNode_Factory9_instanceE,
                        __ZN26OZDriftAttractedToBehaviorC1EP9OZFactoryRK8PCStringj, __ZN26OZDriftAttractedToBehaviorC2EP9OZFactoryRK8PCStringj,
                        __ZN26OZDriftAttractedToBehaviorD0Ev, __ZN26OZDriftAttractedToBehaviorD2Ev,
                        __ZN26OZFolderMaterialProperties12initChannelsEv, __ZN26OZFolderMaterialProperties4copyERKS_RK7FigTime,
                        __ZN26OZFolderMaterialPropertiesC1EP9OZFactoryRK8PCStringP15OZChannelFolderjjb, __ZN26OZFolderMaterialPropertiesC1ERK8PCStringP15OZChannelFolderjj,
                        __ZN26OZFolderMaterialPropertiesC2EP9OZFactoryRK8PCStringP15OZChannelFolderjjb, __ZN26OZFolderMaterialPropertiesC2ERK8PCStringP15OZChannelFolderjj,
                        __ZN26OZFolderMaterialPropertiesD0Ev, __ZN26OZFolderMaterialPropertiesD2Ev,
                        __ZN26OZFxPixelTransformsAPIData14pixelTransformEv, __ZN26OZFxPixelTransformsAPIData16setPostTransformEPK14PCMatrix44TmplIdE,
                        __ZN26OZFxPixelTransformsAPIData25destinationPixelTransformEv, __ZN26OZFxPixelTransformsAPIData8setAgentEP7LiAgent,
                        __ZN26PSPenSpeedBehavior_Factory9_instanceE, __ZN26PVDocumentAccessController16InitializeMotionEv,
                        __ZN26PVDocumentAccessController18ReleaseOZXDocumentEPv, __ZN26PVDocumentAccessController8INSTANCEEv,
                        __ZN26PVDocumentAccessControllerC2Ev, __ZN26PVDocumentAccessControllerD2Ev,
                        __ZN26TXScrollUpBehavior_Factory9_instanceE, __ZN27HGSony709_800ToneMapLUTInfo15kMaxSceneLinearE,
                        __ZN27HGSony709_800ToneMapLUTInfo1bE, __ZN27HGSony709_800ToneMapLUTInfoC1EmffN16HGApplyNDLUTInfo16LUTStorageFormatE,
                        __ZN27HgcBlueGreenScreenCandidate10GetProgramEP10HGRenderer, __ZN27HgcBlueGreenScreenCandidate11BindTextureEP9HGHandleri,
                        __ZN27HgcBlueGreenScreenCandidate12SetParameterEiffff, __ZN27HgcBlueGreenScreenCandidate6GetDODEP10HGRendereri6HGRect,
                        __ZN27HgcBlueGreenScreenCandidate9GetOutputEP10HGRenderer, __ZN27HgcBlueGreenScreenCandidateC2Ev,
                        __ZN27HgcBlueGreenScreenCandidateD1Ev, __ZN27HgcColorBalanceClipGammaOne10GetProgramEP10HGRenderer,
                        __ZN27HgcColorBalanceClipGammaOne11BindTextureEP9HGHandleri, __ZN27HgcColorBalanceClipGammaOne12SetParameterEiffff,
                        __ZN27HgcColorBalanceClipGammaOne6GetDODEP10HGRendereri6HGRect, __ZN27HgcColorBalanceClipGammaOne9GetOutputEP10HGRenderer,
                        __ZN27HgcColorBalanceClipGammaOneC2Ev, __ZN27HgcColorBalanceClipGammaOneD1Ev,
                        __ZN27HgcYUV420BiPlanar_pack_luma10GetProgramEP10HGRenderer, __ZN27HgcYUV420BiPlanar_pack_luma11BindTextureEP9HGHandleri,
                        __ZN27HgcYUV420BiPlanar_pack_luma12SetParameterEiffff, __ZN27HgcYUV420BiPlanar_pack_luma6GetDODEP10HGRendereri6HGRect,
                        __ZN27HgcYUV420BiPlanar_pack_luma9GetOutputEP10HGRenderer, __ZN27HgcYUV420BiPlanar_pack_lumaC2Ev,
                        __ZN27HgcYUV420BiPlanar_pack_lumaD1Ev, __ZN27IVPlayerSourceCVBitmapFrame11LoadTextureEP12HGGLRenderer,
                        __ZN27IVPlayerSourceCVBitmapFrame4NodeEP10HGRenderer, __ZN27IVPlayerSourceCVBitmapFrameC1E5HGRefI10HGCVBitmapE6CMTime6HGRect,
                        __ZN27LiHeLightProgramSpotSurface10GetProgramEP10HGRenderer, __ZN27LiHeLightProgramSpotSurface11BindTextureEP9HGHandleri,
                        __ZN27LiHeLightProgramSpotSurface12SetParameterEiffff, __ZN27LiHeLightProgramSpotSurface6GetDODEP10HGRendereri6HGRect,
                        __ZN27LiHeLightProgramSpotSurface9GetOutputEP10HGRenderer, __ZN27LiHeLightProgramSpotSurfaceC2Ev,
                        __ZN27LiHeLightProgramSpotSurfaceD1Ev, __ZN27LiHeLightSpotSurfaceDiffuse16setScreenToLocalERK14PCMatrix44TmplIdE,
                        __ZN27LiHeLightSpotSurfaceDiffuseC1Ev, __ZN27LiHeLightSpotSurfaceDiffuseC2Ev,
                        __ZN27LiHeLightSpotSurfaceDiffuseD1Ev, __ZN27LiHeProgramSpotLightStencil10GetProgramEP10HGRenderer,
                        __ZN27LiHeProgramSpotLightStencil11BindTextureEP9HGHandleri, __ZN27LiHeProgramSpotLightStencil12SetParameterEiffff,
                        __ZN27LiHeProgramSpotLightStencil6GetDODEP10HGRendereri6HGRect, __ZN27LiHeProgramSpotLightStencil9GetOutputEP10HGRenderer,
                        __ZN27LiHeProgramSpotLightStencilC2Ev, __ZN27LiHeProgramSpotLightStencilD1Ev,
                        __ZN27OZAttractorBehavior_Factory9_instanceE, __ZN27OZChannelAspectRatioFootage32_OZChannelAspectRatioFootageImplE,
                        __ZN27OZChannelEnumRetime_Factory9_instanceE, __ZN27OZChannelGradientPositioned18getObjCWrapperNameEv,
                        __ZN27OZChannelGradientPositioned4copyEPK13OZChannelBaseb, __ZN27OZChannelGradientPositionedC1EP9OZFactoryRK8PCStringP15OZChannelFolderjj,
                        __ZN27OZChannelGradientPositionedC1ERK8PCStringP15OZChannelFolderjj, __ZN27OZChannelGradientPositionedC2EP9OZFactoryRK8PCStringP15OZChannelFolderjj,
                        __ZN27OZChannelGradientPositionedC2ERK8PCStringP15OZChannelFolderjj, __ZN27OZChannelGradientPositionedD0Ev,
                        __ZN27OZChannelGradientPositionedD2Ev, __ZN27OZChannelImageWithTransform25setEnableWhiteBlackLevelsEb,
                        __ZN27OZChannelImageWithTransform7compareEPK13OZChannelBase, __ZN27OZChannelImageWithTransformC1EP9OZFactoryRK8PCStringj,
                        __ZN27OZChannelImageWithTransformC1ERKS_P15OZChannelFolder, __ZN27OZChannelImageWithTransformC2EP9OZFactoryRK8PCStringj,
                        __ZN27OZChannelImageWithTransformC2ERKS_P15OZChannelFolder, __ZN27OZChannelPosition3D_Factory9_instanceE,
                        __ZN27OZChannelShearAngle_Factory9_instanceE, __ZN27OZCollisionBehavior_Factory9_instanceE,
                        __ZN27OZFolderLightShadow_Factory9_instanceE, __ZN27OZGenericBehaviorV2_Factory9_instanceE,
                        __ZN27OZMaterialFlatLayer_Factory9_instanceE, __ZN27OZRandomizeBehavior_Factory9_instanceE,
                        __ZN27OZRepelFromBehavior_Factory9_instanceE, __ZN27OZShapeEdgeTextureFinalizerC2EP10HGRenderer,
                        __ZN27OZShapeEdgeTextureFinalizerD2Ev, __ZN27OZZoomInOutBehavior_Factory9_instanceE,
                        __ZN27TXBackgroundRectImageSource21pixelTransformSupportERK18LiRenderParameters, __ZN27TXBackgroundRectImageSourceC1Ev,
                        __ZN27TXCrawlLeftBehavior_Factory9_instanceE, __ZN27TXTimecodeGenerator_Factory9_instanceE,
                        __ZN28HGPagePullMetalTexturesGuardC2EP6HGNodeP6HGPage, __ZN28HGPagePullMetalTexturesGuardD2Ev,
                        __ZN28HgcGradientLinearPerspective10RenderTileEP6HGTile, __ZN28HgcGradientLinearPerspective12GetParameterEiPf,
                        __ZN28HgcGradientLinearPerspective4BindEP9HGHandler, __ZN28HgcGradientLinearPerspective6GetROIEP10HGRendereri6HGRect,
                        __ZN28HgcGradientLinearPerspectiveC1Ev, __ZN28HgcGradientLinearPerspectiveD0Ev,
                        __ZN28HgcGradientLinearPerspectiveD2Ev, __ZN28LiErrorCompileFailedMaterial7getHashEv,
                        __ZN28LiHeLightPointSurfaceDiffuseC1ERK5HGRefI6HGNodeERK9PCVector3IdERK20PCWorkingColorVectorS8_RK9PCVector4IdES8_fRK14PCMatrix44TmplIdE, __ZN28LiHeLightPointSurfaceDiffuseC2ERK5HGRefI6HGNodeERK9PCVector3IdERK20PCWorkingColorVectorS8_RK9PCVector4IdES8_fRK14PCMatrix44TmplIdE,
                        __ZN28LiHeLightPointSurfaceDiffuseD0Ev, __ZN28LiHeLightPointSurfaceDiffuseD2Ev,
                        __ZN28LiHeLightProgramPointSurface10RenderTileEP6HGTile, __ZN28LiHeLightProgramPointSurface12GetParameterEiPf,
                        __ZN28LiHeLightProgramPointSurface4BindEP9HGHandler, __ZN28LiHeLightProgramPointSurface6GetROIEP10HGRendereri6HGRect,
                        __ZN28LiHeLightProgramPointSurfaceC1Ev, __ZN28LiHeLightProgramPointSurfaceD0Ev,
                        __ZN28LiHeLightProgramPointSurfaceD2Ev, __ZN28LiHeProgramPointLightStencil10RenderTileEP6HGTile,
                        __ZN28LiHeProgramPointLightStencil12GetParameterEiPf, __ZN28LiHeProgramPointLightStencil4BindEP9HGHandler,
                        __ZN28LiHeProgramPointLightStencil6GetROIEP10HGRendereri6HGRect, __ZN28LiHeProgramPointLightStencilC1Ev,
                        __ZN28LiHeProgramPointLightStencilD0Ev, __ZN28LiHeProgramPointLightStencilD2Ev,
                        __ZN28LiVramLimitsExceededMaterial7getHashEv, __ZN28OZChanRotoshapeRefWithPickerC1EP9OZFactoryRK8PCStringP15OZChannelFolderjj,
                        __ZN28OZChanRotoshapeRefWithPickerC1EP9OZFactoryRKS_P15OZChannelFolder, __ZN28OZChanRotoshapeRefWithPickerC1ERK8PCStringP15OZChannelFolderjj,
                        __ZN28OZChanRotoshapeRefWithPickerC1EdRK8PCStringP15OZChannelFolderjj, __ZN28OZChanRotoshapeRefWithPickerC2EP9OZFactoryRK8PCStringj,
                        __ZN28OZChanRotoshapeRefWithPickerC2EP9OZFactorydRK8PCStringP15OZChannelFolderjj, __ZN28OZChanRotoshapeRefWithPickerC2ERKS_P15OZChannelFolder,
                        __ZN28OZChanSceneNodeRefWithPickerC1EP9OZFactoryRK8PCStringP15OZChannelFolderjj, __ZN28OZChanSceneNodeRefWithPickerC1EP9OZFactoryRKS_P15OZChannelFolder,
                        __ZN28OZChanSceneNodeRefWithPickerC1ERK8PCStringP15OZChannelFolderjj, __ZN28OZChanSceneNodeRefWithPickerC1EdRK8PCStringP15OZChannelFolderjj,
                        __ZN28OZChanSceneNodeRefWithPickerC2EP9OZFactoryRK8PCStringj, __ZN28OZChanSceneNodeRefWithPickerC2EP9OZFactorydRK8PCStringP15OZChannelFolderjj,
                        __ZN28OZChanSceneNodeRefWithPickerC2ERKS_P15OZChannelFolder, __ZN28OZChannel2DOverRange_Factory9_instanceE,
                        __ZN28OZChannelGradientAlphaFolder12insertSampleERK7FigTimed, __ZN28OZChannelGradientAlphaFolder17getRGBAFromLookupEdPdRKNSt3__13mapIdN23OZChannelGradientFolder6SampleENS1_4lessIdEENS1_9allocatorINS1_4pairIKdS4_EEEEEE,
                        __ZN28OZChannelGradientAlphaFolder18getObjCWrapperNameEv, __ZN28OZChannelGradientAlphaFolder9addSampleEdddi,
                        __ZN28OZChannelGradientAlphaFolderC1EP9OZFactoryRK8PCStringP15OZChannelFolderjj, __ZN28OZChannelGradientAlphaFolderC1ERK8PCStringP15OZChannelFolderjj,
                        __ZN28OZChannelGradientAlphaFolderC2EP9OZFactoryRK8PCStringP15OZChannelFolderjj, __ZN28OZChannelGradientAlphaFolderC2ERK8PCStringP15OZChannelFolderjj,
                        __ZN28OZChannelGradientAlphaFolderD0Ev, __ZN28OZChannelGradientAlphaFolderD2Ev,
                        __ZN28OZChannelGradientSampleAlpha4copyEPK13OZChannelBaseb, __ZN28OZChannelGradientSampleAlphaC1EP9OZFactoryRK8PCStringj,
                        __ZN28OZChannelGradientSampleAlphaC1ERK8PCStringdddiP15OZChannelFolderjj, __ZN28OZChannelGradientSampleAlphaC2EP9OZFactoryRK8PCStringP15OZChannelFolderjj,
                        __ZN28OZChannelGradientSampleAlphaC2ERK8PCStringP15OZChannelFolderjj, __ZN28OZChannelGradientSampleAlphaC2ERKS_P15OZChannelFolder,
                        __ZN28OZChannelGradientSampleAlphaD1Ev, __ZN28OZChannelRetimeFrame_Factory9_instanceE,
                        __ZN28OZFxPlugRenderContextManager10popContextEv, __ZN28OZFxPlugRenderContextManager11pushContextEv,
                        __ZN28OZFxPlugRenderContextManager13setThreadInfoE5PCPtrI13LiImageSourceEP7LiAgentPK14OZRenderParams, __ZN28OZFxPlugRenderContextManager15getLithiumInputEP18OZFxPlugSharedBase,
                        __ZN28OZFxPlugRenderContextManager19fullyReleaseContextEP21OZFxPlugRenderContext, __ZN28OZFxPlugRenderContextManager19setHandlingOSCEventEb,
                        __ZN28OZFxPlugRenderContextManager25getCurrentTemporalContextEv, __ZN28OZFxPlugRenderContextManagerD0Ev,
                        __ZN28OZFxPlugRenderContextManagerD2Ev, __ZN28OZMotionPathBehavior_Factory9_instanceE,
                        __ZN28OZSimulationBehavior_Factory9_instanceE, __ZN28OZZoomObjectBehavior_Factory9_instanceE,
                        __ZN28PVCameraPreviewGraphBuildJob6NotifyEP11HGRenderJob, __ZN28PVCameraPreviewGraphBuildJobC2E5HGRefI15PVRenderManagerEP22PVCameraPreviewRequestP25PVVideoCompositingContextU13block_pointerFvP17PVRenderedTextureE,
                        __ZN28PVCameraPreviewGraphBuildJobD1Ev, __ZN28TXCrawlRightBehavior_Factory9_instanceE,
                        __ZN28TXSequenceInfluenceCurveNode9solveNodeERK7FigTimedd, __ZN28TXSequenceInfluenceCurveNodeC1ERKS_,
                        __ZN28TXSequenceInfluenceCurveNodeC2ERKS_, __ZN28TXSequenceInfluenceCurveNodeD1Ev,
                        __ZN28TXTextScrollBehavior_Factory9_instanceE, __ZN29DeleteRenderbufferInstructionC1EjRKN5ProGL13ContextHandleEi,
                        __ZN29DeleteRenderbufferInstructionD0Ev, __ZN29DeleteRenderbufferInstructionD2Ev,
                        __ZN29HgcColorBalanceNoClipGammaOne10RenderTileEP6HGTile, __ZN29HgcColorBalanceNoClipGammaOne12GetParameterEiPf,
                        __ZN29HgcColorBalanceNoClipGammaOne4BindEP9HGHandler, __ZN29HgcColorBalanceNoClipGammaOne6GetDODEP10HGRendereri6HGRect,
                        __ZN29HgcColorBalanceNoClipGammaOne9GetOutputEP10HGRenderer, __ZN29HgcColorBalanceNoClipGammaOneC2Ev,
                        __ZN29HgcColorBalanceNoClipGammaOneD1Ev, __ZN29HgcYUV420BiPlanar_pack_chroma10GetProgramEP10HGRenderer,
                        __ZN29HgcYUV420BiPlanar_pack_chroma11BindTextureEP9HGHandleri, __ZN29HgcYUV420BiPlanar_pack_chroma12SetParameterEiffff,
                        __ZN29HgcYUV420BiPlanar_pack_chroma6GetDODEP10HGRendereri6HGRect, __ZN29HgcYUV420BiPlanar_pack_chroma9GetOutputEP10HGRenderer,
                        __ZN29HgcYUV420BiPlanar_pack_chromaC2Ev, __ZN29HgcYUV420BiPlanar_pack_chromaD1Ev,
                        __ZN29LiErrorLimitsExceededMaterial11makeProgramERK9LiContext, __ZN29LiHeBackgroundGeneratorShader10GetProgramEP10HGRenderer,
                        __ZN29LiHeBackgroundGeneratorShader11BindTextureEP9HGHandleri, __ZN29LiHeBackgroundGeneratorShader12SetParameterEiffff,
                        __ZN29LiHeBackgroundGeneratorShader6GetDODEP10HGRendereri6HGRect, __ZN29LiHeBackgroundGeneratorShader9GetOutputEP10HGRenderer,
                        __ZN29LiHeBackgroundGeneratorShaderC2Ev, __ZN29LiHeBackgroundGeneratorShaderD1Ev,
                        __ZN29OZAttractedToBehavior_Factory9_instanceE, __ZN29OZChannelColorNoAlpha_Factory9_instanceE,
                        __ZN29OZChannelGammaFootage_Factory9_instanceE, __ZN29OZChannelMaterialMapTransform22willSetSharedTransformEdP17OZLayeredMaterial,
                        __ZN29OZChannelMaterialMapTransform34setCurrentTransformValuesAsDefaultEv, __ZN29OZChannelMaterialMapTransform4copyEPK13OZChannelBaseb,
                        __ZN29OZChannelMaterialMapTransform7compareEPK13OZChannelBase, __ZN29OZChannelMaterialMapTransformC1EP9OZFactoryRK8PCStringP15OZChannelFolderjjj,
                        __ZN29OZChannelMaterialMapTransformC1ERK8PCStringP15OZChannelFolderjjj, __ZN29OZChannelMaterialMapTransformC2EP9OZFactoryRK8PCStringP15OZChannelFolderjjj,
                        __ZN29OZChannelMaterialMapTransformC2ERK8PCStringP15OZChannelFolderjjj, __ZN29OZChannelMaterialRoot_Factory9_instanceE,
                        __ZN29OZExponentialBehavior_Factory9_instanceE, __ZN29OZFxPlugRenderContextSentinelC2EP18OZFxPlugSharedBase,
                        __ZN29OZFxPlugRenderContextSentinelD2Ev, __ZN29OZMaterialLayerSequenceFolder11writeHeaderER23PCSerializerWriteStreamb,
                        __ZN29OZMaterialLayerSequenceFolder4initEv, __ZN29OZMaterialLayerSequenceFolderC1EP9OZFactoryRK8PCStringjj,
                        __ZN29OZMaterialLayerSequenceFolderC1ERKS_, __ZN29OZMaterialLayerSequenceFolderC2EP9OZFactoryRK8PCStringP15OZChannelFolderjjj,
                        __ZN29OZMaterialLayerSequenceFolderC2ERK8PCStringP15OZChannelFolderjjj, __ZN29OZMaterialLayerSequenceFolderC2ERKS_P15OZChannelFolder,
                        __ZN29OZMaterialLayerSequenceFolderD1Ev, __ZN29OZQuaternionCubicInterpolator11interpolateER8OZSplineRK7FigTimePvS5_S4_bb,
