---
archs:           [ armv7, armv7s, arm64 ]
platform:        ios
install-name:    /System/Library/PrivateFrameworks/DAAPKit.framework/DAAPKit
exports:         
  - archs:           [ armv7, armv7s, arm64 ]
    symbols:         [ __ZN4DAAP11MakeElementINSt3__112basic_stringIcNS1_11char_traitsIcEENS1_9allocatorIcEEEEEENS1_10shared_ptrINS_7ElementEEEjT_, 
                       GCC_except_table0, GCC_except_table10, GCC_except_table11, 
                       GCC_except_table12, GCC_except_table13, GCC_except_table14, 
                       GCC_except_table15, GCC_except_table16, GCC_except_table17, 
                       GCC_except_table17, GCC_except_table19, GCC_except_table21, 
                       GCC_except_table25, GCC_except_table26, GCC_except_table27, 
                       GCC_except_table3, GCC_except_table30, GCC_except_table32, 
                       GCC_except_table36, GCC_except_table37, GCC_except_table4, 
                       GCC_except_table4, GCC_except_table49, GCC_except_table5, 
                       GCC_except_table51, GCC_except_table57, GCC_except_table58, 
                       GCC_except_table9, GCC_except_table9, __ZN4DAAP11MakeElementIPKcEENSt3__110shared_ptrINS_7ElementEEEjT_, 
                       __ZN4DAAP14DocumentWriter13writeElementsENSt3__16vectorINS1_10shared_ptrINS_7ElementEEENS1_9allocatorIS5_EEEE, 
                       __ZN4DAAP14DocumentWriter5writeENSt3__110shared_ptrINS_8DocumentEEE, 
                       __ZN4DAAP14DocumentWriterC1ERNSt3__113basic_ostreamIcNS1_11char_traitsIcEEEE, 
                       __ZN4DAAP14DocumentWriterC2ERNSt3__113basic_ostreamIcNS1_11char_traitsIcEEEE, 
                       __ZN4DAAP17BinaryDataDeleterC1Eb, __ZN4DAAP17BinaryDataDeleterC2Eb, 
                       __ZN4DAAP17BinaryDataDeleterclEPh, __ZN4DAAP18StringFromDAAPCodeEj, 
                       __ZN4DAAP22DocumentParserDelegate18DAAPParserDidStartEv, 
                       __ZN4DAAP22DocumentParserDelegate19DAAPParserDidFinishENS_11ParserStateE, 
                       __ZN4DAAP22DocumentParserDelegate22DAAPParserDidParseDataEjPKhj, 
                       __ZN4DAAP22DocumentParserDelegate25DAAPParserDidEndContainerEj, 
                       __ZN4DAAP22DocumentParserDelegate25DAAPParserShouldParseCodeEj, 
                       __ZN4DAAP22DocumentParserDelegate27DAAPParserDidStartContainerEjj, 
                       __ZN4DAAP22DocumentParserDelegate36DAAPParserShouldParseCodeAsContainerEj, 
                       __ZN4DAAP23StringFromDAAPValueTypeENS_9ValueTypeE, 
                       __ZN4DAAP6Parser20callDelegateDidStartEv, __ZN4DAAP6Parser21callDelegateDidFinishEv, 
                       __ZN4DAAP6Parser24callDelegateDidParseDataEjPKhj, 
                       __ZN4DAAP6Parser27callDelegateDidEndContainerEj, 
                       __ZN4DAAP6Parser27callDelegateShouldParseCodeEj, 
                       __ZN4DAAP6Parser29callDelegateDidStartContainerEjj, 
                       __ZN4DAAP6Parser38callDelegateShouldParseCodeAsContainerEj, 
                       __ZN4DAAP6Parser5parseEv, __ZN4DAAP6ParserC1ERNSt3__113basic_istreamIcNS1_11char_traitsIcEEEE, 
                       __ZN4DAAP6ParserC2ERNSt3__113basic_istreamIcNS1_11char_traitsIcEEEE, 
                       __ZN4DAAP6Writer10writeBytesEPKcjj, __ZN4DAAP6Writer10writeSInt8Eaj, 
                       __ZN4DAAP6Writer10writeUInt8Ehj, __ZN4DAAP6Writer11writeSInt16Esj, 
                       __ZN4DAAP6Writer11writeSInt32Eij, __ZN4DAAP6Writer11writeSInt64Exj, 
                       __ZN4DAAP6Writer11writeUInt16Etj, __ZN4DAAP6Writer11writeUInt32Ejj, 
                       __ZN4DAAP6Writer11writeUInt64Eyj, __ZN4DAAP6Writer12endContainerEj, 
                       __ZN4DAAP6Writer12writeCStringEPKcj, __ZN4DAAP6Writer14startContainerEj, 
                       __ZN4DAAP6Writer14writeContainerERKNSt3__112basic_stringIcNS1_11char_traitsIcEENS1_9allocatorIcEEEE, 
                       __ZN4DAAP6Writer15WriterContainer17getFormatedOutputEv, 
                       __ZN4DAAP6Writer5writeIaEEvT_j, __ZN4DAAP6Writer5writeIiEEvT_j, 
                       __ZN4DAAP6Writer5writeIsEEvT_j, __ZN4DAAP6Writer5writeIxEEvT_j, 
                       __ZN4DAAP6WriterC1ERNSt3__113basic_ostreamIcNS1_11char_traitsIcEEEE, 
                       __ZN4DAAP6WriterC2ERNSt3__113basic_ostreamIcNS1_11char_traitsIcEEEE, 
                       __ZN4DAAP7Element18appendChildElementENSt3__110shared_ptrIS0_EE, 
                       __ZN4DAAP7Element19childElementAtIndexEm, __ZN4DAAP7Element19childElementForCodeEj, 
                       __ZN4DAAP7Element20childElementsForCodeEj, __ZN4DAAP7Element22hasChildElementForCodeEj, 
                       __ZN4DAAP7Element9setParentENSt3__110shared_ptrIS0_EE, 
                       __ZN4DAAP7ElementC1Ej, __ZN4DAAP7ElementC1EjPhmb, 
                       __ZN4DAAP7ElementC2Ej, __ZN4DAAP7ElementC2EjPhmb, 
                       __ZN4DAAP8Document13appendElementENSt3__110shared_ptrINS_7ElementEEE, 
                       __ZN4DAAP8DocumentC1Ev, __ZN4DAAP8DocumentC2Ev, 
                       __ZNK4DAAP7Element10binaryDataEv, __ZNK4DAAP7Element11isContainerEv, 
                       __ZNK4DAAP7Element11stringValueEv, __ZNK4DAAP7Element12integerValueEv, 
                       __ZNK4DAAP7Element13childElementsEv, __ZNK4DAAP7Element16binaryDataLengthEv, 
                       __ZNK4DAAP7Element17childElementCountEv, __ZNK4DAAP7Element4codeEv, 
                       __ZNK4DAAP7Element6parentEv, __ZNK4DAAP8Document12elementCountEv, 
                       __ZNK4DAAP8Document14elementAtIndexEm, __ZNK4DAAP8Document8elementsEv, 
                       __ZTIN4DAAP22DocumentParserDelegateE, __ZTSN4DAAP22DocumentParserDelegateE, 
                       __ZTVN4DAAP22DocumentParserDelegateE ]
    weak-def-symbols: [ __ZNSt3__16vectorINS_10shared_ptrIN4DAAP7ElementEEENS_9allocatorIS4_EEE21__push_back_slow_pathIRKS4_EEvOT_, 
                        __ZN4DAAP6Writer15WriterContainerC2Ej, __ZN4DAAP6Writer5writeIhEEvT_j, 
                        __ZN4DAAP6Writer5writeIjEEvT_j, __ZN4DAAP6Writer5writeItEEvT_j, 
                        __ZN4DAAP6Writer5writeIyEEvT_j, __ZNKSt3__115basic_stringbufIcNS_11char_traitsIcEENS_9allocatorIcEEE3strEv, 
                        __ZNKSt3__16__treeINS_12__value_typeIjNS_10shared_ptrIN4DAAP7ElementEEEEENS_19__map_value_compareIjS6_NS_4lessIjEELb1EEENS_9allocatorIS6_EEE13__count_multiIjEEmRKT_, 
                        __ZNSt3__110shared_ptrIN4DAAP6Writer15WriterContainerEE11make_sharedIJRjEEES4_DpOT_, 
                        __ZNSt3__110shared_ptrIN4DAAP7ElementEE11make_sharedIJRjEEES3_DpOT_, 
                        __ZNSt3__110shared_ptrIN4DAAP7ElementEE11make_sharedIJRjPhS5_bEEES3_DpOT_, 
                        __ZNSt3__110shared_ptrIN4DAAP7ElementEE11make_sharedIJRjPhmbEEES3_DpOT_, 
                        __ZNSt3__110shared_ptrIN4DAAP7ElementEEC2IS2_EERKNS_8weak_ptrIT_EENS_9enable_ifIXsr14is_convertibleIPS6_PS2_EE5valueENS3_5__natEE4typeE, 
                        __ZNSt3__110shared_ptrIN4DAAP8DocumentEE11make_sharedIJEEES3_DpOT_, 
                        __ZNSt3__112basic_stringIcNS_11char_traitsIcEENS_9allocatorIcEEE6__initIPcEENS_9enable_ifIXsr21__is_forward_iteratorIT_EE5valueEvE4typeES9_S9_, 
                        __ZNSt3__113__vector_baseINS_10shared_ptrIN4DAAP7ElementEEENS_9allocatorIS4_EEED2Ev, 
                        __ZNSt3__114__split_bufferINS_10shared_ptrIN4DAAP7ElementEEERNS_9allocatorIS4_EEED2Ev, 
                        __ZNSt3__114__split_bufferIPNS_10shared_ptrIN4DAAP6Parser15ParserContainerEEENS_9allocatorIS6_EEE10push_frontEOS6_, 
                        __ZNSt3__114__split_bufferIPNS_10shared_ptrIN4DAAP6Parser15ParserContainerEEENS_9allocatorIS6_EEE9push_backEOS6_, 
                        __ZNSt3__114__split_bufferIPNS_10shared_ptrIN4DAAP6Parser15ParserContainerEEERNS_9allocatorIS6_EEE10push_frontERKS6_, 
                        __ZNSt3__114__split_bufferIPNS_10shared_ptrIN4DAAP6Parser15ParserContainerEEERNS_9allocatorIS6_EEE9push_backEOS6_, 
                        __ZNSt3__114__split_bufferIPNS_10shared_ptrIN4DAAP6Writer15WriterContainerEEENS_9allocatorIS6_EEE10push_frontEOS6_, 
                        __ZNSt3__114__split_bufferIPNS_10shared_ptrIN4DAAP6Writer15WriterContainerEEENS_9allocatorIS6_EEE9push_backEOS6_, 
                        __ZNSt3__114__split_bufferIPNS_10shared_ptrIN4DAAP6Writer15WriterContainerEEERNS_9allocatorIS6_EEE10push_frontERKS6_, 
                        __ZNSt3__114__split_bufferIPNS_10shared_ptrIN4DAAP6Writer15WriterContainerEEERNS_9allocatorIS6_EEE9push_backEOS6_, 
                        __ZNSt3__115basic_stringbufIcNS_11char_traitsIcEENS_9allocatorIcEEE3strERKNS_12basic_stringIcS2_S4_EE, 
                        __ZNSt3__115basic_stringbufIcNS_11char_traitsIcEENS_9allocatorIcEEE7seekoffExNS_8ios_base7seekdirEj, 
                        __ZNSt3__115basic_stringbufIcNS_11char_traitsIcEENS_9allocatorIcEEE7seekposENS_4fposI11__mbstate_tEEj, 
                        __ZNSt3__115basic_stringbufIcNS_11char_traitsIcEENS_9allocatorIcEEE8overflowEi, 
                        __ZNSt3__115basic_stringbufIcNS_11char_traitsIcEENS_9allocatorIcEEE9pbackfailEi, 
                        __ZNSt3__115basic_stringbufIcNS_11char_traitsIcEENS_9allocatorIcEEE9underflowEv, 
                        __ZNSt3__115basic_stringbufIcNS_11char_traitsIcEENS_9allocatorIcEEED0Ev, 
                        __ZNSt3__115basic_stringbufIcNS_11char_traitsIcEENS_9allocatorIcEEED1Ev, 
                        __ZNSt3__116__pad_and_outputIcNS_11char_traitsIcEEEENS_19ostreambuf_iteratorIT_T0_EES6_PKS4_S8_S8_RNS_8ios_baseES4_, 
                        __ZNSt3__118__tree_left_rotateIPNS_16__tree_node_baseIPvEEEEvT_, 
                        __ZNSt3__119__tree_right_rotateIPNS_16__tree_node_baseIPvEEEEvT_, 
                        __ZNSt3__119basic_ostringstreamIcNS_11char_traitsIcEENS_9allocatorIcEEED0Ev, 
                        __ZNSt3__119basic_ostringstreamIcNS_11char_traitsIcEENS_9allocatorIcEEED1Ev, 
                        __ZNSt3__120__shared_ptr_emplaceIN4DAAP6Parser15ParserContainerENS_9allocatorIS3_EEE16__on_zero_sharedEv, 
                        __ZNSt3__120__shared_ptr_emplaceIN4DAAP6Parser15ParserContainerENS_9allocatorIS3_EEE21__on_zero_shared_weakEv, 
                        __ZNSt3__120__shared_ptr_emplaceIN4DAAP6Parser15ParserContainerENS_9allocatorIS3_EEED0Ev, 
                        __ZNSt3__120__shared_ptr_emplaceIN4DAAP6Parser15ParserContainerENS_9allocatorIS3_EEED1Ev, 
                        __ZNSt3__120__shared_ptr_emplaceIN4DAAP6Writer15WriterContainerENS_9allocatorIS3_EEE16__on_zero_sharedEv, 
                        __ZNSt3__120__shared_ptr_emplaceIN4DAAP6Writer15WriterContainerENS_9allocatorIS3_EEE21__on_zero_shared_weakEv, 
                        __ZNSt3__120__shared_ptr_emplaceIN4DAAP6Writer15WriterContainerENS_9allocatorIS3_EEED0Ev, 
                        __ZNSt3__120__shared_ptr_emplaceIN4DAAP6Writer15WriterContainerENS_9allocatorIS3_EEED1Ev, 
                        __ZNSt3__120__shared_ptr_emplaceIN4DAAP7ElementENS_9allocatorIS2_EEE16__on_zero_sharedEv, 
                        __ZNSt3__120__shared_ptr_emplaceIN4DAAP7ElementENS_9allocatorIS2_EEE21__on_zero_shared_weakEv, 
                        __ZNSt3__120__shared_ptr_emplaceIN4DAAP7ElementENS_9allocatorIS2_EEED0Ev, 
                        __ZNSt3__120__shared_ptr_emplaceIN4DAAP7ElementENS_9allocatorIS2_EEED1Ev, 
                        __ZNSt3__120__shared_ptr_emplaceIN4DAAP8DocumentENS_9allocatorIS2_EEE16__on_zero_sharedEv, 
                        __ZNSt3__120__shared_ptr_emplaceIN4DAAP8DocumentENS_9allocatorIS2_EEE21__on_zero_shared_weakEv, 
                        __ZNSt3__120__shared_ptr_emplaceIN4DAAP8DocumentENS_9allocatorIS2_EEED0Ev, 
                        __ZNSt3__120__shared_ptr_emplaceIN4DAAP8DocumentENS_9allocatorIS2_EEED1Ev, 
                        __ZNSt3__124__put_character_sequenceIcNS_11char_traitsIcEEEERNS_13basic_ostreamIT_T0_EES7_PKS4_m, 
                        __ZNSt3__127__tree_balance_after_insertIPNS_16__tree_node_baseIPvEEEEvT_S5_, 
                        __ZNSt3__15dequeINS_10shared_ptrIN4DAAP6Parser15ParserContainerEEENS_9allocatorIS5_EEE19__add_back_capacityEv, 
                        __ZNSt3__15dequeINS_10shared_ptrIN4DAAP6Parser15ParserContainerEEENS_9allocatorIS5_EEE8pop_backEv, 
                        __ZNSt3__15dequeINS_10shared_ptrIN4DAAP6Parser15ParserContainerEEENS_9allocatorIS5_EEE9push_backERKS5_, 
                        __ZNSt3__15dequeINS_10shared_ptrIN4DAAP6Writer15WriterContainerEEENS_9allocatorIS5_EEE19__add_back_capacityEv, 
                        __ZNSt3__15dequeINS_10shared_ptrIN4DAAP6Writer15WriterContainerEEENS_9allocatorIS5_EEE8pop_backEv, 
                        __ZNSt3__15dequeINS_10shared_ptrIN4DAAP6Writer15WriterContainerEEENS_9allocatorIS5_EEE9push_backERKS5_, 
                        __ZNSt3__16__treeINS_12__value_typeIjNS_10shared_ptrIN4DAAP7ElementEEEEENS_19__map_value_compareIjS6_NS_4lessIjEELb1EEENS_9allocatorIS6_EEE15__emplace_multiIJNS_4pairIjS5_EEEEENS_15__tree_iteratorIS6_PNS_11__tree_nodeIS6_PvEElEEDpOT_, 
                        __ZNSt3__16__treeINS_12__value_typeIjNS_10shared_ptrIN4DAAP7ElementEEEEENS_19__map_value_compareIjS6_NS_4lessIjEELb1EEENS_9allocatorIS6_EEE16__insert_node_atEPNS_15__tree_end_nodeIPNS_16__tree_node_baseIPvEEEERSI_SI_, 
                        __ZNSt3__16__treeINS_12__value_typeIjNS_10shared_ptrIN4DAAP7ElementEEEEENS_19__map_value_compareIjS6_NS_4lessIjEELb1EEENS_9allocatorIS6_EEE19__equal_range_multiIjEENS_4pairINS_15__tree_iteratorIS6_PNS_11__tree_nodeIS6_PvEElEESL_EERKT_, 
                        __ZNSt3__16__treeINS_12__value_typeIjNS_10shared_ptrIN4DAAP7ElementEEEEENS_19__map_value_compareIjS6_NS_4lessIjEELb1EEENS_9allocatorIS6_EEE4findIjEENS_15__tree_iteratorIS6_PNS_11__tree_nodeIS6_PvEElEERKT_, 
                        __ZNSt3__16__treeINS_12__value_typeIjNS_10shared_ptrIN4DAAP7ElementEEEEENS_19__map_value_compareIjS6_NS_4lessIjEELb1EEENS_9allocatorIS6_EEE7destroyEPNS_11__tree_nodeIS6_PvEE, 
                        __ZNSt3__16vectorINS_10shared_ptrIN4DAAP7ElementEEENS_9allocatorIS4_EEE18__construct_at_endIPS4_EENS_9enable_ifIXsr21__is_forward_iteratorIT_EE5valueEvE4typeESB_SB_m, 
                        __ZNSt3__16vectorINS_10shared_ptrIN4DAAP7ElementEEENS_9allocatorIS4_EEE26__swap_out_circular_bufferERNS_14__split_bufferIS4_RS6_EE, 
                        __ZNSt3__16vectorINS_10shared_ptrIN4DAAP7ElementEEENS_9allocatorIS4_EEE8allocateEm, 
                        __ZNSt3__16vectorINS_10shared_ptrIN4DAAP7ElementEEENS_9allocatorIS4_EEEC2ERKS7_, 
                        __ZTCNSt3__119basic_ostringstreamIcNS_11char_traitsIcEENS_9allocatorIcEEEE0_NS_13basic_ostreamIcS2_EE, 
                        __ZTIN4DAAP14ParserDelegateE, __ZTINSt3__115basic_stringbufIcNS_11char_traitsIcEENS_9allocatorIcEEEE, 
                        __ZTINSt3__119basic_ostringstreamIcNS_11char_traitsIcEENS_9allocatorIcEEEE, 
                        __ZTINSt3__120__shared_ptr_emplaceIN4DAAP6Parser15ParserContainerENS_9allocatorIS3_EEEE, 
                        __ZTINSt3__120__shared_ptr_emplaceIN4DAAP6Writer15WriterContainerENS_9allocatorIS3_EEEE, 
                        __ZTINSt3__120__shared_ptr_emplaceIN4DAAP7ElementENS_9allocatorIS2_EEEE, 
                        __ZTINSt3__120__shared_ptr_emplaceIN4DAAP8DocumentENS_9allocatorIS2_EEEE, 
                        __ZTSN4DAAP14ParserDelegateE, __ZTSNSt3__115basic_stringbufIcNS_11char_traitsIcEENS_9allocatorIcEEEE, 
                        __ZTSNSt3__119basic_ostringstreamIcNS_11char_traitsIcEENS_9allocatorIcEEEE, 
                        __ZTSNSt3__120__shared_ptr_emplaceIN4DAAP6Parser15ParserContainerENS_9allocatorIS3_EEEE, 
                        __ZTSNSt3__120__shared_ptr_emplaceIN4DAAP6Writer15WriterContainerENS_9allocatorIS3_EEEE, 
                        __ZTSNSt3__120__shared_ptr_emplaceIN4DAAP7ElementENS_9allocatorIS2_EEEE, 
                        __ZTSNSt3__120__shared_ptr_emplaceIN4DAAP8DocumentENS_9allocatorIS2_EEEE, 
                        __ZTTNSt3__119basic_ostringstreamIcNS_11char_traitsIcEENS_9allocatorIcEEEE, 
                        __ZTVNSt3__115basic_stringbufIcNS_11char_traitsIcEENS_9allocatorIcEEEE, 
                        __ZTVNSt3__119basic_ostringstreamIcNS_11char_traitsIcEENS_9allocatorIcEEEE, 
                        __ZTVNSt3__120__shared_ptr_emplaceIN4DAAP6Parser15ParserContainerENS_9allocatorIS3_EEEE, 
                        __ZTVNSt3__120__shared_ptr_emplaceIN4DAAP6Writer15WriterContainerENS_9allocatorIS3_EEEE, 
                        __ZTVNSt3__120__shared_ptr_emplaceIN4DAAP7ElementENS_9allocatorIS2_EEEE, 
                        __ZTVNSt3__120__shared_ptr_emplaceIN4DAAP8DocumentENS_9allocatorIS2_EEEE, 
                        __ZTv0_n24_NSt3__119basic_ostringstreamIcNS_11char_traitsIcEENS_9allocatorIcEEED0Ev, 
                        __ZTv0_n24_NSt3__119basic_ostringstreamIcNS_11char_traitsIcEENS_9allocatorIcEEED1Ev, 
                        ___clang_call_terminate ]
...
