---
archs:           [ armv7, armv7s, arm64 ]
platform:        ios
install-name:    /System/Library/PrivateFrameworks/CoreBrightness.framework/CoreBrightness
current-version: 1.0.0
compatibility-version: 1.0.0
exports:
  - archs:            [ armv7, armv7s, arm64 ]
    symbols:          [ _AABCFactoryFunction,
                        _AggressiveLUT_x, _AlphaArray,
                        _CCT_BB_MAX, _CCT_BB_Table,
                        _CFXAnimateAmbientAdaptationModes, _CFXChromaticity2Tristimulus,
                        _CFXClearReport, _CFXEnableAmbientAdaptation,
                        _CFXEnableFades, _CFXForceLogCommit,
                        _CFXGetAdaptationModesMapping, _CFXGetBlueLightReductionCCTRange,
                        _CFXGetReport, _CFXInitializeAmbientAdaptation,
                        _CFXInputAmbientColor, _CFXOverrideBlueLightReductionCCTRange,
                        _CFXRelease, _CFXSetABShift,
                        _CFXSetAmbientAdaptationMode, _CFXSetBlueLightReductionTargetCCT,
                        _CFXSetStrengthRampTweakFactor, _CFXSetWhitePointType,
                        _CFXTristimulus2Chromaticity, _CFXUpdateColorFade,
                        _CFXZeroSample, _D65XYX,
                        _DisplayActivateColorAdaptation, _DisplayCancelReflectedBrightnessFade,
                        _DisplayClose, _DisplayGetDeviceBrightness,
                        _DisplayGetProperty, _DisplayGetVirtualBrightness,
                        _DisplayIsNightShiftEnabled, _DisplayLuminanceToPerceptualLuminance,
                        _DisplayNits2milliAmps, _DisplayOpen,
                        _DisplayPerceptualLuminanceToReflectedLuminance, _DisplaySetLogicalBrightness,
                        _DisplaySetProperty, _DisplaySetRestrictionFactorWithFade,
                        _DisplaySliderToLogicalBrightness, _IOFixedMultiply,
                        _InvMcatMulMrgbLegacy, _Legacylms,
                        _McatMulMrgbD65, _MemoryColorCoeff,
                        _Mrgb2xyzLegacy, _RelaxedLUT_x,
                        __CFXUpdateColorFadeInternal, __DisplayGetAmbient,
                        __DisplayGetBrightnessFactor, __DisplayGetBrightnessMinPhysical,
                        __DisplayPerceptualLuminanceToLuminanceInternal, __DisplayScheduleAsync,
                        __DisplaySetBrightness, __DisplaySetBrightnessMinPhysicalWithFade,
                        __DisplaySetRestrictionFactorWithFade, __Z16ALSEventCallbackPvS_S_P12__IOHIDEvent,
                        __Z30__LegacyBacklightCInitFunctionv, __ZN16LegacyBacklightC17LockTimerCallbackEPv,
                        __ZN16LegacyBacklightC17armClamshellTimerEv, __ZN16LegacyBacklightC20getPropertyForClientEPK10__CFStringPKv,
                        __ZN16LegacyBacklightC23SetAutoBrightnessActiveEh, __ZN16LegacyBacklightC25setAmbientDisplayFunctionEP9__Displayfj,
                        __ZN16LegacyBacklightC27unscheduleFromDispatchQueueEP16dispatch_queue_s, __ZN16LegacyBacklightC5closeEv,
                        __ZN16LegacyBacklightC6filterEP20__IOHIDServiceClientP12__IOHIDEvent, __ZN16LegacyBacklightCC1Ev,
                        __ZN16LegacyBacklightCD1Ev, __ZN3AAB12DefaultCurveEfffjbP8AABPoint,
                        __ZN3AAB21UpdateCurve_PrefBasedEffRNS_5CurveE, __ZN3AAB23UpdateCurve_TraditionalEffRNS_5CurveE,
                        __ZN3AAB9UpdateAgeEiPNS_10CurvePrefsE, __ZN4AABC10GetNitsBinEf,
                        __ZN4AABC10log_block4EPKcz, __ZN4AABC11UpdateStateENS_9eAABStateE,
                        __ZN4AABC11isCurveGoodEPN3AAB5CurveE, __ZN4AABC13SetBrightnessEffjPFvPvES0_,
                        __ZN4AABC14SetALSIntervalEf, __ZN4AABC14debug_internalENS_17eDebugLoggingMaskEPK10__CFStringz,
                        __ZN4AABC15RecordLuminanceEf, __ZN4AABC15SetAggressivityEj,
                        __ZN4AABC15registerServiceEP20__IOHIDServiceClient, __ZN4AABC16SetDisplayFactorEf,
                        __ZN4AABC16monitor_internalEPK10__CFStringz, __ZN4AABC17SetUserBrightnessEfi,
                        __ZN4AABC17unregisterDisplayEP9__Display, __ZN4AABC18CancelFastRampModeEv,
                        __ZN4AABC19HandleKeyboardEventEP20__IOHIDServiceClientP12__IOHIDEvent, __ZN4AABC19_UpdateEcoModeStateEb,
                        __ZN4AABC20ClearHistoryFunctionEP20__IOHIDServiceClientPNS_3ALSEPS_, __ZN4AABC20UpdateSensorOverrideEP20__IOHIDServiceClientPNS_3ALSEPKv,
                        __ZN4AABC20_setInternalPropertyEPK10__CFStringPKvPS_, __ZN4AABC20setPropertyForClientEPK10__CFStringPKvS4_,
                        __ZN4AABC21FirstALSSampleTimeoutEv, __ZN4AABC21_UpdateEsensorTrustedEf,
                        __ZN4AABC22ArmFirstALSSampleTimerEv, __ZN4AABC22UpdateALSStateFunctionEP20__IOHIDServiceClientPNS_3ALSEPNS_15_ALSApplierArgsE,
                        __ZN4AABC23SetAutoBrightnessStatusEif, __ZN4AABC23UpdateAggregateFunctionEP20__IOHIDServiceClientPNS_3ALSEPS_,
                        __ZN4AABC23_UpdateNitsRestrictionsEffb, __ZN4AABC23readCurveFromDictionaryEPK14__CFDictionaryPN3AAB5CurveE,
                        __ZN4AABC24IsProxEmulationTriggeredEPi, __ZN4AABC24_UpdateAggregateFunctionEP20__IOHIDServiceClientPNS_3ALSE,
                        __ZN4AABC25scheduleWithDispatchQueueEP16dispatch_queue_s, __ZN4AABC27DurationFromPerceptualDeltaEf,
                        __ZN4AABC28AutobrightnessOn_UpdateCurveEv, __ZN4AABC29readOutlierRemovalPreferencesEv,
                        __ZN4AABC30createOutlierRemovalDictionaryEPNS_24OutlierRemovalParametersE, __ZN4AABC31_CalculateBacklightCompensationEv,
                        __ZN4AABC32_UpdateSemanticAmbientLightLevelE25SemanticAmbientLightLevel, __ZN4AABC33readCurveDescriptorFromDictionaryEPK14__CFDictionaryPNS_15CurveDescriptorE,
                        __ZN4AABC40UpdateALSStateFunctionInternalNoAutoRateEP20__IOHIDServiceClientPNS_3ALSEPNS_15_ALSApplierArgsE, __ZN4AABC4openEjiPFvPvPK10__CFStringPKvES0_,
                        __ZN4AABC5closeEj, __ZN4AABCC1EPK8__CFUUID,
                        __ZN4AABCD1Ev, __ZN4AABCdlEPv,
                        __ZTI4AABC, __ZTS4AABC,
                        __ZTV4AABC, ___DisplayFadeUpdateFactorFade,
                        ___DisplayFadeUpdateRestrictionFactorFade, _defaultPolygonLarge,
                        _disp_dispatch_sync, _rampProfile,
                        _xy_BB_MIN, _AggressiveLUT,
                        _CCTArray, _CCT_Shifted_Table,
                        _CFXChromaticity2uv, _CFXEnableBlueLightReduction,
                        _CFXGetABShift, _CFXGetBlueLightReductionTargetCCT,
                        _CFXInitializeBlueLightReduction, _CFXOverrideRampPeriod,
                        _CFXSetAdaptationModesMapping, _CFXSetBlueReductionFactorOverride,
                        _CFXStoreComment, _CFXUpdateCompensatedBacklight,
                        _D65lms, _DisplayCancelVirtualFade,
                        _DisplayGetLogicalBrightness, _DisplayInputAmbientColor,
                        _DisplayMilliAmpsToMilliWatts, _DisplayPerceptualLuminanceToLuminance,
                        _DisplaySetLogicalBrightnessWithFade, _DisplaySetVirtualBrightnessWithFade,
                        _InvMcatMulMrgbD65, _Mcat,
                        _Mrgb2xyzD65, _RelaxedLUT_y,
                        __DisplayGetBrightness, __DisplayLogicalToSliderBrightnessInternal,
                        __DisplaySetAmbient, __DisplaySetLockState,
                        __Z22DisplayPropertyChangedPvPK10__CFStringPKv, __ZN16LegacyBacklightC17LockTimerCallbackEv,
                        __ZN16LegacyBacklightC20setPropertyForClientEPK10__CFStringPKvS4_, __ZN16LegacyBacklightC27UpdateALSTresholdForServiceEP20__IOHIDServiceClientf,
                        __ZN16LegacyBacklightC6AddRefEv, __ZN16LegacyBacklightCC2Ev,
                        __ZN3AAB18UpdateCurve_Block3EffRNS_5CurveE, __ZN3AAB25FitCurveToReferencePointsERNS_5CurveEi,
                        __ZN4AABC10log_block3EPKcz, __ZN4AABC11_SetHotspotEPNS_3ALSE,
                        __ZN4AABC13SetBrightnessEffmPFvPvES0_, __ZN4AABC14UpdateALSStateEj,
                        __ZN4AABC15SetALSDimPolicyE10eDimPolicy, __ZN4AABC16RampDoneCallbackEv,
                        __ZN4AABC17BeginFastRampModeEff, __ZN4AABC17unregisterServiceEP20__IOHIDServiceClient,
                        __ZN4AABC19_UpdateColorTrustedEP14CFXColorSample, __ZN4AABC20HandleDigitizerEventEP20__IOHIDServiceClientP12__IOHIDEvent,
                        __ZN4AABC20getPropertyForClientEPK10__CFStringPKv, __ZN4AABC21SetDisplayOrientationE27IOHIDDisplayOrientationType,
                        __ZN4AABC22SetAutoBrightnessStateEi, __ZN4AABC23SetHotspotsTriggerDelayEP20__IOHIDServiceClientPNS_3ALSEPi,
                        __ZN4AABC23lazyLoadTouchPropertiesEv, __ZN4AABC24_ReportEsensorAggregatedEv,
                        __ZN4AABC26createCurvePrefsDictionaryEPN3AAB10CurvePrefsE, __ZN4AABC28readCurvePrefsFromDictionaryEPK14__CFDictionaryPN3AAB10CurvePrefsE,
                        __ZN4AABC30writeOutlierRemovalPreferencesEi, __ZN4AABC32readOutlierRemovalFromDictionaryEPK14__CFDictionaryPNS_24OutlierRemovalParametersE,
                        __ZN4AABC4log_EPKcz, __ZN4AABC5closeEm,
                        __ZN4AABCC2EPK8__CFUUID, __ZTI16LegacyBacklightC,
                        __ZTS16LegacyBacklightC, __ZTV16LegacyBacklightC,
                        ___DisplayFadeUpdateFade, _defaultPolygonSmall,
                        _xy_BB_MAX ]
    objc-classes:     [ _BLControl,
                        _BrightnessSystem, _BrightnessSystemClientExportedObj,
                        _BrightnessSystemInternal, _CBBlueLightClient,
                        _NightModeControl, _SunriseSunsetProvider,
                        _BacklightdExportedObj, _BrightnessSystemClientInternal,
                        _CBClient ]
...
