---
archs:           [ armv7, armv7s, arm64 ]
platform:        ios
install-name:    /System/Library/PrivateFrameworks/SDAPI.framework/SDAPI
exports:         
  - archs:           [ armv7, armv7s ]
    symbols:         [ __ZThn20_N10TFormatter10copyResultEPP22TPItnResultHandle_fake, 
                       __ZThn20_N10TFormatter11splitResultEPP22TPItnResultHandle_fakeRKNSt3__16vectorImNS3_9allocatorImEEEER7TBufferIS2_E, 
                       __ZThn20_N10TFormatter12deleteResultEPP22TPItnResultHandle_fake, 
                       __ZThn20_N10TFormatter12mergeResultsEPKPP22TPItnResultHandle_fakeS4_, 
                       __ZThn20_N10TFormatter13textToResultsEPKPP22TPItnResultHandle_fakeS4_S4_S4_PKcjR7TBufferIS2_E, 
                       __ZThn20_N10TFormatter15reformatResultsEPKPP22TPItnResultHandle_fakeS4_S4_S4_PKPP25TPItnRuleControlName_fakeS9_jR7TBufferIS2_E, 
                       __ZThn20_N10TFormatter17deserializeResultEPKcm, 
                       __ZThn20_N10TFormatter20wordSequenceToResultEPKPP22TPItnResultHandle_fakeS4_S4_S4_RKNSt3__16vectorIPKwNS5_9allocatorIS8_EEEEPKjjRS4_SG_, 
                       __ZThn20_N10TFormatter26generateResultAlternativesEPKPP22TPItnResultHandle_fakeS4_PK7TPRangejjR7TBufferIS2_E, 
                       __ZThn20_N10TFormatterD0Ev, __ZThn20_N10TFormatterD1Ev, 
                       __ZThn20_NK10TFormatter12alignResultsEPKPP22TPItnResultHandle_fakeS4_S4_S4_R7TBufferIcE, 
                       __ZThn20_NK10TFormatter13getResultTextEPP22TPItnResultHandle_fakeR7TBufferIcE, 
                       __ZThn20_NK10TFormatter13isValidResultEPP22TPItnResultHandle_fake, 
                       __ZThn20_NK10TFormatter15serializeResultEPP22TPItnResultHandle_fakePcm, 
                       __ZThn20_NK10TFormatter17isResultTokenizedEPP22TPItnResultHandle_fake, 
                       __ZThn20_NK10TFormatter18getResultAlignmentEPP22TPItnResultHandle_fakeR7TBufferImE, 
                       __ZThn20_NK10TFormatter28serializeResultTokenSequenceEPP22TPItnResultHandle_fakeR7TBufferIcE ]
    weak-def-symbols: [ __ZTI10HashKEVTLTIjPK7History10HistoryMgrE, __ZTI10KMeansBase, 
                        __ZTI10PredStruct, __ZTI10TDataMaker, __ZTI10TException, 
                        __ZTI11TIFormatter, __ZTI12DSMOperation, __ZTI12LoggerThread, 
                        __ZTI12ParamSetBase, __ZTI12TArrayObject, __ZTI12TIOException, 
                        __ZTI12TResultMaker, __ZTI12TStringParam, __ZTI13LMContextData, 
                        __ZTI13SplitRadixFFTIddE, __ZTI13SplitRadixFFTIiiE, 
                        __ZTI13TApiException, __ZTI13TRegisterableI10TTokenizerE, 
                        __ZTI13TRegisterableI11TIFormatterE, __ZTI13TRegisterableI13TParamManagerE, 
                        __ZTI13TRegisterableI17TLatticeProcessorE, __ZTI13TRegisterableI8TLatticeE, 
                        __ZTI13TRegisterableI8TLexiconE, __ZTI13TWordVerifier, 
                        __ZTI14FpuSaveRestore, __ZTI14FrameProcessor, __ZTI14IntGlobalParam, 
                        __ZTI14SeedActiveWord, __ZTI14TDataException, __ZTI14TPatternObject, 
                        __ZTI14TTerminalMaker, __ZTI15BoolGlobalParam, 
                        __ZTI15BtNodeCacheTypeI13BtNodeHashKey18BtNodeKeyGeneratorILb0ELb1EEE, 
                        __ZTI15BtNodeCacheTypeI13BtNodeHashKey18BtNodeKeyGeneratorILb1ELb0EEE, 
                        __ZTI15BtNodeCacheTypeI13BtNodeHashKey18BtNodeKeyGeneratorILb1ELb1EEE, 
                        __ZTI15BtNodeCacheTypeI20BtTrigramNodeHashKeyS0_E, 
                        __ZTI15BtNodeCacheTypeI20BtUnigramNodeHashKeyS0_E, 
                        __ZTI15DSMShmOperation, __ZTI15EnumGlobalParam, 
                        __ZTI15LookaheadScorer, __ZTI15TLogicException, 
                        __ZTI16AbstractObserver, __ZTI16DSMFileOperation, 
                        __ZTI16FourierTransform, __ZTI16FrameTransformer, 
                        __ZTI16HangThreadWorker, __ZTI16TFhmParamManager, 
                        __ZTI16TFsaDataCallBack, __ZTI16TItnParamManager, 
                        __ZTI16TRneParamManager, __ZTI16TSyntaxException, 
                        __ZTI16TTerminalChecker, __ZTI17DoubleGlobalParam, 
                        __ZTI17StringGlobalParam, __ZTI17TTmfeParamManager, 
                        __ZTI17WordLMContextData, __ZTI18DgnMemoryException, 
                        __ZTI18FpuUseMrecDefaults, __ZTI18MultiLMContextData, 
                        __ZTI18TSemanticException, __ZTI19AbstractObservation, 
                        __ZTI19RecogControllerBase, __ZTI19SimilarityGenerator, 
                        __ZTI20SeedMergedActiveWord, __ZTI20TCliticsParamManager, 
                        __ZTI20TReentrancyException, __ZTI20TUnexpectedException, 
                        __ZTI21TIFormatterTagManager, __ZTI21TLattProcParamManager, 
                        __ZTI22SeedUnmergedActiveWord, __ZTI22TIFormatterHintManager, 
                        __ZTI22TIFormatterRuleManager, __ZTI23TCompounderParamManager, 
                        __ZTI24TIFormatterResultManager, __ZTI4HashI10CWIDACPairS0_S0_12BigScorePairE, 
                        __ZTI4HashI10WordIdPairS0_S0_jE, __ZTI4HashI11CWIDAtFrameS0_S0_jE, 
                        __ZTI4HashI11Int32TripleS0_16Int32TripleScopeiE, 
                        __ZTI4HashI11StateIdPairS0_S0_15ParseTokenRangeE, 
                        __ZTI4HashI12ComposeStateS0_17ComposeStateScopeiE, 
                        __ZTI4HashI12DgnPrimArrayIiES1_14ArrrayIntScopejE, 
                        __ZTI4HashI12DgnPrimArrayIjES1_14uintArrayScopejE, 
                        __ZTI4HashI12DgnPrimArrayItES1_21PhnIndexArrayIntScopeiE, 
                        __ZTI4HashI12EmbStateSpecS0_29EmbStateSpecToActiveWordScopeP10ActiveWordE, 
                        __ZTI4HashI13CwidStatePairS0_S0_bE, __ZTI4HashI14BuildLmIdNgramS0_S0_dE, 
                        __ZTI4HashI14BuildLmIdNgramS0_S0_jE, __ZTI4HashI14RightExpansionS0_19RightExpansionScopeiE, 
                        __ZTI4HashI16BuildWordIdNgramS0_S0_jE, __ZTI4HashI17BackTraceLinkPairS0_S0_iE, 
                        __ZTI4HashI6CWIDACS0_S0_P10ActiveWordE, __ZTI4HashI6CWIDACS0_S0_jE, 
                        __ZTI4HashI7LNCMPIDS0_S0_P7SimCellE, __ZTI4HashI7LNCMPIDS0_S0_iE, 
                        __ZTI4HashI8DgnArrayI30WordFSTStateWithResidualWeightES2_40WordFSTStateWithResidualWeightArrayScopejE, 
                        __ZTI4HashI9DgnStringS0_14DgnStringScopejE, __ZTI4HashI9Int32PairS0_14Int32PairScopeiE, 
                        __ZTI4HashI9StateSpecS0_S0_bE, __ZTI4HashI9StateSpecS0_S0_jE, 
                        __ZTI4HashIii10Int32ScopeiE, __ZTI4HashIii14IntToUintScopejE, 
                        __ZTI4HashIii16int32ToUintScopejE, __ZTI4HashIjj11WordIdScopejE, 
                        __ZTI4HashIjj13CwidPostScopedE, __ZTI4HashIjj13HuffmanSymbolIjyEPS1_E, 
                        __ZTI4HashIjj18DocumentIndexScopeyE, __ZTI4HashIjj9CWIDScopetE, 
                        __ZTI4HashItt13HuffmanSymbolItjEPS1_E, __ZTI4Node, 
                        __ZTI5TPropIbE, __ZTI5TPropIdE, __ZTI5TPropImE, 
                        __ZTI6KMeansI12GaussianDiagIdEE, __ZTI7HashKEVI18ComposeLatticeNodeS0_S0_E, 
                        __ZTI7HashKEVI20BackTraceItemHashKey13BackTraceItemS0_E, 
                        __ZTI7HashKEVI6CWIDACS0_S0_E, __ZTI7HashKEVI7IntPairS0_12IntPairScopeE, 
                        __ZTI7HashKEVI8UintPairS0_13UintPairScopeE, __ZTI7HashKEVI9CompStateS0_14CompStateScopeE, 
                        __ZTI7HashKEVIP8NodeDataS1_S0_E, __ZTI7HashKEVIii10Int32ScopeE, 
                        __ZTI7HashKEVIjj10Uns32ScopeE, __ZTI7HashKEVIjj11WordIdScopeE, 
                        __ZTI7HashKEVIjj12StateIdScopeE, __ZTI7HashKEVIjj9CWIDScopeE, 
                        __ZTI7HashKEVItt11RuleIdScopeE, __ZTI7LatticeI13WordLatticeLCE, 
                        __ZTI7LatticeI16PhonemeLatticeLCE, __ZTI8BaseNode, 
                        __ZTI8HashNCHVI13BtNodeHashKeyS0_S0_jE, __ZTI8HashNCHVI20BtTrigramNodeHashKeyS0_S0_jE, 
                        __ZTI8HashNCHVI20BtUnigramNodeHashKeyS0_S0_jE, 
                        __ZTI8HashNCHVIjj11WordIdScopejE, __ZTI8HashNCHVIjj32WordToScoreAndDurationHashHelper16ScoreAndDurationE, 
                        __ZTI8THashMapIN11TDecodeLink8THistoryEPKS0_5THashIS1_ENSt3__18equal_toIS1_EEE, 
                        __ZTI8THashMapIN18TDecodeLinkMapWord8THistoryEPKS0_5THashIS1_ENSt3__18equal_toIS1_EEE, 
                        __ZTI8THashMapIPKwP5TWord5THashIS1_E16TWideCharEqualToE, 
                        __ZTI8THashMapIPKwPK4TTag5THashIS1_E16TWideCharEqualToE, 
                        __ZTI8THashMapIPwP10TWordBlock5THashIPKwE16TWideCharEqualToE, 
                        __ZTI9DgnThreadI16HangThreadWorkerE, __ZTI9DgnThreadI18LoggerThreadWorkerE, 
                        __ZTI9DgnThreadI20RecogCtlThreadWorkerE, __ZTI9DgnThreadI21ExternalChannelWorkerE, 
                        __ZTI9DgnThreadI23PrefiltererThreadWorkerE, __ZTI9DgnThreadI27LookaheadScorerThreadWorkerE, 
                        __ZTI9DgnThreadI28FrameTransformerThreadWorkerE, 
                        __ZTI9OneInPort, __ZTI9THashBaseINSt3__14pairIKN11TDecodeLink8THistoryEPKS2_EE15THashMapCompareIS7_NS0_8equal_toIS3_EEE16THashMapFunctionIS7_5THashIS3_EEE, 
                        __ZTI9THashBaseINSt3__14pairIKN18TDecodeLinkMapWord8THistoryEPKS2_EE15THashMapCompareIS7_NS0_8equal_toIS3_EEE16THashMapFunctionIS7_5THashIS3_EEE, 
                        __ZTI9THashBaseINSt3__14pairIKPKwP5TWordEE15THashMapCompareIS7_16TWideCharEqualToE16THashMapFunctionIS7_5THashIS3_EEE, 
                        __ZTI9THashBaseINSt3__14pairIKPKwPK4TTagEE15THashMapCompareIS8_16TWideCharEqualToE16THashMapFunctionIS8_5THashIS3_EEE, 
                        __ZTI9THashBaseINSt3__14pairIKPwP10TWordBlockEE15THashMapCompareIS6_16TWideCharEqualToE16THashMapFunctionIS6_5THashIPKwEEE, 
                        __ZTINSt3__113basic_filebufIcNS_11char_traitsIcEEEE, 
                        __ZTINSt3__114basic_ofstreamIcNS_11char_traitsIcEEEE, 
                        __ZTINSt3__115basic_stringbufIcNS_11char_traitsIcEENS_9allocatorIcEEEE, 
                        __ZTINSt3__115basic_stringbufIwNS_11char_traitsIwEENS_9allocatorIwEEEE, 
                        __ZTINSt3__119basic_istringstreamIcNS_11char_traitsIcEENS_9allocatorIcEEEE, 
                        __ZTINSt3__119basic_istringstreamIwNS_11char_traitsIwEENS_9allocatorIwEEEE, 
                        __ZTINSt3__119basic_ostringstreamIcNS_11char_traitsIcEENS_9allocatorIcEEEE, 
                        __ZTINSt3__119basic_ostringstreamIwNS_11char_traitsIwEENS_9allocatorIwEEEE, 
                        __ZTIP12DgnException, __ZTIP18DgnFileIOException, 
                        __ZTIP18DgnMemoryException, __ZTS10HashKEVTLTIjPK7History10HistoryMgrE, 
                        __ZTS10KMeansBase, __ZTS10PredStruct, __ZTS10TDataMaker, 
                        __ZTS10TException, __ZTS11TIFormatter, __ZTS12DSMOperation, 
                        __ZTS12LoggerThread, __ZTS12ParamSetBase, __ZTS12TArrayObject, 
                        __ZTS12TIOException, __ZTS12TResultMaker, __ZTS12TStringParam, 
                        __ZTS13LMContextData, __ZTS13SplitRadixFFTIddE, 
                        __ZTS13SplitRadixFFTIiiE, __ZTS13TApiException, 
                        __ZTS13TRegisterableI10TTokenizerE, __ZTS13TRegisterableI11TIFormatterE, 
                        __ZTS13TRegisterableI13TParamManagerE, __ZTS13TRegisterableI17TLatticeProcessorE, 
                        __ZTS13TRegisterableI8TLatticeE, __ZTS13TRegisterableI8TLexiconE, 
                        __ZTS13TWordVerifier, __ZTS14FpuSaveRestore, __ZTS14FrameProcessor, 
                        __ZTS14IntGlobalParam, __ZTS14SeedActiveWord, __ZTS14TDataException, 
                        __ZTS14TPatternObject, __ZTS14TTerminalMaker, __ZTS15BoolGlobalParam, 
                        __ZTS15BtNodeCacheTypeI13BtNodeHashKey18BtNodeKeyGeneratorILb0ELb1EEE, 
                        __ZTS15BtNodeCacheTypeI13BtNodeHashKey18BtNodeKeyGeneratorILb1ELb0EEE, 
                        __ZTS15BtNodeCacheTypeI13BtNodeHashKey18BtNodeKeyGeneratorILb1ELb1EEE, 
                        __ZTS15BtNodeCacheTypeI20BtTrigramNodeHashKeyS0_E, 
                        __ZTS15BtNodeCacheTypeI20BtUnigramNodeHashKeyS0_E, 
                        __ZTS15DSMShmOperation, __ZTS15EnumGlobalParam, 
                        __ZTS15LookaheadScorer, __ZTS15TLogicException, 
                        __ZTS16AbstractObserver, __ZTS16DSMFileOperation, 
                        __ZTS16FourierTransform, __ZTS16FrameTransformer, 
                        __ZTS16HangThreadWorker, __ZTS16TFhmParamManager, 
                        __ZTS16TFsaDataCallBack, __ZTS16TItnParamManager, 
                        __ZTS16TRneParamManager, __ZTS16TSyntaxException, 
                        __ZTS16TTerminalChecker, __ZTS17DoubleGlobalParam, 
                        __ZTS17StringGlobalParam, __ZTS17TTmfeParamManager, 
                        __ZTS17WordLMContextData, __ZTS18DgnMemoryException, 
                        __ZTS18FpuUseMrecDefaults, __ZTS18MultiLMContextData, 
                        __ZTS18TSemanticException, __ZTS19AbstractObservation, 
                        __ZTS19RecogControllerBase, __ZTS19SimilarityGenerator, 
                        __ZTS20SeedMergedActiveWord, __ZTS20TCliticsParamManager, 
                        __ZTS20TReentrancyException, __ZTS20TUnexpectedException, 
                        __ZTS21TIFormatterTagManager, __ZTS21TLattProcParamManager, 
                        __ZTS22SeedUnmergedActiveWord, __ZTS22TIFormatterHintManager, 
                        __ZTS22TIFormatterRuleManager, __ZTS23TCompounderParamManager, 
                        __ZTS24TIFormatterResultManager, __ZTS4HashI10CWIDACPairS0_S0_12BigScorePairE, 
                        __ZTS4HashI10WordIdPairS0_S0_jE, __ZTS4HashI11CWIDAtFrameS0_S0_jE, 
                        __ZTS4HashI11Int32TripleS0_16Int32TripleScopeiE, 
                        __ZTS4HashI11StateIdPairS0_S0_15ParseTokenRangeE, 
                        __ZTS4HashI12ComposeStateS0_17ComposeStateScopeiE, 
                        __ZTS4HashI12DgnPrimArrayIiES1_14ArrrayIntScopejE, 
                        __ZTS4HashI12DgnPrimArrayIjES1_14uintArrayScopejE, 
                        __ZTS4HashI12DgnPrimArrayItES1_21PhnIndexArrayIntScopeiE, 
                        __ZTS4HashI12EmbStateSpecS0_29EmbStateSpecToActiveWordScopeP10ActiveWordE, 
                        __ZTS4HashI13CwidStatePairS0_S0_bE, __ZTS4HashI14BuildLmIdNgramS0_S0_dE, 
                        __ZTS4HashI14BuildLmIdNgramS0_S0_jE, __ZTS4HashI14RightExpansionS0_19RightExpansionScopeiE, 
                        __ZTS4HashI16BuildWordIdNgramS0_S0_jE, __ZTS4HashI17BackTraceLinkPairS0_S0_iE, 
                        __ZTS4HashI6CWIDACS0_S0_P10ActiveWordE, __ZTS4HashI6CWIDACS0_S0_jE, 
                        __ZTS4HashI7LNCMPIDS0_S0_P7SimCellE, __ZTS4HashI7LNCMPIDS0_S0_iE, 
                        __ZTS4HashI8DgnArrayI30WordFSTStateWithResidualWeightES2_40WordFSTStateWithResidualWeightArrayScopejE, 
                        __ZTS4HashI9DgnStringS0_14DgnStringScopejE, __ZTS4HashI9Int32PairS0_14Int32PairScopeiE, 
                        __ZTS4HashI9StateSpecS0_S0_bE, __ZTS4HashI9StateSpecS0_S0_jE, 
                        __ZTS4HashIii10Int32ScopeiE, __ZTS4HashIii14IntToUintScopejE, 
                        __ZTS4HashIii16int32ToUintScopejE, __ZTS4HashIjj11WordIdScopejE, 
                        __ZTS4HashIjj13CwidPostScopedE, __ZTS4HashIjj13HuffmanSymbolIjyEPS1_E, 
                        __ZTS4HashIjj18DocumentIndexScopeyE, __ZTS4HashIjj9CWIDScopetE, 
                        __ZTS4HashItt13HuffmanSymbolItjEPS1_E, __ZTS4Node, 
                        __ZTS5TPropIbE, __ZTS5TPropIdE, __ZTS5TPropImE, 
                        __ZTS6KMeansI12GaussianDiagIdEE, __ZTS7HashKEVI18ComposeLatticeNodeS0_S0_E, 
                        __ZTS7HashKEVI20BackTraceItemHashKey13BackTraceItemS0_E, 
                        __ZTS7HashKEVI6CWIDACS0_S0_E, __ZTS7HashKEVI7IntPairS0_12IntPairScopeE, 
                        __ZTS7HashKEVI8UintPairS0_13UintPairScopeE, __ZTS7HashKEVI9CompStateS0_14CompStateScopeE, 
                        __ZTS7HashKEVIP8NodeDataS1_S0_E, __ZTS7HashKEVIii10Int32ScopeE, 
                        __ZTS7HashKEVIjj10Uns32ScopeE, __ZTS7HashKEVIjj11WordIdScopeE, 
                        __ZTS7HashKEVIjj12StateIdScopeE, __ZTS7HashKEVIjj9CWIDScopeE, 
                        __ZTS7HashKEVItt11RuleIdScopeE, __ZTS7LatticeI13WordLatticeLCE, 
                        __ZTS7LatticeI16PhonemeLatticeLCE, __ZTS8BaseNode, 
                        __ZTS8HashNCHVI13BtNodeHashKeyS0_S0_jE, __ZTS8HashNCHVI20BtTrigramNodeHashKeyS0_S0_jE, 
                        __ZTS8HashNCHVI20BtUnigramNodeHashKeyS0_S0_jE, 
                        __ZTS8HashNCHVIjj11WordIdScopejE, __ZTS8HashNCHVIjj32WordToScoreAndDurationHashHelper16ScoreAndDurationE, 
                        __ZTS8THashMapIN11TDecodeLink8THistoryEPKS0_5THashIS1_ENSt3__18equal_toIS1_EEE, 
                        __ZTS8THashMapIN18TDecodeLinkMapWord8THistoryEPKS0_5THashIS1_ENSt3__18equal_toIS1_EEE, 
                        __ZTS8THashMapIPKwP5TWord5THashIS1_E16TWideCharEqualToE, 
                        __ZTS8THashMapIPKwPK4TTag5THashIS1_E16TWideCharEqualToE, 
                        __ZTS8THashMapIPwP10TWordBlock5THashIPKwE16TWideCharEqualToE, 
                        __ZTS9DgnThreadI16HangThreadWorkerE, __ZTS9DgnThreadI18LoggerThreadWorkerE, 
                        __ZTS9DgnThreadI20RecogCtlThreadWorkerE, __ZTS9DgnThreadI21ExternalChannelWorkerE, 
                        __ZTS9DgnThreadI23PrefiltererThreadWorkerE, __ZTS9DgnThreadI27LookaheadScorerThreadWorkerE, 
                        __ZTS9DgnThreadI28FrameTransformerThreadWorkerE, 
                        __ZTS9OneInPort, __ZTS9THashBaseINSt3__14pairIKN11TDecodeLink8THistoryEPKS2_EE15THashMapCompareIS7_NS0_8equal_toIS3_EEE16THashMapFunctionIS7_5THashIS3_EEE, 
                        __ZTS9THashBaseINSt3__14pairIKN18TDecodeLinkMapWord8THistoryEPKS2_EE15THashMapCompareIS7_NS0_8equal_toIS3_EEE16THashMapFunctionIS7_5THashIS3_EEE, 
                        __ZTS9THashBaseINSt3__14pairIKPKwP5TWordEE15THashMapCompareIS7_16TWideCharEqualToE16THashMapFunctionIS7_5THashIS3_EEE, 
                        __ZTS9THashBaseINSt3__14pairIKPKwPK4TTagEE15THashMapCompareIS8_16TWideCharEqualToE16THashMapFunctionIS8_5THashIS3_EEE, 
                        __ZTS9THashBaseINSt3__14pairIKPwP10TWordBlockEE15THashMapCompareIS6_16TWideCharEqualToE16THashMapFunctionIS6_5THashIPKwEEE, 
                        __ZTSNSt3__113basic_filebufIcNS_11char_traitsIcEEEE, 
                        __ZTSNSt3__114basic_ofstreamIcNS_11char_traitsIcEEEE, 
                        __ZTSNSt3__115basic_stringbufIcNS_11char_traitsIcEENS_9allocatorIcEEEE, 
                        __ZTSNSt3__115basic_stringbufIwNS_11char_traitsIwEENS_9allocatorIwEEEE, 
                        __ZTSNSt3__119basic_istringstreamIcNS_11char_traitsIcEENS_9allocatorIcEEEE, 
                        __ZTSNSt3__119basic_istringstreamIwNS_11char_traitsIwEENS_9allocatorIwEEEE, 
                        __ZTSNSt3__119basic_ostringstreamIcNS_11char_traitsIcEENS_9allocatorIcEEEE, 
                        __ZTSNSt3__119basic_ostringstreamIwNS_11char_traitsIwEENS_9allocatorIwEEEE, 
                        __ZTSP12DgnException, __ZTSP18DgnFileIOException, 
                        __ZTSP18DgnMemoryException ]
  - archs:           [ arm64 ]
    symbols:         [ __ZThn40_N10TFormatter10copyResultEPP22TPItnResultHandle_fake, 
                       __ZThn40_N10TFormatter11splitResultEPP22TPItnResultHandle_fakeRKNSt3__16vectorImNS3_9allocatorImEEEER7TBufferIS2_E, 
                       __ZThn40_N10TFormatter12deleteResultEPP22TPItnResultHandle_fake, 
                       __ZThn40_N10TFormatter12mergeResultsEPKPP22TPItnResultHandle_fakeS4_, 
                       __ZThn40_N10TFormatter13textToResultsEPKPP22TPItnResultHandle_fakeS4_S4_S4_PKcjR7TBufferIS2_E, 
                       __ZThn40_N10TFormatter15reformatResultsEPKPP22TPItnResultHandle_fakeS4_S4_S4_PKPP25TPItnRuleControlName_fakeS9_jR7TBufferIS2_E, 
                       __ZThn40_N10TFormatter17deserializeResultEPKcm, 
                       __ZThn40_N10TFormatter20wordSequenceToResultEPKPP22TPItnResultHandle_fakeS4_S4_S4_RKNSt3__16vectorIPKwNS5_9allocatorIS8_EEEEPKjjRS4_SG_, 
                       __ZThn40_N10TFormatter26generateResultAlternativesEPKPP22TPItnResultHandle_fakeS4_PK7TPRangejjR7TBufferIS2_E, 
                       __ZThn40_N10TFormatterD0Ev, __ZThn40_N10TFormatterD1Ev, 
                       __ZThn40_NK10TFormatter12alignResultsEPKPP22TPItnResultHandle_fakeS4_S4_S4_R7TBufferIcE, 
                       __ZThn40_NK10TFormatter13getResultTextEPP22TPItnResultHandle_fakeR7TBufferIcE, 
                       __ZThn40_NK10TFormatter13isValidResultEPP22TPItnResultHandle_fake, 
                       __ZThn40_NK10TFormatter15serializeResultEPP22TPItnResultHandle_fakePcm, 
                       __ZThn40_NK10TFormatter17isResultTokenizedEPP22TPItnResultHandle_fake, 
                       __ZThn40_NK10TFormatter18getResultAlignmentEPP22TPItnResultHandle_fakeR7TBufferImE, 
                       __ZThn40_NK10TFormatter28serializeResultTokenSequenceEPP22TPItnResultHandle_fakeR7TBufferIcE ]
  - archs:           [ armv7, armv7s, arm64 ]
    symbols:         [ _FILE_EXTENSION, _LEXER_BADID, _SDAPIVersionNumber, 
                       _SDAPIVersionString, _SDAdaptAccumResult_Delete, 
                       _SDAdaptAccumResult_GetInfo, _SDAdaptAccumResult_GetStats, 
                       _SDAdaptApplyResult_Delete, _SDAdaptApplyResult_GetInfo, 
                       _SDAdaptApplyResult_GetStats, _SDAdapter_Accumulate, 
                       _SDAdapter_Apply, _SDAdapter_Delete, _SDAdapter_GetAdapters, 
                       _SDAdapter_GetInfo, _SDAdapter_LoadAccumulators, 
                       _SDAdapter_New, _SDAdapter_SaveAccumulators, _SDApi_CheckVersion, 
                       _SDApi_CompareRecognizerVersions, _SDApi_DecodeCharString, 
                       _SDApi_Finalize, _SDApi_GetApiTimeTicks, _SDApi_GetCurrentTime, 
                       _SDApi_GetDescription, _SDApi_GetFileRecognizerVersion, 
                       _SDApi_GetFileSupportType, _SDApi_GetInitializeTime, 
                       _SDApi_GetLastResultCodeString, _SDApi_GetPlatformInfo, 
                       _SDApi_GetRecognizerVersion, _SDApi_GetShowCalls, 
                       _SDApi_GetShowCallsWithFileSpecArgs, _SDApi_GetTicksPerSecond, 
                       _SDApi_HasErrored, _SDApi_Initialize, _SDApi_IsInitialized, 
                       _SDApi_SetShowAllocation, _SDApi_SetShowAllocationHistogram, 
                       _SDApi_SetShowCallMemDeltas, _SDApi_SetShowCallPointerArguments, 
                       _SDApi_SetShowCalls, _SDApi_SetShowCallsWithFileSpecArgs, 
                       _SDChannel_CollectAvailableData, _SDChannel_Delete, 
                       _SDChannel_GetChannels, _SDChannel_GetDCOffsetAdaptationEnabled, 
                       _SDChannel_GetFileFormat, _SDChannel_GetInfo, _SDChannel_NewExternal, 
                       _SDChannel_NewFromFile, _SDChannel_Read, _SDChannel_SetDCOffsetAdaptationEnabled, 
                       _SDColl_StringCompare, _SDColl_StringIsPrefix, _SDCorpus_Delete, 
                       _SDCorpus_FindCorrelatedDocuments, _SDCorpus_GetCorpora, 
                       _SDCorpus_GetDocumentWords, _SDCorpus_GetInfo, _SDCorpus_GetWordHandle, 
                       _SDCorpus_GetWordName, _SDCorpus_New, _SDDiag_CanDisplayMemChunkStats, 
                       _SDDiag_CanDisplayReferencedParameters, _SDDiag_CanGetFloatingPointControlWord, 
                       _SDDiag_CanTriggerAssertionFailures, _SDDiag_CrashIntoDebugger, 
                       _SDDiag_DereferenceNull, _SDDiag_DisplayCallHistogram, 
                       _SDDiag_DisplayLocalMaxAllocBytes, _SDDiag_DisplayMemChunkStats, 
                       _SDDiag_DisplayMemStats, _SDDiag_DisplayObjectSizes, 
                       _SDDiag_DisplayReferencedParameters, _SDDiag_DisplayRuleStateObjectSizes, 
                       _SDDiag_DisplayThreadTrace, _SDDiag_DisplayWarning, 
                       _SDDiag_DivideByZeroInt, _SDDiag_GetDoublePrecision, 
                       _SDDiag_GetFloatingPointControlWord, _SDDiag_GetForcedDoublePrecision, 
                       _SDDiag_GetForcedSinglePrecision, _SDDiag_GetLocalMaxAllocBytes, 
                       _SDDiag_GetMemStats, _SDDiag_LeakAllocatedMemory, 
                       _SDDiag_LeakThread, _SDDiag_PerformWork, _SDDiag_ResetCallHistogram, 
                       _SDDiag_ResetLocalMaxAllocBytes, _SDDiag_ResetReferencedParameters, 
                       _SDDiag_ResetThreadTrace, _SDDiag_StartThreadTrace, 
                       _SDDiag_StopThreadTrace, _SDDiag_TestMultipleMemChunkAllocators, 
                       _SDDiag_TestReadFile, _SDDiag_TestThreadedExecution, 
                       _SDDiag_ThrowBadReadError, _SDDiag_ThrowBadStringError, 
                       _SDDiag_ThrowBadWriteError, _SDDiag_ThrowError, 
                       _SDDiag_ThrowMemoryError, _SDDiag_TriggerArrayBoundsAssertionFailure, 
                       _SDDiag_TriggerAssertionFailure, _SDDiag_TriggerFloatingPointException, 
                       _SDEnvHolder_Delete, _SDEnvHolder_GetEnvHolders, 
                       _SDEnvHolder_GetInfo, _SDEnvHolder_New, _SDEnvHolder_NewFromFile, 
                       _SDEnvHolder_Save, _SDEnv_DeleteAllData, _SDEnv_GetData, 
                       _SDEnv_GetVariableNames, _SDEnv_SetData, _SDGlobalParam_GetBoolValue, 
                       _SDGlobalParam_GetDescription, _SDGlobalParam_GetDoubleValue, 
                       _SDGlobalParam_GetEnumLegalValues, _SDGlobalParam_GetEnumValue, 
                       _SDGlobalParam_GetHandle, _SDGlobalParam_GetIntValue, 
                       _SDGlobalParam_GetName, _SDGlobalParam_GetPars, 
                       _SDGlobalParam_GetStringValue, _SDGlobalParam_GetType, 
                       _SDGlobalParam_SetBoolValue, _SDGlobalParam_SetDoubleValue, 
                       _SDGlobalParam_SetEnumValue, _SDGlobalParam_SetIntValue, 
                       _SDGlobalParam_SetStringValue, _SDLattice_ComputePosteriorProbabilities, 
                       _SDLattice_Delete, _SDLattice_GetBestAlignment, 
                       _SDLattice_GetChoiceList, _SDLattice_GetInfo, _SDLattice_GetLatticeLinks, 
                       _SDLattice_GetLattices, _SDLattice_GetRecognitionStats, 
                       _SDLattice_GetRuleParseTokens, _SDLattice_NewFromData, 
                       _SDLattice_NewFromFile, _SDLattice_NewListFromRecognizer, 
                       _SDLattice_NewMinimizedLattice, _SDLattice_Save, 
                       _SDLm_AbortBuildingTopicLm, _SDLm_AdaptWeights, 
                       _SDLm_AddToRecentBuffer, _SDLm_AddToTopicLm, _SDLm_CanTransferAdjustedTopicLm, 
                       _SDLm_ClearLoadedData, _SDLm_ClearRecentBuffer, 
                       _SDLm_DeleteTopicLms, _SDLm_DeleteWeights, _SDLm_EndBuildingTopicLm, 
                       _SDLm_GetActiveFactoryCorrectiveLms, _SDLm_GetActiveTopicLms, 
                       _SDLm_GetFactoryCorrectiveLmHandle, _SDLm_GetFactoryCorrectiveLmName, 
                       _SDLm_GetFactoryCorrectiveLms, _SDLm_GetTopicLmSlotHandle, 
                       _SDLm_GetTopicLmSlotName, _SDLm_GetTopicLmSlots, 
                       _SDLm_GetWeights, _SDLm_GetWeightsHandle, _SDLm_GetWeightsInfo, 
                       _SDLm_GetWeightsName, _SDLm_HasTopicLm, _SDLm_IsBuildingTopicLm, 
                       _SDLm_LmScore, _SDLm_LmScoreForPrefilterer, _SDLm_NewWeights, 
                       _SDLm_SetActiveFactoryCorrectiveLms, _SDLm_SetFactoryCorrectiveLmName, 
                       _SDLm_SetTopicLmSlotName, _SDLm_SetTopicLmWeights, 
                       _SDLm_SetWeights, _SDLm_StartBuildingTopicLm, _SDLm_TransferAdjustedTopicLm, 
                       _SDParamSetHolder_Delete, _SDParamSetHolder_GetInfo, 
                       _SDParamSetHolder_GetParamSetHolders, _SDParamSetHolder_GetParamSetNames, 
                       _SDParamSetHolder_New, _SDParamSetHolder_NewFromFile, 
                       _SDParamSetHolder_Save, _SDParamSetParam_GetBoolValue, 
                       _SDParamSetParam_GetDescription, _SDParamSetParam_GetDoubleValue, 
                       _SDParamSetParam_GetEnumLegalValues, _SDParamSetParam_GetEnumValue, 
                       _SDParamSetParam_GetHandle, _SDParamSetParam_GetIntValue, 
                       _SDParamSetParam_GetStringValue, _SDParamSetParam_GetType, 
                       _SDParamSetParam_SetBoolValue, _SDParamSetParam_SetDoubleValue, 
                       _SDParamSetParam_SetEnumValue, _SDParamSetParam_SetIntValue, 
                       _SDParamSetParam_SetStringValue, _SDParamSet_Delete, 
                       _SDParamSet_GetHandle, _SDParamSet_GetInfo, _SDParamSet_GetName, 
                       _SDParamSet_GetParamNames, _SDParamSet_New, _SDParamSet_NewFromParamSet, 
                       _SDPrefilterResult_Delete, _SDPrefilterResult_GetPrefilterResults, 
                       _SDPrefilterResult_IsCompatibleWithUtt, _SDPrefilterResult_NewFromFile, 
                       _SDPrefilterResult_NewFromRecognizer, _SDPrefilterResult_Save, 
                       _SDPrefilterer_Delete, _SDPrefilterer_GetInfo, _SDPrefilterer_GetPrefilterers, 
                       _SDPrefilterer_GetRecognizer, _SDPrefilterer_GetState, 
                       _SDPrefilterer_GetUser, _SDPrefilterer_GetVoc, _SDPrefilterer_New, 
                       _SDProfile_CanProfile, _SDProfile_Clear, _SDProfile_GetColumnNames, 
                       _SDProfile_IsProfiling, _SDProfile_Print, _SDProfile_Start, 
                       _SDProfile_Stop, _SDRecog_DeleteRecognizer, _SDRecog_DeleteSegmentResult, 
                       _SDRecog_GetInfo, _SDRecog_GetParamSetHandles, _SDRecog_GetRecognizers, 
                       _SDRecog_GetWordAlignments, _SDRecog_GuessPronsAcoustic, 
                       _SDRecog_GuessPronsNonAcoustic, _SDRecog_NewRecognizer, 
                       _SDRecog_RecognizeNonAcoustic, _SDRecog_RecognizerContinue, 
                       _SDRecog_RecognizerGetNumRecogLayers, _SDRecog_RecognizerGetPartialResult, 
                       _SDRecog_ScoreSegmentation, _SDRecog_Segment, _SDRepro_Delete, 
                       _SDRepro_GetAdaptData, _SDRepro_GetInfo, _SDRepro_GetPronGuessData, 
                       _SDRepro_GetRecognizeData, _SDRepro_GetSegmentData, 
                       _SDRepro_New, _SDRepro_Save, _SDRule_Delete, _SDRule_GetCoartAllowed, 
                       _SDRule_GetDescription, _SDRule_GetHandle, _SDRule_GetInfo, 
                       _SDRule_GetLMAllowed, _SDRule_GetName, _SDRule_GetNumStatesForIsolatedRuleBuild, 
                       _SDRule_GetParent, _SDRule_GetPrefilteringAllowed, 
                       _SDRule_New, _SDRule_SetCoartAllowed, _SDRule_SetDescription, 
                       _SDRule_SetLMAllowed, _SDRule_SetName, _SDRule_SetPrefilteringAllowed, 
                       _SDSausage_Delete, _SDSausage_GetInfo, _SDSausage_GetSausages, 
                       _SDSausage_GetTokens, _SDSausage_GetTopChoiceTokens, 
                       _SDSausage_NewFromLattice, _SDSausage_NewFromSausageSplitNonAcoustic, 
                       _SDSausage_NewFromSausages, _SDSigProc_BackupAdaptationData, 
                       _SDSigProc_CanCreateUserDelta, _SDSigProc_CanTransferSpectralWarp, 
                       _SDSigProc_ClearAdaptationData, _SDSigProc_ClearUserDelta, 
                       _SDSigProc_CreateUserDelta, _SDSigProc_Delete, _SDSigProc_DeleteBackupAdaptationData, 
                       _SDSigProc_GetAdaptStats, _SDSigProc_GetInfo, _SDSigProc_GetSigProcs, 
                       _SDSigProc_HasBackupAdaptationData, _SDSigProc_New, 
                       _SDSigProc_ResetAdaptStats, _SDSigProc_RestoreAdaptationData, 
                       _SDSigProc_Save, _SDSigProc_SetWarpChoice, _SDSigProc_TransferSpectralWarp, 
                       _SDSigProc_UpdateAdaptationData, _SDState_AddStateTransition, 
                       _SDState_AddWholeVoc, _SDState_AddWordList, _SDState_Delete, 
                       _SDState_DeleteWordList, _SDState_GetAllowedWordCollations, 
                       _SDState_GetChildRules, _SDState_GetChildStates, 
                       _SDState_GetCoartAllowed, _SDState_GetCollapsible, 
                       _SDState_GetEndOfUtteranceAllowed, _SDState_GetHandle, 
                       _SDState_GetInfo, _SDState_GetLMAllowed, _SDState_GetLeftWordBoundaryAllowed, 
                       _SDState_GetName, _SDState_GetParent, _SDState_GetPrecedingNonAcousticWordState, 
                       _SDState_GetPrefilteringAllowed, _SDState_GetRightWordBoundaryAllowed, 
                       _SDState_GetSkipAllowed, _SDState_GetStateTransition, 
                       _SDState_GetTimeConstraint, _SDState_GetTransitioningStates, 
                       _SDState_GetWeights, _SDState_GetWordAliasState, 
                       _SDState_GetWordPenalty, _SDState_GetWords, _SDState_HasWord, 
                       _SDState_New, _SDState_SetAllowedWordCollations, 
                       _SDState_SetCoartAllowed, _SDState_SetCollapsible, 
                       _SDState_SetEndOfUtteranceAllowed, _SDState_SetLMAllowed, 
                       _SDState_SetLeftWordBoundaryAllowed, _SDState_SetName, 
                       _SDState_SetPrecedingNonAcousticWordState, _SDState_SetPrefilteringAllowed, 
                       _SDState_SetRightWordBoundaryAllowed, _SDState_SetSkipAllowed, 
                       _SDState_SetStateTransition, _SDState_SetTimeConstraint, 
                       _SDState_SetWeights, _SDState_SetWordAliasState, 
                       _SDState_SetWordPenalty, _SDTransducer_Delete, _SDTransducer_GetTransducers, 
                       _SDTransducer_GetUser, _SDTransducer_GetVoc, _SDTransducer_NewFromFile, 
                       _SDTransducer_Save, _SDUser_ApplyDelta, _SDUser_CanApplyDelta, 
                       _SDUser_Delete, _SDUser_GetAdaptStats, _SDUser_GetInfo, 
                       _SDUser_GetUsers, _SDUser_IsCompatibleWithSigProc, 
                       _SDUser_IsCompatibleWithUser, _SDUser_New, _SDUser_NewFromUser, 
                       _SDUser_ResetAdaptStats, _SDUser_Save, _SDUttFile_Delete, 
                       _SDUttFile_GetUttFiles, _SDUttFile_New, _SDUttFile_Write, 
                       _SDUtt_CopyFrom, _SDUtt_Delete, _SDUtt_DeleteWave, 
                       _SDUtt_GetFeatureFrame, _SDUtt_GetFloatFeatureFrame, 
                       _SDUtt_GetFrameInfo, _SDUtt_GetInfo, _SDUtt_GetSignalFormat, 
                       _SDUtt_GetUtts, _SDUtt_GetWave, _SDVoc_CanComparePronsWithVoc, 
                       _SDVoc_CanCreateNewWordsFromVoc, _SDVoc_CanTransferClientPronsFromVoc, 
                       _SDVoc_CanTransferOptionalTagDataFromVoc, _SDVoc_Delete, 
                       _SDVoc_GetAllowedWordCollations, _SDVoc_GetCollationHandle, 
                       _SDVoc_GetCollationName, _SDVoc_GetColls, _SDVoc_GetInfo, 
                       _SDVoc_GetInterpolationWeights, _SDVoc_GetStaticComponentCompatibility, 
                       _SDVoc_GetTagNames, _SDVoc_GetVocs, _SDVoc_GetWords, 
                       _SDVoc_New, _SDVoc_ReloadLM, _SDVoc_Save, _SDVoc_SetAllowedWordCollations, 
                       _SDVoc_SetInterpolationWeights, _SDVoc_UnloadLM, 
                       _SDWord_DeleteClientProns, _SDWord_DeleteList, _SDWord_DeleteOptionalTagData, 
                       _SDWord_GetClientPronData, _SDWord_GetHandle, _SDWord_GetHumanReadableProns, 
                       _SDWord_GetInfo, _SDWord_GetName, _SDWord_GetNames, 
                       _SDWord_GetOptionalTagString, _SDWord_GetTagBits, 
                       _SDWord_GetWordsWithCommonPron, _SDWord_New, _SDWord_NewListFromWordList, 
                       _SDWord_NewListFromWordListProns, _SDWord_NewListFromWordListWithClonedLm, 
                       _SDWord_NewWithClonedLm, _SDWord_SetClientPronData, 
                       _SDWord_SetClientPronsFromWordSequences, _SDWord_SetOptionalTagString, 
                       _SDWord_SetTagBits, _SDWord_TransferClientProns, 
                       _SDWord_WordsHaveCommonPron, _SDWord_WordsHavePrefixPron, 
                       _SERIALIZE_NAME, _TPApi_Finalize, _TPApi_GetMemoryUsage, 
                       _TPApi_GetVersion, _TPApi_Initialize, _TPApi_IsInitialized, 
                       _TPApi_SetLoggingCallBack, _TPItn_AbortAdaptation, 
                       _TPItn_AddAdaptationData, _TPItn_AlignResults, _TPItn_ApplyControls, 
                       _TPItn_ApplyHint, _TPItn_Close, _TPItn_CopyResult, 
                       _TPItn_CreateRule, _TPItn_DeleteResult, _TPItn_DeleteRule, 
                       _TPItn_DeserializeResult, _TPItn_EndAdaptation, 
                       _TPItn_GenerateResultAlternatives, _TPItn_GetHintData, 
                       _TPItn_GetHintHandles, _TPItn_GetInfo, _TPItn_GetResultAlignment, 
                       _TPItn_GetResultInfo, _TPItn_GetResultText, _TPItn_GetResultWordSequence, 
                       _TPItn_GetRuleHandles, _TPItn_GetRuleInfo, _TPItn_GetRuleRewriteForm, 
                       _TPItn_GetRuleWordName, _TPItn_GetTagDescription, 
                       _TPItn_GetTagHandle, _TPItn_GetTagHandles, _TPItn_GetTagInfo, 
                       _TPItn_GetTagName, _TPItn_ImportChanges, _TPItn_MergeResults, 
                       _TPItn_Open, _TPItn_ResetAllRules, _TPItn_ResetRules, 
                       _TPItn_Save, _TPItn_SerializeResult, _TPItn_SetRuleClientData, 
                       _TPItn_SetTagClientData, _TPItn_SplitResult, _TPItn_StartAdaptation, 
                       _TPItn_TextToResult, _TPItn_WordSequenceToResult, 
                       _TPLatticeProcessor_AbortAdaptation, _TPLatticeProcessor_AddAdaptationData, 
                       _TPLatticeProcessor_Apply, _TPLatticeProcessor_Close, 
                       _TPLatticeProcessor_EndAdaptation, _TPLatticeProcessor_GetCallOrdering, 
                       _TPLatticeProcessor_GetInfo, _TPLatticeProcessor_Open, 
                       _TPLatticeProcessor_Save, _TPLatticeProcessor_StartAdaptation, 
                       _TPLattice_Delete, _TPLattice_GetData, _TPLattice_GetInfo, 
                       _TPLattice_GetMrecLattice, _TPLattice_New, _TPLattice_NewFromMrecLattice, 
                       _TPLexicon_Close, _TPLexicon_CreateWordName, _TPLexicon_GetHeadClone, 
                       _TPLexicon_GetInfo, _TPLexicon_GetTokenName, _TPLexicon_IsStringPunct, 
                       _TPLexicon_IsValidWordName, _TPLexicon_MapWordNames, 
                       _TPLexicon_Open, _TPLexicon_Save, _TPLexicon_SplitWordName, 
                       _TPLexicon_UpdateCaches, _TPParam_CreateBool, _TPParam_Delete, 
                       _TPParam_GetBoolValue, _TPParam_GetConfigHandle, 
                       _TPParam_GetConfigHandles, _TPParam_GetConfigName, 
                       _TPParam_GetDescription, _TPParam_GetFlags, _TPParam_GetFloatValue, 
                       _TPParam_GetHandle, _TPParam_GetHandles, _TPParam_GetIntRange, 
                       _TPParam_GetIntValue, _TPParam_GetManagerInfo, _TPParam_GetName, 
                       _TPParam_GetStringAllowables, _TPParam_GetStringValue, 
                       _TPParam_GetType, _TPParam_GetValue, _TPParam_Reset, 
                       _TPParam_ResetAll, _TPParam_SetBoolValue, _TPParam_SetFloatValue, 
                       _TPParam_SetIntValue, _TPParam_SetStringValue, _TPParam_SetValue, 
                       _TPProfile_CanProfile, _TPProfile_Clear, _TPProfile_IsProfiling, 
                       _TPProfile_Print, _TPProfile_Start, _TPProfile_Stop, 
                       _TPToken_Close, _TPToken_DeleteResult, _TPToken_GetInfo, 
                       _TPToken_GetResultData, _TPToken_GetResultInfo, 
                       _TPToken_LoadGrammar, _TPToken_Open, _TPToken_Save, 
                       _TPToken_Tokenize, _TknFindPaths, __Z10IsInfinityd, 
                       __Z10VerifyRulett, __Z10compileAltPK11TFileObjectPS_P8TLexiconP10TAllocator, 
                       __Z10createTmfePK12TDataManagerPS_P8TLexicon, __Z10getNewLinev, 
                       __Z10ratioMul64xjj, __Z10readObjectP22RealDFileSubFileStreamRbRj, 
                       __Z10readObjectP22RealDFileSubFileStreamRcRj, __Z10readObjectP22RealDFileSubFileStreamRdRj, 
                       __Z10readObjectP22RealDFileSubFileStreamRfRj, __Z10readObjectP22RealDFileSubFileStreamRhRj, 
                       __Z10readObjectP22RealDFileSubFileStreamRiRj, __Z10readObjectP22RealDFileSubFileStreamRjS1_, 
                       __Z10readObjectP22RealDFileSubFileStreamRsRj, __Z10readObjectP22RealDFileSubFileStreamRtRj, 
                       __Z10readObjectP22RealDFileSubFileStreamRxRj, __Z10readObjectP22RealDFileSubFileStreamRyRj, 
                       __Z10readObjectP9DgnStreamR10AdaptStatsRj, __Z10readObjectP9DgnStreamR10ParseTokenRj, 
                       __Z10readObjectP9DgnStreamR10WarpChoiceRj, __Z10readObjectP9DgnStreamR11AdaptConfigRj, 
                       __Z10readObjectP9DgnStreamR11LatticeDatabbbbPbRj, 
                       __Z10readObjectP9DgnStreamR11LinkSegmentRj, __Z10readObjectP9DgnStreamR13ChanStatsSpecRj, 
                       __Z10readObjectP9DgnStreamR14ArcGraphHeaderRj, __Z10readObjectP9DgnStreamR14BinaryIntScaleRj, 
                       __Z10readObjectP9DgnStreamR14DFileChecksumsRj, __Z10readObjectP9DgnStreamR14InputLatticeLCbbRj, 
                       __Z10readObjectP9DgnStreamR15B_SvcCompatTypeRj, 
                       __Z10readObjectP9DgnStreamR15InputLatticeArcRj, 
                       __Z10readObjectP9DgnStreamR15InputLatticeArcbbRj, 
                       __Z10readObjectP9DgnStreamR15WarpCoordinatesRj, 
                       __Z10readObjectP9DgnStreamR16FeatureScaleSpecRj, 
                       __Z10readObjectP9DgnStreamR16Uns32OneToOneMapRj, 
                       __Z10readObjectP9DgnStreamR17FeatureFilterSpecRj, 
                       __Z10readObjectP9DgnStreamR17FrameDecisionTreeRj, 
                       __Z10readObjectP9DgnStreamR17TagBitsAndStringsRj, 
                       __Z10readObjectP9DgnStreamR18DgnTextFileVersionRj, 
                       __Z10readObjectP9DgnStreamR18FrameDecimatorSpecRj, 
                       __Z10readObjectP9DgnStreamR18Uns8SpecialMapItemRj, 
                       __Z10readObjectP9DgnStreamR19AdaptConfigAndStatsRj, 
                       __Z10readObjectP9DgnStreamR19DFileChecksumBucketRj, 
                       __Z10readObjectP9DgnStreamR19FeatureSelectorSpecRj, 
                       __Z10readObjectP9DgnStreamR19OpaquePelIdAndDurIdRj, 
                       __Z10readObjectP9DgnStreamR19PrefilterResultDataRj, 
                       __Z10readObjectP9DgnStreamR19Uns32SpecialMapItemRj, 
                       __Z10readObjectP9DgnStreamR20FeatureGeneratorSpecRj, 
                       __Z10readObjectP9DgnStreamR20OldFeatureFilterSpecRj, 
                       __Z10readObjectP9DgnStreamR20PrefilterResultFrameRj, 
                       __Z10readObjectP9DgnStreamR22OldUns16SpecialMapItemRj, 
                       __Z10readObjectP9DgnStreamR24BadSuccessorSeedCategoryRj, 
                       __Z10readObjectP9DgnStreamR26BadPredecessorSeedCategoryRj, 
                       __Z10readObjectP9DgnStreamR4RuleRj, __Z10readObjectP9DgnStreamR7BadUintRj, 
                       __Z10readObjectP9DgnStreamR7PicNodeRj, __Z10readObjectP9DgnStreamR8BitArrayRj, 
                       __Z10readObjectP9DgnStreamR8RuleDescRj, __Z10readObjectP9DgnStreamR8RuleSpecRj, 
                       __Z10readObjectP9DgnStreamR9DgnMatrixRj, __Z10readObjectP9DgnStreamR9DgnStringRj, 
                       __Z10readObjectP9DgnStreamR9DgnVectorRj, __Z10readObjectP9DgnStreamR9StateSpecRj, 
                       __Z10readObjectP9DgnStreamRbRj, __Z10readObjectP9DgnStreamRcRj, 
                       __Z10readObjectP9DgnStreamRdRj, __Z10readObjectP9DgnStreamRfRj, 
                       __Z10readObjectP9DgnStreamRhRj, __Z10readObjectP9DgnStreamRiRj, 
                       __Z10readObjectP9DgnStreamRjS1_, __Z10readObjectP9DgnStreamRsRj, 
                       __Z10readObjectP9DgnStreamRtRj, __Z10readObjectP9DgnStreamRxRj, 
                       __Z10readObjectP9DgnStreamRyRj, __Z10sizeObjectRK10AdaptStats16B_SizeObjectType, 
                       __Z10sizeObjectRK10AudioCodec16B_SizeObjectType, 
                       __Z10sizeObjectRK10CTPelAccum16B_SizeObjectType, 
                       __Z10sizeObjectRK10CWIDACPair16B_SizeObjectType, 
                       __Z10sizeObjectRK10DgnPRandom16B_SizeObjectType, 
                       __Z10sizeObjectRK10EnergyInfo16B_SizeObjectType, 
                       __Z10sizeObjectRK10FrameQueue16B_SizeObjectType, 
                       __Z10sizeObjectRK10LinkSegIds16B_SizeObjectType, 
                       __Z10sizeObjectRK10ParseToken16B_SizeObjectType, 
                       __Z10sizeObjectRK10PelSegment16B_SizeObjectType, 
                       __Z10sizeObjectRK10PredStruct16B_SizeObjectType, 
                       __Z10sizeObjectRK10ScoreArray16B_SizeObjectType, 
                       __Z10sizeObjectRK10WarpChoice16B_SizeObjectType, 
                       __Z10sizeObjectRK11AdaptConfig16B_SizeObjectType, 
                       __Z10sizeObjectRK11FileHistory16B_SizeObjectType, 
                       __Z10sizeObjectRK11HiddenState16B_SizeObjectType, 
                       __Z10sizeObjectRK11LatticePath16B_SizeObjectType, 
                       __Z10sizeObjectRK11LinkSegment16B_SizeObjectType, 
                       __Z10sizeObjectRK11NBestChoice16B_SizeObjectType, 
                       __Z10sizeObjectRK11NetNBestAlg16B_SizeObjectType, 
                       __Z10sizeObjectRK11PRStatsItem16B_SizeObjectType, 
                       __Z10sizeObjectRK11PositionClu16B_SizeObjectType, 
                       __Z10sizeObjectRK11PreEmphasis16B_SizeObjectType, 
                       __Z10sizeObjectRK11SausageSlot16B_SizeObjectType, 
                       __Z10sizeObjectRK11SeederBlock16B_SizeObjectType, 
                       __Z10sizeObjectRK11SeedingData16B_SizeObjectType, 
                       __Z10sizeObjectRK11StateIdPair16B_SizeObjectType, 
                       __Z10sizeObjectRK11WaveDecoder16B_SizeObjectType, 
                       __Z10sizeObjectRK12BigScorePair16B_SizeObjectType, 
                       __Z10sizeObjectRK12CWIDAndCount16B_SizeObjectType, 
                       __Z10sizeObjectRK12CWIDProbPair16B_SizeObjectType, 
                       __Z10sizeObjectRK12ClsDecimator16B_SizeObjectType, 
                       __Z10sizeObjectRK12ComposeState16B_SizeObjectType, 
                       __Z10sizeObjectRK12FeatureFrame16B_SizeObjectType, 
                       __Z10sizeObjectRK12HistContents16B_SizeObjectType, 
                       __Z10sizeObjectRK12LeafTreeNode16B_SizeObjectType, 
                       __Z10sizeObjectRK12MergedActive16B_SizeObjectType, 
                       __Z10sizeObjectRK12PostTreeNode16B_SizeObjectType, 
                       __Z10sizeObjectRK12SeederStruct16B_SizeObjectType, 
                       __Z10sizeObjectRK13ArcSortStruct16B_SizeObjectType, 
                       __Z10sizeObjectRK13BackTraceItem16B_SizeObjectType, 
                       __Z10sizeObjectRK13BtNBestResult16B_SizeObjectType, 
                       __Z10sizeObjectRK13CWIDCrumbWACS16B_SizeObjectType, 
                       __Z10sizeObjectRK13ChanStatsSpec16B_SizeObjectType, 
                       __Z10sizeObjectRK13CwidStatePair16B_SizeObjectType, 
                       __Z10sizeObjectRK13DgnSharedLock16B_SizeObjectType, 
                       __Z10sizeObjectRK13DgnStringPair16B_SizeObjectType, 
                       __Z10sizeObjectRK13FrameTypeInfo16B_SizeObjectType, 
                       __Z10sizeObjectRK13IntParamRange16B_SizeObjectType, 
                       __Z10sizeObjectRK13LMContextPars16B_SizeObjectType, 
                       __Z10sizeObjectRK13LexHeapStruct16B_SizeObjectType, 
                       __Z10sizeObjectRK13ScoreFixArray16B_SizeObjectType, 
                       __Z10sizeObjectRK13SvcCompatData16B_SizeObjectType, 
                       __Z10sizeObjectRK13Uns16AndScore16B_SizeObjectType, 
                       __Z10sizeObjectRK13WordLatticeLC16B_SizeObjectType, 
                       __Z10sizeObjectRK14AcousticFormat16B_SizeObjectType, 
                       __Z10sizeObjectRK14ArcGraphHeader16B_SizeObjectType, 
                       __Z10sizeObjectRK14ClsCandPeakSet16B_SizeObjectType, 
                       __Z10sizeObjectRK14DFileChecksums16B_SizeObjectType, 
                       __Z10sizeObjectRK14DgnThreadTrace16B_SizeObjectType, 
                       __Z10sizeObjectRK14EnumParamRange16B_SizeObjectType, 
                       __Z10sizeObjectRK14FstCoreOptions16B_SizeObjectType, 
                       __Z10sizeObjectRK14FstSearchTrace16B_SizeObjectType, 
                       __Z10sizeObjectRK14InputLatticeLC16B_SizeObjectType, 
                       __Z10sizeObjectRK14ItemizedScores16B_SizeObjectType, 
                       __Z10sizeObjectRK14MemChunkRegion16B_SizeObjectType, 
                       __Z10sizeObjectRK14PelSegmentData16B_SizeObjectType, 
                       __Z10sizeObjectRK14RecogSpecLayer16B_SizeObjectType, 
                       __Z10sizeObjectRK14StayAndPassPen16B_SizeObjectType, 
                       __Z10sizeObjectRK15CorrelationPeak16B_SizeObjectType, 
                       __Z10sizeObjectRK15ExternalOutPort16B_SizeObjectType, 
                       __Z10sizeObjectRK15InputLatticeArc16B_SizeObjectType, 
                       __Z10sizeObjectRK15NBestChoiceList16B_SizeObjectType, 
                       __Z10sizeObjectRK15NodeScoringData16B_SizeObjectType, 
                       __Z10sizeObjectRK15ParseTokenRange16B_SizeObjectType, 
                       __Z10sizeObjectRK15PerFrameUttInfo16B_SizeObjectType, 
                       __Z10sizeObjectRK15ReturnListQueue16B_SizeObjectType, 
                       __Z10sizeObjectRK15WarpCoordinates16B_SizeObjectType, 
                       __Z10sizeObjectRK16CTModelRelevance16B_SizeObjectType, 
                       __Z10sizeObjectRK16DgnReadWriteLock16B_SizeObjectType, 
                       __Z10sizeObjectRK16DoubleParamRange16B_SizeObjectType, 
                       __Z10sizeObjectRK16FeatureScaleSpec16B_SizeObjectType, 
                       __Z10sizeObjectRK16PhonemeLatticeLC16B_SizeObjectType, 
                       __Z10sizeObjectRK16RecogCtlInitData16B_SizeObjectType, 
                       __Z10sizeObjectRK16RecogResultGraph16B_SizeObjectType, 
                       __Z10sizeObjectRK16RecogResultToken16B_SizeObjectType, 
                       __Z10sizeObjectRK16ScoreAndDuration16B_SizeObjectType, 
                       __Z10sizeObjectRK16StartEndTimePair16B_SizeObjectType, 
                       __Z10sizeObjectRK16Uns32OneToOneMap16B_SizeObjectType, 
                       __Z10sizeObjectRK17AdaptStatsHistory16B_SizeObjectType, 
                       __Z10sizeObjectRK17BackTraceLinkPair16B_SizeObjectType, 
                       __Z10sizeObjectRK17DFileProgressInfo16B_SizeObjectType, 
                       __Z10sizeObjectRK17DocumentQueueItem16B_SizeObjectType, 
                       __Z10sizeObjectRK17FeatureFilterSpec16B_SizeObjectType, 
                       __Z10sizeObjectRK17FrameDecisionTree16B_SizeObjectType, 
                       __Z10sizeObjectRK17PelScoreCacheData16B_SizeObjectType, 
                       __Z10sizeObjectRK17RecogResultChoice16B_SizeObjectType, 
                       __Z10sizeObjectRK17SigProcDescriptor16B_SizeObjectType, 
                       __Z10sizeObjectRK17TagBitsAndStrings16B_SizeObjectType, 
                       __Z10sizeObjectRK17UttConfidenceInfo16B_SizeObjectType, 
                       __Z10sizeObjectRK17WordIdOrTrGrmLmId16B_SizeObjectType, 
                       __Z10sizeObjectRK18BandwidthTransform16B_SizeObjectType, 
                       __Z10sizeObjectRK18CWIDCrumbWACSFrame16B_SizeObjectType, 
                       __Z10sizeObjectRK18ComposeLatticeNode16B_SizeObjectType, 
                       __Z10sizeObjectRK18FrameDecimatorSpec16B_SizeObjectType, 
                       __Z10sizeObjectRK18FstSearchHashTrace16B_SizeObjectType, 
                       __Z10sizeObjectRK18FstSearchLeafTrace16B_SizeObjectType, 
                       __Z10sizeObjectRK18HistoryAndBigScore16B_SizeObjectType, 
                       __Z10sizeObjectRK18Uns8SpecialMapItem16B_SizeObjectType, 
                       __Z10sizeObjectRK18WordConfidenceInfo16B_SizeObjectType, 
                       __Z10sizeObjectRK19AdaptConfigAndStats16B_SizeObjectType, 
                       __Z10sizeObjectRK19ConstraintCacheInfo16B_SizeObjectType, 
                       __Z10sizeObjectRK19DFileChecksumBucket16B_SizeObjectType, 
                       __Z10sizeObjectRK19FeatureSelectorSpec16B_SizeObjectType, 
                       __Z10sizeObjectRK19FstSearchTraceToken16B_SizeObjectType, 
                       __Z10sizeObjectRK19IntParamHistoryItem16B_SizeObjectType, 
                       __Z10sizeObjectRK19LeafGraphBuildState16B_SizeObjectType, 
                       __Z10sizeObjectRK19OpaquePelIdAndDurId16B_SizeObjectType, 
                       __Z10sizeObjectRK19PronChoiceQueueItem16B_SizeObjectType, 
                       __Z10sizeObjectRK19RecogResultGraphArc16B_SizeObjectType, 
                       __Z10sizeObjectRK19Uns32SpecialMapItem16B_SizeObjectType, 
                       __Z10sizeObjectRK20BoolParamHistoryItem16B_SizeObjectType, 
                       __Z10sizeObjectRK20EnumParamHistoryItem16B_SizeObjectType, 
                       __Z10sizeObjectRK20FeatureGeneratorSpec16B_SizeObjectType, 
                       __Z10sizeObjectRK20FstSearchActiveToken16B_SizeObjectType, 
                       __Z10sizeObjectRK20RecogCtlDoFramesData16B_SizeObjectType, 
                       __Z10sizeObjectRK20SeedMergedActiveWord16B_SizeObjectType, 
                       __Z10sizeObjectRK20TraceExternalOutPort16B_SizeObjectType, 
                       __Z10sizeObjectRK20TransducerGrammarArc16B_SizeObjectType, 
                       __Z10sizeObjectRK21AcousticContextScores16B_SizeObjectType, 
                       __Z10sizeObjectRK21ChannelThreadPlayMode16B_SizeObjectType, 
                       __Z10sizeObjectRK21FeatureArraySpinQueue16B_SizeObjectType, 
                       __Z10sizeObjectRK21FrameDecisionTreeNode16B_SizeObjectType, 
                       __Z10sizeObjectRK21FstSearchBackoffTrace16B_SizeObjectType, 
                       __Z10sizeObjectRK21FstSearchLatticeTrace16B_SizeObjectType, 
                       __Z10sizeObjectRK21MergedStateTransition16B_SizeObjectType, 
                       __Z10sizeObjectRK21PrefiltererThreadMode16B_SizeObjectType, 
                       __Z10sizeObjectRK22DoubleParamHistoryItem16B_SizeObjectType, 
                       __Z10sizeObjectRK22FstSearchDurationTrace16B_SizeObjectType, 
                       __Z10sizeObjectRK22ItemizedAcousticScores16B_SizeObjectType, 
                       __Z10sizeObjectRK22LeafGraphBuildStateMin16B_SizeObjectType, 
                       __Z10sizeObjectRK22PelIdAndStayAndPassPen16B_SizeObjectType, 
                       __Z10sizeObjectRK22ScoreFixArraySpinQueue16B_SizeObjectType, 
                       __Z10sizeObjectRK22StringParamHistoryItem16B_SizeObjectType, 
                       __Z10sizeObjectRK23ChannelThreadPlayStatus16B_SizeObjectType, 
                       __Z10sizeObjectRK23FstSearchHashTraceToken16B_SizeObjectType, 
                       __Z10sizeObjectRK23FstSearchLeafTraceToken16B_SizeObjectType, 
                       __Z10sizeObjectRK23PrefiltererThreadStatus16B_SizeObjectType, 
                       __Z10sizeObjectRK24FstSearchHashActiveToken16B_SizeObjectType, 
                       __Z10sizeObjectRK24FstSearchLeafActiveToken16B_SizeObjectType, 
                       __Z10sizeObjectRK25FstSearchHashBackoffTrace16B_SizeObjectType, 
                       __Z10sizeObjectRK25FstSearchLateLatticeTrace16B_SizeObjectType, 
                       __Z10sizeObjectRK25FstSearchLatticeHashTrace16B_SizeObjectType, 
                       __Z10sizeObjectRK25FstSearchLeafBackoffTrace16B_SizeObjectType, 
                       __Z10sizeObjectRK25FstSearchLeafLatticeTrace16B_SizeObjectType, 
                       __Z10sizeObjectRK26FstSearchBackoffTraceToken16B_SizeObjectType, 
                       __Z10sizeObjectRK26FstSearchDurationHashTrace16B_SizeObjectType, 
                       __Z10sizeObjectRK26FstSearchLatticeTraceToken16B_SizeObjectType, 
                       __Z10sizeObjectRK26FstSearchLeafDurationTrace16B_SizeObjectType, 
                       __Z10sizeObjectRK27FrameDecisionTreeHyperplane16B_SizeObjectType, 
                       __Z10sizeObjectRK27FstSearchBackoffActiveToken16B_SizeObjectType, 
                       __Z10sizeObjectRK27FstSearchDurationTraceToken16B_SizeObjectType, 
                       __Z10sizeObjectRK27FstSearchLatticeActiveToken16B_SizeObjectType, 
                       __Z10sizeObjectRK28FstSearchDurationActiveToken16B_SizeObjectType, 
                       __Z10sizeObjectRK28FstSearchLatticeBackoffTrace16B_SizeObjectType, 
                       __Z10sizeObjectRK29FstSearchDurationBackoffTrace16B_SizeObjectType, 
                       __Z10sizeObjectRK29FstSearchLateLatticeHashTrace16B_SizeObjectType, 
                       __Z10sizeObjectRK29FstSearchLatticeDurationTrace16B_SizeObjectType, 
                       __Z10sizeObjectRK30FstSearchHashBackoffTraceToken16B_SizeObjectType, 
                       __Z10sizeObjectRK30FstSearchLateLatticeTraceToken16B_SizeObjectType, 
                       __Z10sizeObjectRK30FstSearchLatticeHashTraceToken16B_SizeObjectType, 
                       __Z10sizeObjectRK30FstSearchLeafBackoffTraceToken16B_SizeObjectType, 
                       __Z10sizeObjectRK30FstSearchLeafLatticeTraceToken16B_SizeObjectType, 
                       __Z10sizeObjectRK30WordFSTStateWithResidualWeight16B_SizeObjectType, 
                       __Z10sizeObjectRK31FstSearchDurationHashTraceToken16B_SizeObjectType, 
                       __Z10sizeObjectRK31FstSearchHashBackoffActiveToken16B_SizeObjectType, 
                       __Z10sizeObjectRK31FstSearchLateLatticeActiveToken16B_SizeObjectType, 
                       __Z10sizeObjectRK31FstSearchLatticeHashActiveToken16B_SizeObjectType, 
                       __Z10sizeObjectRK31FstSearchLeafBackoffActiveToken16B_SizeObjectType, 
                       __Z10sizeObjectRK31FstSearchLeafDurationTraceToken16B_SizeObjectType, 
                       __Z10sizeObjectRK31FstSearchLeafLatticeActiveToken16B_SizeObjectType, 
                       __Z10sizeObjectRK32FstSearchDurationHashActiveToken16B_SizeObjectType, 
                       __Z10sizeObjectRK32FstSearchLateLatticeBackoffTrace16B_SizeObjectType, 
                       __Z10sizeObjectRK32FstSearchLatticeHashBackoffTrace16B_SizeObjectType, 
                       __Z10sizeObjectRK32FstSearchLeafDurationActiveToken16B_SizeObjectType, 
                       __Z10sizeObjectRK32FstSearchLeafLatticeBackoffTrace16B_SizeObjectType, 
                       __Z10sizeObjectRK33FstSearchDurationHashBackoffTrace16B_SizeObjectType, 
                       __Z10sizeObjectRK33FstSearchLatticeBackoffTraceToken16B_SizeObjectType, 
                       __Z10sizeObjectRK33FstSearchLeafDurationBackoffTrace16B_SizeObjectType, 
                       __Z10sizeObjectRK33FstSearchLeafLatticeDurationTrace16B_SizeObjectType, 
                       __Z10sizeObjectRK34FstSearchDurationBackoffTraceToken16B_SizeObjectType, 
                       __Z10sizeObjectRK34FstSearchLateLatticeHashTraceToken16B_SizeObjectType, 
                       __Z10sizeObjectRK34FstSearchLatticeBackoffActiveToken16B_SizeObjectType, 
                       __Z10sizeObjectRK34FstSearchLatticeDurationTraceToken16B_SizeObjectType, 
                       __Z10sizeObjectRK35FstSearchDurationBackoffActiveToken16B_SizeObjectType, 
                       __Z10sizeObjectRK35FstSearchLateLatticeHashActiveToken16B_SizeObjectType, 
                       __Z10sizeObjectRK35FstSearchLatticeDurationActiveToken16B_SizeObjectType, 
                       __Z10sizeObjectRK36FstSearchLateLatticeHashBackoffTrace16B_SizeObjectType, 
                       __Z10sizeObjectRK36FstSearchLatticeDurationBackoffTrace16B_SizeObjectType, 
                       __Z10sizeObjectRK37FstSearchLateLatticeBackoffTraceToken16B_SizeObjectType, 
                       __Z10sizeObjectRK37FstSearchLatticeHashBackoffTraceToken16B_SizeObjectType, 
                       __Z10sizeObjectRK37FstSearchLeafLatticeBackoffTraceToken16B_SizeObjectType, 
                       __Z10sizeObjectRK38FstSearchDurationHashBackoffTraceToken16B_SizeObjectType, 
                       __Z10sizeObjectRK38FstSearchLateLatticeBackoffActiveToken16B_SizeObjectType, 
                       __Z10sizeObjectRK38FstSearchLatticeHashBackoffActiveToken16B_SizeObjectType, 
                       __Z10sizeObjectRK38FstSearchLeafDurationBackoffTraceToken16B_SizeObjectType, 
                       __Z10sizeObjectRK38FstSearchLeafLatticeBackoffActiveToken16B_SizeObjectType, 
                       __Z10sizeObjectRK38FstSearchLeafLatticeDurationTraceToken16B_SizeObjectType, 
                       __Z10sizeObjectRK39FstSearchDurationHashBackoffActiveToken16B_SizeObjectType, 
                       __Z10sizeObjectRK39FstSearchLeafDurationBackoffActiveToken16B_SizeObjectType, 
                       __Z10sizeObjectRK39FstSearchLeafLatticeDurationActiveToken16B_SizeObjectType, 
                       __Z10sizeObjectRK3LPC16B_SizeObjectType, __Z10sizeObjectRK40FstSearchLeafLatticeDurationBackoffTrace16B_SizeObjectType, 
                       __Z10sizeObjectRK41FstSearchLateLatticeHashBackoffTraceToken16B_SizeObjectType, 
                       __Z10sizeObjectRK41FstSearchLatticeDurationBackoffTraceToken16B_SizeObjectType, 
                       __Z10sizeObjectRK42FstSearchLateLatticeHashBackoffActiveToken16B_SizeObjectType, 
                       __Z10sizeObjectRK42FstSearchLatticeDurationBackoffActiveToken16B_SizeObjectType, 
                       __Z10sizeObjectRK45FstSearchLeafLatticeDurationBackoffTraceToken16B_SizeObjectType, 
                       __Z10sizeObjectRK46FstSearchLeafLatticeDurationBackoffActiveToken16B_SizeObjectType, 
                       __Z10sizeObjectRK4Germ16B_SizeObjectType, __Z10sizeObjectRK4Node16B_SizeObjectType, 
                       __Z10sizeObjectRK4Rule16B_SizeObjectType, __Z10sizeObjectRK5FBank16B_SizeObjectType, 
                       __Z10sizeObjectRK6CWIDAC16B_SizeObjectType, __Z10sizeObjectRK6PhnMgr16B_SizeObjectType, 
                       __Z10sizeObjectRK7DgnLock16B_SizeObjectType, __Z10sizeObjectRK7DgnPool16B_SizeObjectType, 
                       __Z10sizeObjectRK7History16B_SizeObjectType, __Z10sizeObjectRK7IntPair16B_SizeObjectType, 
                       __Z10sizeObjectRK7LNCMPID16B_SizeObjectType, __Z10sizeObjectRK7MiniFst16B_SizeObjectType, 
                       __Z10sizeObjectRK7PicNode16B_SizeObjectType, __Z10sizeObjectRK7Section16B_SizeObjectType, 
                       __Z10sizeObjectRK7SimCell16B_SizeObjectType, __Z10sizeObjectRK8BaseNode16B_SizeObjectType, 
                       __Z10sizeObjectRK8BestData16B_SizeObjectType, __Z10sizeObjectRK8DgnEvent16B_SizeObjectType, 
                       __Z10sizeObjectRK8DgnLockX16B_SizeObjectType, __Z10sizeObjectRK8GraphArc16B_SizeObjectType, 
                       __Z10sizeObjectRK8NodeData16B_SizeObjectType, __Z10sizeObjectRK8PronData16B_SizeObjectType, 
                       __Z10sizeObjectRK8RuleDesc16B_SizeObjectType, __Z10sizeObjectRK8Sequence16B_SizeObjectType, 
                       __Z10sizeObjectRK8WaveData16B_SizeObjectType, __Z10sizeObjectRK8YArcSort16B_SizeObjectType, 
                       __Z10sizeObjectRK9CompState16B_SizeObjectType, __Z10sizeObjectRK9DgnMatrix16B_SizeObjectType, 
                       __Z10sizeObjectRK9DgnString16B_SizeObjectType, __Z10sizeObjectRK9DgnVector16B_SizeObjectType, 
                       __Z10sizeObjectRK9Direction16B_SizeObjectType, __Z10sizeObjectRK9FrameData16B_SizeObjectType, 
                       __Z10sizeObjectRK9LinkOrder16B_SizeObjectType, __Z10sizeObjectRK9PitchInfo16B_SizeObjectType, 
                       __Z10sizeObjectRK9PredState16B_SizeObjectType, __Z10sizeObjectRK9RecogGerm16B_SizeObjectType, 
                       __Z10sizeObjectRK9RecogSpec16B_SizeObjectType, __Z10sizeObjectRK9StateCost16B_SizeObjectType, 
                       __Z10sizeObjectRK9TimeQueEl16B_SizeObjectType, __Z10sizeObjectRK9YellowArc16B_SizeObjectType, 
                       __Z10sizeObjectRKN7MiniFst5TokenE16B_SizeObjectType, 
                       __Z10sizeObjectRKN7MiniFst5TraceE16B_SizeObjectType, 
                       __Z10xgenprintfbbPKcz, __Z11GetMrecNamev, __Z11GetRuleNamett, 
                       __Z11GetWordNametjbb, __Z11StartupMrecPKc, __Z11VerifyStatetj, 
                       __Z11addSequencePK11TFileObjectP7TVertexS3_P6TGraphP8TLexiconPKcS9_S9_, 
                       __Z11buildRegExpPK11TFileObjectP8TLexiconb, __Z11getFilePathPKc, 
                       __Z11isValidNamePKc, __Z11respellRootR7TBufferIwEPKw, 
                       __Z11slashEscapePKcR7TBufferIcE, __Z11slashEscapePKwR7TBufferIwE, 
                       __Z11tildeEscapePKcR7TBufferIcE, __Z11tildeEscapePKwR7TBufferIwE, 
                       __Z11timeOverlapiiii, __Z11writeObjectP9DgnStreamRK10AdaptStatsRj, 
                       __Z11writeObjectP9DgnStreamRK10ParseTokenRj, __Z11writeObjectP9DgnStreamRK10WarpChoiceRj, 
                       __Z11writeObjectP9DgnStreamRK11AdaptConfigRj, __Z11writeObjectP9DgnStreamRK11LatticeDataRj, 
                       __Z11writeObjectP9DgnStreamRK11LinkSegmentRj, __Z11writeObjectP9DgnStreamRK13ChanStatsSpecRj, 
                       __Z11writeObjectP9DgnStreamRK14ArcGraphHeaderRj, 
                       __Z11writeObjectP9DgnStreamRK14BinaryIntScaleRj, 
                       __Z11writeObjectP9DgnStreamRK14DFileChecksumsRj, 
                       __Z11writeObjectP9DgnStreamRK14InputLatticeLCRj, 
                       __Z11writeObjectP9DgnStreamRK15B_SvcCompatTypeRj, 
                       __Z11writeObjectP9DgnStreamRK15InputLatticeArcRj, 
                       __Z11writeObjectP9DgnStreamRK15WarpCoordinatesRj, 
                       __Z11writeObjectP9DgnStreamRK16FeatureScaleSpecRj, 
                       __Z11writeObjectP9DgnStreamRK16Uns32OneToOneMapRj, 
                       __Z11writeObjectP9DgnStreamRK17FeatureFilterSpecRj, 
                       __Z11writeObjectP9DgnStreamRK17FrameDecisionTreeRj, 
                       __Z11writeObjectP9DgnStreamRK17TagBitsAndStringsRj, 
                       __Z11writeObjectP9DgnStreamRK18DgnTextFileVersionRj, 
                       __Z11writeObjectP9DgnStreamRK18FrameDecimatorSpecRj, 
                       __Z11writeObjectP9DgnStreamRK18Uns8SpecialMapItemRj, 
                       __Z11writeObjectP9DgnStreamRK19AdaptConfigAndStatsRj, 
                       __Z11writeObjectP9DgnStreamRK19DFileChecksumBucketRj, 
                       __Z11writeObjectP9DgnStreamRK19FeatureSelectorSpecRj, 
                       __Z11writeObjectP9DgnStreamRK19OpaquePelIdAndDurIdRj, 
                       __Z11writeObjectP9DgnStreamRK19PrefilterResultDataRj, 
                       __Z11writeObjectP9DgnStreamRK19Uns32SpecialMapItemRj, 
                       __Z11writeObjectP9DgnStreamRK20FeatureGeneratorSpecRj, 
                       __Z11writeObjectP9DgnStreamRK20PrefilterResultFrameRj, 
                       __Z11writeObjectP9DgnStreamRK24BadSuccessorSeedCategoryRj, 
                       __Z11writeObjectP9DgnStreamRK26BadPredecessorSeedCategoryRj, 
                       __Z11writeObjectP9DgnStreamRK4RuleRj, __Z11writeObjectP9DgnStreamRK7BadUintRj, 
                       __Z11writeObjectP9DgnStreamRK7PicNodeRj, __Z11writeObjectP9DgnStreamRK8BitArrayRj, 
                       __Z11writeObjectP9DgnStreamRK8RuleDescRj, __Z11writeObjectP9DgnStreamRK9DgnMatrixRj, 
                       __Z11writeObjectP9DgnStreamRK9DgnStringRj, __Z11writeObjectP9DgnStreamRK9DgnVectorRj, 
                       __Z11writeObjectP9DgnStreamRKbRj, __Z11writeObjectP9DgnStreamRKcRj, 
                       __Z11writeObjectP9DgnStreamRKdRj, __Z11writeObjectP9DgnStreamRKfRj, 
                       __Z11writeObjectP9DgnStreamRKhRj, __Z11writeObjectP9DgnStreamRKiRj, 
                       __Z11writeObjectP9DgnStreamRKjRj, __Z11writeObjectP9DgnStreamRKsRj, 
                       __Z11writeObjectP9DgnStreamRKtRj, __Z11writeObjectP9DgnStreamRKxRj, 
                       __Z11writeObjectP9DgnStreamRKyRj, __Z11xalogStringPKc, 
                       __Z12GetStateNametj, __Z12MemChunkFreePvP14MemChunkRegion, 
                       __Z12MemChunkInitv, __Z12ShutdownMrecv, __Z12anyTagsMatchRKNSt3__16vectorIPP19TPItnTagHandle_fakeNS_9allocatorIS3_EEEES8_, 
                       __Z12assertFailedPKcS0_m, __Z12callBackCopyPKN16TGrammarCompiler9TArgumentEmPvS3_R10TAllocator, 
                       __Z12callBackFindPKN16TGrammarCompiler9TArgumentEmPvS3_R10TAllocator, 
                       __Z12closeLatticev, __Z12closeLexiconv, __Z12computeCRC32jPKhj, 
                       __Z12computeCRC32jPKjj, __Z12computeCRC32jPKtj, 
                       __Z12formatStringPKcRNSt3__16vectorIS0_NS1_9allocatorIS0_EEEER7TBufferIcE, 
                       __Z12formatStringPKwRNSt3__16vectorIS0_NS1_9allocatorIS0_EEEER7TBufferIwE, 
                       __Z12getNextTokenPKcR7TBufferIcES0_, __Z12getNextTokenPKwR7TBufferIwES0_, 
                       __Z12isArcPresentRK8DgnArrayI10WordFSTArcERKS0_, 
                       __Z12print_timersv, __Z12tknLogStringPKc, __Z12xprintStringPKc, 
                       __Z13DecryptBufferPhji, __Z13EncryptBufferPhji, 
                       __Z13MemChunkAllocmP14MemChunkRegion, __Z13MrecEndOfTimebbb, 
                       __Z13MrecPrintSizejjPmS_S_, __Z13VerifyVocNamePKcS0_, 
                       __Z13arabicToRomanmR7TBufferIwE, __Z13callBackParamPKN16TGrammarCompiler9TArgumentEmPvS3_R10TAllocator, 
                       __Z13fstGraphPrintP8ArcGraphPKc, __Z13getWideDirSepv, 
                       __Z13loggableTokenRK6TLexerPK11TLexerToken, __Z13mrecHeapValidv, 
                       __Z13realloc_arrayPvPS_mmmb, __Z13romanToArabicPKwRm, 
                       __Z13sdUtilStrMovePcjPKc, __Z13slashUnescapePKcR7TBufferIcE, 
                       __Z13slashUnescapePKwR7TBufferIwE, __Z13tildeUnescapePKcR7TBufferIcE, 
                       __Z13tildeUnescapePKwR7TBufferIwE, __Z13translateTypeN6TParam5TTypeE, 
                       __Z13xlprintStringPKc, __Z14DgnJoinStringsRK8DgnArrayI9DgnStringERKS0_PS0_, 
                       __Z14GetCollationIdtPKcS0_S0_, __Z14GetMrecVersionv, 
                       __Z14callBackFormatPKN16TGrammarCompiler9TArgumentEmPvS3_R10TAllocator, 
                       __Z14callBackNoCapsPKN16TGrammarCompiler9TArgumentEmPvS3_R10TAllocator, 
                       __Z14closeFormatterv, __Z14closeTokenizerv, __Z14fltScoreIdxCmpPvPKvS1_, 
                       __Z14getBadWordNamej, __Z14getMemoryUsageR12TMemoryUsage, 
                       __Z14getWideNewLinev, __Z14logSyncAllLogsv, __Z14parseTokenToSDRK10ParseToken, 
                       __Z14readMrecHeaderP9DgnStreamP5DFile16SubFileExtensionPKcPjS6_, 
                       __Z14sdUtilItemMovejPKvjPvj, __Z14sortUniqStatesRK12DgnPrimArrayIjERS0_, 
                       __Z14tknPrintStringPKc, __Z14xascreenStringPKc, 
                       __Z15PrintPageFaultsbbPKc, __Z15StartupMrecutilPKc, 
                       __Z15ThrowNewFailureP18DgnMemoryExceptionm, __Z15callBackAllCapsPKN16TGrammarCompiler9TArgumentEmPvS3_R10TAllocator, 
                       __Z15createFormatterPK12TDataManagerPS_P8TLexiconP10TTokenizer, 
                       __Z15errWarnInternalPKciS0_iS0_z, __Z15fstGraphComposeP8ArcGraphRK12DgnPrimArrayIjEPKc, 
                       __Z15getCwidForIndextj, __Z15getIndexForCwidtj, 
                       __Z15handleExceptionPKcS0_PP12TPError_fake, __Z15loggableUnicodePKw, 
                       __Z15makeDataManagerPK10TPDataSpecm, __Z15memoryEndOfTimev, 
                       __Z15readObjectArrayP22RealDFileSubFileStreamPbjRj, 
                       __Z15readObjectArrayP22RealDFileSubFileStreamPcjRj, 
                       __Z15readObjectArrayP22RealDFileSubFileStreamPdjRj, 
                       __Z15readObjectArrayP22RealDFileSubFileStreamPfjRj, 
                       __Z15readObjectArrayP22RealDFileSubFileStreamPhjRj, 
                       __Z15readObjectArrayP22RealDFileSubFileStreamPijRj, 
                       __Z15readObjectArrayP22RealDFileSubFileStreamPjjRj, 
                       __Z15readObjectArrayP22RealDFileSubFileStreamPsjRj, 
                       __Z15readObjectArrayP22RealDFileSubFileStreamPtjRj, 
                       __Z15readObjectArrayP22RealDFileSubFileStreamPxjRj, 
                       __Z15readObjectArrayP22RealDFileSubFileStreamPyjRj, 
                       __Z15readObjectArrayP9DgnStreamPbjRj, __Z15readObjectArrayP9DgnStreamPcjRj, 
                       __Z15readObjectArrayP9DgnStreamPdjRj, __Z15readObjectArrayP9DgnStreamPfjRj, 
                       __Z15readObjectArrayP9DgnStreamPhjRj, __Z15readObjectArrayP9DgnStreamPijRj, 
                       __Z15readObjectArrayP9DgnStreamPjjRj, __Z15readObjectArrayP9DgnStreamPsjRj, 
                       __Z15readObjectArrayP9DgnStreamPtjRj, __Z15readObjectArrayP9DgnStreamPxjRj, 
                       __Z15readObjectArrayP9DgnStreamPyjRj, __Z15sortCostStructsRK10TAlignCostS1_, 
                       __Z15writeMrecHeaderP9DgnStreamPKcjjb, __Z16GetCollationNamett, 
                       __Z16GetMrecCopyrightv, __Z16MemChunkShutdownbbbPKc, 
                       __Z16ShutdownMrecutilv, __Z16Uns8StringLengthPKh, 
                       __Z16createCompounderPK12TDataManagerPS_P8TLexicon, 
                       __Z16dgnStringToUns16RK9DgnStringj, __Z16errThrowInternal16B_ErrorThrowTypePKciS1_iS1_z, 
                       __Z16isNodeEquivalentjjRK7WordFSTRK12DgnPrimArrayIjE, 
                       __Z16logDeleteAllLogsv, __Z16logSetLinePrefixPKc, 
                       __Z16readSharedObjectP18DgnSharedMemStreamR8BitArrayRj, 
                       __Z16uns16ToDgnStringtR9DgnString, __Z16writeObjectArrayP9DgnStreamPKbjRj, 
                       __Z16writeObjectArrayP9DgnStreamPKcjRj, __Z16writeObjectArrayP9DgnStreamPKdjRj, 
                       __Z16writeObjectArrayP9DgnStreamPKfjRj, __Z16writeObjectArrayP9DgnStreamPKhjRj, 
                       __Z16writeObjectArrayP9DgnStreamPKijRj, __Z16writeObjectArrayP9DgnStreamPKjjRj, 
                       __Z16writeObjectArrayP9DgnStreamPKsjRj, __Z16writeObjectArrayP9DgnStreamPKtjRj, 
                       __Z16writeObjectArrayP9DgnStreamPKxjRj, __Z16writeObjectArrayP9DgnStreamPKyjRj, 
                       __Z17FindMatchingFilesRK8FileSpecP8DgnArrayIS_EP12DgnPrimArrayIbE, 
                       __Z17GetRegionChecksumP14MemChunkRegion, __Z17MrecutilPrintSizejjPmS_S_, 
                       __Z17RoundUpToPowerOf2jPj, __Z17Uns32StringLengthPKj, 
                       __Z17callBackGetLengthPKN16TGrammarCompiler9TArgumentEmPvS3_R10TAllocator, 
                       __Z17conditionalAssertPKcS0_m, __Z17crashIntoDebuggerv, 
                       __Z17createCliticsProcPK12TDataManagerPS_P8TLexicon, 
                       __Z17permuteToAltPronsP8DgnArrayI12DgnPrimArrayIjEE, 
                       __Z17sigmoidConfidenced, __Z17sizeObjectSpecialPK9DgnIArrayIPP11GlobalParamE16B_SizeObjectType, 
                       __Z17unpackEndCallBackPv, __Z17unpackMidCallBackPv, 
                       __Z17writeSharedObjectP18DgnSharedMemStreamR8BitArrayRj, 
                       __Z17xprintStringFancyPKcbbS0_j, __Z18CurryDgnThreadMainPv, 
                       __Z18DuplicateLinkErrorii, __Z18GetNameForEnumItemPK13EnumParamItemi, 
                       __Z18MemChunkPrintStatsv, __Z18MrecInitLibrary_lmv, 
                       __Z18StartupAssertSkipsv, __Z18callBackCapitalizePKN16TGrammarCompiler9TArgumentEmPvS3_R10TAllocator, 
                       __Z18canGetIndexForCwidtj, __Z18fstGraphPrintAstraPKcS0_S0_, 
                       __Z18getOrigStatesArrayRK8DgnArrayI30WordFSTStateWithResidualWeightER12DgnPrimArrayIjE, 
                       __Z18loggableFileObjectPK11TFileObject, __Z18tknPrintfEndOfTimev, 
                       __Z19MessageFormatPrefixP9DgnBufferbbjPKciS2_i, 
                       __Z19MrecBeginningOfTimev, __Z19MrecInitLibrary_fstv, 
                       __Z19MrecInitLibrary_netv, __Z19MrecInitLibrary_pelv, 
                       __Z19MrecInitLibrary_vocv, __Z19ShowDeltaMemSummaryP14MemChunkRegionPKcP8MemStats, 
                       __Z19ShutdownAssertSkipsv, __Z19SpeedTestInitializeiPjiS_S_P9DgnRandom, 
                       __Z19WordIdCollSearchCmpPKvS0_, __Z19adaptMethodTypeToSD17B_AdaptMethodTypebb, 
                       __Z19errorBadCollationIdi, __Z19onePlusHighestSet32j, 
                       __Z19sortUniqFinalStatesRK8DgnArrayI17WordFSTFinalStateERS1_, 
                       __Z19throwWrongQueryMode16B_ParamQueryModePKc, __Z19verifyLatticeHandlePP20TPLatticeHandle_fakePKc, 
                       __Z19verifyLexiconHandlePP20TPLexiconHandle_fakePKc, 
                       __Z19warnOnceEmitWarningPKcjS0_, __Z19writeObjectChecksumP9DgnStreamRKj, 
                       __Z20DgnAppendWrappedTextPKciiiiP9DgnString, __Z20MrecInitLibrary_germv, 
                       __Z20MrecInitLibrary_userv, __Z20MrecInitLibrary_wordv, 
                       __Z20MrecInitModule_lm_lmv, __Z20ThrowMemoryExceptionP18DgnMemoryException, 
                       __Z20callBackDigitToRomanPKN16TGrammarCompiler9TArgumentEmPvS3_R10TAllocator, 
                       __Z20callBackRomanToDigitPKN16TGrammarCompiler9TArgumentEmPvS3_R10TAllocator, 
                       __Z20checkValidityOfFloatPKf, __Z20copySignalFormatToSDPK14AcousticFormatP14SDSignalFormat, 
                       __Z20decrementLogRefCountv, __Z20fillSDItemizedScoresRK16RecogResultTokenR7SDToken, 
                       __Z20incrementLogRefCountv, __Z20maybeAddToPelIdArrayP12DgnPrimArrayIiEjiPK8WordList, 
                       __Z20minAddAllocWithExtrajj, __Z20recogResultTokenToSDRK16RecogResultTokenjb, 
                       __Z20recursive_mutex_initP23_opaque_pthread_mutex_t, 
                       __Z20removeEquivalentArcsR8DgnArrayI10WordFSTArcERKS0_RK12DgnPrimArrayIjE, 
                       __Z20throwDecodeEndOfDatav, __Z20verifyParamQueryModePP19SDhGlobalParam_fakePP21SDParamQueryMode_fakePKc, 
                       __Z20zeroSDItemizedScoresR7SDToken, __Z21CorpusWordIdSearchCmpPKvS0_, 
                       __Z21DgnAppendBinaryAsTextPKhjjjP9DgnString, __Z21MrecInitLibrary_framev, 
                       __Z21MrecInitLibrary_sdapiv, __Z21OpenAndReadMrecHeaderP5DFile16SubFileExtensionbPKcPjS4_, 
                       __Z21StringIdCollSearchCmpPKvS0_, __Z21checkValidityOfDoublePKd, 
                       __Z21closeLatticeProcessorv, __Z21getItnControlCategoryPP25TPItnRuleControlName_fake, 
                       __Z21isValidRestrictedNamePKc, __Z21memoryBeginningOfTimev, 
                       __Z21recursive_mutex_initXP23_opaque_pthread_mutex_t, 
                       __Z21throwBadSdapiArgumentPKcy, __Z21throwBadStringPointerv, 
                       __Z21verifyTokenizerHandlePP18TPTokenHandle_fakePKc, 
                       __Z22GetFullMrecDescriptionP9DgnString, __Z22MemStatsDisplayFromRefP14MemChunkRegionbbbPKcxx, 
                       __Z22MrecInitLibrary_dfutilv, __Z22MrecInitLibrary_kernelv, 
                       __Z22MrecInitModule_bet_pelv, __Z22MrecInitModule_ldt_pelv, 
                       __Z22MrecInitModule_pel_pelv, __Z22MrecInitModule_rpd_vocv, 
                       __Z22MrecInitModule_tsr_vocv, __Z22MrecInitModule_vcc_vocv, 
                       __Z22MrecInitModule_voc_vocv, __Z22OpenAndWriteMrecHeaderP5DFile16SubFileExtensionbPKcjj, 
                       __Z22VectorMatrixDotProductPsPS_iiPi, __Z22adaptAlignmentTypeToSD20B_AdaptAlignmentType, 
                       __Z22callBackGetCategoryTagPKN16TGrammarCompiler9TArgumentEmPvS3_R10TAllocator, 
                       __Z22callBackGetWrittenFormPKN16TGrammarCompiler9TArgumentEmPvS3_R10TAllocator, 
                       __Z22partialResultTokenToSDRK16RecogResultTokenjj, 
                       __Z22throwParamSetSetFailedPKcS0_, __Z22throwWrongParamIdValuetPKc, 
                       __Z23DisplaySdapiObjectSizesv, __Z23FloatPelScoringFunctionPK9PelScorertPj, 
                       __Z23MrecHeaderCheckVersionsPKcS0_jjjj, __Z23MrecInitLibrary_channelv, 
                       __Z23MrecInitLibrary_neuralnv, __Z23MrecInitLibrary_phonemev, 
                       __Z23MrecInitLibrary_prefiltv, __Z23MrecInitLibrary_sigprocv, 
                       __Z23MrecInitModule_fmpe_pelv, __Z23MrecInitModule_wordt_lmv, 
                       __Z23ParamSetIdCollSearchCmpPKvS0_, __Z23ProgressCallbackWrapperjPKv, 
                       __Z23ThrowExternalNewFailureP18DgnMemoryExceptionm, 
                       __Z23maybeGrowStateIdToDenseiR12DgnPrimArrayIiE, 
                       __Z23sdUtilVerifyUniqueHVocsPKPP11SDhVoc_fakej, 
                       __Z24DgnSplitStringIntoTokensPKcS0_P8DgnArrayI9DgnStringEc, 
                       __Z24MrecInitLibrary_audiosrcv, __Z24MrecInitLibrary_fileutilv, 
                       __Z24MrecInitLibrary_fstgraphv, __Z24MrecInitLibrary_mrecutilv, 
                       __Z24MrecInitLibrary_recogctlv, __Z24MrecInitLibrary_sxprintfv, 
                       __Z24MrecInitModule_agmgr_fstv, __Z24MrecInitModule_bwnet_netv, 
                       __Z24MrecInitModule_germ_germv, __Z24MrecInitModule_lminst_lmv, 
                       __Z24MrecInitModule_nodes_netv, __Z24MrecInitModule_pelsc_pelv, 
                       __Z24MrecInitModule_trgrm_vocv, __Z24MrecInitModule_user_userv, 
                       __Z24MrecInitModule_wordlm_lmv, __Z24ShowRemainingObjectsMrecv, 
                       __Z24callBackRemoveDiacriticsPKN16TGrammarCompiler9TArgumentEmPvS3_R10TAllocator, 
                       __Z24errCopyAndThrowException16B_ErrorThrowTypeP12DgnException, 
                       __Z24getNumFramesFromDurationjj, __Z24logSetShowLineTimeStampsb, 
                       __Z24sdGetAndValidateParamSetPK14SDParamSetSpec, 
                       __Z24sdUtilCheckUttCompatiblePP11SDhUtt_fakej, __Z24throwEncodeUnknownSymbolj, 
                       __Z24throwWrongTypeForParamIdtPKcS0_, __Z24tknPrintfBeginningOfTimev, 
                       __Z25AppendFullMrecMachineInfoP9DgnString, __Z25GetSubFileExtensionString16SubFileExtension, 
                       __Z25MrecInitModule_aconet_netv, __Z25MrecInitModule_cwidac_vocv, 
                       __Z25MrecInitModule_dummylm_lmv, __Z25MrecInitModule_fstlat_fstv, 
                       __Z25MrecInitModule_fwdbwd_fstv, __Z25MrecInitModule_hiersc_pelv, 
                       __Z25MrecInitModule_hmmnet_netv, __Z25MrecInitModule_multilm_lmv, 
                       __Z25MrecInitModule_netmgr_netv, __Z25MrecInitModule_recentb_lmv, 
                       __Z25MrecInitModule_sdlm_sdapiv, __Z25MrecInitModule_vocmgr_vocv, 
                       __Z25StartupObjectPointerArrayv, __Z25StartupSearchParamSpecMgrv, 
                       __Z25applyNewPronSetHeuristicsP8DgnArrayI12DgnPrimArrayItEEPS0_IhES5_PS0_IjEj, 
                       __Z25checkLabelScoreConversioniRKi, __Z25copyFwdBwdLinkFromFBTokenP14FBBackwardLinkPK7FBToken, 
                       __Z25getWordStringFromWordListjPK8WordList, __Z26FloatGenoneScoringFunctionPK9PelScorertjPtPj, 
                       __Z26FloatMICPelScoringFunctionPK9PelScorertPj, 
                       __Z26GetMrecVersionNumberStringv, __Z26InternalDisplayObjectSizesv, 
                       __Z26MrecInitModule_apist_sdapiv, __Z26MrecInitModule_corpus_wordv, 
                       __Z26MrecInitModule_dobj_dfutilv, __Z26MrecInitModule_fstcore_fstv, 
                       __Z26MrecInitModule_fstinst_fstv, __Z26MrecInitModule_fstsrch_fstv, 
                       __Z26MrecInitModule_gpuscsm_pelv, __Z26MrecInitModule_history_netv, 
                       __Z26MrecInitModule_lookah_userv, __Z26MrecInitModule_lpc_sigprocv, 
                       __Z26MrecInitModule_ltf_sigprocv, __Z26MrecInitModule_netinst_netv, 
                       __Z26MrecInitModule_nodenet_netv, __Z26MrecInitModule_pelinst_pelv, 
                       __Z26MrecInitModule_pic_phonemev, __Z26MrecInitModule_picmgr_userv, 
                       __Z26MrecInitModule_rulemgr_vocv, __Z26MrecInitModule_scrcdat_pelv, 
                       __Z26MrecInitModule_sdenv_sdapiv, __Z26MrecInitModule_sdlat_sdapiv, 
                       __Z26MrecInitModule_sdpro_sdapiv, __Z26MrecInitModule_sdsig_sdapiv, 
                       __Z26MrecInitModule_sdutt_sdapiv, __Z26MrecInitModule_sdvoc_sdapiv, 
                       __Z26MrecInitModule_snr_channelv, __Z26MrecInitModule_spd_sigprocv, 
                       __Z26MrecInitModule_srchitf_fstv, __Z26MrecInitModule_syncnet_netv, 
                       __Z26MrecInitModule_vgroupi_vocv, __Z26MrecInitModule_virtmap_fstv, 
                       __Z26MrecInitModule_vocinst_vocv, __Z26MrecInitModule_vocutil_vocv, 
                       __Z26MulTablePelScoringFunctionPK9PelScorertPj, 
                       __Z26ShutdownObjectPointerArrayv, __Z26StartupAdapterParamSpecMgrv, 
                       __Z26StartupChannelParamSpecMgrv, __Z26StartupSausageParamSpecMgrv, 
                       __Z26haveTerminatedSuccessfullyv, __Z26isStateFinalInDeterminizedRK8DgnArrayI30WordFSTStateWithResidualWeightERKS_I17WordFSTFinalStateEPib, 
                       __Z26throwTableGenerationFailedv, __Z27InternalCompareMrecVersionsPKcS0_, 
                       __Z27MrecInitModule_arcgraph_fstv, __Z27MrecInitModule_arcgutil_fstv, 
                       __Z27MrecInitModule_btlat_kernelv, __Z27MrecInitModule_collmgr_wordv, 
                       __Z27MrecInitModule_crumb_kernelv, __Z27MrecInitModule_dfile_dfutilv, 
                       __Z27MrecInitModule_emptynet_netv, __Z27MrecInitModule_format_framev, 
                       __Z27MrecInitModule_genclass_pelv, __Z27MrecInitModule_multable_pelv, 
                       __Z27MrecInitModule_ngram2fsm_lmv, __Z27MrecInitModule_nodedat_userv, 
                       __Z27MrecInitModule_nsyncnet_netv, __Z27MrecInitModule_pelclism_pelv, 
                       __Z27MrecInitModule_pelsrvsm_pelv, __Z27MrecInitModule_pwpcolla_vocv, 
                       __Z27MrecInitModule_recog_kernelv, __Z27MrecInitModule_scrcache_pelv, 
                       __Z27MrecInitModule_sdchan_sdapiv, __Z27MrecInitModule_sdcoll_sdapiv, 
                       __Z27MrecInitModule_sdcorp_sdapiv, __Z27MrecInitModule_sddiag_sdapiv, 
                       __Z27MrecInitModule_sdenvh_sdapiv, __Z27MrecInitModule_sdmisc_sdapiv, 
                       __Z27MrecInitModule_sdpref_sdapiv, __Z27MrecInitModule_sdpres_sdapiv, 
                       __Z27MrecInitModule_sdrule_sdapiv, __Z27MrecInitModule_sdsaus_sdapiv, 
                       __Z27MrecInitModule_sduser_sdapiv, __Z27MrecInitModule_sduttf_sdapiv, 
                       __Z27MrecInitModule_sdword_sdapiv, __Z27MrecInitModule_sequence_netv, 
                       __Z27MrecInitModule_statemgr_vocv, __Z27MrecInitModule_syncnet1_netv, 
                       __Z27MrecInitModule_trgrmmgr_vocv, __Z27MrecInitModule_usermgr_userv, 
                       __Z27MrecInitModule_varclass_pelv, __Z27MrecInitModule_wpcolla_wordv, 
                       __Z27PackedIntPelScoringFunctionPK9PelScorertPj, 
                       __Z27PrintSizeObjectPointerArrayjPmS_S_, __Z27copyAdaptConfigAndStatsToSDjP17AdaptStatsHistoryP25SDAdaptConfigAndStatsItem, 
                       __Z27dismantleRecogGrammarIArrayP9DgnIArrayIP12RecogGrammarE, 
                       __Z27getFinalStateWithSameWeightRK8DgnArrayI17WordFSTFinalStateEjPK12DgnPrimArrayIiE, 
                       __Z27logMaybeSetTimeStampingBasey, __Z27readObjectChecksumAndVerifyP22RealDFileSubFileStreamj, 
                       __Z27readObjectChecksumAndVerifyP9DgnStreamj, __Z27sdUtilVerifyUniqueFileSpecsPKPKcj, 
                       __Z27throwTableCodeLimitExceededj, __Z28MrecInitLibrarySet_throughLmv, 
                       __Z28MrecInitModule_active_kernelv, __Z28MrecInitModule_charinfo_wordv, 
                       __Z28MrecInitModule_dfinst_dfutilv, __Z28MrecInitModule_dmem_mrecutilv, 
                       __Z28MrecInitModule_feature_framev, __Z28MrecInitModule_frmdata_framev, 
                       __Z28MrecInitModule_frminst_framev, __Z28MrecInitModule_frmtime_framev, 
                       __Z28MrecInitModule_fsthmmnet_fstv, __Z28MrecInitModule_germinst_germv, 
                       __Z28MrecInitModule_listdf_dfutilv, __Z28MrecInitModule_nettraces_netv, 
                       __Z28MrecInitModule_ocntrnac_userv, __Z28MrecInitModule_pcollmgr_wordv, 
                       __Z28MrecInitModule_phnlat_kernelv, __Z28MrecInitModule_realdf_dfutilv, 
                       __Z28MrecInitModule_sdadapt_sdapiv, __Z28MrecInitModule_sdrecog_sdapiv, 
                       __Z28MrecInitModule_sdrepro_sdapiv, __Z28MrecInitModule_sdstate_sdapiv, 
                       __Z28MrecInitModule_sdtrans_sdapiv, __Z28MrecInitModule_srfft_sigprocv, 
                       __Z28MrecInitModule_subext_dfutilv, __Z28MrecInitModule_udpcache_userv, 
                       __Z28MrecInitModule_userinst_userv, __Z28MrecInitModule_util_mrecutilv, 
                       __Z28MrecInitModule_wavedec_framev, __Z28MrecInitModule_wordinst_wordv, 
                       __Z28MrecInitModule_wordlist_wordv, __Z28MrecLinkLibraryFromModule_lmv, 
                       __Z28StartupPronGuessParamSpecMgrv, __Z28StartupUserDeltaParamSpecMgrv, 
                       __Z28getShipObjectSizeDescriptionPKcj, __Z28throwBadLengthForNullPointermPKc, 
                       __Z28throwDecodeSuccessorOverflowv, __Z28throwIfErroredDuringCallbackPKc, 
                       __Z28verifyLatticeProcessorHandlePP29TPLatticeProcessorHandle_fakePKc, 
                       __Z29FloatMICGenoneScoringFunctionPK9PelScorertjPtPj, 
                       __Z29MrToSdTrans_ChannelStatusCode19B_ChannelStatusCode, 
                       __Z29MrecInitLibrarySet_throughFstv, __Z29MrecInitLibrarySet_throughNetv, 
                       __Z29MrecInitLibrarySet_throughPelv, __Z29MrecInitLibrarySet_throughVocv, 
                       __Z29MrecInitModule_adfilt_sigprocv, __Z29MrecInitModule_cpuid_mrecutilv, 
                       __Z29MrecInitModule_dcuda_mrecutilv, __Z29MrecInitModule_ddump_mrecutilv, 
                       __Z29MrecInitModule_dstream_dfutilv, __Z29MrecInitModule_encrypt_dfutilv, 
                       __Z29MrecInitModule_kerinst_kernelv, __Z29MrecInitModule_latutil_kernelv, 
                       __Z29MrecInitModule_lexnet_prefiltv, __Z29MrecInitModule_mactive_kernelv, 
                       __Z29MrecInitModule_model_recogctlv, __Z29MrecInitModule_mspro_mrecutilv, 
                       __Z29MrecInitModule_param_mrecutilv, __Z29MrecInitModule_phnmgr_phonemev, 
                       __Z29MrecInitModule_sausage_kernelv, __Z29MrecInitModule_score_mrecutilv, 
                       __Z29MrecInitModule_sdapinst_sdapiv, __Z29MrecInitModule_spspec_sigprocv, 
                       __Z29MrecInitModule_timer_mrecutilv, __Z29MrecInitModule_udelta_sigprocv, 
                       __Z29MrecInitModule_wavedata_framev, __Z29MrecInitModule_window_sigprocv, 
                       __Z29MrecInitModule_wordlat_kernelv, __Z29MrecLinkLibraryFromModule_fstv, 
                       __Z29MrecLinkLibraryFromModule_netv, __Z29MrecLinkLibraryFromModule_pelv, 
                       __Z29MrecLinkLibraryFromModule_vocv, __Z29MulTableGenoneScoringFunctionPK9PelScorertjPtPj, 
                       __Z29QuantPerDimPelScoringFunctionPK9PelScorertPj, 
                       __Z29StartupConfidenceParamSpecMgrv, __Z29WordIdCollSearchCmpFromWordIdPKvS0_, 
                       __Z29verifyGivenFileVersionInRange18DgnTextFileVersionRK8DgnArrayIS_E, 
                       __Z30HS_PackedIntPelScoringFunctionPK9PelScorertPj, 
                       __Z30MemChunkSuggestAllocExtraItemsmmP14MemChunkRegion, 
                       __Z30ModnameGetMapNameOfLocalBinaryR9DgnString, 
                       __Z30MrecInitLibrarySet_throughGermv, __Z30MrecInitLibrarySet_throughUserv, 
                       __Z30MrecInitLibrarySet_throughWordv, __Z30MrecInitModule_ccrc32_fileutilv, 
                       __Z30MrecInitModule_chanest_sigprocv, __Z30MrecInitModule_chanmgr_channelv, 
                       __Z30MrecInitModule_channel_channelv, __Z30MrecInitModule_constran_kernelv, 
                       __Z30MrecInitModule_copcache_kernelv, __Z30MrecInitModule_cpcache_sigprocv, 
                       __Z30MrecInitModule_ctftmgr_sigprocv, __Z30MrecInitModule_dfstream_dfutilv, 
                       __Z30MrecInitModule_dsmmgr_mrecutilv, __Z30MrecInitModule_dsmset_mrecutilv, 
                       __Z30MrecInitModule_dtxtfile_dfutilv, __Z30MrecInitModule_envmgr_fileutilv, 
                       __Z30MrecInitModule_extchan_channelv, __Z30MrecInitModule_extsrc_audiosrcv, 
                       __Z30MrecInitModule_featgen_sigprocv, __Z30MrecInitModule_featsel_sigprocv, 
                       __Z30MrecInitModule_fputil_mrecutilv, __Z30MrecInitModule_generr_mrecutilv, 
                       __Z30MrecInitModule_gpupref_prefiltv, __Z30MrecInitModule_gssres_recogctlv, 
                       __Z30MrecInitModule_itemscor_kernelv, __Z30MrecInitModule_littlend_dfutilv, 
                       __Z30MrecInitModule_maxnorm_sigprocv, __Z30MrecInitModule_msausage_kernelv, 
                       __Z30MrecInitModule_nbchoice_kernelv, __Z30MrecInitModule_neuraln_neuralnv, 
                       __Z30MrecInitModule_osfile_mrecutilv, __Z30MrecInitModule_phonset_phonemev, 
                       __Z30MrecInitModule_preemph_sigprocv, __Z30MrecInitModule_prefilt_prefiltv, 
                       __Z30MrecInitModule_progcall_dfutilv, __Z30MrecInitModule_promgr_mrecutilv, 
                       __Z30MrecInitModule_retlist_prefiltv, __Z30MrecInitModule_searchlm_kernelv, 
                       __Z30MrecInitModule_sgpcache_kernelv, __Z30MrecInitModule_siginst_sigprocv, 
                       __Z30MrecInitModule_sigproc_sigprocv, __Z30MrecInitModule_spdebug_sigprocv, 
                       __Z30MrecInitModule_tranutil_kernelv, __Z30MrecInitModule_utbsrc_audiosrcv, 
                       __Z30MrecInitModule_utdsrc_audiosrcv, __Z30MrecInitModule_uttfile_channelv, 
                       __Z30MrecInitModule_uttfmgr_channelv, __Z30MrecInitModule_waveadj_sigprocv, 
                       __Z30MrecInitModule_wavepac_sigprocv, __Z30MrecLinkLibraryFromModule_germv, 
                       __Z30MrecLinkLibraryFromModule_userv, __Z30MrecLinkLibraryFromModule_wordv, 
                       __Z30PackedIntGenoneScoringFunctionPK9PelScorertjPtPj, 
                       __Z30PackedIntMICPelScoringFunctionPK9PelScorertPj, 
                       __Z30fpuStringAppendSSE2StatusFlagsjP9DgnString, 
                       __Z31GetMemChunkRegionAndSuggestSizePvmPm, __Z31InternalCompareMrecForkVersionsPKcS0_, 
                       __Z31ModnameGetModuleNameFromAddressR9DgnStringPKv, 
                       __Z31MrecInitLibrarySet_throughFramev, __Z31MrecInitLibrarySet_throughSdapiv, 
                       __Z31MrecInitModule_apcache_recogctlv, __Z31MrecInitModule_arrutil_mrecutilv, 
                       __Z31MrecInitModule_audinst_audiosrcv, __Z31MrecInitModule_baumwel_recogctlv, 
                       __Z31MrecInitModule_bottlen_recogctlv, __Z31MrecInitModule_chanadpt_sigprocv, 
                       __Z31MrecInitModule_chaninst_channelv, __Z31MrecInitModule_chanstat_sigprocv, 
                       __Z31MrecInitModule_choosew_recogctlv, __Z31MrecInitModule_disopnw_mrecutilv, 
                       __Z31MrecInitModule_dmatrix_mrecutilv, __Z31MrecInitModule_dsmstream_dfutilv, 
                       __Z31MrecInitModule_dstring_mrecutilv, __Z31MrecInitModule_dthread_mrecutilv, 
                       __Z31MrecInitModule_dynparset_dfutilv, __Z31MrecInitModule_emptyfp_mrecutilv, 
                       __Z31MrecInitModule_emptyft_mrecutilv, __Z31MrecInitModule_emptywp_mrecutilv, 
                       __Z31MrecInitModule_emptywt_mrecutilv, __Z31MrecInitModule_envhold_fileutilv, 
                       __Z31MrecInitModule_featcopy_sigprocv, __Z31MrecInitModule_featfilt_sigprocv, 
                       __Z31MrecInitModule_featrang_sigprocv, __Z31MrecInitModule_featscal_sigprocv, 
                       __Z31MrecInitModule_filechan_channelv, __Z31MrecInitModule_filesrc_audiosrcv, 
                       __Z31MrecInitModule_framedec_sigprocv, __Z31MrecInitModule_intutil_mrecutilv, 
                       __Z31MrecInitModule_lookahsc_prefiltv, __Z31MrecInitModule_lpppcache_kernelv, 
                       __Z31MrecInitModule_melfbank_sigprocv, __Z31MrecInitModule_modname_mrecutilv, 
                       __Z31MrecInitModule_mrecctl_recogctlv, __Z31MrecInitModule_mrecver_mrecutilv, 
                       __Z31MrecInitModule_msgform_mrecutilv, __Z31MrecInitModule_nisthdr_audiosrcv, 
                       __Z31MrecInitModule_nistsrc_audiosrcv, __Z31MrecInitModule_pbpcache_prefiltv, 
                       __Z31MrecInitModule_phonerec_prefiltv, __Z31MrecInitModule_phoninst_phonemev, 
                       __Z31MrecInitModule_pitchtrk_sigprocv, __Z31MrecInitModule_prandom_mrecutilv, 
                       __Z31MrecInitModule_prefinst_prefiltv, __Z31MrecInitModule_pspcache_prefiltv, 
                       __Z31MrecInitModule_rctlmgr_recogctlv, __Z31MrecInitModule_sdparamset_sdapiv, 
                       __Z31MrecInitModule_segment_recogctlv, __Z31MrecInitModule_siltrack_sigprocv, 
                       __Z31MrecInitModule_spcache_recogctlv, __Z31MrecInitModule_specwarp_sigprocv, 
                       __Z31MrecInitModule_sprocess_sigprocv, __Z31MrecInitModule_sputtdet_sigprocv, 
                       __Z31MrecInitModule_textchan_channelv, __Z31MrecInitModule_thrdpref_prefiltv, 
                       __Z31MrecInitModule_treepref_prefiltv, __Z31MrecInitModule_ustrcmp_mrecutilv, 
                       __Z31MrecInitModule_utteranc_channelv, __Z31MrecInitModule_warpchan_channelv, 
                       __Z31MrecInitModule_xprhelp_mrecutilv, __Z31MrecLinkLibraryFromModule_framev, 
                       __Z31MrecLinkLibraryFromModule_sdapiv, __Z31StartupLatticeNBestParamSpecMgrv, 
                       __Z31adaptResultCodeToSDAdaptResCode17B_AdaptResultCode, 
                       __Z31sdUtilConvertSDWordSpecsToCwidsPK10SDWordSpecjP12DgnPrimArrayIjEbbbb, 
                       __Z31throwUnimplementedSdapiFunctionv, __Z32FloatShortListPelScoringFunctionPK9PelScorertPj, 
                       __Z32MrecInitLibrarySet_throughDfutilv, __Z32MrecInitLibrarySet_throughKernelv, 
                       __Z32MrecInitModule_adaptctl_recogctlv, __Z32MrecInitModule_adpttype_fileutilv, 
                       __Z32MrecInitModule_bitarray_mrecutilv, __Z32MrecInitModule_cmbtable_mrecutilv, 
                       __Z32MrecInitModule_collarra_fileutilv, __Z32MrecInitModule_contrnac_recogctlv, 
                       __Z32MrecInitModule_dfchksum_fileutilv, __Z32MrecInitModule_dstrutil_mrecutilv, 
                       __Z32MrecInitModule_filehist_fileutilv, __Z32MrecInitModule_fileinst_fileutilv, 
                       __Z32MrecInitModule_filespec_mrecutilv, __Z32MrecInitModule_fixscale_mrecutilv, 
                       __Z32MrecInitModule_frmtrans_recogctlv, __Z32MrecInitModule_fstginst_fstgraphv, 
                       __Z32MrecInitModule_genexcep_mrecutilv, __Z32MrecInitModule_hashbase_mrecutilv, 
                       __Z32MrecInitModule_heapchek_mrecutilv, __Z32MrecInitModule_huffutil_fileutilv, 
                       __Z32MrecInitModule_intruder_recogctlv, __Z32MrecInitModule_intscale_mrecutilv, 
                       __Z32MrecInitModule_memchunk_mrecutilv, __Z32MrecInitModule_memstats_mrecutilv, 
                       __Z32MrecInitModule_mixadapt_recogctlv, __Z32MrecInitModule_paramset_mrecutilv, 
                       __Z32MrecInitModule_pelsegment_kernelv, __Z32MrecInitModule_pgpcache_recogctlv, 
                       __Z32MrecInitModule_prostats_mrecutilv, __Z32MrecInitModule_psholder_recogctlv, 
                       __Z32MrecInitModule_rctlinst_recogctlv, __Z32MrecInitModule_recogctl_recogctlv, 
                       __Z32MrecInitModule_recoggrm_recogctlv, __Z32MrecInitModule_recogres_recogctlv, 
                       __Z32MrecInitModule_repromgr_recogctlv, __Z32MrecInitModule_scollarr_fileutilv, 
                       __Z32MrecInitModule_scpcache_recogctlv, __Z32MrecInitModule_speedtst_mrecutilv, 
                       __Z32MrecInitModule_sxprintf_sxprintfv, __Z32MrecInitModule_utilinst_mrecutilv, 
                       __Z32MrecInitModule_verifptr_mrecutilv, __Z32MrecLinkLibraryFromModule_dfutilv, 
                       __Z32MrecLinkLibraryFromModule_kernelv, __Z32QuantPerDimGenoneScoringFunctionPK9PelScorertjPtPj, 
                       __Z32tknEnableFloatingPointExceptionsi, __Z32xlprintStringNoPrefixWithNewLinePKc, 
                       __Z33FloatCompScoresToPelScoreFunctionPK9PelScorertPKtPj, 
                       __Z33GetUtteranceTypeFromFrameDataType15B_FrameDataType, 
                       __Z33HS_PackedIntGenoneScoringFunctionPK9PelScorertjPtPj, 
                       __Z33MemStatsDisplayLocalMaxAllocBytesP14MemChunkRegion, 
                       __Z33ModnameGetModuleNameOfLocalBinaryR9DgnString, 
                       __Z33MrecInitLibrarySet_throughChannelv, __Z33MrecInitLibrarySet_throughNeuralNv, 
                       __Z33MrecInitLibrarySet_throughPhonemev, __Z33MrecInitLibrarySet_throughPrefiltv, 
                       __Z33MrecInitLibrarySet_throughSigprocv, __Z33MrecInitModule_leafgraph_fstgraphv, 
                       __Z33MrecInitModule_lnbpcache_recogctlv, __Z33MrecInitModule_paramspec_mrecutilv, 
                       __Z33MrecInitModule_trecogctl_recogctlv, __Z33MrecLinkLibraryFromModule_channelv, 
                       __Z33MrecLinkLibraryFromModule_neuralnv, __Z33MrecLinkLibraryFromModule_phonemev, 
                       __Z33MrecLinkLibraryFromModule_prefiltv, __Z33MrecLinkLibraryFromModule_sigprocv, 
                       __Z33PackedIntMICGenoneScoringFunctionPK9PelScorertjPtPj, 
                       __Z33StringIdCollSearchCmpFromStringIdPKvS0_, __Z33WordIdToFstWordIdExceptionWrapperi, 
                       __Z33copyBadSuccessorSeedCategoryArrayRK8DgnArrayI24BadSuccessorSeedCategoryER12DgnPrimArrayIhE, 
                       __Z33tknDisableFloatingPointExceptionsv, __Z34DgnSplitStringParValueIntoIntArrayPKcS0_S0_iiiP12DgnPrimArrayIiE, 
                       __Z34GetIndexForLMSubDirExtensionStringPKc, __Z34MrecInitLibrarySet_throughAudiosrcv, 
                       __Z34MrecInitLibrarySet_throughFileutilv, __Z34MrecInitLibrarySet_throughFstgraphv, 
                       __Z34MrecInitLibrarySet_throughMrecutilv, __Z34MrecInitLibrarySet_throughRecogctlv, 
                       __Z34MrecInitModule_chunkalloc_fstgraphv, __Z34MrecInitModule_contextset_fstgraphv, 
                       __Z34MrecInitModule_dsmsetdata_mrecutilv, __Z34MrecInitModule_neuralninst_neuralnv, 
                       __Z34MrecInitModule_sdglobalparam_sdapiv, __Z34MrecLinkLibraryFromModule_audiosrcv, 
                       __Z34MrecLinkLibraryFromModule_fileutilv, __Z34MrecLinkLibraryFromModule_fstgraphv, 
                       __Z34MrecLinkLibraryFromModule_mrecutilv, __Z34MrecLinkLibraryFromModule_recogctlv, 
                       __Z34MrecLinkLibraryFromModule_sxprintfv, __Z34StartupLatticePostProbParamSpecMgrv, 
                       __Z34TestFloatingPointExceptionInternal28B_FloatingPointExceptionType, 
                       __Z34getRecogResultTokenFromLatticeLinkRK13WordLatticeLCjb, 
                       __Z34initOnlineConstrainedTransAccNamesPPKcmS1_mS1_m, 
                       __Z35DgnSplitStringParValueIntoBoolArrayPKcS0_S0_jP12DgnPrimArrayIbE, 
                       __Z35DgnSplitStringParValueIntoUintArrayPKcS0_S0_jjjP12DgnPrimArrayIjE, 
                       __Z35FloatMICShortListPelScoringFunctionPK9PelScorertPj, 
                       __Z35FloatShortListGenoneScoringFunctionPK9PelScorertjPtPj, 
                       __Z35MulTableShortListPelScoringFunctionPK9PelScorertPj, 
                       __Z35StartupPrefiltererBuildParamSpecMgrv, __Z35StartupSearchCrossLayerParamSpecMgrv, 
                       __Z35addToWordFSTStateForDeterminizationR8DgnArrayI30WordFSTStateWithResidualWeightEjib, 
                       __Z35copyBadPredecessorSeedCategoryArrayRK8DgnArrayI26BadPredecessorSeedCategoryER12DgnPrimArrayIhE, 
                       __Z35sdUtilConvertSegmentResultToSegmentPP21SDhSegmentResult_faketjPP12Segmentation, 
                       __Z36MrecHeaderCheckLatestVersionIfSharedP5DFilePKcjjjj, 
                       __Z36MrecInitModule_sdparamsetparam_sdapiv, __Z36MulTableCompScoresToPelScoreFunctionPK9PelScorertPKtPj, 
                       __Z36PackedIntShortListPelScoringFunctionPK9PelScorertPj, 
                       __Z36StartupPrefiltererSearchParamSpecMgrv, __Z37DgnSplitStringParValueIntoDoubleArrayPKcS0_S0_dddP12DgnPrimArrayIdE, 
                       __Z37MrecInitModule_sdparamsetholder_sdapiv, __Z37PackedIntCompScoresToPelScoreFunctionPK9PelScorertPKtPj, 
                       __Z37ParamSetIdCollSearchCmpFromParamSetIdPKvS0_, 
                       __Z38FloatMICShortListGenoneScoringFunctionPK9PelScorertjPtPj, 
                       __Z38MulTableShortListGenoneScoringFunctionPK9PelScorertjPtPj, 
                       __Z38QuantPerDimShortListPelScoringFunctionPK9PelScorertPj, 
                       __Z38setDllTerminatedSuccessfullyOrNotInUseb, __Z38setExeTerminatedSuccessfullyOrNotInUseb, 
                       __Z39PackedIntMICShortListPelScoringFunctionPK9PelScorertPj, 
                       __Z39PackedIntShortListGenoneScoringFunctionPK9PelScorertjPtPj, 
                       __Z39SDExtChanForwardServerEventSinkCallback24B_ExtChanServerEventTypejPv, 
                       __Z40TestFloatingPointExceptionInternalFLTDIVv, 
                       __Z40TestFloatingPointExceptionInternalFLTOVFv, 
                       __Z40TestFloatingPointExceptionInternalFLTUNDv, 
                       __Z40TestFloatingPointExceptionInternalINTDIVv, 
                       __Z40TestFloatingPointExceptionInternalNEGLOGv, 
                       __Z41DgnSplitStringParValueIntoScoreArrayArrayPKcS0_iijP8DgnArrayI10ScoreArrayE, 
                       __Z41QuantPerDimShortListGenoneScoringFunctionPK9PelScorertjPtPj, 
                       __Z41SDExtChanForwardClientEventSourceCallbackP22ExtChanClientFrameDataPv, 
                       __Z41convertWordFSTForDeterminizationToWordFSTRK25WordFSTForDeterminizationR7WordFST, 
                       __Z42FloatShortListCompScoresToPelScoreFunctionPK9PelScorertPKtPj, 
                       __Z42PackedIntMICShortListGenoneScoringFunctionPK9PelScorertjPtPj, 
                       __Z42pronGuessResultCodeToSDPronGuessResultCode21B_PronGuessResultCode, 
                       __Z44sdUtilConvertSDWordSpecArraysToTranscriptionbPKPK10SDWordSpecPKjPKdjP8DgnArrayI12DgnPrimArrayIjEEPS9_IdEtbbbb, 
                       __Z45MulTableShortListCompScoresToPelScoreFunctionPK9PelScorertPKtPj, 
                       __Z46PackedIntShortListCompScoresToPelScoreFunctionPK9PelScorertPKtPj, 
                       __Z46TestFloatingPointExceptionInternalFLTOVF_doOned, 
                       __Z49FloatAttilaCompatibleCompScoresToPelScoreFunctionPK9PelScorertPKtPj, 
                       __Z49substractWeightFromWordFSTStateForDeterminizationR8DgnArrayI30WordFSTStateWithResidualWeightEi, 
                       __Z58FloatAttilaCompatibleShortListCompScoresToPelScoreFunctionPK9PelScorertPKtPj, 
                       __Z6DgnCosd, __Z6DgnExpd, __Z6DgnLogd, __Z6DgnPowdd, 
                       __Z6DgnSind, __Z6erounddi, __Z6frounddi, __Z6logAddii, 
                       __Z7DgnSqrtd, __Z7hiMul32ii, __Z7tknTimev, __Z7xprintfPKcz, 
                       __Z8DgnAtan2dd, __Z8DgnLog10d, __Z8canMergeR7ClusterS0_, 
                       __Z8saveDumpP10TTokenizerPKcS2_S2_S2_S2_, __Z8xlprintfPKcz, 
                       __Z9GetWordIdtPKcS0_S0_bb, __Z9SpeedTestiPjiS_S_iiP9DgnRandom, 
                       __Z9boolToIntb, __Z9createFhmPK12TDataManagerPS_P8TLexicon, 
                       __Z9createRnePK12TDataManagerPS_P8TLexicon, __Z9getDirSepv, 
                       __Z9intToBooli, __Z9tknPrintfPKcz, __ZN10ActiveWord12removeHmmNetEv, 
                       __ZN10ActiveWordC2EP13ActiveWordMgrP6HmmNet, __ZN10ActiveWordD0Ev, 
                       __ZN10ActiveWordD1Ev, __ZN10ActiveWordD2Ev, __ZN10AdaptStats10readObjectEP9DgnStreamRj, 
                       __ZN10AdaptStats26updateMicrosecsAccumulatedEjj, 
                       __ZN10AdaptStats5resetEj, __ZN10AdaptStats6updateEjyy, 
                       __ZN10AdaptStatsC1ERKS_, __ZN10AdaptStatsC2ERKS_, 
                       __ZN10AdaptStatsaSERKS_, __ZN10AdaptStatspLERKS_, 
                       __ZN10AudioCodec10decodeDataEv, __ZN10AudioCodec10decompressEv, 
                       __ZN10AudioCodec10encodeDataEi, __ZN10AudioCodec14setSampleCountEj, 
                       __ZN10AudioCodec15readEncodedDataEP9DgnStreamjjP12DgnPrimArrayIsE, 
                       __ZN10AudioCodec8compressEs, __ZN10AudioCodecC1ERKS_, 
                       __ZN10AudioCodecC1Ev, __ZN10AudioCodecC2ERKS_, __ZN10AudioCodecC2Ev, 
                       __ZN10BasisAccum10accumulateEP6PelMgrtjjRK12DgnPrimArrayIhEPS2_IjES7_, 
                       __ZN10BasisAccum10initAccumsEjbb, __ZN10BasisAccum10scaleAccumEd, 
                       __ZN10BasisAccum23addRelevanceAndCopyBackEP6PelMgrtjP15AdapterParamSetP12DgnPrimArrayIjES6_PS4_IiE, 
                       __ZN10BasisAccum7getDataEP12DgnPrimArrayIyES2_PyS3_j, 
                       __ZN10BasisAccum7setDataEPK9DgnVectorS2_j, __ZN10BasisAccum8addAccumERKS_, 
                       __ZN10BasisAccum9loadAccumEP9DgnStreamRj, __ZN10BasisAccum9saveAccumEP9DgnStreamRj, 
                       __ZN10BigramData10loadBinaryEP9DgnStreamRj, __ZN10BigramData11allocLoadedEj, 
                       __ZN10BigramData11allocLookupEjt, __ZN10BigramData11allocSearchEjt, 
                       __ZN10BigramData14copyBigramDataERKS_, __ZN10BigramData16fillBigramRecordEjRK12DgnPrimArrayItES3_RKS0_IhEb, 
                       __ZN10BigramData16loadBinarySharedEP18DgnSharedMemStreambRj, 
                       __ZN10BigramData16saveBinarySharedEP18DgnSharedMemStreambRj, 
                       __ZN10BigramData19configureBigramDataEbjPKt, __ZN10BigramData22fillBigramRecordLookupEjRK12DgnPrimArrayItES3_RKS0_IhE, 
                       __ZN10BigramData23fillBigramRecordPreloadEjRK12DgnPrimArrayItES3_RKS0_IhE, 
                       __ZN10BigramData26addBigramScoreQuantizationEht, 
                       __ZN10BigramData27preAllocateStaticBigramDataEj, 
                       __ZN10BigramData28preAllocateDynamicBigramDataEjj, 
                       __ZN10BigramData7compactEv, __ZN10BigramData8allocBi1Ej, 
                       __ZN10BigramData8clearAllEv, __ZN10BigramDataC1Ev, 
                       __ZN10BigramDataC2Ev, __ZN10BigramDataD1Ev, __ZN10BigramDataD2Ev, 
                       __ZN10Bottleneck15computeFeaturesEPK9UtteranceP12DgnPrimArrayIhEPS3_IdE, 
                       __ZN10BottleneckC1EP4User, __ZN10BottleneckC2EP4User, 
                       __ZN10BottleneckD1Ev, __ZN10BottleneckD2Ev, __ZN10CTPelAccum10scaleAccumEd, 
                       __ZN10CTPelAccum13adaptOneFrameEtdbP10AdaptStatsdiRK12DgnPrimArrayIhE, 
                       __ZN10CTPelAccum17addModelRelevanceEP16CTModelRelevancej, 
                       __ZN10CTPelAccum37determineNumSignificantSingularValuesEPK9DgnVector, 
                       __ZN10CTPelAccum4initEPK9DgnVector, __ZN10CTPelAccum5resetEv, 
                       __ZN10CTPelAccum8addAccumERKS_b, __ZN10CTPelAccum9loadAccumEP9DgnStreamRj, 
                       __ZN10CTPelAccumC1EP6PelMgrP9PelScorerbbbbbbjPK9DgnMatrixPK9DgnVectorS6_, 
                       __ZN10CTPelAccumC2EP6PelMgrP9PelScorerbbbbbbjPK9DgnMatrixPK9DgnVectorS6_, 
                       __ZN10CTPelAccumD1Ev, __ZN10CTPelAccumD2Ev, __ZN10CWIDACPair11computeHashERKS_, 
                       __ZN10CWIDACPair3cmpERKS_S1_, __ZN10CWIDACPairD1Ev, 
                       __ZN10CWIDACPairD2Ev, __ZN10ChannelMgr10getSigProcEj, 
                       __ZN10ChannelMgr11getUttCountEj, __ZN10ChannelMgr11loadSigProcEP5DFile, 
                       __ZN10ChannelMgr11openChannelEjjP12DgnPrimArrayIyEPS0_I15B_UtteranceTypeEP9DgnString, 
                       __ZN10ChannelMgr11registerUttEjP9Utterance, __ZN10ChannelMgr11saveSigProcEjRK8FileSpecP16B_SaveResultCode24B_SaveOverrideFormatTypeb, 
                       __ZN10ChannelMgr12closeChannelEj, __ZN10ChannelMgr12getSigProcIdEj, 
                       __ZN10ChannelMgr13copyUtteranceEjjj, __ZN10ChannelMgr13deleteSigProcEj, 
                       __ZN10ChannelMgr13getSignalInfoEjP10SignalInfo, 
                       __ZN10ChannelMgr13readUtteranceEjbbbb, __ZN10ChannelMgr13smpChannelMgrE, 
                       __ZN10ChannelMgr14getSigProcDescEj, __ZN10ChannelMgr14isAtEndOfInputEj, 
                       __ZN10ChannelMgr14isUttAvailableEj, __ZN10ChannelMgr14isValidChannelEj, 
                       __ZN10ChannelMgr14newFileChannelE21B_ChannelOpenFileTypePKcP15ChannelParamSetbbbbdP12DgnPrimArrayIyEPS5_I15B_UtteranceTypeEjP19B_ChannelStatusCodeP9DgnString, 
                       __ZN10ChannelMgr15getNewChannelIdEP15ChannelParamSet, 
                       __ZN10ChannelMgr15resetAdaptablesEj, __ZN10ChannelMgr16enableAdaptablesEj, 
                       __ZN10ChannelMgr16getTrackDCOffsetEj, __ZN10ChannelMgr16setTrackDCOffsetEjb, 
                       __ZN10ChannelMgr17getSourceDurationEj, __ZN10ChannelMgr17sourceHasFeatDataEj, 
                       __ZN10ChannelMgr17startupChannelMgrEv, __ZN10ChannelMgr18getChannelUserDataEj, 
                       __ZN10ChannelMgr18newExternalChannelEP19ExternalChannelSpecbjP15ChannelParamSetP19B_ChannelStatusCodeP9DgnString, 
                       __ZN10ChannelMgr18reSignalProcessUttEjP9UtteranceS1_, 
                       __ZN10ChannelMgr18setWarpChoiceIndexEji, __ZN10ChannelMgr18shutdownChannelMgrEv, 
                       __ZN10ChannelMgr19getChannelSigProcIdEj, __ZN10ChannelMgr19updateSigProcUttDetEj, 
                       __ZN10ChannelMgr20doUtteranceDetectionEj, __ZN10ChannelMgr20newWarpChooseChannelEbP14AcousticFormatbjP15ChannelParamSetiP19B_ChannelStatusCodeP9DgnString, 
                       __ZN10ChannelMgr20setRecogCtlUtteranceEP9Utterance, 
                       __ZN10ChannelMgr21uttHasThreadedChannelEP9Utterance, 
                       __ZN10ChannelMgr22collectThroughUttFrameEP9Utterancei, 
                       __ZN10ChannelMgr22getSigProcChannelCountEj, __ZN10ChannelMgr22updateSigProcChanStatsEj, 
                       __ZN10ChannelMgr26collectAvailableDataForUttEP9Utterance, 
                       __ZN10ChannelMgr26maybeSyncRecogCtlUtteranceEP9Utterance, 
                       __ZN10ChannelMgr27errorIfCollectingDataForUttEP9Utterance, 
                       __ZN10ChannelMgr29maybeStopCollectingDataForUttEP9Utterance, 
                       __ZN10ChannelMgr30collectAllAvailableChannelDataEj, 
                       __ZN10ChannelMgr30getNumSpeechTypeUtterancesReadEj, 
                       __ZN10ChannelMgr30maybeStartCollectingDataForUttEP9Utterance, 
                       __ZN10ChannelMgr31getNumUnknownTypeUtterancesReadEj, 
                       __ZN10ChannelMgr33getNumNonSpeechTypeUtterancesReadEj, 
                       __ZN10ChannelMgr6isOpenEj, __ZN10ChannelMgr9deleteUttEP9Utterance, 
                       __ZN10ChannelMgr9deleteUttEj, __ZN10ChannelMgrC1Ev, 
                       __ZN10ChannelMgrC2Ev, __ZN10ChannelMgrD1Ev, __ZN10ChannelMgrD2Ev, 
                       __ZN10ChunkAlloc10new_bucketEi, __ZN10ChunkAlloc11delete_markEv, 
                       __ZN10ChunkAlloc4initEi, __ZN10ChunkAlloc4markEv, 
                       __ZN10ChunkAlloc4peekEv, __ZN10ChunkAlloc5resetEv, 
                       __ZN10ChunkAlloc7releaseEv, __ZN10ChunkAllocC1Ev, 
                       __ZN10ChunkAllocC2Ev, __ZN10ChunkAllocD1Ev, __ZN10ChunkAllocD2Ev, 
                       __ZN10ClockTimer12smClockTimerE, __ZN10ClockTimer14initClockTimerEv, 
                       __ZN10ClockTimer15resetClockTimerEv, __ZN10ClockTimer23getPlatformAbsoluteTimeEv, 
                       __ZN10Constraint12prunePreListEP17RecogGermIteratorb, 
                       __ZN10Constraint13getStateLegalERK6CWIDACiPbP17RecogGermIteratorjbPjS6_S6_S6_P12DgnPrimArrayItEPS7_IbEP8DgnArrayI12EmbStateSpecEb, 
                       __ZN10Constraint13getTraceLegalERK6CWIDACi, __ZN10Constraint14seedGivenStateERK9StateSpecRK12DgnPrimArrayIjEiPbP17RecogGermIteratorjbPjSA_SA_SA_PS3_ItEPS3_IbEP8DgnArrayI12EmbStateSpecEb, 
                       __ZN10Constraint15addToReturnListER9RecogGermPj, 
                       __ZN10Constraint15cloneConstraintERKS_, __ZN10Constraint15setupConstraintEv, 
                       __ZN10Constraint18setUpTranscriptionEPK8DgnArrayI12DgnPrimArrayIjEEPKS1_IiEPK6PhnMgr, 
                       __ZN10Constraint19makeStateConstraintEtbPK8DgnArrayI12DgnPrimArrayIjEEPKS2_PKS0_IS0_I10ParseTokenEEPK11WordLatticeiibPK6PhnMgr, 
                       __ZN10Constraint19makeTraceConstraintEPK8DgnArrayI12DgnPrimArrayIjEEPKS1_IiEbPK6PhnMgr, 
                       __ZN10Constraint19seedGivenTraceStateERK9StateSpecRK12DgnPrimArrayIjEP17RecogGermIteratorPjS9_, 
                       __ZN10Constraint22seedGivenPhonyPreStateERK9StateSpecRK12DgnPrimArrayIjEP17RecogGermIteratorPjS9_, 
                       __ZN10Constraint28seedGivenStateGermsOverStateERK9StateSpecP17RecogGermIteratorPjS5_, 
                       __ZN10Constraint28seedGivenStateStateOverGermsERK9StateSpecP17RecogGermIteratorPjS5_, 
                       __ZN10Constraint30seedGivenStateLatticeOverStateERK9StateSpecRK12DgnPrimArrayIjEPjS7_, 
                       __ZN10Constraint30seedGivenStateStateOverNothingERK9StateSpecPjS3_, 
                       __ZN10Constraint34seedGivenEmbFstStateStateOverGermsERK9StateSpecP17RecogGermIteratorPjS5_, 
                       __ZN10Constraint39seedGivenStateLatticeOverStateOverGermsERK9StateSpecRK12DgnPrimArrayIjEP17RecogGermIteratorPjS9_, 
                       __ZN10Constraint51getCanSeedUsingLatticeTimeConstraintSeedThreshScoreERK6CWIDACi, 
                       __ZN10Constraint8getLegalERK6CWIDACjbPjiS3_P12DgnPrimArrayItEPS4_IbEP8DgnArrayI12EmbStateSpecEb, 
                       __ZN10ConstraintC1ERKS_, __ZN10ConstraintC1EtbbPK8DgnArrayI12DgnPrimArrayIjEEPKS1_IiEPKS2_PKS0_IS0_I10ParseTokenEEPK11WordLatticeiibPK6PhnMgr, 
                       __ZN10ConstraintC2ERKS_, __ZN10ConstraintC2EtbbPK8DgnArrayI12DgnPrimArrayIjEEPKS1_IiEPKS2_PKS0_IS0_I10ParseTokenEEPK11WordLatticeiibPK6PhnMgr, 
                       __ZN10ConstraintD1Ev, __ZN10ConstraintD2Ev, __ZN10ContextSet11get_contextEi, 
                       __ZN10ContextSet15get_num_classesEv, __ZN10ContextSet16set_context_sizeEi, 
                       __ZN10ContextSet8get_flagEi, __ZN10ContextSet9get_classEPKtit, 
                       __ZN10ContextSetC1Ev, __ZN10ContextSetC2Ev, __ZN10ContextSetD1Ev, 
                       __ZN10ContextSetD2Ev, __ZN10DFileOwner10closeDFileEv, 
                       __ZN10DFileOwner10unsetDFileEv, __ZN10DFileOwner26setRemoveFileOnDestructionEb, 
                       __ZN10DFileOwner8setDFileEP5DFileb, __ZN10DFileOwnerC1Ev, 
                       __ZN10DFileOwnerC2Ev, __ZN10DFileOwnerD1Ev, __ZN10DFileOwnerD2Ev, 
                       __ZN10DSMSetData20unrefSetRecordBlobExEv, __ZN10DSMSetData27checkMaybeResetGlobalRecordER15DSMGlobalRecordj, 
                       __ZN10DSMSetData29refMaybeCreateSetRecordBlobExEv, 
                       __ZN10DgnPRandom10initializeEj, __ZN10DgnPRandom14normalizedNextEj, 
                       __ZN10DgnPRandom21generatePermutedRangeEPjjjj, __ZN10DgnPRandom4nextEv, 
                       __ZN10DgnPrinter13addLinePrefixEPcjPjPKcjj, __ZN10DgnPrinter17getCurrentPrinterEv, 
                       __ZN10DgnPrinter17setInstancePrefixEPKc, __ZN10DgnPrinter25xprintNoPrefixWithNewLineEPKc, 
                       __ZN10DgnPrinter5flushEv, __ZN10DgnPrinter6xprintEPKcbbS1_j, 
                       __ZN10DgnPrinterC1Ev, __ZN10DgnPrinterC2Ev, __ZN10DgnPrinterD1Ev, 
                       __ZN10DgnPrinterD2Ev, __ZN10FinalState15compareElementsEPvPKvS2_, 
                       __ZN10FrameQueue10addToQueueEP12DgnPrimArrayIdE, 
                       __ZN10FrameQueue10shiftByOneEv, __ZN10FrameQueue7dequeueEv, 
                       __ZN10FrameQueue7enqueueEPK12DgnPrimArrayIdE, __ZN10FrameQueueC1Ejj, 
                       __ZN10FrameQueueC2Ejj, __ZN10GssResults12getWordPronsEj, 
                       __ZN10GssResults14getChoiceWordsEPK9DgnIArrayIP12RecogGrammarEPKS1_RK8DgnArrayI17RecogResultChoiceE, 
                       __ZN10GssResults15updateWordPronsEjjbPjP12DgnPrimArrayIjE, 
                       __ZN10GssResultsC1ERK8DgnArrayI12DgnPrimArrayIjEEjRKS0_I17RecogResultChoiceEbPK9DgnIArrayIP12RecogGrammarEPKSB_j, 
                       __ZN10GssResultsC2ERK8DgnArrayI12DgnPrimArrayIjEEjRKS0_I17RecogResultChoiceEbPK9DgnIArrayIP12RecogGrammarEPKSB_j, 
                       __ZN10GssResultsD1Ev, __ZN10GssResultsD2Ev, __ZN10HistoryMgr13extendHistoryEjRK6CWIDACbiiPb, 
                       __ZN10HistoryMgr16cleanupHistoriesEv, __ZN10HistoryMgr22endHistoryMgrSyncRecogEv, 
                       __ZN10HistoryMgr24beginHistoryMgrSyncRecogEv, __ZN10HistoryMgr32copyAndOverrideToBigramHistoriesEv, 
                       __ZN10HistoryMgrC1E9Direction, __ZN10HistoryMgrC2E9Direction, 
                       __ZN10HistoryMgrD1Ev, __ZN10HistoryMgrD2Ev, __ZN10InLinkICmp15compareElementsEPvPKvS2_, 
                       __ZN10LinkSegIds35findOrAddLinkSegSeqIdFromLinkSegIdsER12DgnPrimArrayIyEP12HashProbeKEVIyS1_S_E, 
                       __ZN10ParamValueC1ERKS_, __ZN10ParamValueC1Ev, __ZN10ParamValueC2ERKS_, 
                       __ZN10ParamValueC2Ev, __ZN10ParamValueD1Ev, __ZN10ParamValueD2Ev, 
                       __ZN10ParamValueaSERKS_, __ZN10PelSegmentC1EPK14PelSegmentDatabb, 
                       __ZN10PelSegmentC1ERKS_, __ZN10PelSegmentC2EPK14PelSegmentDatabb, 
                       __ZN10PelSegmentC2ERKS_, __ZN10PredStruct20getBestPredWithTraceEPjR12DgnIdFactoryI19NetNBestTraceNoTimeIjELj1024EEi, 
                       __ZN10RecogStats25initRecognitionPhaseTimesERK8SnapTimeS2_RK8DgnArrayIS0_ES6_S6_S6_S6_S6_S2_, 
                       __ZN10RecogStatsC1Ev, __ZN10RecogStatsC2Ev, __ZN10RecogStatsD1Ev, 
                       __ZN10RecogStatsD2Ev, __ZN10Recognizer10doBackwardEv, 
                       __ZN10Recognizer10dropCrumbsERK6CWIDACiiRK18HistoryAndBigScoreRK8DgnArrayIS3_E, 
                       __ZN10Recognizer10shadowBestEPS_iib, __ZN10Recognizer12checkForDoneEv, 
                       __ZN10Recognizer12setPelScoresEPK17PelScoreCacheData, 
                       __ZN10Recognizer13checkForAbortEv, __ZN10Recognizer13debugFrameEndEv, 
                       __ZN10Recognizer13makePelScoresEv, __ZN10Recognizer13setConstraintEP10Constraint, 
                       __ZN10Recognizer14endTopRecFrameEi, __ZN10Recognizer14makeRecognizerEb11B_RecogModetPK6PhnMgrPK6PicMgrbRK17RecognizerOptionsPK7HashKEVIjj12StateIdScopeESE_SE_PK8BitArray, 
                       __ZN10Recognizer14setContextParsERK13LMContextPars, 
                       __ZN10Recognizer15debugFrameStartEv, __ZN10Recognizer15seedActiveWordsEiibPK8DgnArrayI4GermE, 
                       __ZN10Recognizer15seedOneBackwardEP10ActiveWordtRK9RecogGerm, 
                       __ZN10Recognizer15seedOneFromPortEP14SeedActiveWordtiiiiiijRK9RecogGermji, 
                       __ZN10Recognizer15setRecogEndTimeEi, __ZN10Recognizer16beginTopRecFrameEi, 
                       __ZN10Recognizer16getPelScoreCacheEv, __ZN10Recognizer16setCWIDTrackListEPK8DgnArrayI12DgnPrimArrayIjEE, 
                       __ZN10Recognizer17doFinalSilForwardEi, __ZN10Recognizer17dropFinalSilCrumbERK6CWIDACji, 
                       __ZN10Recognizer17makePartialResultEPK15ReturnListQueuePK12DgnIOwnArrayIP8HashNCHVIjj32WordToScoreAndDurationHashHelper16ScoreAndDurationEEPK8DgnArrayI10ScoreArrayEiPSC_I13WordLatticeLCEPSC_I12HistContentsEP12DgnPrimArrayIjE, 
                       __ZN10Recognizer17setInitialContextERK12DgnPrimArrayIjE, 
                       __ZN10Recognizer18computeThreshScoreEPjPy, __ZN10Recognizer18endTopRecSyncRecogEv, 
                       __ZN10Recognizer18turnOffPrefiltererEv, __ZN10Recognizer19adjustBestForBWBackEb, 
                       __ZN10Recognizer19endNonAcousticFrameEv, __ZN10Recognizer20beginTopRecSyncRecogEjPK12DgnIOwnArrayIP10PelSegmentEPK8DgnArrayI12DgnPrimArrayIjEE, 
                       __ZN10Recognizer20getPartialResultWordEPK8DgnArrayI4GermEiRK6CWIDACP13WordLatticeLCPi, 
                       __ZN10Recognizer21getPartialBestHistoryEv, __ZN10Recognizer21makeRecognizerResultsEbb, 
                       __ZN10Recognizer21returnIncompleteGermsEiPK12DgnIOwnArrayIP8HashNCHVIjj32WordToScoreAndDurationHashHelper16ScoreAndDurationEEPK8DgnArrayI10ScoreArrayEPS9_I4GermE, 
                       __ZN10Recognizer21setRightGermsBackwardEv, __ZN10Recognizer22endTopRecPassSyncRecogEv, 
                       __ZN10Recognizer22seedFromOnePredForwardEP14SeedActiveWordi, 
                       __ZN10Recognizer22setEmbeddedTransducersEPK8DgnArrayI18WordTransducerSpecE, 
                       __ZN10Recognizer24beginTopRecPassSyncRecogEjiP9PelScorer, 
                       __ZN10Recognizer25getBestHistoryMaybeExtendEbbPi, 
                       __ZN10Recognizer26dropZeroFrameFinalSilCrumbEiRK6CWIDACji, 
                       __ZN10Recognizer32seedFromOnePredToOnePhoneForwardEP14SeedActiveWordtiijjRK8DgnArrayI9RecogGermE, 
                       __ZN10Recognizer33beginTrackingConfidenceStatisticsEv, 
                       __ZN10Recognizer34collectByFrameConfidencePredictorsEv, 
                       __ZN10Recognizer36collectLastFrameConfidencePredictorsEi, 
                       __ZN10Recognizer51getCanSeedUsingLatticeTimeConstraintSeedThreshScoreERK6CWIDACi, 
                       __ZN10Recognizer51seedFromOnePredToOnePhoneWithNonAcousticWordForwardEP14SeedActiveWordtiijjRK8DgnArrayI9RecogGermEjRK12DgnPrimArrayIiE, 
                       __ZN10Recognizer8doFrame1Ev, __ZN10Recognizer8doFrame2ERK12DgnPrimArrayIhE, 
                       __ZN10Recognizer8doFrame3EPK8DgnArrayI4GermE, __ZN10Recognizer9doForwardEPK8DgnArrayI4GermE, 
                       __ZN10Recognizer9dumpFrameEi, __ZN10RecognizerC1Eb11B_RecogModetPK6PhnMgrPK6PicMgrbRK17RecognizerOptionsPK7HashKEVIjj12StateIdScopeESE_SE_PK8BitArray, 
                       __ZN10RecognizerC2Eb11B_RecogModetPK6PhnMgrPK6PicMgrbRK17RecognizerOptionsPK7HashKEVIjj12StateIdScopeESE_SE_PK8BitArray, 
                       __ZN10RecognizerD0Ev, __ZN10RecognizerD1Ev, __ZN10RecognizerD2Ev, 
                       __ZN10SectionMgr10addSectionERK12DgnPrimArrayIjE, 
                       __ZN10SectionMgr10newSausageEyjjjP15SausageParamSet, 
                       __ZN10SectionMgr10totalOrderER8BitArrayjRK12DgnPrimArrayIjE, 
                       __ZN10SectionMgr11numSectionsEv, __ZN10SectionMgr12getAlignmentEP8DgnArrayI12DgnPrimArrayIjEE, 
                       __ZN10SectionMgr13mergeSectionsEjj, __ZN10SectionMgr13remainingWorkEv, 
                       __ZN10SectionMgr14totalAlignmentEv, __ZN10SectionMgr16partialAlignmentEv, 
                       __ZN10SectionMgr4initEP14OrderedLattice, __ZN10SectionMgr5applyEP19SimilarityGenerator, 
                       __ZN10TAllocator5clearEv, __ZN10TAllocator8allocateEm, 
                       __ZN10TAllocatorC1Em, __ZN10TAllocatorC2Em, __ZN10TBoolParam16setValueOriginalEmPKw, 
                       __ZN10TBoolParam8setValueEmPKw, __ZN10TChartInfoC1EPK11TProductionP10TAllocator, 
                       __ZN10TChartInfoC2EPK11TProductionP10TAllocator, 
                       __ZN10TCollation12setCollationER12TInputStream, 
                       __ZN10TCollation12setCollationEv, __ZN10TCollation19initSerializedTableEPK11TFileObject, 
                       __ZN10TCollation20initCharacterClassesEv, __ZN10TCollation8ms_nSizeE, 
                       __ZN10TCollationC1ER12TInputStream, __ZN10TCollationC1Ev, 
                       __ZN10TCollationC2ER12TInputStream, __ZN10TCollationC2Ev, 
                       __ZN10TCollationD1Ev, __ZN10TCollationD2Ev, __ZN10TCondition7setEnumEPK11TFileObjectm, 
                       __ZN10TConditionC1EPK11TFileObjectmP8TLexicon, __ZN10TConditionC2EPK11TFileObjectmP8TLexicon, 
                       __ZN10TConditionD1Ev, __ZN10TConditionD2Ev, __ZN10TDataSaver4loadERK12TDataManagerPKcS4_, 
                       __ZN10TDataSaver4saveER12TDataManager, __ZN10TDataSaverD1Ev, 
                       __ZN10TDataSaverD2Ev, __ZN10TFormatter10copyResultEPP22TPItnResultHandle_fake, 
                       __ZN10TFormatter10freeMemoryEv, __ZN10TFormatter11collectTagsER4TFsaR7TBufferIwEmmR10TAllocatorRNSt3__16vectorIPK17TFormatProductionNS7_9allocatorISB_EEEERNS7_3setIPP19TPItnTagHandle_fakeNS7_4lessISJ_EENSC_ISJ_EEEE, 
                       __ZN10TFormatter11splitResultEPP22TPItnResultHandle_fakeRKNSt3__16vectorImNS3_9allocatorImEEEER7TBufferIS2_E, 
                       __ZN10TFormatter12deleteResultEPP22TPItnResultHandle_fake, 
                       __ZN10TFormatter12mergeResultsEPKPP22TPItnResultHandle_fakeS4_, 
                       __ZN10TFormatter12splitPatternEPKwRP6TBlockS4_, 
                       __ZN10TFormatter13applyControlsEP6TBlockRKNSt3__16vectorI12TItnWordDataNS2_9allocatorIS4_EEEEmmRKNS3_I11TItnControlNS5_ISA_EEEERSC_, 
                       __ZN10TFormatter13importChangesERK12TDataManagerP8TLexicon, 
                       __ZN10TFormatter13textToResultsEPKPP22TPItnResultHandle_fakeS4_S4_S4_PKcjR7TBufferIS2_E, 
                       __ZN10TFormatter14addLeftContextEPKPP22TPItnResultHandle_fakeS4_RNSt3__16vectorI12TItnWordDataNS5_9allocatorIS7_EEEER12TContextInfo, 
                       __ZN10TFormatter14constructGraphERKNSt3__16vectorI12TItnWordDataNS0_9allocatorIS2_EEEEmmR4TFsa, 
                       __ZN10TFormatter14formatInternalEPKPP22TPItnResultHandle_fakeS4_S4_S4_RKNSt3__16vectorI12TItnWordDataNS5_9allocatorIS7_EEEEjbRS2_RS4_, 
                       __ZN10TFormatter15addRightContextEPKPP22TPItnResultHandle_fakeS4_RNSt3__16vectorI12TItnWordDataNS5_9allocatorIS7_EEEER12TContextInfo, 
                       __ZN10TFormatter15assignWordRulesEP6TBlockRKNSt3__16vectorI12TItnWordDataNS2_9allocatorIS4_EEEE, 
                       __ZN10TFormatter15getParamManagerEv, __ZN10TFormatter15reformatResultsEPKPP22TPItnResultHandle_fakeS4_S4_S4_PKPP25TPItnRuleControlName_fakeS9_jR7TBufferIS2_E, 
                       __ZN10TFormatter17deserializeResultEPKcm, __ZN10TFormatter20wordSequenceToResultEPKPP22TPItnResultHandle_fakeS4_S4_S4_RKNSt3__16vectorIPKwNS5_9allocatorIS8_EEEEPKjjRS4_SG_, 
                       __ZN10TFormatter22getTagManagerInterfaceEv, __ZN10TFormatter23getHintManagerInterfaceEv, 
                       __ZN10TFormatter23getRuleManagerInterfaceEv, __ZN10TFormatter26generateResultAlternativesEPKPP22TPItnResultHandle_fakeS4_PK7TPRangejjR7TBufferIS2_E, 
                       __ZN10TFormatter4saveEP12TDataManagerS1_, __ZN10TFormatter7replaceEPKPP22TPItnResultHandle_fakemmmPKcjR7TBufferIS2_E, 
                       __ZN10TFormatter7segmentERKNSt3__16vectorI12TItnWordDataNS0_9allocatorIS2_EEEEmm, 
                       __ZN10TFormatter8addWordsEPKPP22TPItnResultHandle_fakeS4_bRNSt3__16vectorI12TItnWordDataNS5_9allocatorIS7_EEEE, 
                       __ZN10TFormatter8addWordsERKNSt3__16vectorIPKwNS0_9allocatorIS3_EEEEPKjRNS1_I12TItnWordDataNS4_ISB_EEEE, 
                       __ZN10TFormatterC1EPK12TDataManagerPS0_P8TLexiconP10TTokenizer, 
                       __ZN10TFormatterC2EPK12TDataManagerPS0_P8TLexiconP10TTokenizer, 
                       __ZN10TFormatterD0Ev, __ZN10TFormatterD1Ev, __ZN10TFormatterD2Ev, 
                       __ZN10TSegmenter10getSegmentEPKc, __ZN10TSegmenter18getPreviousSegmentEPKc, 
                       __ZN10TSegmenterC1EPKcRK11TLocaleInfoPKw, __ZN10TSegmenterC2EPKcRK11TLocaleInfoPKw, 
                       __ZN10TSegmenterD1Ev, __ZN10TSegmenterD2Ev, __ZN10TTokenizer10freeMemoryEv, 
                       __ZN10TTokenizer11loadGrammarEmPKcPP12SDhRule_fakeiPPP13SDhState_fakePS4_, 
                       __ZN10TTokenizer14chooseBestPathER6TGraph, __ZN10TTokenizer14deleteBadPathsER6TGraph, 
                       __ZN10TTokenizer20deleteExpensivePathsER6TGraph, 
                       __ZN10TTokenizer4saveEP12TDataManagerS1_, __ZN10TTokenizer7releaseEm, 
                       __ZN10TTokenizer8addWordsEP7TVertexR6TGraphR10TSegmenter, 
                       __ZN10TTokenizer8tokenizeEPKcS1_S1_mP12TResultMaker, 
                       __ZN10TTokenizer9addClonesER6TGraph, __ZN10TTokenizerC1EPK12TDataManagerPS0_P8TLexicon, 
                       __ZN10TTokenizerC2EPK12TDataManagerPS0_P8TLexicon, 
                       __ZN10TTokenizerD0Ev, __ZN10TTokenizerD1Ev, __ZN10TTokenizerD2Ev, 
                       __ZN10UttFileMgr10newUttFileE13B_UttFileTypePKcbb, 
                       __ZN10UttFileMgr13deleteUttFileEj, __ZN10UttFileMgr13smpUttFileMgrE, 
                       __ZN10UttFileMgr17startupUttFileMgrEv, __ZN10UttFileMgr18shutdownUttFileMgrEv, 
                       __ZN10UttFileMgr8writeUttEjj, __ZN10UttFileMgrC1Ev, 
                       __ZN10UttFileMgrC2Ev, __ZN10UttFileMgrD1Ev, __ZN10UttFileMgrD2Ev, 
                       __ZN10WarpChoice10readObjectEP9DgnStreamRj, __ZN10WarpChoice18addWarpCoordinatesERK15WarpCoordinates, 
                       __ZN11AcousticNet14unpackEndTraceERK8DgnArrayI3PicE12B_ScoreOrder, 
                       __ZN11AcousticNet17updateSilSeedTimeEbi, __ZN11AcousticNet9unpackEndERK8DgnArrayI3PicE12B_ScoreOrder, 
                       __ZN11AcousticNetC2EP6NetMgrRK6CWIDAC10B_NetShape12B_PortStatusii18B_NodeSkippingType, 
                       __ZN11AcousticNetD0Ev, __ZN11AcousticNetD1Ev, __ZN11AcousticNetD2Ev, 
                       __ZN11AdaptConfig10readObjectEP9DgnStreamRj, __ZN11AdaptConfig5clearEv, 
                       __ZN11AdaptConfig6verifyEv, __ZN11AdaptConfigaSERKS_, 
                       __ZN11ArcGraphMgr14smpArcGraphMgrE, __ZN11ArcGraphMgr18startupArcGraphMgrEPK12DgnIOwnArrayIP8ArcGraphE, 
                       __ZN11ArcGraphMgr19shutdownArcGraphMgrEv, __ZN11ArcGraphMgrC1EPK12DgnIOwnArrayIP8ArcGraphE, 
                       __ZN11ArcGraphMgrC2EPK12DgnIOwnArrayIP8ArcGraphE, 
                       __ZN11ArcGraphMgrD1Ev, __ZN11ArcGraphMgrD2Ev, __ZN11BaseSyncNet14unpackSequenceEPK3PiciPP4NodeS5_12B_ScoreOrder, 
                       __ZN11BaseSyncNet16scoreIntSilNode2Eii, __ZN11BaseSyncNet16unpackEndSilenceEv, 
                       __ZN11BaseSyncNet21unpackOneFromPicNodesEPK7PicNodejRK3PicPP4NodeS8_12B_ScoreOrder, 
                       __ZN11BaseSyncNet6addArcEPK4NodePS0_, __ZN11BaseSyncNetC2EP6NetMgrRK6CWIDAC10B_NetShape12B_PortStatusiib18B_NodeSkippingType, 
                       __ZN11BaseSyncNetD0Ev, __ZN11BaseSyncNetD1Ev, __ZN11BaseSyncNetD2Ev, 
                       __ZN11CompAndProb15compareElementsEPvPKvS2_, __ZN11DgnTextFile11getFileTypeEP9DgnString, 
                       __ZN11DgnTextFile13checkIntegralEPKcb, __ZN11DgnTextFile13checkUnsignedEPKc, 
                       __ZN11DgnTextFile14checkPrintableEPKc, __ZN11DgnTextFile14getCurrentLineEv, 
                       __ZN11DgnTextFile14getHeaderFieldEPKcP9DgnStringb, 
                       __ZN11DgnTextFile16closeDgnTextFileEv, __ZN11DgnTextFile18checkAgainstFormatEPKc24B_DgnTextFileFieldFormat, 
                       __ZN11DgnTextFile18convertToDTFFormatERK9DgnStringPS0_, 
                       __ZN11DgnTextFile18getHeaderFieldBoolEPKcPbb, __ZN11DgnTextFile18getHeaderFieldRealEPKcPdbdd, 
                       __ZN11DgnTextFile19checkWhiteSpaceFreeEPKcj, __ZN11DgnTextFile20convertFromDTFFormatERK9DgnStringPS0_PKcj, 
                       __ZN11DgnTextFile21getHeaderFieldIntegerEPKcPibii, 
                       __ZN11DgnTextFile22getHeaderFieldUnsignedEPKcPjbjj, 
                       __ZN11DgnTextFile23convertToEnvValueFormatERK15DgnPrimFixArrayIhEP9DgnString, 
                       __ZN11DgnTextFile24getHeaderFieldUnsigned64EPKcPybyy, 
                       __ZN11DgnTextFile24legalDgnTextFileVersionsEPK18DgnTextFileVersionR8DgnArrayIS0_E, 
                       __ZN11DgnTextFile25convertFromEnvValueFormatERK9DgnStringP15DgnPrimFixArrayIhEPKcj, 
                       __ZN11DgnTextFile9checkRealEPKc, __ZN11DgnTextFile9checkSafeEPKc, 
                       __ZN11DgnTextFileC1Ev, __ZN11DgnTextFileC2Ev, __ZN11DgnTextFileD0Ev, 
                       __ZN11DgnTextFileD1Ev, __ZN11DgnTextFileD2Ev, __ZN11ExtantTimerC1EPKcS1_b, 
                       __ZN11ExtantTimerC2EPKcS1_b, __ZN11ExtantTimerD1Ev, 
                       __ZN11ExtantTimerD2Ev, __ZN11FileChannel10openSourceEPK14AcousticFormatP9DgnString, 
                       __ZN11FileChannel11closeSourceEv, __ZN11FileChannel13readUtteranceEbbbb, 
                       __ZN11FileChannel14isUttAvailableEv, __ZN11FileChannel15getSourceFormatER14AcousticFormatP9DgnString, 
                       __ZN11FileChannel15processOneEventEv, __ZN11FileChannel22collectThroughUttFrameEP9Utterancei, 
                       __ZN11FileChannel23collectAllAvailableDataEv, __ZN11FileChannel26collectAvailableDataForUttEP9Utterance, 
                       __ZN11FileChannel30collectAllAvailableChannelDataEv, 
                       __ZN11FileChannel30convertFileChanResToAbsChanResE23B_FileAudioSourceStatus, 
                       __ZN11FileChannelC1Ej13B_ChannelType21B_ChannelOpenFileTypePKcbbbbdb, 
                       __ZN11FileChannelC2Ej13B_ChannelType21B_ChannelOpenFileTypePKcbbbbdb, 
                       __ZN11FileChannelD0Ev, __ZN11FileChannelD1Ev, __ZN11FileChannelD2Ev, 
                       __ZN11FileHistory11addOneEntryEPKc, __ZN11FileHistory12limitEntriesEv, 
                       __ZN11FileHistory15copyFileHistoryEPKS_, __ZN11FileHistory15loadFileHistoryEP5DFileb, 
                       __ZN11FileHistory15saveFileHistoryEP5DFileb, __ZN11FileHistory23addEntryWithElapsedTimeEPKcRK8SnapTime, 
                       __ZN11FileHistory33addEntryWithVersionAndCurrentTimeEPKcbb, 
                       __ZN11FileHistory4initEjj, __ZN11FileHistory5clearEv, 
                       __ZN11FileHistory8addEntryEPKc, __ZN11FileHistoryC1Ejj, 
                       __ZN11FileHistoryC1Ev, __ZN11FileHistoryC2Ejj, __ZN11FileHistoryC2Ev, 
                       __ZN11FileHistoryD1Ev, __ZN11FileHistoryD2Ev, __ZN11GlobalParam12doSideEffectEv, 
                       __ZN11GlobalParamC2EPKcS1_S1_PFvvES1_, __ZN11GlobalParamD0Ev, 
                       __ZN11GlobalParamD1Ev, __ZN11GlobalParamD2Ev, __ZN11InLinkICmp115compareElementsEPvPKvS2_, 
                       __ZN11IntruderMgr11revertModelEv, __ZN11IntruderMgr13endCollectionEv, 
                       __ZN11IntruderMgr15beginCollectionEjRK8FileSpecb, 
                       __ZN11IntruderMgr15selectIntrudersEP11IntruderSetjP8DgnArrayI21IntruderSelectionDataEi, 
                       __ZN11IntruderMgr16averageGradientsER8DgnArrayI12DgnPrimArrayIxEE, 
                       __ZN11IntruderMgr17initGradientAccumEv, __ZN11IntruderMgr17loadGradientAccumEP5DFiled, 
                       __ZN11IntruderMgr17saveGradientAccumEP5DFile, __ZN11IntruderMgr18clearGradientAccumEv, 
                       __ZN11IntruderMgr18collectIntruderSetEP11IntruderSetjj, 
                       __ZN11IntruderMgr19accumOneIntruderSetEP9DgnStreamjRK12DgnPrimArrayIjEd, 
                       __ZN11IntruderMgr19accumulateGradientsEtRK12DgnPrimArrayIhEjdbi, 
                       __ZN11IntruderMgr19deleteGradientAccumEv, __ZN11IntruderMgr20processGradientAccumERb, 
                       __ZN11IntruderMgr20readAndVerifyAsbDataEP5DFile, 
                       __ZN11IntruderMgr21normalizeDevGradientsEv, __ZN11IntruderMgr22normalizeMeanGradientsEv, 
                       __ZN11IntruderMgr22openAndVerifyItrHeaderEP5DFilej, 
                       __ZN11IntruderMgr27accumGradsFromOneCollectionEjRK8FileSpecRK12DgnPrimArrayIjEPFbvEPbd, 
                       __ZN11IntruderMgr9abortDTMMEv, __ZN11IntruderMgrC1EtjRK11AdaptConfigPK15AdapterParamSetPK14SearchParamSet, 
                       __ZN11IntruderMgrC2EtjRK11AdaptConfigPK15AdapterParamSetPK14SearchParamSet, 
                       __ZN11IntruderMgrD1Ev, __ZN11IntruderMgrD2Ev, __ZN11IntruderSet11addIntruderEjtRK12DgnPrimArrayItES3_, 
                       __ZN11IntruderSet15loadIntruderSetEP9DgnStreamRK12DgnPrimArrayIjE, 
                       __ZN11IntruderSet15saveIntruderSetEP9DgnStreamj, 
                       __ZN11IntruderSet23getCorrectPelIdsByFrameEP12DgnPrimArrayItE, 
                       __ZN11IntruderSetC1ERK17SynchronizedArrayI12DgnPrimArrayIhEERKS1_ItES8_, 
                       __ZN11IntruderSetC1Ev, __ZN11IntruderSetC2ERK17SynchronizedArrayI12DgnPrimArrayIhEERKS1_ItES8_, 
                       __ZN11IntruderSetC2Ev, __ZN11IntruderSetD1Ev, __ZN11IntruderSetD2Ev, 
                       __ZN11LatticePath13assignForHeapER9DgnIArrayIPS_EiS1_, 
                       __ZN11LatticePath14compareForHeapEPKS_S1_, __ZN11LatticePathC1Eb, 
                       __ZN11LatticePathC1Ejji7HashValRK9StateSpec, __ZN11LatticePathC1Ev, 
                       __ZN11LatticePathC2Eb, __ZN11LatticePathC2Ejji7HashValRK9StateSpec, 
                       __ZN11LatticePathC2Ev, __ZN11LatticePathaSERKS_, 
                       __ZN11NBestChoiceC1ERK8DgnArrayI13WordLatticeLCERK14ItemizedScores, 
                       __ZN11NBestChoiceC1ERKS_, __ZN11NBestChoiceC1Ev, 
                       __ZN11NBestChoiceC2ERK8DgnArrayI13WordLatticeLCERK14ItemizedScores, 
                       __ZN11NBestChoiceC2ERKS_, __ZN11NBestChoiceC2Ev, 
                       __ZN11NBestChoiceD1Ev, __ZN11NBestChoiceD2Ev, __ZN11NetNBestAlg8getNBestEjjii, 
                       __ZN11NistUttInfo11setupFormatEP14AcousticFormat, 
                       __ZN11NistUttInfoC1Ev, __ZN11NistUttInfoC2Ev, __ZN11NistUttInfoaSERKS_, 
                       __ZN11NodeNetNode13fillAsEpsilonEPKS_, __ZN11NodeNetNode15scoreNodeBWBackEPK8BaseNodePbP6NetMgriiP6HmmNet, 
                       __ZN11NodeNetNode20addAcousticsToScoresEiP6NetMgr, 
                       __ZN11NodeNetNode4fillEPKS_, __ZN11NodeNetNodeC1Eb, 
                       __ZN11NodeNetNodeC2Eb, __ZN11NodeNetNodeD0Ev, __ZN11NodeNetNodeD1Ev, 
                       __ZN11NodeNetNodeD2Ev, __ZN11OutLinkICmp15compareElementsEPvPKvS2_, 
                       __ZN11PRStatsItemC1Ev, __ZN11PRStatsItemC2Ev, __ZN11PackingPars4initEjdbj, 
                       __ZN11PackingParsC1Ev, __ZN11PackingParsC2Ev, __ZN11PositionClu10packModelsERK12DgnPrimArrayIhEPK8MulTable, 
                       __ZN11PreEmphasis7preemphEP12DgnPrimArrayIdE, __ZN11PreEmphasis7preemphERK12DgnPrimArrayIsEPdj, 
                       __ZN11PreEmphasis8setCoeffEd, __ZN11PreEmphasisC1Ev, 
                       __ZN11PreEmphasisC2Ev, __ZN11Prefilterer15makePrefiltererEPK24PrefiltererBuildParamSet, 
                       __ZN11Prefilterer24maybeMakeLookaheadScorerEPK4UserPK24PrefiltererBuildParamSet, 
                       __ZN11PrefiltererC2Ev, __ZN11PrefiltererD0Ev, __ZN11PrefiltererD1Ev, 
                       __ZN11PrefiltererD2Ev, __ZN11PronCollMgr15loadPronCollMgrEP5DFileP14DFileChecksumsb, 
                       __ZN11PronCollMgr23loadPronCollMgrFromTextEP5DFile, 
                       __ZN11PronCollMgrC1EPK6PhnMgr, __ZN11PronCollMgrC1ERKS_, 
                       __ZN11PronCollMgrC2EPK6PhnMgr, __ZN11PronCollMgrC2ERKS_, 
                       __ZN11PronCollMgrD1Ev, __ZN11PronCollMgrD2Ev, __ZN11RecogCtlMgr10addLatticeEP11WordLattice, 
                       __ZN11RecogCtlMgr10addSausageEP7Sausage, __ZN11RecogCtlMgr10getLatticeEj, 
                       __ZN11RecogCtlMgr10getSausageEj, __ZN11RecogCtlMgr10getVirtMapEj, 
                       __ZN11RecogCtlMgr13deleteLatticeEj, __ZN11RecogCtlMgr13deleteSausageEj, 
                       __ZN11RecogCtlMgr14continueFramesERK9DgnIArrayIP19RecogControllerBaseERK12DgnPrimArrayIbE, 
                       __ZN11RecogCtlMgr14releaseVirtMapEP7VirtMap, __ZN11RecogCtlMgr14smpRecogCtlMgrE, 
                       __ZN11RecogCtlMgr16addSegmentResultEP22AdaptControllerResults, 
                       __ZN11RecogCtlMgr16getSegmentResultEj, __ZN11RecogCtlMgr18addPrefilterResultEP15PrefilterResult, 
                       __ZN11RecogCtlMgr18getPrefilterResultEj, __ZN11RecogCtlMgr18getRecogControllerEj, 
                       __ZN11RecogCtlMgr18newAdaptControllerEtjjjjjjjRK11AdaptConfig, 
                       __ZN11RecogCtlMgr18newRecogControllerE24B_DgnThreadExecutionTypeRK9RecogSpecRK8DgnArrayI10ScoreArrayES8_bbP25PrefiltererSearchParamSetP24SearchCrossLayerParamSetPK7HashKEVIjj12StateIdScopeESH_SH_PK8BitArrayRK12DgnPrimArrayItE, 
                       __ZN11RecogCtlMgr18startupRecogCtlMgrEv, __ZN11RecogCtlMgr19addAdaptAccumResultEP16AdaptAccumResult, 
                       __ZN11RecogCtlMgr19addAdaptApplyResultEP16AdaptApplyResult, 
                       __ZN11RecogCtlMgr19deleteSegmentResultEj, __ZN11RecogCtlMgr19freeAdaptControllerEt, 
                       __ZN11RecogCtlMgr19getAdaptAccumResultEj, __ZN11RecogCtlMgr19getAdaptApplyResultEj, 
                       __ZN11RecogCtlMgr19shutdownRecogCtlMgrEv, __ZN11RecogCtlMgr21deletePrefilterResultEj, 
                       __ZN11RecogCtlMgr21deleteRecogControllerEj, __ZN11RecogCtlMgr22deleteAdaptAccumResultEj, 
                       __ZN11RecogCtlMgr22deleteAdaptApplyResultEj, __ZN11RecogCtlMgrC1Ev, 
                       __ZN11RecogCtlMgrC2Ev, __ZN11RecogCtlMgrD1Ev, __ZN11RecogCtlMgrD2Ev, 
                       __ZN11SausageSlot13mergeInternalEv, __ZN11SausageSlot14getEpsilonProbEv, 
                       __ZN11SausageSlot5finitEv, __ZN11SausageSlot5mergeEPKS_dd, 
                       __ZN11SausageSlot5scaleEdd, __ZN11SausageSlot5scoreEv, 
                       __ZN11SausageSlot6addArcEjjbddd, __ZN11SausageSlotC1ERKS_, 
                       __ZN11SausageSlotC1Ed, __ZN11SausageSlotC2ERKS_, 
                       __ZN11SausageSlotC2Ed, __ZN11SausageSlotD1Ev, __ZN11SausageSlotD2Ev, 
                       __ZN11SearchStats10resetStatsEv, __ZN11SearchStatsC1ERKS_, 
                       __ZN11SearchStatsC2ERKS_, __ZN11SearchStatsaSERKS_, 
                       __ZN11SearchStatsmIERKS_, __ZN11SeedingData14setSeedingDataEii9Directionii, 
                       __ZN11SeedingData16unsetSeedingDataEv, __ZN11SeedingDataC1Ev, 
                       __ZN11SeedingDataC2Ev, __ZN11StateIdPair11computeHashERKS_, 
                       __ZN11StateIdPairD1Ev, __ZN11StateIdPairD2Ev, __ZN11TAlignBlockC1Ev, 
                       __ZN11TAlignBlockC2Ev, __ZN11TCompounder10freeMemoryEv, 
                       __ZN11TCompounder10makeResultERNSt3__16vectorINS0_4pairIPK5TWordmEENS0_9allocatorIS6_EEEERKNS1_INS2_IS5_jEENS7_ISB_EEEESF_RKS9_RKNS1_IbNS7_IbEEEERKNS1_IdNS7_IdEEEE, 
                       __ZN11TCompounder10ms_tagNameE, __ZN11TCompounder13applyInternalERKNSt3__16vectorINS0_4pairIPK5TWordjEENS0_9allocatorIS6_EEEEmmRNS1_IP8TContextNS7_ISD_EEEERKNS1_INS2_IS5_mEENS7_ISH_EEEERSJ_, 
                       __ZN11TCompounder13applyModelMBRERKNSt3__16vectorINS0_4pairIPK5TWordjEENS0_9allocatorIS6_EEEERNS1_IP8TContextNS7_ISD_EEEERKNS1_INS2_IS5_mEENS7_ISH_EEEERSJ_, 
                       __ZN11TCompounder14compoundGermanERKNSt3__16vectorINS0_4pairIPK5TWordjEENS0_9allocatorIS6_EEEERKNS1_INS2_IS5_mEENS7_ISC_EEEEmm, 
                       __ZN11TCompounder14compoundNordicERKNSt3__16vectorINS0_4pairIPK5TWordjEENS0_9allocatorIS6_EEEERKNS1_INS2_IS5_mEENS7_ISC_EEEEmmNS_9TLanguageE, 
                       __ZN11TCompounder14ms_classAppendE, __ZN11TCompounder17compoundWithRulesERKNSt3__16vectorINS0_4pairIPK5TWordjEENS0_9allocatorIS6_EEEERKNS1_INS2_IS5_mEENS7_ISC_EEEEmmb, 
                       __ZN11TCompounder17initFugenSEndingsEv, __ZN11TCompounder17loadOptionalListsER12TInputStream, 
                       __ZN11TCompounder4saveEP12TDataManagerS1_, __ZN11TCompounder5applyERKNSt3__16vectorINS0_4pairIPK5TWordjEENS0_9allocatorIS6_EEEEmmmRKNS1_INS2_IS5_mEENS7_ISC_EEEERSE_, 
                       __ZN11TCompounder5applyERKNSt3__16vectorIPK5TWordNS0_9allocatorIS4_EEEEmmmRNS1_INS0_4pairIS4_mEENS5_ISB_EEEE, 
                       __ZN11TCompounder5applyERKNSt3__16vectorIPKwNS0_9allocatorIS3_EEEEPK8TLatticem, 
                       __ZN11TCompounder9loadModelER12TInputStreamPKc, 
                       __ZN11TCompounder9loadRulesER12TInputStream, __ZN11TCompounderC1EPK12TDataManagerPS0_P8TLexicon, 
                       __ZN11TCompounderC1ER12TInputStreamPKcP8TLexicon, 
                       __ZN11TCompounderC2EPK12TDataManagerPS0_P8TLexicon, 
                       __ZN11TCompounderC2ER12TInputStreamPKcP8TLexicon, 
                       __ZN11TCompounderD0Ev, __ZN11TCompounderD1Ev, __ZN11TCompounderD2Ev, 
                       __ZN11TEnvManager4openEv, __ZN11TEnvManager5closeEv, 
                       __ZN11TEnvManager6setVarEPKcS1_m, __ZN11TEnvManagerC1EPKcm, 
                       __ZN11TEnvManagerC1ERK9SDEnvSpecm, __ZN11TEnvManagerC2EPKcm, 
                       __ZN11TEnvManagerC2ERK9SDEnvSpecm, __ZN11TFileObjectC1EPKS_, 
                       __ZN11TFileObjectC2EPKS_, __ZN11TFloatParam16setValueOriginalEmPKw, 
                       __ZN11TFloatParam8setValueEmPKw, __ZN11TFsaBuilder13findEndPrefixEPKwP6TStateRS1_RS3_, 
                       __ZN11TFsaBuilder16minimizeChildrenEP4TFsaP6TStateRNSt3__13setIS3_NS_13TStateCompareENS4_9allocatorIS3_EEEE, 
                       __ZN11TFsaBuilder9addSuffixEP4TFsaP6TStatePKw, __ZN11TFsaBuilderclERKNSt3__16vectorIPKwNS0_9allocatorIS3_EEEE, 
                       __ZN11TInputModelC1EPK12TDataManagerS2_bPKc, __ZN11TInputModelC2EPK12TDataManagerS2_bPKc, 
                       __ZN11TLocaleInfo13ms_localeInfoE, __ZN11TTagManager10freeMemoryEv, 
                       __ZN11TTagManager11addParamTagEPKwPP19TPItnTagHandle_fake, 
                       __ZN11TTagManager14addWordRuleTagEPKwPP19TPItnTagHandle_fake, 
                       __ZN11TTagManager6addTagEPK11TFileObject, __ZN11TTagManager6addTagEPKwPP19TPItnTagHandle_fake, 
                       __ZN11TTagManager6getTagEPP19TPItnTagHandle_fake, 
                       __ZN11TTagManager8storeTagEP4TTag, __ZN11TTagManagerC1ER12TInputStreamP20TLexiconParamManagerP16TItnParamManager, 
                       __ZN11TTagManagerC2ER12TInputStreamP20TLexiconParamManagerP16TItnParamManager, 
                       __ZN11TTagManagerD0Ev, __ZN11TTagManagerD1Ev, __ZN11TTagManagerD2Ev, 
                       __ZN11TrigramData10loadBinaryEP9DgnStreamRj, __ZN11TrigramData11allocLoadedEj, 
                       __ZN11TrigramData11allocLookupEjt, __ZN11TrigramData11allocSearchEjt, 
                       __ZN11TrigramData15copyTrigramDataERKS_, __ZN11TrigramData16loadBinarySharedEP18DgnSharedMemStreambRj, 
                       __ZN11TrigramData16saveBinarySharedEP18DgnSharedMemStreambRj, 
                       __ZN11TrigramData17fillTrigramRecordEjRK12DgnPrimArrayItES3_RKS0_IhE, 
                       __ZN11TrigramData20configureTrigramDataEbjPKsjPKt, 
                       __ZN11TrigramData23fillTrigramRecordLookupEjRK12DgnPrimArrayItES3_RKS0_IhE, 
                       __ZN11TrigramData24fillTrigramRecordPreloadEjRK12DgnPrimArrayItES3_RKS0_IhE, 
                       __ZN11TrigramData27addTrigramScoreQuantizationEht, 
                       __ZN11TrigramData28preAllocateStaticTrigramDataEjj, 
                       __ZN11TrigramData29preAllocateDynamicTrigramDataEjj, 
                       __ZN11TrigramData35addTrigramBackoffWeightQuantizationEhs, 
                       __ZN11TrigramData7compactEv, __ZN11TrigramData8clearAllEv, 
                       __ZN11TrigramData9allocTri1Ejt, __ZN11TrigramDataC1Ev, 
                       __ZN11TrigramDataC2Ev, __ZN11TrigramDataD1Ev, __ZN11TrigramDataD2Ev, 
                       __ZN11VarClassMgr14loadTransformsEP5DFile, __ZN11VarClassMgr15copyVarClassMgrEPKS_, 
                       __ZN11VarClassMgr15loadVarClassMgrEP5DFileP14DFileChecksumsb, 
                       __ZN11VarClassMgr27repairBasedOnExcisedGenonesERK12DgnPrimArrayItE, 
                       __ZN11VarClassMgr7loadMapEP5DFile, __ZN11WarpChooser16initWarpChannelsEP9Utterance, 
                       __ZN11WarpChooser17chooseAndCopybackEv, __ZN11WarpChooser20chooseWarpProcessOneEPK18BandwidthTransformPK12SegmentationP9PelScorerPK14SearchParamSetPi, 
                       __ZN11WarpChooser22chooseWarpSetUtteranceEP9Utterance, 
                       __ZN11WarpChooser24chooseWarpUnsetUtteranceEv, __ZN11WarpChooserC1Etj, 
                       __ZN11WarpChooserC2Etj, __ZN11WarpChooserD1Ev, __ZN11WarpChooserD2Ev, 
                       __ZN11WaveDecoder15loadWaveDecoderEP5DFileP14DFileChecksumsb, 
                       __ZN11WaveDecoder18defaultWaveDecoderEv, __ZN11WaveDecoder19loadWaveDecoderTextEP5DFile, 
                       __ZN11WeightAccum10accumulateEjj, __ZN11WeightAccum10initAccumsEj, 
                       __ZN11WeightAccum10scaleAccumEd, __ZN11WeightAccum23addRelevanceAndCopyBackEP6PelMgrPhP15AdapterParamSet, 
                       __ZN11WeightAccum8addAccumERKS_, __ZN11WeightAccum9loadAccumEP9DgnStreamRj, 
                       __ZN11WeightAccum9saveAccumEP9DgnStreamRj, __ZN11WordLattice10splitNodesER12DgnPrimArrayIjEPyS3_S3_S3_, 
                       __ZN11WordLattice11SortInLinksEP12DgnPrimArrayIjE, 
                       __ZN11WordLattice11fixStateIdsEv, __ZN11WordLattice11loadLatticeERK8FileSpect, 
                       __ZN11WordLattice12SortOutLinksEP12DgnPrimArrayIjE, 
                       __ZN11WordLattice14SortNodesCountEP12DgnPrimArrayIjEj, 
                       __ZN11WordLattice15expandLMContextEjjiP12LatticeStatsP29B_LatticeLMRescoringAbortTypePj, 
                       __ZN11WordLattice15getLatticeStatsEPjS0_PyS1_, __ZN11WordLattice16addSegmentationsEPK6ActivePK6PhnMgrPK6PicMgr, 
                       __ZN11WordLattice16rescoreLatticeLMEP14SearchLMScorerP12LatticeStatsb, 
                       __ZN11WordLattice16setRecogStatsStrERK9DgnString, 
                       __ZN11WordLattice18SortNodesByInLinksEP12DgnPrimArrayIjE, 
                       __ZN11WordLattice18computeParseTokensEPK12DgnPrimArrayIjEPK8DgnArrayIS4_I10ParseTokenEE, 
                       __ZN11WordLattice18findOrAddLinkSegIdERK8DgnArrayI11LinkSegmentEP12HashProbeKEVIyS2_S_E, 
                       __ZN11WordLattice18resortLatticeLinksEv, __ZN11WordLattice19SortNodesByOutLinksEP12DgnPrimArrayIjE, 
                       __ZN11WordLattice19fillFromLatticeDataEP11LatticeDataRK8FileSpectb, 
                       __ZN11WordLattice20computePosteriorProbEP23LatticePostProbParamSet, 
                       __ZN11WordLattice21findOrAddLinkSegSeqIdERK8DgnArrayI11LinkSegmentEP12HashProbeKEVIyS2_S_E, 
                       __ZN11WordLattice23invalidatePosteriorProbEv, __ZN11WordLattice24fillFromInputLatticeArcsERK8DgnArrayI15InputLatticeArcEjb, 
                       __ZN11WordLattice26maybePruneToNumUniquePathsEj, 
                       __ZN11WordLattice35computeConfidencePredictorsForLinksERK12DgnPrimArrayIjES3_RK10ScoreArray, 
                       __ZN11WordLattice9SortNodesEP12DgnPrimArrayIjE, 
                       __ZN11WordLatticeC1EPKS_, __ZN11WordLatticeC1EPKS_bbbbbb, 
                       __ZN11WordLatticeC1ERK8DgnArrayI15InputLatticeArcEijjjtbbbbbbbbbbbbbbb, 
                       __ZN11WordLatticeC1Eijjtbbbb, __ZN11WordLatticeC1Ev, 
                       __ZN11WordLatticeC2EPKS_, __ZN11WordLatticeC2EPKS_bbbbbb, 
                       __ZN11WordLatticeC2ERK8DgnArrayI15InputLatticeArcEijjjtbbbbbbbbbbbbbbb, 
                       __ZN11WordLatticeC2Eijjtbbbb, __ZN11WordLatticeC2Ev, 
                       __ZN12BaumWelchNet7newNodeEb, __ZN12BaumWelchNetD0Ev, 
                       __ZN12BaumWelchNetD1Ev, __ZN12BaumWelchNetD2Ev, 
                       __ZN12CDFEstimator10accumulateEP9FrameData, __ZN12CDFEstimator10resetAccumEv, 
                       __ZN12CDFEstimator13updateSigProcEP7SigProc, __ZN12CDFEstimator14scaleHistogramERK12DgnPrimArrayIjEjPS1_, 
                       __ZN12CDFEstimator20scaleAccumHistogramsEv, __ZN12CDFEstimator21adaptChannelEstimatesEP9FrameDatab, 
                       __ZN12CDFEstimator24updateEstimatedHistogramEP12DgnPrimArrayIjERKS1_j, 
                       __ZN12CDFEstimator25updateEstimatedHistogramsEv, 
                       __ZN12CDFEstimator7makeCDFERK12DgnPrimArrayIjEPS1_, 
                       __ZN12CDFEstimatorC2EPK7SigProcPK15ChannelParamSet, 
                       __ZN12CMSEstimator10accumulateEP9FrameDatabyy, __ZN12CMSEstimator10reestimateEbb, 
                       __ZN12CMSEstimator12processFrameEP9FrameDataP9DgnIArrayIS1_E, 
                       __ZN12CMSEstimator13updateSigProcEP7SigProc, __ZN12CMSEstimator14accumSmoothingEbb, 
                       __ZN12CMSEstimator18copyEstimatorStateEv, __ZN12CMSEstimator20initChannelEstimatesEPK12DgnPrimArrayIhES3_, 
                       __ZN12CMSEstimator21adaptChannelEstimatesEP9FrameDatab, 
                       __ZN12CMSEstimator26loadEstimatorStateFromCopyEv, 
                       __ZN12CMSEstimator38dequeueAllAndApplyChannelNormalizationEP9DgnIArrayIP9FrameDataE, 
                       __ZN12CMSEstimatorC1EPK7SigProcPK15ChannelParamSet, 
                       __ZN12CMSEstimatorC2EPK7SigProcPK15ChannelParamSet, 
                       __ZN12CVNEstimator10accumulateEP9FrameData, __ZN12CVNEstimator10reestimateEbb, 
                       __ZN12CVNEstimator13updateSigProcEP7SigProc, __ZN12CVNEstimator20initChannelEstimatesEPK12DgnPrimArrayIhES3_S3_S3_S3_, 
                       __ZN12CVNEstimator21adaptChannelEstimatesEP9FrameDatab, 
                       __ZN12CVNEstimatorC1EPK7SigProcPK15ChannelParamSet, 
                       __ZN12CVNEstimatorC2EPK7SigProcPK15ChannelParamSet, 
                       __ZN12CWIDProbPair15compareElementsEPvPKvS2_, __ZN12CWIDProbPair16makeAcousticOnlyEv, 
                       __ZN12CWIDProbPair19makeNonAcousticOnlyEv, __ZN12CWIDProbPair8addTimesEPK8DgnArrayI16StartEndTimePairE, 
                       __ZN12CWIDProbPair8addTimesEii, __ZN12CWIDProbPairC1ERKS_, 
                       __ZN12CWIDProbPairC1Ejjbddd, __ZN12CWIDProbPairC1EjjbdddPK8DgnArrayI16StartEndTimePairE, 
                       __ZN12CWIDProbPairC1Ejjbdddii, __ZN12CWIDProbPairC1Ev, 
                       __ZN12CWIDProbPairC2ERKS_, __ZN12CWIDProbPairC2Ejjbddd, 
                       __ZN12CWIDProbPairC2EjjbdddPK8DgnArrayI16StartEndTimePairE, 
                       __ZN12CWIDProbPairC2Ejjbdddii, __ZN12CWIDProbPairC2Ev, 
                       __ZN12CWIDProbPairD1Ev, __ZN12CWIDProbPairD2Ev, 
                       __ZN12CWIDProbPairaSERKS_, __ZN12ChannelStats13setChannelDevERK12DgnPrimArrayIhE, 
                       __ZN12ChannelStats14setSpeechLevelEt, __ZN12ChannelStats15setChannelMeansERK12DgnPrimArrayIhE, 
                       __ZN12ChannelStats16loadChannelStatsEP5DFileRK17SigProcDescriptorP14DFileChecksumsb, 
                       __ZN12ChannelStats16resetSpeechLevelEv, __ZN12ChannelStats18setBackgroundLevelEt, 
                       __ZN12ChannelStats18setWarpChoiceIndexEi, __ZN12ChannelStats20resetBackgroundLevelEv, 
                       __ZN12ChannelStats23setChannelCDFHistogramsERK8DgnArrayI12DgnPrimArrayIjEE, 
                       __ZN12ChannelStats7loadCSTEP5DFileRK17SigProcDescriptor, 
                       __ZN12ChannelStats8setNParsEj, __ZN12ChannelStatsC1EPK13ChanStatsSpec, 
                       __ZN12ChannelStatsC2EPK13ChanStatsSpec, __ZN12ChannelStatsD1Ev, 
                       __ZN12ChannelStatsD2Ev, __ZN12ClsDecimator12doDecimationERK12DgnPrimArrayIsERS1_, 
                       __ZN12ClsDecimator15setCoefficientsEv, __ZN12ClsDecimatorC1Ej, 
                       __ZN12ClsDecimatorC2Ej, __ZN12ClsDecimatorD0Ev, 
                       __ZN12ClsDecimatorD1Ev, __ZN12ClsDecimatorD2Ev, 
                       __ZN12CombineTable16initCombineTableEd, __ZN12DSMMappedPtr5remapEibPb, 
                       __ZN12DSMOperation18createDSMOperationERK9DgnString, 
                       __ZN12DgnExceptionC1EjPKciS1_iS1_, __ZN12DgnExceptionC2EjPKciS1_iS1_, 
                       __ZN12DgnExceptionD0Ev, __ZN12DgnExceptionD1Ev, 
                       __ZN12DgnExceptionD2Ev, __ZN12DgnThreadMgr10anyRunningEv, 
                       __ZN12DgnThreadMgr10clearTraceEv, __ZN12DgnThreadMgr10findThreadEP17_opaque_pthread_t, 
                       __ZN12DgnThreadMgr10startTraceEv, __ZN12DgnThreadMgr12removeThreadEj, 
                       __ZN12DgnThreadMgr12smpThreadMgrE, __ZN12DgnThreadMgr14broadcastErrorEv, 
                       __ZN12DgnThreadMgr14getNewThreadIdEv, __ZN12DgnThreadMgr16startupThreadMgrEv, 
                       __ZN12DgnThreadMgr17endFileLoadOrSaveEv, __ZN12DgnThreadMgr17shutdownThreadMgrEv, 
                       __ZN12DgnThreadMgr19beginFileLoadOrSaveEv, __ZN12DgnThreadMgr19terminateAllThreadsEb, 
                       __ZN12DgnThreadMgr20clearCurrentThreadIdEv, __ZN12DgnThreadMgr22endClientCallbackEventEv, 
                       __ZN12DgnThreadMgr24startClientCallbackEventEb, 
                       __ZN12DgnThreadMgr7smTlsIDE, __ZN12DgnThreadMgr9addThreadEP15DgnThreadClient, 
                       __ZN12DgnThreadMgr9setThreadEjP15DgnThreadClient, 
                       __ZN12DgnThreadMgr9stopTraceEv, __ZN12DgnThreadMgrC1Ev, 
                       __ZN12DgnThreadMgrC2Ev, __ZN12DgnThreadMgrD1Ev, 
                       __ZN12DgnThreadMgrD2Ev, __ZN12EnvHolderMgr12getEnvHolderEj, 
                       __ZN12EnvHolderMgr12newEnvHolderEv, __ZN12EnvHolderMgr13loadEnvHolderEP5DFile21B_EnvHolderSourceType, 
                       __ZN12EnvHolderMgr13saveEnvHolderEjRK8FileSpecP16B_SaveResultCode24B_SaveOverrideFormatTypeb, 
                       __ZN12EnvHolderMgr15deleteEnvHolderEj, __ZN12EnvHolderMgr15smpEnvHolderMgrE, 
                       __ZN12EnvHolderMgr19startupEnvHolderMgrEv, __ZN12EnvHolderMgr20shutdownEnvHolderMgrEv, 
                       __ZN12EnvHolderMgrC1Ev, __ZN12EnvHolderMgrC2Ev, 
                       __ZN12EnvHolderMgrD1Ev, __ZN12EnvHolderMgrD2Ev, 
                       __ZN12FeatureFrame10getFeatureEv, __ZN12FeatureFrame10setFeatureERK12DgnPrimArrayIdE, 
                       __ZN12FeatureFrame10setFeatureERK12DgnPrimArrayIhE, 
                       __ZN12FeatureFrame10setFftDataERK12DgnPrimArrayIdE, 
                       __ZN12FeatureFrame13getFltFeatureEv, __ZN12FeatureFrame14setFrameEnergyEs, 
                       __ZN12FeatureFrame15appendToFeatureERK12DgnPrimArrayIdE, 
                       __ZN12FeatureFrame15setMelFBankDataERK12DgnPrimArrayIdEj, 
                       __ZN12FeatureFrame18preAllocateFeatureEj, __ZN12FeatureFrame18scaleFeatureToUns8ERK12DgnPrimArrayIiES3_RK14BinaryIntScale, 
                       __ZN12FeatureFrame19unscaleFeatureToFltERK12DgnPrimArrayIiES3_RK14BinaryIntScale, 
                       __ZN12FeatureFrame21preAllocateFltFeatureEj, __ZN12FeatureFrame29setEnergyFromFeatureIndexZeroEv, 
                       __ZN12FeatureFrame4copyEPKS_, __ZN12FeatureFrameC1EPKS_, 
                       __ZN12FeatureFrameC1Ev, __ZN12FeatureFrameC2EPKS_, 
                       __ZN12FeatureFrameC2Ev, __ZN12FeatureFrameD1Ev, 
                       __ZN12FeatureFrameD2Ev, __ZN12HScorerLevel16computeHierarchyEPK12DgnPrimArrayIhEPy, 
                       __ZN12HScorerLevel20resetHierarchyValuesEv, __ZN12HScorerLevel35getHierarchyComponentScorePackedIntEPK12DgnPrimArrayIhEj, 
                       __ZN12HScorerLevel4initEPK6PelMgrjbPK7HScorerjj, 
                       __ZN12HScorerLevelC1Ev, __ZN12HScorerLevelC2Ev, 
                       __ZN12HScorerLevelD1Ev, __ZN12HScorerLevelD2Ev, 
                       __ZN12IntParamSpecC1EPKcS1_S1_PK19IntParamHistoryItem, 
                       __ZN12IntParamSpecC2EPKcS1_S1_PK19IntParamHistoryItem, 
                       __ZN12IntParamSpecD0Ev, __ZN12IntParamSpecD1Ev, 
                       __ZN12IntParamSpecD2Ev, __ZN12LatticeStats10resetStatsEv, 
                       __ZN12LatticeStatsC1ERKS_, __ZN12LatticeStatsC2ERKS_, 
                       __ZN12LatticeStatsaSERKS_, __ZN12LatticeStatsmIERKS_, 
                       __ZN12MergedActive16initMergedActiveEPK10HistoryMgrbb, 
                       __ZN12Nist1AHeader11setIntValueEPKci, __ZN12Nist1AHeader14setDoubleValueEPKcd, 
                       __ZN12Nist1AHeader14setStringValueEPKcS1_, __ZN12Nist1AHeader15compareElementsEPvPKvS2_, 
                       __ZN12Nist1AHeader15findHeaderIndexEPKc, __ZN12Nist1AHeader4readEP9DgnStreamPj, 
                       __ZN12Nist1AHeader5resetEv, __ZN12Nist1AHeader5writeEP9DgnStream, 
                       __ZN12Nist1AHeaderC1Ev, __ZN12Nist1AHeaderC2Ev, 
                       __ZN12Nist1AHeaderD1Ev, __ZN12Nist1AHeaderD2Ev, 
                       __ZN12OutLinkICmp115compareElementsEPvPKvS2_, __ZN12ParamSpecMgr10getParamIdE14B_ParamSetTypePKc, 
                       __ZN12ParamSpecMgr10sortParamsEv, __ZN12ParamSpecMgr15compareElementsEPvPKvS2_, 
                       __ZN12ParamSpecMgr19ParamGetDefault_intEtjj, __ZN12ParamSpecMgr20ParamGetDefault_boolEtjj, 
                       __ZN12ParamSpecMgr20ParamGetDefault_enumEt, __ZN12ParamSpecMgr20smpParamSpecMgrArrayE, 
                       __ZN12ParamSpecMgr20startupParamSpecMgrsEv, __ZN12ParamSpecMgr21shutdownParamSpecMgrsEv, 
                       __ZN12ParamSpecMgr22ParamGetDefault_doubleEtjj, 
                       __ZN12ParamSpecMgr22ParamGetDefault_stringEtjj, 
                       __ZN12ParamSpecMgr28ParamGetDefault_enumAsStringEtjj, 
                       __ZN12ParamSpecMgr8addParamEP9ParamSpec, __ZN12ParamSpecMgrC1Ev, 
                       __ZN12ParamSpecMgrC2Ev, __ZN12ParamSpecMgrD1Ev, 
                       __ZN12ParamSpecMgrD2Ev, __ZN12PitchTracker14allocateArraysEv, 
                       __ZN12PitchTracker14doCorrelationsEjR12DgnPrimArrayIdEii, 
                       __ZN12PitchTracker14trim60CycleHumEv, __ZN12PitchTracker15installWaveformERK12DgnPrimArrayIsE, 
                       __ZN12PitchTracker16computeRmsRatiosERK12DgnPrimArrayIsE, 
                       __ZN12PitchTracker18refineCorrelationsERK12DgnPrimArrayIsEjR14ClsCandPeakSetjj, 
                       __ZN12PitchTracker19computeCorrelationsERK12DgnPrimArrayIsE, 
                       __ZN12PitchTracker19computeStationarityERK12DgnPrimArrayIsE, 
                       __ZN12PitchTracker20doDynamicProgrammingEv, __ZN12PitchTracker21scoreVoicedTransitionEdd, 
                       __ZN12PitchTracker24computePerFramePitchInfoER12DgnPrimArrayIsEP8DgnArrayI9PitchInfoE, 
                       __ZN12PitchTracker6vertexEdddRdS0_, __ZN12PitchTracker9findPeaksER12DgnPrimArrayIdER14ClsCandPeakSet, 
                       __ZN12PitchTrackerC1E18B_PitchTrackerTypejj, __ZN12PitchTrackerC2E18B_PitchTrackerTypejj, 
                       __ZN12PitchTrackerD1Ev, __ZN12PitchTrackerD2Ev, 
                       __ZN12QuadgramData10allocQuad1Ejt, __ZN12QuadgramData10allocQuad2Ejt, 
                       __ZN12QuadgramData10loadBinaryEP9DgnStreamRj, __ZN12QuadgramData11allocLoadedEjRK12DgnPrimArrayItE, 
                       __ZN12QuadgramData16copyQuadgramDataERKS_, __ZN12QuadgramData16loadBinarySharedEP18DgnSharedMemStreambRj, 
                       __ZN12QuadgramData16saveBinarySharedEP18DgnSharedMemStreambRj, 
                       __ZN12QuadgramData18fillQuadgramRecordEjjRK12DgnPrimArrayItES3_RKS0_IhE, 
                       __ZN12QuadgramData21configureQuadgramDataEbjPKsjPKt, 
                       __ZN12QuadgramData23fillQuad2BackoffWeightsEjRK12DgnPrimArrayItERKS0_IsERKS0_IhE, 
                       __ZN12QuadgramData28addQuadgramScoreQuantizationEht, 
                       __ZN12QuadgramData29preAllocateStaticQuadgramDataEjj, 
                       __ZN12QuadgramData30preAllocateDynamicQuadgramDataEjj, 
                       __ZN12QuadgramData36addQuadgramBackoffWeightQuantizationEhs, 
                       __ZN12QuadgramData7compactEv, __ZN12QuadgramData8clearAllEv, 
                       __ZN12QuadgramDataC1Ev, __ZN12QuadgramDataC2Ev, 
                       __ZN12QuadgramDataD1Ev, __ZN12QuadgramDataD2Ev, 
                       __ZN12RecentBuffer10setWeightsEv, __ZN12RecentBuffer11addToRecentERK12DgnPrimArrayIjEj, 
                       __ZN12RecentBuffer11clearRecentEv, __ZN12RecentBuffer12deleteWordIdEjPbS0_, 
                       __ZN12RecentBuffer14addWordCountBiEjjb, __ZN12RecentBuffer14setCommonWordsEPK12DgnPrimArrayIjE, 
                       __ZN12RecentBuffer15addWordCountUniEjb, __ZN12RecentBuffer16initRecentBufferEv, 
                       __ZN12RecentBuffer16loadRecentBufferEP5DFileP14DFileChecksumsbb, 
                       __ZN12RecentBuffer19addToRecentInternalERK12DgnPrimArrayIjEj, 
                       __ZN12RecentBuffer20loadRecentBufferTextEP5DFile, 
                       __ZN12RecentBuffer21computeRemainderScoreERK12DgnPrimArrayIjERK13LMContextParsP13LMContextData, 
                       __ZN12RecentBuffer22computeRemainderScoresEv, __ZN12RecentBuffer22loadRecentBufferBinaryEP5DFileP14DFileChecksumsb, 
                       __ZN12RecentBuffer26computeAppearancesToScoresEj, 
                       __ZN12RecentBuffer28initHeadClonesAndCommonWordsEv, 
                       __ZN12RecentBuffer31recomputeRecentBufferRemaindersEv, 
                       __ZN12RecentBuffer45recomputeRecentBufferHeadClonesAndCommonWordsEv, 
                       __ZN12RecentBuffer9addWordIdEj, __ZN12RecentBufferC1EjPK8WordListP13LanguageModelS4_, 
                       __ZN12RecentBufferC2EjPK8WordListP13LanguageModelS4_, 
                       __ZN12RecentBufferD1Ev, __ZN12RecentBufferD2Ev, 
                       __ZN12RecogContext14setLeftContextERK12DgnPrimArrayIjE, 
                       __ZN12RecogContext16setPrefPelScoresEPK17PelScoreCacheData, 
                       __ZN12RecogContext17setRecogPelScoresEPK17PelScoreCacheData, 
                       __ZN12RecogContext17setWordStartTimesEPK12DgnPrimArrayIiE, 
                       __ZN12RecogContext20setAdaptationWeightsEPK12DgnPrimArrayIdE, 
                       __ZN12RecogContext21setBandwidthTransformEPK18BandwidthTransform, 
                       __ZN12RecogContext23setCorrectTranscriptionEPK8DgnArrayI12DgnPrimArrayIjEE, 
                       __ZN12RecogContext25setPrefBandwidthTransformEPK18BandwidthTransform, 
                       __ZN12RecogContextC1ERKS_, __ZN12RecogContextC1Ev, 
                       __ZN12RecogContextC2ERKS_, __ZN12RecogContextC2Ev, 
                       __ZN12RecogContextD1Ev, __ZN12RecogContextD2Ev, 
                       __ZN12RecogContextaSERKS_, __ZN12RecogGrammar10killStatesEv, 
                       __ZN12RecogGrammar11getNewStateEv, __ZN12RecogGrammar12unlinkStatesEv, 
                       __ZN12RecogGrammar16setTransitionsToEPK9DgnIArrayIPS_E, 
                       __ZN12RecogGrammar23newSequenceRecogGrammarEt, __ZN12RecogGrammar24newAlternateRecogGrammarEt, 
                       __ZN12RecogGrammar24newPronGuessRecogGrammarEPK13PronGeneratorbRK9DgnString, 
                       __ZN12RecogGrammar26setupEndOfUtteranceGrammarEv, 
                       __ZN12RecogGrammar29newEndOfUtteranceRecogGrammarEt, 
                       __ZN12RecogGrammar31newAlternateWordIdsRecogGrammarEtPK12DgnPrimArrayIjE, 
                       __ZN12RecogGrammar3addEPS_, __ZN12RecogGrammar8finalizeEv, 
                       __ZN12RecogGrammarC1Et, __ZN12RecogGrammarC2Et, 
                       __ZN12RecogGrammarD0Ev, __ZN12RecogGrammarD1Ev, 
                       __ZN12RecogGrammarD2Ev, __ZN12SeederStruct16updateSeederListEiPK8BaseNode, 
                       __ZN12Segmentation13addPelSegmentEP10PelSegment, 
                       __ZN12Segmentation16makeSegmentationEv, __ZN12SegmentationC1ERKS_, 
                       __ZN12SegmentationC2ERKS_, __ZN12SnrEstimator11estimateSnrERK9Utterance, 
                       __ZN12SnrEstimator12hasConvergedEdd, __ZN12SnrEstimator15refreshEstimateERK9Utterance, 
                       __ZN12SnrEstimator16accumFBankValuesERK9Utterancejdd, 
                       __ZN12SnrEstimator19estimateTwoGaussianERK9Utterance, 
                       __ZN12SnrEstimatorC1Ev, __ZN12SnrEstimatorC2Ev, 
                       __ZN12SortInt16Cmp15compareElementsEPvPKvS2_, __ZN12TAlignResultC1Ev, 
                       __ZN12TAlignResultC2Ev, __ZN12TArrayObjectC1EPK11TFileObjectP8TLexiconP10TAllocator, 
                       __ZN12TArrayObjectC2EPK11TFileObjectP8TLexiconP10TAllocator, 
                       __ZN12TChartSeeder13makeTerminalsEmRNSt3__16vectorIPK7TSymbolNS0_9allocatorIS4_EEEERNS1_ImNS5_ImEEEERNS1_IPKvNS5_ISD_EEEER10TAllocator, 
                       __ZN12TChartSeederC1EPKcP10TSegmenterPK8TGrammarm, 
                       __ZN12TChartSeederC2EPKcP10TSegmenterPK8TGrammarm, 
                       __ZN12TCliticsProc10freeMemoryEv, __ZN12TCliticsProc13applyInternalERKNSt3__16vectorIPKwNS0_9allocatorIS3_EEEEPK8TLatticeRNS1_IP29TLatticeConstructionTransDataNS4_ISD_EEEERm, 
                       __ZN12TCliticsProc4saveEP12TDataManagerS1_, __ZN12TCliticsProc5applyERKNSt3__16vectorIPK5TWordNS0_9allocatorIS4_EEEEmmmRNS1_INS0_4pairIS4_mEENS5_ISB_EEEE, 
                       __ZN12TCliticsProc5applyERKNSt3__16vectorIPKwNS0_9allocatorIS3_EEEEPK8TLatticem, 
                       __ZN12TCliticsProcC1EP8TLexiconbPKw, __ZN12TCliticsProcC1EPK12TDataManagerPS0_P8TLexicon, 
                       __ZN12TCliticsProcC2EP8TLexiconbPKw, __ZN12TCliticsProcC2EPK12TDataManagerPS0_P8TLexicon, 
                       __ZN12TCliticsProcD0Ev, __ZN12TCliticsProcD1Ev, 
                       __ZN12TCliticsProcD2Ev, __ZN12TDataManager10setBoolVarEPKcb, 
                       __ZN12TDataManager6setVarEPKcS1_m, __ZN12TDataManager9setIntVarEPKci, 
                       __ZN12TDigitObjectC1EPK11TFileObjectP8TLexiconP10TAllocator, 
                       __ZN12TDigitObjectC2EPK11TFileObjectP8TLexiconP10TAllocator, 
                       __ZN12TInputStream10readHeaderEv, __ZN12TInputStream11getNextLineER7TBufferIcE, 
                       __ZN12TInputStream11getNextLineER7TBufferIwE, __ZN12TMemoryBlock10freeMemoryEv, 
                       __ZN12TMemoryBlock11setChecksumEv, __ZN12TMemoryBlock6unlinkEv, 
                       __ZN12TMemoryBlockC1EPKcmm, __ZN12TMemoryBlockC2EPKcmm, 
                       __ZN12TOutputModelC1EP12TDataManagerS1_PKcPKS0_, 
                       __ZN12TOutputModelC2EP12TDataManagerS1_PKcPKS0_, 
                       __ZN12TProbAligner10doBestMoveEP11TAlignBlockRNSt3__16vectorIS1_NS2_9allocatorIS1_EEEE, 
                       __ZN12TProbAligner10makeResultER11TAlignBlockR12TAlignResult, 
                       __ZN12TProbAligner14incrementCountEmm, __ZN12TProbAligner14recomputeCostsEv, 
                       __ZN12TProbAligner5alignENSt3__111__wrap_iterIPKmEES4_S4_S4_R12TAlignResult, 
                       __ZN12TProbAligner5alignERK4TFsaS2_R12TAlignResult, 
                       __ZN12TProbAligner7setMapsERKNSt3__16vectorImNS0_9allocatorImEEEE, 
                       __ZN12TProbAligner8setCostsERKNSt3__16vectorI10TAlignCostNS0_9allocatorIS2_EEEEb, 
                       __ZN12TProbAligner9copyBlockER12TAlignResultmmR11TAlignBlockRKNSt3__16vectorIPS2_NS4_9allocatorIS6_EEEE, 
                       __ZN12TProbAlignerC1Em, __ZN12TProbAlignerC2Em, 
                       __ZN12TProbAlignerD1Ev, __ZN12TProbAlignerD2Ev, 
                       __ZN12TRomanObjectC1EPK11TFileObjectP8TLexiconP10TAllocator, 
                       __ZN12TRomanObjectC2EPK11TFileObjectP8TLexiconP10TAllocator, 
                       __ZN12TStringParam11setOriginalEmPKw, __ZN12TStringParam13setAllowablesERKNSt3__16vectorINS0_12basic_stringIwNS0_11char_traitsIwEENS0_9allocatorIwEEEENS5_IS7_EEEEPSA_SC_, 
                       __ZN12TStringParam3setEmPKw, __ZN12TStringParamC1EPKw, 
                       __ZN12TStringParamC1EPKwS1_mS1_S1_S1_, __ZN12TStringParamC2EPKw, 
                       __ZN12TStringParamC2EPKwS1_mS1_S1_S1_, __ZN12TraceNodeNet12attachInPortEhP4Node, 
                       __ZN12TraceNodeNet14deleteOutPortsEv, __ZN12TraceNodeNet16seedEpsilonNodesEi, 
                       __ZN12TraceNodeNet17configureOutPortsEi, __ZN12TraceNodeNet20thresholdNetInternalEii, 
                       __ZN12TraceNodeNet21passScoresToOutPorts2Eii, __ZN12TraceNodeNet24appendCalculatedSegmentsEPK8BaseNodeiP12DgnIOwnArrayIP14PelSegmentDataE, 
                       __ZN12TraceNodeNet7newNodeEb, __ZN12TraceNodeNet9scoreNodeEP11NodeNetNodePK8BaseNodeiiiiPbiiPjP6HmmNet, 
                       __ZN12TraceNodeNetD0Ev, __ZN12TraceNodeNetD1Ev, 
                       __ZN12TraceNodeNetD2Ev, __ZN12TreePhoneRec19setSingleEndingWordEjj, 
                       __ZN12TreePhoneRec22setMultipleEndingWordsEjj, __ZN12VocGroupInfo15setVocChecksumsEPK14DFileChecksums, 
                       __ZN12VocGroupInfo16loadVocGroupInfoEP5DFile, __ZN12WaveAdjuster12processFrameEP9FrameDataP9DgnIArrayIS1_E, 
                       __ZN12WaveAdjuster18doWaveMeasurementsEP8WaveData, 
                       __ZN12WaveAdjusterC1Ei, __ZN12WaveAdjusterC2Ei, 
                       __ZN12WaveMeasuresC1EP8WaveDataj, __ZN12WaveMeasuresC2EP8WaveDataj, 
                       __ZN13ActiveWordMgr13newActiveWordERK6CWIDACi18B_NodeSkippingTypeb, 
                       __ZN13ActiveWordMgr16removeActiveWordEP10ActiveWord, 
                       __ZN13ActiveWordMgr20newActiveWordSilenceERK6CWIDAC, 
                       __ZN13ActiveWordMgr24newActiveWordNonAcousticERK6CWIDAC, 
                       __ZN13ActiveWordMgr25endActiveWordMgrSyncRecogEv, 
                       __ZN13ActiveWordMgr27beginActiveWordMgrSyncRecogEPK12DgnPrimArrayIsEP13PelScoreCachejj, 
                       __ZN13ActiveWordMgrC1E11B_RecogMode9Direction9B_NetTypePK6PicMgr, 
                       __ZN13ActiveWordMgrC2E11B_RecogMode9Direction9B_NetTypePK6PicMgr, 
                       __ZN13ActiveWordMgrD1Ev, __ZN13ActiveWordMgrD2Ev, 
                       __ZN13BackTraceItem11computeHashERKS_, __ZN13BackTraceItemC1ERK6CWIDACiiiiiijjjb, 
                       __ZN13BackTraceItemC1ERKS_, __ZN13BackTraceItemC2ERK6CWIDACiiiiiijjjb, 
                       __ZN13BackTraceItemC2ERKS_, __ZN13BackTraceItemD1Ev, 
                       __ZN13BackTraceItemD2Ev, __ZN13BoolParamSpecC1EPKcS1_S1_PK20BoolParamHistoryItem, 
                       __ZN13BoolParamSpecC2EPKcS1_S1_PK20BoolParamHistoryItem, 
                       __ZN13BoolParamSpecD0Ev, __ZN13BoolParamSpecD1Ev, 
                       __ZN13BoolParamSpecD2Ev, __ZN13BtNBestResult4initEPK12DgnIdFactoryI19NetNBestTraceNoTimeIjELj1024EEPK10HistoryMgr, 
                       __ZN13BtNBestResult7prepareEPK21AcousticContextScoresRK6CWIDACi, 
                       __ZN13CWIDCrumbBank11mergeCrumbsEv, __ZN13CWIDCrumbBank13endCrumbFrameEii, 
                       __ZN13CWIDCrumbBank13getCrumbFrameEi, __ZN13CWIDCrumbBank13setFirstFrameE9Directioni, 
                       __ZN13CWIDCrumbBank15addFinalSilHABSEiRK6CWIDACji, 
                       __ZN13CWIDCrumbBank16ensureCrumbFrameEi, __ZN13CWIDCrumbBank17setBestAccumScoreEii, 
                       __ZN13CWIDCrumbBank18addCrumbWACSRecordEiRK6CWIDACiRK18HistoryAndBigScoreRK8DgnArrayIS3_E, 
                       __ZN13CWIDCrumbBank18updateCrumbHistoryEj, __ZN13CWIDCrumbBank19setTopChoiceHistoryEj, 
                       __ZN13CWIDCrumbBank22addCrumbWACSRecordEFstEiRK6CWIDACiRK18HistoryAndBigScoreRK8DgnArrayIS3_Et, 
                       __ZN13CWIDCrumbBank24addZeroFrameFinalSilHABSEiRK6CWIDACji, 
                       __ZN13CWIDCrumbBank30setTopChoiceHistoryExtendToEndEji, 
                       __ZN13CWIDCrumbBank35addSyntheticFinalSilCrumbWACSRecordEijPi, 
                       __ZN13CWIDCrumbBank4copyERKS_, __ZN13CWIDCrumbBankC1EPK10HistoryMgr, 
                       __ZN13CWIDCrumbBankC2EPK10HistoryMgr, __ZN13CWIDCrumbWACS10mergeCrumbERKS_PK10HistoryMgr, 
                       __ZN13CWIDCrumbWACS12getHistScoreEj, __ZN13CWIDCrumbWACS15compareElementsEPvPKvS2_, 
                       __ZN13CWIDCrumbWACS18updateCrumbHistoryEjPK10HistoryMgr, 
                       __ZN13CWIDCrumbWACS30connectToSyntheticFinalSilenceEj, 
                       __ZN13CWIDCrumbWACSC1ERK6CWIDACsRK18HistoryAndBigScoreRK8DgnArrayIS3_E, 
                       __ZN13CWIDCrumbWACSC2ERK6CWIDACsRK18HistoryAndBigScoreRK8DgnArrayIS3_E, 
                       __ZN13CWIDCrumbWACSD1Ev, __ZN13CWIDCrumbWACSD2Ev, 
                       __ZN13ChanStatsSpec10readObjectEP9DgnStreamRj, __ZN13ChanStatsSpecC1Ev, 
                       __ZN13ChanStatsSpecC2Ev, __ZN13ChanStatsSpecD1Ev, 
                       __ZN13ChanStatsSpecD2Ev, __ZN13ChanStatsSpecaSERKS_, 
                       __ZN13CompareGenIds15compareElementsEPvPKvS2_, __ZN13CompareVocIds15compareElementsEPvPKvS2_, 
                       __ZN13DgnFileStream10writeBytesEPKcj, __ZN13DgnFileStream11peekForCharEv, 
                       __ZN13DgnFileStream11seekFromBegEy, __ZN13DgnFileStream12readWithModeEPcj19B_DgnStreamReadMode, 
                       __ZN13DgnFileStream15fillInputBufferEv, __ZN13DgnFileStream5flushEv, 
                       __ZN13DgnFileStream9basicReadEPcj, __ZN13DgnFileStream9seekToEndEv, 
                       __ZN13DgnFileStreamC1E19B_DgnStreamOpenMode19B_DgnStreamFileTypeRK8FileSpec, 
                       __ZN13DgnFileStreamC2E19B_DgnStreamOpenMode19B_DgnStreamFileTypeRK8FileSpec, 
                       __ZN13DgnFileStreamD0Ev, __ZN13DgnFileStreamD1Ev, 
                       __ZN13DgnFileStreamD2Ev, __ZN13DgnPrinterMgr13addLinePrefixEPcjPj, 
                       __ZN13DgnPrinterMgr16setLogLinePrefixEPKc, __ZN13DgnPrinterMgr16smpDgnPrinterMgrE, 
                       __ZN13DgnPrinterMgr17getCurrentPrinterEv, __ZN13DgnPrinterMgr19setAsCurrentPrinterEP10DgnPrinter, 
                       __ZN13DgnPrinterMgr20startupDgnPrinterMgrEv, __ZN13DgnPrinterMgr21getDeltasAndResetLastEPyS0_S0_S0_, 
                       __ZN13DgnPrinterMgr21shutdownDgnPrinterMgrEv, __ZN13DgnPrinterMgr24maybeSetTimeStampingBaseEy, 
                       __ZN13DgnPrinterMgr24setShowLogLineTimeStampsEb, 
                       __ZN13DgnPrinterMgrC1Ev, __ZN13DgnPrinterMgrC2Ev, 
                       __ZN13DgnPrinterMgrD1Ev, __ZN13DgnPrinterMgrD2Ev, 
                       __ZN13DgnSharedLock6createEPKc, __ZN13DgnSharedLock7acquireEj, 
                       __ZN13EnumParamSpecC1EPKcS1_S1_PK20EnumParamHistoryItem, 
                       __ZN13EnumParamSpecC2EPKcS1_S1_PK20EnumParamHistoryItem, 
                       __ZN13EnumParamSpecD0Ev, __ZN13EnumParamSpecD1Ev, 
                       __ZN13EnumParamSpecD2Ev, __ZN13FeatureCopier12processFrameEP9FrameDataP9DgnIArrayIS1_E, 
                       __ZN13FeatureCopierC1Ejj, __ZN13FeatureCopierC2Ejj, 
                       __ZN13FeatureFilter11applyFilterEP9DgnIArrayIP9FrameDataE, 
                       __ZN13FeatureFilter12processFrameEP9FrameDataP9DgnIArrayIS1_E, 
                       __ZN13FeatureFilter13filterFeatureEv, __ZN13FeatureFilter5resetEv, 
                       __ZN13FeatureFilterC1ERK17FeatureFilterSpec, __ZN13FeatureFilterC2ERK17FeatureFilterSpec, 
                       __ZN13FeatureFilterD0Ev, __ZN13FeatureFilterD1Ev, 
                       __ZN13FeatureFilterD2Ev, __ZN13FeatureScaler12processFrameEP9FrameDataP9DgnIArrayIS1_E, 
                       __ZN13FeatureScalerC1ERK16FeatureScaleSpec, __ZN13FeatureScalerC2ERK16FeatureScaleSpec, 
                       __ZN13FstSearchHash10seedTheoryEiijP11SearchStats, 
                       __ZN13FstSearchHash13advanceDeltasEiiP11SearchStatsb, 
                       __ZN13FstSearchHash13collectTracesEv, __ZN13FstSearchHash14propagateNullsEiiP11SearchStats, 
                       __ZN13FstSearchHash15seedFromMiniFstERi, __ZN13FstSearchHash16buildWordLatticeEP11WordLatticeR15DgnPrimFixArrayIhERS2_IbEb, 
                       __ZN13FstSearchHash16getBestExitScoreEv, __ZN13FstSearchHash17maybeInitDurModelEPK6PicMgrj, 
                       __ZN13FstSearchHash18createLatticeNodesER15DgnPrimFixArrayIiER12DgnPrimArrayIjEP11WordLatticeR8DgnArrayIS3_IiEERS0_IhERS0_IbE, 
                       __ZN13FstSearchHash18endTopRecSyncRecogEv, __ZN13FstSearchHash20beginTopRecSyncRecogEP7VirtMap, 
                       __ZN13FstSearchHash20maybeGeneratePelMapsEPK6PicMgr, 
                       __ZN13FstSearchHash21applyCutoffOnEmittingEjPi, 
                       __ZN13FstSearchHash22endTopRecPassSyncRecogEv, __ZN13FstSearchHash24beginTopRecPassSyncRecogEP9PelScorerPK8ArcGraph, 
                       __ZN13FstSearchHash29generateTraceTokensFromTracesEv, 
                       __ZN13FstSearchHash4viteEiiP11SearchStatsb, __ZN13FstSearchHash5resetEv, 
                       __ZN13FstSearchHash7doFrameEiiP11SearchStatsb, __ZN13FstSearchHashC1ERKiS1_, 
                       __ZN13FstSearchHashC2ERKiS1_, __ZN13FstSearchLeaf10seedTheoryEiijP11SearchStats, 
                       __ZN13FstSearchLeaf13advanceDeltasEiiP11SearchStatsb, 
                       __ZN13FstSearchLeaf13collectTracesEv, __ZN13FstSearchLeaf14propagateNullsEiiP11SearchStats, 
                       __ZN13FstSearchLeaf15seedFromMiniFstERi, __ZN13FstSearchLeaf16buildWordLatticeEP11WordLatticeR15DgnPrimFixArrayIhERS2_IbEb, 
                       __ZN13FstSearchLeaf16getBestExitScoreEv, __ZN13FstSearchLeaf17maybeInitDurModelEPK6PicMgrj, 
                       __ZN13FstSearchLeaf18createLatticeNodesER15DgnPrimFixArrayIiER12DgnPrimArrayIjEP11WordLatticeR8DgnArrayIS3_IiEERS0_IhERS0_IbE, 
                       __ZN13FstSearchLeaf18endTopRecSyncRecogEv, __ZN13FstSearchLeaf20beginTopRecSyncRecogEP7VirtMap, 
                       __ZN13FstSearchLeaf20maybeGeneratePelMapsEPK6PicMgr, 
                       __ZN13FstSearchLeaf21applyCutoffOnEmittingEjPi, 
                       __ZN13FstSearchLeaf22endTopRecPassSyncRecogEv, __ZN13FstSearchLeaf24beginTopRecPassSyncRecogEP9PelScorerPK8ArcGraph, 
                       __ZN13FstSearchLeaf29generateTraceTokensFromTracesEv, 
                       __ZN13FstSearchLeaf29makeViterbiDecisionOnEmittingEv, 
                       __ZN13FstSearchLeaf4viteEiiP11SearchStatsb, __ZN13FstSearchLeaf5resetEv, 
                       __ZN13FstSearchLeaf7doFrameEiiP11SearchStatsb, __ZN13FstSearchLeafC1ERKiS1_, 
                       __ZN13FstSearchLeafC2ERKiS1_, __ZN13FwdBwdGPUData12loadArcGraphEPK8ArcGraph, 
                       __ZN13FwdBwdGPUData14unloadArcGraphEPK8ArcGraph, 
                       __ZN13FwdBwdGPUData15releaseTmpSpaceEv, __ZN13FwdBwdGPUData16allocateTmpSpaceEi, 
                       __ZN13FwdBwdGPUDataC1Ev, __ZN13FwdBwdGPUDataC2Ev, 
                       __ZN13FwdBwdGPUDataD1Ev, __ZN13FwdBwdGPUDataD2Ev, 
                       __ZN13HashProbeBaseC1EPKc, __ZN13HashProbeBaseC2EPKc, 
                       __ZN13HashProbeBaseD1Ev, __ZN13HashProbeBaseD2Ev, 
                       __ZN13LanguageModel10finalizeLMEPS_P5DFileP14DFileChecksumsP18DgnSharedMemStreambbjjbP12DgnIOwnArrayIP17WordNgramTemplateEbyx, 
                       __ZN13LanguageModel10setContextERK12DgnPrimArrayIjEPS2_P7LMStatsRK13LMContextParsP13LMContextData, 
                       __ZN13LanguageModel10setWeightsERK12DgnPrimArrayIdE, 
                       __ZN13LanguageModel11addToRecentERK12DgnPrimArrayIjEj, 
                       __ZN13LanguageModel11clearRecentEv, __ZN13LanguageModel12applyWeightsEj, 
                       __ZN13LanguageModel13deleteWeightsEj, __ZN13LanguageModel13saveVocAndSvcEP5DFileS1_P14DFileChecksumsS3_byy30B_LMSBigramTrigramGroupingType25B_LMSQuadgramGroupingType, 
                       __ZN13LanguageModel14deleteTopicLMsERK12DgnPrimArrayIjE, 
                       __ZN13LanguageModel14endLMSyncRecogEbP13LMContextData, 
                       __ZN13LanguageModel14makeNewWeightsERK9DgnString, 
                       __ZN13LanguageModel15addBuildTopicLMERK8DgnArrayI12DgnPrimArrayIjEES5_RKS2_, 
                       __ZN13LanguageModel15clearLoadedDataE19B_LMClearLoadedType, 
                       __ZN13LanguageModel16beginLMSyncRecogEbP13LMContextData, 
                       __ZN13LanguageModel18cleanupWeightsDataEv, __ZN13LanguageModel18endBuildingTopicLMERK8DgnArrayI12DgnPrimArrayIjEES5_RKS2_i, 
                       __ZN13LanguageModel18setTopicLmSlotNameEjRK9DgnString, 
                       __ZN13LanguageModel19getLMWithLegacyPathEP9DgnString, 
                       __ZN13LanguageModel20abortBuildingTopicLMEv, __ZN13LanguageModel20startBuildingTopicLMEj, 
                       __ZN13LanguageModel21setTopicLmSlotWeightsERK12DgnPrimArrayIjERKS0_IdE, 
                       __ZN13LanguageModel22adaptLMFromTranscriptsERK8DgnArrayI12DgnPrimArrayIjEES5_RKS2_ib, 
                       __ZN13LanguageModel23transferAdjustedTopicLmEjPKS_j, 
                       __ZN13LanguageModel24setInterpolatedLmWeightsERK12DgnPrimArrayIdEPj, 
                       __ZN13LanguageModel26CreateAndLoadLanguageModelEP5DFileS1_P14DFileChecksumsP18DgnSharedMemStreambbbbjPK8WordListbjjbbPbS9_Pd, 
                       __ZN13LanguageModel26setFactoryCorrectiveLmNameEjRK9DgnString, 
                       __ZN13LanguageModel27beginRescoringInLMSyncRecogEP13LMContextData, 
                       __ZN13LanguageModel29setActiveFactoryCorrectiveLmsERK12DgnPrimArrayIjERKS0_IbE, 
                       __ZN13LanguageModel36setDispatchPrefiltererPerWordPenaltyEjj, 
                       __ZN13LanguageModelC2EjPK8WordList, __ZN13LanguageModelD0Ev, 
                       __ZN13LanguageModelD1Ev, __ZN13LanguageModelD2Ev, 
                       __ZN13MelFilterBank13loadFiltBanksER12DgnPrimArrayIdEdjjjj, 
                       __ZN13MelFilterBank13setupMelFreqsER12DgnPrimArrayIdEjjjjd, 
                       __ZN13MelFilterBankC1Ejjjjdjj, __ZN13MelFilterBankC2Ejjjjdjj, 
                       __ZN13NGramIterator12next2BackoffEv, __ZN13NGramIterator12next3BackoffEv, 
                       __ZN13NGramIterator12next4BackoffEv, __ZN13NGramIterator4nextEv, 
                       __ZN13NGramIterator5next1Ev, __ZN13NGramIterator5next2Ev, 
                       __ZN13NGramIterator5next3Ev, __ZN13NGramIterator5next4Ev, 
                       __ZN13NGramIteratorC1EPK17WordLanguageModeltb, __ZN13NGramIteratorC2EPK17WordLanguageModeltb, 
                       __ZN13PelScoreCache12scoreAllPelsEv, __ZN13PelScoreCache12setCacheDataEPK17PelScoreCacheData, 
                       __ZN13PelScoreCache13makeBestStatsEv, __ZN13PelScoreCache14addCacheClientEPKv, 
                       __ZN13PelScoreCache14maybeDumpStatsEv, __ZN13PelScoreCache15compareElementsEPvPKvS2_, 
                       __ZN13PelScoreCache15computePelScoreEt, __ZN13PelScoreCache16computeGenScoresEt, 
                       __ZN13PelScoreCache16setGensNotScoredEv, __ZN13PelScoreCache16setPelsNotScoredEv, 
                       __ZN13PelScoreCache17maybeDumpBestPelsEv, __ZN13PelScoreCache17removeCacheClientEPKv, 
                       __ZN13PelScoreCache18cleanPelScoreCacheEb, __ZN13PelScoreCache21endPelScoreCacheFrameEiP8PelStats, 
                       __ZN13PelScoreCache21setGensNotScoredSweepEv, __ZN13PelScoreCache21setPelsNotScoredSweepEv, 
                       __ZN13PelScoreCache22computePelScoreNoCacheEt, __ZN13PelScoreCache22setGensNotScoredByItemEv, 
                       __ZN13PelScoreCache22setPelsNotScoredByItemEv, __ZN13PelScoreCache23beginPelScoreCacheFrameEib, 
                       __ZN13PelScoreCache23stopRecordRequestedPelsERK8BitArray, 
                       __ZN13PelScoreCache24removeCacheClientOfFrameEiPv, 
                       __ZN13PelScoreCache24startRecordRequestedPelsEv, 
                       __ZN13PelScoreCache25endPelScoreCacheSyncRecogEv, 
                       __ZN13PelScoreCache27beginPelScoreCacheSyncRecogEbbPFvPK9PelScorertjPtPjEPFiS2_tPKtS4_EPFiS2_tS4_Ed, 
                       __ZN13PelScoreCache28computePelScoreFromGenScoresEtt, 
                       __ZN13PelScoreCache35removeCacheClientOfFramesFromTimeOnEibPv, 
                       __ZN13PelScoreCacheC1EP9PelScorerPK12DgnPrimArrayItEPK15DgnPrimFixArrayItE, 
                       __ZN13PelScoreCacheC2EP9PelScorerPK12DgnPrimArrayItEPK15DgnPrimFixArrayItE, 
                       __ZN13PelScoreCacheD1Ev, __ZN13PelScoreCacheD2Ev, 
                       __ZN13PronGeneratorC1EttjjjP17PronGuessParamSet, 
                       __ZN13PronGeneratorC2EttjjjP17PronGuessParamSet, 
                       __ZN13PronGeneratorD1Ev, __ZN13PronGeneratorD2Ev, 
                       __ZN13ReturnListMgr10finishListEiP8DgnArrayI4GermEPj, 
                       __ZN13ReturnListMgr11returnGermsEiP8DgnArrayI4GermEPj, 
                       __ZN13ReturnListMgr14getCutoffScoreEPK8HashNCHVIjj32WordToScoreAndDurationHashHelper16ScoreAndDurationEjPjS6_, 
                       __ZN13ReturnListMgr14makeRoomInHashEP8HashNCHVIjj32WordToScoreAndDurationHashHelper16ScoreAndDurationEj, 
                       __ZN13ReturnListMgr14setInjectCwidsEPK8DgnArrayI12DgnPrimArrayIjEE, 
                       __ZN13ReturnListMgr15addToReturnListEiiji, __ZN13ReturnListMgr15compareElementsEPvPKvS2_, 
                       __ZN13ReturnListMgr15initReturnListsEt, __ZN13ReturnListMgr19endRetListSyncRecogEv, 
                       __ZN13ReturnListMgr21beginRetListSyncRecogEPK25PrefiltererSearchParamSet, 
                       __ZN13ReturnListMgr21setEffectiveLmForCwidEjs, __ZN13ReturnListMgr25setReturnScoreAndDurationEijis, 
                       __ZN13ReturnListMgrC1Ev, __ZN13ReturnListMgrC2Ev, 
                       __ZN13ReturnListMgrD1Ev, __ZN13ReturnListMgrD2Ev, 
                       __ZN13SimGenEndHack15similarityScoreERK7SectionS2_, 
                       __ZN13SplitRadixFFTIddE14scaleVectorsUpEijR12DgnPrimArrayIdE, 
                       __ZN13SplitRadixFFTIddE14scaleVectorsUpEjR12DgnPrimArrayIdES3_, 
                       __ZN13SplitRadixFFTIddE15complexMultiplyEddddPdS1_, 
                       __ZN13SplitRadixFFTIddE16scaleVectorsDownEiR12DgnPrimArrayIdE, 
                       __ZN13SplitRadixFFTIddE16scaleVectorsDownEiR12DgnPrimArrayIdES3_, 
                       __ZN13SplitRadixFFTIddEC1Ej, __ZN13SplitRadixFFTIddEC2Ej, 
                       __ZN13SplitRadixFFTIiiE14scaleVectorsUpEijR12DgnPrimArrayIiE, 
                       __ZN13SplitRadixFFTIiiE14scaleVectorsUpEjR12DgnPrimArrayIiES3_, 
                       __ZN13SplitRadixFFTIiiE15complexMultiplyEiiiiPiS1_, 
                       __ZN13SplitRadixFFTIiiE16scaleVectorsDownEiR12DgnPrimArrayIiE, 
                       __ZN13SplitRadixFFTIiiE16scaleVectorsDownEiR12DgnPrimArrayIiES3_, 
                       __ZN13SplitRadixFFTIiiEC1Ej, __ZN13SplitRadixFFTIiiEC2Ej, 
                       __ZN13SvcCompatData17loadSvcCompatDataEP5DFileP14DFileChecksums, 
                       __ZN13SvcCompatDataC1E15B_SvcCompatTypej, __ZN13SvcCompatDataC1ERKS_, 
                       __ZN13SvcCompatDataC1Ev, __ZN13SvcCompatDataC2E15B_SvcCompatTypej, 
                       __ZN13SvcCompatDataC2ERKS_, __ZN13SvcCompatDataC2Ev, 
                       __ZN13SvcCompatDataD1Ev, __ZN13SvcCompatDataD2Ev, 
                       __ZN13TDecompounder10decompoundEPK5TWordR4TFsa, 
                       __ZN13TDecompounder11isValidWordEPK5TWordS2_bb, 
                       __ZN13TDecompounder4loadER12TInputStream, __ZN13TDecompounder8addWordsEP7TVertexP6TGraphP10TSegmenter, 
                       __ZN13TDecompounderC1ER12TInputStreamP8TLexiconP22TTokenizerParamManager, 
                       __ZN13TDecompounderC2ER12TInputStreamP8TLexiconP22TTokenizerParamManager, 
                       __ZN13TDecompounderD1Ev, __ZN13TDecompounderD2Ev, 
                       __ZN13TErrorHandlerC1Ev, __ZN13TErrorHandlerC2Ev, 
                       __ZN13TErrorHandlerD1Ev, __ZN13TErrorHandlerD2Ev, 
                       __ZN13TLexerLexicon10addLiteralEPKwm, __ZN13TLexerLexicon10doneAddingEv, 
                       __ZN13TLexerLexicon9addRegExpEPKwm, __ZN13TLexerLexicon9addStringEwm14TLexerEscaping, 
                       __ZN13TLexerLexiconC1ERK11TLocaleInfo, __ZN13TLexerLexiconC2ERK11TLocaleInfo, 
                       __ZN13TLexerLexiconD1Ev, __ZN13TLexerLexiconD2Ev, 
                       __ZN13TLexiconScoreC1EPKwS1_mmRK11TLocaleInfo, __ZN13TLexiconScoreC2EPKwS1_mmRK11TLocaleInfo, 
                       __ZN13TOutputStream11writeHeaderEPKcPK22TFileVersionDescriptormPKNSt3__13mapINS5_12basic_stringIcNS5_11char_traitsIcEENS5_9allocatorIcEEEENS7_IwNS8_IwEENSA_IwEEEENS5_4lessISC_EENSA_INS5_4pairIKSC_SF_EEEEEE, 
                       __ZN13TOutputStreamlsEPKw, __ZN13TParamManager10initializeER12TInputStreamb, 
                       __ZN13TParamManager3addEP6TParam, __ZN13TParamManager3endEv, 
                       __ZN13TParamManager4findEPKw, __ZN13TParamManager4initEPK11TFileObjectb, 
                       __ZN13TParamManager4saveER13TOutputStreamb, __ZN13TParamManager5beginEv, 
                       __ZN13TParamManager5resetEm, __ZN13TParamManager6removeEm, 
                       __ZN13TParamManager9initParamEPK11TFileObjectN6TParam5TTypeEbbRNSt3__13setIPKw16TWideCharCompareNS5_9allocatorIS8_EEEE, 
                       __ZN13TParamManager9newConfigEPKwm, __ZN13TParamManagerD0Ev, 
                       __ZN13TParamManagerD1Ev, __ZN13TParamManagerD2Ev, 
                       __ZN13TRegExpSearch11searchRangeEPK12TRegExpStatePKw11TRegExpCase, 
                       __ZN13TRegExpSearch13searchCommandEPK12TRegExpStatePKw11TRegExpCase, 
                       __ZN13TRegExpSearch13searchNegatedEPK12TRegExpStatePKw11TRegExpCase, 
                       __ZN13TRegExpSearch18searchNegatedRangeEPK12TRegExpStatePKw11TRegExpCase, 
                       __ZN13TRegExpSearch20searchNegatedCommandEPK12TRegExpStatePKw11TRegExpCase, 
                       __ZN13TRegExpSearch6searchEPK12TRegExpStatePKw11TRegExpCase, 
                       __ZN13TRegExpSearchclEPKw13TRegExpAnchor, __ZN13TRegExpSearchclEPKw13TRegExpAnchorRNSt3__16vectorI12TRegExpMatchNS3_9allocatorIS5_EEEE, 
                       __ZN13TextStateRule11parseHeaderER17DgnTextFileParser, 
                       __ZN13TextStateRule12parseRuleEnvER17DgnTextFileParser, 
                       __ZN13TextStateRule13parseRuleNameER17DgnTextFileParser, 
                       __ZN13TextStateRule13parseStateEnvER17DgnTextFileParser, 
                       __ZN13TextStateRule14parseStateNameER17DgnTextFileParser, 
                       __ZN13TextStateRule16parseRuleAllowLMER17DgnTextFileParser, 
                       __ZN13TextStateRule17parseStateAllowLMER17DgnTextFileParser, 
                       __ZN13TextStateRule17parseVocMaxIdInfoER17DgnTextFileParser, 
                       __ZN13TextStateRule18loadStatesAndRulesEP5DFilet, 
                       __ZN13TextStateRule18saveStatesAndRulesEP5DFilet, 
                       __ZN13TextStateRule19parseRuleAllowCoartER17DgnTextFileParser, 
                       __ZN13TextStateRule19parseRuleDefinitionER17DgnTextFileParser, 
                       __ZN13TextStateRule19parseStateAllowSkipER17DgnTextFileParser, 
                       __ZN13TextStateRule20parseRuleDescriptionER17DgnTextFileParser, 
                       __ZN13TextStateRule20parseStateAliasStateER17DgnTextFileParser, 
                       __ZN13TextStateRule20parseStateAllowCoartER17DgnTextFileParser, 
                       __ZN13TextStateRule20parseStateDefinitionER17DgnTextFileParser, 
                       __ZN13TextStateRule20parseStateMaxEndTimeER17DgnTextFileParser, 
                       __ZN13TextStateRule20parseStateMinEndTimeER17DgnTextFileParser, 
                       __ZN13TextStateRule21parseStateCollapsibleER17DgnTextFileParser, 
                       __ZN13TextStateRule21parseStateWeightsNameER17DgnTextFileParser, 
                       __ZN13TextStateRule21parseStateWordPenaltyER17DgnTextFileParserPKc, 
                       __ZN13TextStateRule22parseStateIncludedWordER17DgnTextFileParser, 
                       __ZN13TextStateRule22parseStateMaxStartTimeER17DgnTextFileParser, 
                       __ZN13TextStateRule22parseStateMinStartTimeER17DgnTextFileParser, 
                       __ZN13TextStateRule23parseStateAllowEndOfUttER17DgnTextFileParser, 
                       __ZN13TextStateRule25parseStateIncludedWordEnvER17DgnTextFileParser, 
                       __ZN13TextStateRule25parseStateTransitionStateER17DgnTextFileParser, 
                       __ZN13TextStateRule26parseRuleAllowPrefilteringER17DgnTextFileParser, 
                       __ZN13TextStateRule27parseStateAllowPrefilteringER17DgnTextFileParser, 
                       __ZN13TextStateRule27parseStateAllowedCollationsER17DgnTextFileParser, 
                       __ZN13TextStateRule31parseStateAllowLeftWordBoundaryER17DgnTextFileParser, 
                       __ZN13TextStateRule32parseStateAllowRightWordBoundaryER17DgnTextFileParser, 
                       __ZN13TextStateRule39parseStatePrecedingNonAcousticWordStateER17DgnTextFileParser, 
                       __ZN13TextStateRule40parseStateAllowPrecedingNonAcousticWordsER17DgnTextFileParser, 
                       __ZN13TextStateRule42parseStatePrecedingNonAcousticWordRequiredER17DgnTextFileParser, 
                       __ZN13TextStateRule9parseBodyER17DgnTextFileParser, 
                       __ZN13TextStateRuleC1Ev, __ZN13TextStateRuleC2Ev, 
                       __ZN13TextStateRuleD1Ev, __ZN13TextStateRuleD2Ev, 
                       __ZN13VocCompatData10setLMScaleEj, __ZN13VocCompatData17loadVocCompatDataEP5DFileP14DFileChecksumsb, 
                       __ZN13VocCompatData17saveVocCompatDataEP5DFileP14DFileChecksumsbb, 
                       __ZN13VocCompatData21loadVocCompatDataTextEP5DFile, 
                       __ZN13VocCompatData28setPrefiltererPerWordPenaltyEj, 
                       __ZN13VocCompatData32setLMStaticizationNoGroupingSizeEy, 
                       __ZN13VocCompatDataC1ERKS_, __ZN13VocCompatDataC1Ev, 
                       __ZN13VocCompatDataC2ERKS_, __ZN13VocCompatDataC2Ev, 
                       __ZN13VocCompatDataD1Ev, __ZN13VocCompatDataD2Ev, 
                       __ZN13WordDummySpec10readObjectEP9DgnStreamRj, __ZN13WordDummySpecC1ERKS_, 
                       __ZN13WordDummySpecC1Ev, __ZN13WordDummySpecC2ERKS_, 
                       __ZN13WordDummySpecC2Ev, __ZN13WordDummySpecaSERKS_, 
                       __ZN13WordLatticeLC20cmpForDuplicateCheckERKS_S1_, 
                       __ZN13WordLatticeLC20cmpForMultiLinkCheckERKS_S1_, 
                       __ZN13WordLatticeLC38cmpForSameLinkWithDifferentScoresCheckERKS_S1_, 
                       __ZN13WordLatticeLC3cmpERKS_S1_, __ZN13WordLatticeLCC1ERKS_bbbbbb, 
                       __ZN13WordLatticeLCC2ERKS_bbbbbb, __ZN13WordLatticeLCD0Ev, 
                       __ZN13WordLatticeLCD1Ev, __ZN13WordLatticeLCD2Ev, 
                       __ZN14AcousticFormat21setWaveAndFeatFormatsEPKS_S1_, 
                       __ZN14AcousticFormatC1ERKS_, __ZN14AcousticFormatC1Ev, 
                       __ZN14AcousticFormatC2ERKS_, __ZN14AcousticFormatC2Ev, 
                       __ZN14AcousticFormataSERKS_, __ZN14ArcGraphHeader12readFromTextER17DgnTextFileParser, 
                       __ZN14ArcGraphHeader4readEP9DgnStreamRj, __ZN14ArcGraphHeaderC1Ev, 
                       __ZN14ArcGraphHeaderC2Ev, __ZN14BinaryIntScale14getUnscaleBitsEyj, 
                       __ZN14BinaryIntScale7getBitsEy, __ZN14BinaryIntScale8setScaleEj, 
                       __ZN14BinaryIntScale8setScaleEy, __ZN14ChannelAdapter10copyStatesEv, 
                       __ZN14ChannelAdapter12processFrameEP9FrameDataP9DgnIArrayIS1_E, 
                       __ZN14ChannelAdapter13enableQueuingEv, __ZN14ChannelAdapter13updateSigProcEP7SigProc, 
                       __ZN14ChannelAdapter14disableQueuingEv, __ZN14ChannelAdapter15resetAdaptablesEv, 
                       __ZN14ChannelAdapter16enableAdaptablesEv, __ZN14ChannelAdapter18loadStatesFromCopyEv, 
                       __ZN14ChannelAdapter22processFrameAdaptablesEP9FrameDataP9DgnIArrayIS1_E, 
                       __ZN14ChannelAdapter40enableNonSpeechToSpeechTransitionQueuingEv, 
                       __ZN14ChannelAdapter41disableNonSpeechToSpeechTransitionQueuingEv, 
                       __ZN14ChannelAdapterC1EPK7SigProcPK15ChannelParamSet, 
                       __ZN14ChannelAdapterC2EPK7SigProcPK15ChannelParamSet, 
                       __ZN14ChannelAdapterD0Ev, __ZN14ChannelAdapterD1Ev, 
                       __ZN14ChannelAdapterD2Ev, __ZN14ClsCandPeakSet6createEi, 
                       __ZN14ClsCandPeakSet9sortPeaksEv, __ZN14ClsCandPeakSetC1Ev, 
                       __ZN14ClsCandPeakSetC2Ev, __ZN14ClsCandPeakSetD1Ev, 
                       __ZN14ClsCandPeakSetD2Ev, __ZN14DFileChecksums11addChecksumERK8DgnArrayI15SubDirExtensionE16SubFileExtensionj, 
                       __ZN14DFileChecksums4readEP9DgnStreamRj, __ZN14DFileChecksumsC1ERKS_, 
                       __ZN14DFileChecksumsC1Ev, __ZN14DFileChecksumsC2ERKS_, 
                       __ZN14DFileChecksumsC2Ev, __ZN14DFileChecksumsD1Ev, 
                       __ZN14DFileChecksumsD2Ev, __ZN14DFileChecksumsaSERKS_, 
                       __ZN14DgnThreadTrace27isClientIdValidForThisTraceEj, 
                       __ZN14DgnThreadTraceC1ERKS_P14MemChunkRegion, __ZN14DgnThreadTraceC1EjP14MemChunkRegionbb, 
                       __ZN14DgnThreadTraceC2ERKS_P14MemChunkRegion, __ZN14DgnThreadTraceC2EjP14MemChunkRegionbb, 
                       __ZN14DgnThreadTraceD1Ev, __ZN14DgnThreadTraceD2Ev, 
                       __ZN14ExtAudioSource13getDataFormatER14AcousticFormatP9DgnString, 
                       __ZN14ExtAudioSource14getClientEventEPP9FrameData, 
                       __ZN14ExtAudioSource14setWaveDecoderEPK11WaveDecoder, 
                       __ZN14ExtAudioSource18openExtAudioSourceEPK14AcousticFormat, 
                       __ZN14ExtAudioSource19closeExtAudioSourceEv, __ZN14ExtAudioSource27setStereoWavePrimaryChannelEi, 
                       __ZN14ExtAudioSourceC1EP19ExternalChannelSpecb, 
                       __ZN14ExtAudioSourceC2EP19ExternalChannelSpecb, 
                       __ZN14ExtAudioSourceD1Ev, __ZN14ExtAudioSourceD2Ev, 
                       __ZN14FrameDecimator12processFrameEP9FrameDataP9DgnIArrayIS1_E, 
                       __ZN14FrameDecimator15applyDecimationEP9DgnIArrayIP9FrameDataE, 
                       __ZN14FrameDecimator5resetEv, __ZN14FrameDecimatorC1ERK18FrameDecimatorSpec, 
                       __ZN14FrameDecimatorC2ERK18FrameDecimatorSpec, __ZN14FrameDecimatorD0Ev, 
                       __ZN14FrameDecimatorD1Ev, __ZN14FrameDecimatorD2Ev, 
                       __ZN14FstCoreOptionsC1ERKS_, __ZN14FstCoreOptionsC1Eiibiiii30B_FstCoreLatticeGenerationTypeiiji19B_SearchLMLimitTypebiibiibbbb, 
                       __ZN14FstCoreOptionsC2ERKS_, __ZN14FstCoreOptionsC2Eiibiiii30B_FstCoreLatticeGenerationTypeiiji19B_SearchLMLimitTypebiibiibbbb, 
                       __ZN14FstCoreOptionsD1Ev, __ZN14FstCoreOptionsD2Ev, 
                       __ZN14GlobalParamMgr12ParamGetTypeEt, __ZN14GlobalParamMgr13ParamGetParIdEPKc, 
                       __ZN14GlobalParamMgr15compareElementsEPvPKvS2_, 
                       __ZN14GlobalParamMgr15getParamByParIdEt, __ZN14GlobalParamMgr15resetReferencedEv, 
                       __ZN14GlobalParamMgr16ParamGetIntValueEt16B_ParamQueryMode, 
                       __ZN14GlobalParamMgr16ParamSetIntValueEti, __ZN14GlobalParamMgr17ParamGetAllParIdsEP12DgnPrimArrayItE, 
                       __ZN14GlobalParamMgr17ParamGetBoolValueEtb, __ZN14GlobalParamMgr17ParamSetBoolValueEtb, 
                       __ZN14GlobalParamMgr17displayReferencedEv, __ZN14GlobalParamMgr17smpGlobalParamMgrE, 
                       __ZN14GlobalParamMgr19ParamGetDescriptionEtP9DgnString, 
                       __ZN14GlobalParamMgr19ParamGetDoubleValueEt16B_ParamQueryMode, 
                       __ZN14GlobalParamMgr19ParamGetStringValueEtb, __ZN14GlobalParamMgr19ParamSetDoubleValueEtd, 
                       __ZN14GlobalParamMgr19ParamSetStringValueEtPKc, 
                       __ZN14GlobalParamMgr21ParamGetAllParamNamesEP8DgnArrayI9DgnStringE, 
                       __ZN14GlobalParamMgr21startupGlobalParamMgrEv, __ZN14GlobalParamMgr22shutdownGlobalParamMgrEv, 
                       __ZN14GlobalParamMgr23ParamGetEnumLegalValuesEtR8DgnArrayI9DgnStringE, 
                       __ZN14GlobalParamMgr8addParamEPP11GlobalParam, __ZN14GlobalParamMgr8resetAllEv, 
                       __ZN14GlobalParamMgrC1Ev, __ZN14GlobalParamMgrC2Ev, 
                       __ZN14GlobalParamMgrD1Ev, __ZN14GlobalParamMgrD2Ev, 
                       __ZN14HuffmanEncoderIjyE12sortElementsEv, __ZN14HuffmanEncoderItjE12sortElementsEv, 
                       __ZN14InputLatticeLCD0Ev, __ZN14InputLatticeLCD1Ev, 
                       __ZN14InputLatticeLCD2Ev, __ZN14MemChunkRegion13resetMaxAllocEv, 
                       __ZN14MemChunkRegion13resetMaxStatsEv, __ZN14MemChunkRegion14getBlockRegionEPKv, 
                       __ZN14MemChunkRegion14getRegionStatsEPS_, __ZN14MemChunkRegion15printChunkStatsEPKcS1_, 
                       __ZN14MemChunkRegion17calculateChecksumEv, __ZN14MemChunkRegion17newMemChunkRegionEPKc, 
                       __ZN14MemChunkRegion18initMemChunkRegionEPKc, __ZN14MemChunkRegion18smpMemChunkRegionsE, 
                       __ZN14MemChunkRegion20deleteMemChunkRegionEPS_, 
                       __ZN14MemChunkRegion31resetExternalLocalMaxAllocBytesEPS_, 
                       __ZN14MemChunkRegion31resetInternalLocalMaxAllocBytesEPS_, 
                       __ZN14MemChunkRegion37getAndResetInternalLocalMaxAllocBytesEPS_, 
                       __ZN14MemChunkRegion7smTlsIDE, __ZN14MemChunkRegion8shutdownEbbbbPKc, 
                       __ZN14NeuralNetBlockC1Ev, __ZN14NeuralNetBlockC2Ev, 
                       __ZN14NeuralNetBlockD1Ev, __ZN14NeuralNetBlockD2Ev, 
                       __ZN14NeuralNetImage18copyNeuralNetImageEPKS_, __ZN14NeuralNetImage22createRunFunctSequenceEv, 
                       __ZN14NeuralNetImage22loadNeuralNetImageTextEP5DFile, 
                       __ZN14NeuralNetImage22saveNeuralNetImageTextEP5DFileb, 
                       __ZN14NeuralNetImage23createInvertedNetAndWtsEv, 
                       __ZN14NeuralNetImage24loadNeuralNetImageBinaryEP5DFileP14DFileChecksums, 
                       __ZN14NeuralNetImage24saveNeuralNetImageBinaryEP5DFileP14DFileChecksumsb, 
                       __ZN14NeuralNetImage27allocArchitectureStructuresEv, 
                       __ZN14NeuralNetImage37createAndRepairNeuralNetImageSaveDataEv, 
                       __ZN14NeuralNetImageC1Ev, __ZN14NeuralNetImageC2Ev, 
                       __ZN14NeuralNetImageD1Ev, __ZN14NeuralNetImageD2Ev, 
                       __ZN14NeuralNetState18freeExecutionSpaceEv, __ZN14NeuralNetState20createExecutionSpaceEv, 
                       __ZN14NeuralNetStateC1Ev, __ZN14NeuralNetStateC2Ev, 
                       __ZN14NeuralNetStateD1Ev, __ZN14NeuralNetStateD2Ev, 
                       __ZN14OrderedLattice11updateOrderEjP9LinkOrder, 
                       __ZN14OrderedLattice12releaseOrderEj, __ZN14OrderedLattice15compareElementsEPvPKvS2_, 
                       __ZN14OrderedLattice4initEPK11WordLatticeRK15SausageParamSet, 
                       __ZN14OrderedLattice5pruneERK15SausageParamSet, 
                       __ZN14OrderedLattice8getOrderEj, __ZN14OrderedLattice8newOrderEj, 
                       __ZN14ParamSetHolder11newParamSetEPKc14B_ParamSetType, 
                       __ZN14ParamSetHolder11newParamSetEPKc14B_ParamSetTypebPK12ParamSetBase, 
                       __ZN14ParamSetHolder11newParamSetEPKcjj, __ZN14ParamSetHolder14deleteParamSetEj, 
                       __ZN14ParamSetHolder18loadParamSetHolderEP5DFile, 
                       __ZN14ParamSetHolder18saveParamSetHolderERK8FileSpecP16B_SaveResultCode24B_SaveOverrideFormatTypeb, 
                       __ZN14ParamSetHolder22loadParamSetHolderTextEP5DFile, 
                       __ZN14ParamSetHolder24loadParamSetHolderBinaryEP5DFileP14DFileChecksums, 
                       __ZN14ParamSetHolder26runUpgradeFunctionSequenceE18DgnTextFileVersionS0_S0_S0_S0_S0_S0_S0_S0_S0_S0_S0_R12DgnIOwnArrayIP15DynamicParamSetES5_S5_S5_S5_S5_S5_S5_S5_S5_S5_S5_, 
                       __ZN14ParamSetHolder7addNameEjPKc14B_ParamSetType, 
                       __ZN14ParamSetHolderC1Ej, __ZN14ParamSetHolderC2Ej, 
                       __ZN14ParamSetHolderD1Ev, __ZN14ParamSetHolderD2Ev, 
                       __ZN14PhonemeLattice11SortInLinksEP12DgnPrimArrayIjE, 
                       __ZN14PhonemeLattice12SortOutLinksEP12DgnPrimArrayIjE, 
                       __ZN14PhonemeLattice14SortNodesCountEP12DgnPrimArrayIjEj, 
                       __ZN14PhonemeLattice18SortNodesByInLinksEP12DgnPrimArrayIjE, 
                       __ZN14PhonemeLattice19SortNodesByOutLinksEP12DgnPrimArrayIjE, 
                       __ZN14PhonemeLattice9SortNodesEP12DgnPrimArrayIjE, 
                       __ZN14PhonemeLatticeC1ERK12DgnPrimArrayIjE, __ZN14PhonemeLatticeC2ERK12DgnPrimArrayIjE, 
                       __ZN14PhonemeLatticeD0Ev, __ZN14PhonemeLatticeD1Ev, 
                       __ZN14PhonemeLatticeD2Ev, __ZN14ProcessChannelC1EibbbP9UtteranceP32UttFeatureArraySynchronizedArrayPiP8SnapTimeS6_S6_, 
                       __ZN14ProcessChannelC2EibbbP9UtteranceP32UttFeatureArraySynchronizedArrayPiP8SnapTimeS6_S6_, 
                       __ZN14ProcessChannelD1Ev, __ZN14ProcessChannelD2Ev, 
                       __ZN14RecogSpecLayer18makeRecogSpecLayerEP14SearchParamSetbbbiiibjjjiidijijbbb39B_SearchPartialIncludePrefiltererResultjjjjj, 
                       __ZN14RecogSpecLayerC1EP14SearchParamSetbbbiiibjjjiidijijbbb39B_SearchPartialIncludePrefiltererResultjjjjj, 
                       __ZN14RecogSpecLayerC1ERKS_, __ZN14RecogSpecLayerC2EP14SearchParamSetbbbiiibjjjiidijijbbb39B_SearchPartialIncludePrefiltererResultjjjjj, 
                       __ZN14RecogSpecLayerC2ERKS_, __ZN14RecogSpecLayerD1Ev, 
                       __ZN14RecogSpecLayerD2Ev, __ZN14SdapiInsuranceC1EPKc29ResolveApiEntryInitEnableType35ResolveApiEntryCallsDuringRecogType17ApiEntryIndexType, 
                       __ZN14SdapiInsuranceC2EPKc29ResolveApiEntryInitEnableType35ResolveApiEntryCallsDuringRecogType17ApiEntryIndexType, 
                       __ZN14SdapiInsuranceD1Ev, __ZN14SdapiInsuranceD2Ev, 
                       __ZN14SearchLMScorer10setContextEjRK6CWIDACP8DgnArrayIS3_I9RecogGermEEbPKS3_I12DgnPrimArrayIjEEP7LMStatsbjj, 
                       __ZN14SearchLMScorer10setContextEtPKjP7LMStats, 
                       __ZN14SearchLMScorer11activateVocEtPKjP7LMStats, 
                       __ZN14SearchLMScorer11setLMStatesEP8DgnArrayIS0_I9RecogGermEE, 
                       __ZN14SearchLMScorer12unsetContextEt, __ZN14SearchLMScorer12unsetContextEv, 
                       __ZN14SearchLMScorer13setRecognizerEPK10Recognizer, 
                       __ZN14SearchLMScorer16setEmptyLMStatesEP8DgnArrayIS0_I9RecogGermEE, 
                       __ZN14SearchLMScorer17setInitialContextERK12DgnPrimArrayIjE, 
                       __ZN14SearchLMScorer19lmScoreFinalSilenceEP7LMStats, 
                       __ZN14SearchLMScorer19lmScoreNonSilCwidacERK6CWIDACP7LMStats, 
                       __ZN14SearchLMScorer21makeRestrictedContextEtPKj, 
                       __ZN14SearchLMScorer22lmScoreNonAcousticWordEjjP7LMStats, 
                       __ZN14SearchLMScorer26endSearchLMScorerSyncRecogEv, 
                       __ZN14SearchLMScorer28beginSearchLMScorerSyncRecogEv, 
                       __ZN14SearchLMScorer28endSearchLMScorerLMRescoringEv, 
                       __ZN14SearchLMScorer30beginSearchLMScorerLMRescoringEb, 
                       __ZN14SearchLMScorer34lmScoreFinalSilenceWithoutActualLMEjRK6CWIDAC, 
                       __ZN14SearchLMScorerC1E19B_SearchLMLimitTypebiibPK7HashKEVIjj12StateIdScopeES5_S5_PK8BitArray, 
                       __ZN14SearchLMScorerC2E19B_SearchLMLimitTypebiibPK7HashKEVIjj12StateIdScopeES5_S5_PK8BitArray, 
                       __ZN14SearchLMScorerD1Ev, __ZN14SearchLMScorerD2Ev, 
                       __ZN14SearchParamSet11setDefaultsEv, __ZN14SearchParamSet15setIntParameterEti, 
                       __ZN14SearchParamSet16setBoolParameterEtb, __ZN14SearchParamSet16setEnumParameterEti, 
                       __ZN14SearchParamSet18setDoubleParameterEtd, __ZN14SearchParamSet18setStringParameterEtPKc, 
                       __ZN14SearchParamSet22setParamSetFstCoreBeamEd, 
                       __ZN14SearchParamSet23setParamSetFstCoreNBestEi, 
                       __ZN14SearchParamSet24setParamSetSearchLMLimitEi, 
                       __ZN14SearchParamSet27setParamSetFstCoreMaxActiveEi, 
                       __ZN14SearchParamSet28setParamSetFstCoreHashTokensEb, 
                       __ZN14SearchParamSet29setParamSetFstCoreLatticeBeamEd, 
                       __ZN14SearchParamSet29setParamSetFstCoreRepeatFrameEb, 
                       __ZN14SearchParamSet30setParamSetSearchPelScoreScaleEd, 
                       __ZN14SearchParamSet30setParamSetSearchThreadingTypeEi, 
                       __ZN14SearchParamSet31setParamSetSearchDecimationTypeEi, 
                       __ZN14SearchParamSet31setParamSetSearchPerWordPenaltyEi, 
                       __ZN14SearchParamSet31setParamSetSearchSegmentAllNetsEb, 
                       __ZN14SearchParamSet33setParamSetSearchDisableGPUScorerEb, 
                       __ZN14SearchParamSet33setParamSetSearchNodeSkippingTypeEi, 
                       __ZN14SearchParamSet34setParamSetFstCoreUseDurationModelEb, 
                       __ZN14SearchParamSet34setParamSetSearchAbortOnAllocBytesEi, 
                       __ZN14SearchParamSet35setParamSetFstCoreLatticeGenerationEi, 
                       __ZN14SearchParamSet35setParamSetFstCoreLockPelScoreCacheEb, 
                       __ZN14SearchParamSet35setParamSetSearchHierScorerBeamListEPKc, 
                       __ZN14SearchParamSet35setParamSetSearchLatticeThreshScoreEi, 
                       __ZN14SearchParamSet36setParamSetFstCoreBackoffThreshScoreEi, 
                       __ZN14SearchParamSet36setParamSetFstCoreUseFwdBwdAlgorithmEb, 
                       __ZN14SearchParamSet36setParamSetSearchAbortOnNumHistoriesEi, 
                       __ZN14SearchParamSet36setParamSetSearchLMDisallowedLMScoreEi, 
                       __ZN14SearchParamSet37setParamSetFstCoreCollectTracesPeriodEi, 
                       __ZN14SearchParamSet37setParamSetFstCoreGenerateLeafLatticeEb, 
                       __ZN14SearchParamSet37setParamSetSearchActiveNodeCountLimitEi, 
                       __ZN14SearchParamSet38setParamSetSearchConTransAccFactorListEPKc, 
                       __ZN14SearchParamSet38setParamSetSearchConTransAccRampFramesEi, 
                       __ZN14SearchParamSet38setParamSetSearchConTransAccStartFrameEi, 
                       __ZN14SearchParamSet39setParamSetSearchConTransAccDecayFactorEd, 
                       __ZN14SearchParamSet39setParamSetSearchLatticeAbortOnNumLinksEi, 
                       __ZN14SearchParamSet39setParamSetSearchLatticeAbortOnNumNodesEi, 
                       __ZN14SearchParamSet39setParamSetSearchLatticeUseThresholdingEb, 
                       __ZN14SearchParamSet40setParamSetSearchInterWordSilencePenaltyEi, 
                       __ZN14SearchParamSet40setParamSetSearchLMRescoreWithCorrectiveEb, 
                       __ZN14SearchParamSet41setParamSetSearchActiveSequenceCountLimitEi, 
                       __ZN14SearchParamSet41setParamSetSearchLatticeUseCoarticulationEb, 
                       __ZN14SearchParamSet41setParamSetSearchPelScoreUseBestCompScoreEb, 
                       __ZN14SearchParamSet42setParamSetSearchActiveWordSpreadSeedScoreEi, 
                       __ZN14SearchParamSet42setParamSetSearchConTransAccDecayFrequencyEi, 
                       __ZN14SearchParamSet42setParamSetSearchDisableHierarchicalScorerEb, 
                       __ZN14SearchParamSet42setParamSetSearchHierScorerCutoffRatioListEPKc, 
                       __ZN14SearchParamSet42setParamSetSearchPartialIncompleteMaxWordsEi, 
                       __ZN14SearchParamSet42setParamSetSearchTraceThreshScoreIncrementEi, 
                       __ZN14SearchParamSet43setParamSetSearchAbortOnNumRecognizedFramesEi, 
                       __ZN14SearchParamSet43setParamSetSearchHierInactiveComponentScoreEi, 
                       __ZN14SearchParamSet43setParamSetSearchLatticeComputeOnlyBestPathEb, 
                       __ZN14SearchParamSet43setParamSetSearchRecognitionBatchProcessingEb, 
                       __ZN14SearchParamSet43setParamSetSearchThreshScoreWhenSilenceBestEi, 
                       __ZN14SearchParamSet44setParamSetSearchConTransAccMaxSilenceFramesEi, 
                       __ZN14SearchParamSet44setParamSetSearchLMDynamicReadCacheMaxBlocksEi, 
                       __ZN14SearchParamSet44setParamSetSearchLatticeComputeOnlyBestTimesEb, 
                       __ZN14SearchParamSet44setParamSetSearchPartialRegularMinWordFramesEi, 
                       __ZN14SearchParamSet44setParamSetSearchPrefilterResultUseCrumbBankEb, 
                       __ZN14SearchParamSet44setParamSetSearchWordEndThreshScoreDecrementEi, 
                       __ZN14SearchParamSet45setParamSetSearchEnableGenoneScoreCacheThreshEd, 
                       __ZN14SearchParamSet45setParamSetSearchNonAcousticWordLMThreshScoreEi, 
                       __ZN14SearchParamSet45setParamSetSearchPartialCompleteMinWordFramesEi, 
                       __ZN14SearchParamSet45setParamSetSearchWordSeedThreshScoreDecrementEi, 
                       __ZN14SearchParamSet46setParamSetFstCoreHashPropagateBestTokensFirstEi, 
                       __ZN14SearchParamSet46setParamSetSearchEstimateAndPreScoreActivePelsEb, 
                       __ZN14SearchParamSet46setParamSetSearchFrameTransformerThreadingTypeEi, 
                       __ZN14SearchParamSet46setParamSetSearchLatticeNormalizedThreshFactorEd, 
                       __ZN14SearchParamSet46setParamSetSearchLatticePreserveAlternatePronsEb, 
                       __ZN14SearchParamSet47setParamSetSearchPartialIncompleteMinListFramesEi, 
                       __ZN14SearchParamSet47setParamSetSearchPartialIncompleteMinWordFramesEi, 
                       __ZN14SearchParamSet47setParamSetSearchPelBackoffThreshScoreDecrementEi, 
                       __ZN14SearchParamSet47setParamSetSearchStateUsePrefiltererMinNumWordsEi, 
                       __ZN14SearchParamSet48setParamSetSearchActiveWordHasMergedGrammarStateEb, 
                       __ZN14SearchParamSet48setParamSetSearchFmpeMinimumPosteriorProbabilityEd, 
                       __ZN14SearchParamSet48setParamSetSearchLatticeNodeCreationUseRightWordEb, 
                       __ZN14SearchParamSet48setParamSetSearchLatticePruneLinksPerSecondLimitEi, 
                       __ZN14SearchParamSet48setParamSetSearchPartialIncludePrefiltererResultEi, 
                       __ZN14SearchParamSet48setParamSetSearchRecognitionContinuationIntervalEi, 
                       __ZN14SearchParamSet49setParamSetFstCoreLateLatticeArcFingerSuckPenaltyEd, 
                       __ZN14SearchParamSet49setParamSetSearchActiveWordHasMergedLatticeLinkIdEb, 
                       __ZN14SearchParamSet49setParamSetSearchFinalSilenceThreshScoreIncrementEi, 
                       __ZN14SearchParamSet49setParamSetSearchLMDynamicReadCacheBlocksPerChunkEi, 
                       __ZN14SearchParamSet49setParamSetSearchTraceLatticeThreshScoreIncrementEi, 
                       __ZN14SearchParamSet49setParamSetSearchTruncatePackedIntComponentScoresEb, 
                       __ZN14SearchParamSet50setParamSetSearchAbortOnAverageWordsEndingPerFrameEi, 
                       __ZN14SearchParamSet50setParamSetSearchLatticeBestCrumbDistanceMaxFramesEi, 
                       __ZN14SearchParamSet50setParamSetSearchRemoveInactiveWordsIntervalFramesEi, 
                       __ZN14SearchParamSet51setParamSetSearchLatticePruneKeepUniquePathsMaxSizeEi, 
                       __ZN14SearchParamSet51setParamSetSearchTraceLatticeNormalizedThreshFactorEd, 
                       __ZN14SearchParamSet52setParamSetSearchActiveNodePreserveMultipleHistoriesEb, 
                       __ZN14SearchParamSet52setParamSetSearchActiveWordHasPredecessorWordContextEb, 
                       __ZN14SearchParamSet52setParamSetSearchInitialSilenceToFinalSilenceLMScoreEi, 
                       __ZN14SearchParamSet52setParamSetSearchLatticeSilentWordsUseCoarticulationEb, 
                       __ZN14SearchParamSet53setParamSetSearchLatticeAllowZeroDurationFinalSilenceEb, 
                       __ZN14SearchParamSet53setParamSetSearchLatticeBestCrumbThreshScoreIncrementEi, 
                       __ZN14SearchParamSet53setParamSetSearchLatticeTimeConstraintSeedThreshScoreEi, 
                       __ZN14SearchParamSet53setParamSetSearchWordSeedScoreIncludePrefiltererScoreEb, 
                       __ZN14SearchParamSet55setParamSetSearchActiveWordHasPredecessorPhonemeContextEb, 
                       __ZN14SearchParamSet55setParamSetSearchLatticeLMRescoringAbortOnTotalNewNodesEi, 
                       __ZN14SearchParamSet55setParamSetSearchLatticeTimeConstraintDistanceMaxFramesEi, 
                       __ZN14SearchParamSet55setParamSetSearchNonAcousticWordEndThreshScoreIncrementEi, 
                       __ZN14SearchParamSet55setParamSetSearchThreshScoreIncrementWhenNonSilenceBestEi, 
                       __ZN14SearchParamSet56setParamSetSearchNonAcousticWordSeedThreshScoreIncrementEi, 
                       __ZN14SearchParamSet56setParamSetSearchUseWordEndThreshWhenSeedingFinalSilenceEb, 
                       __ZN14SearchParamSet57setParamSetSearchLMDynamicBigramReadCacheMaxChunksPerReadEi, 
                       __ZN14SearchParamSet57setParamSetSearchLatticeAbortOnScaledAverageLinksPerFrameEi, 
                       __ZN14SearchParamSet57setParamSetSearchLatticeAbortOnScaledAverageNodesPerFrameEi, 
                       __ZN14SearchParamSet57setParamSetSearchNonAcousticWordAndSuccessorLMThreshScoreEi, 
                       __ZN14SearchParamSet57setParamSetSearchWordSeedFinalSilenceThreshScoreDecrementEi, 
                       __ZN14SearchParamSet58setParamSetSearchLMDynamicTrigramReadCacheMaxChunksPerReadEi, 
                       __ZN14SearchParamSet59setParamSetSearchLMDynamicQuadgramReadCacheMaxChunksPerReadEi, 
                       __ZN14SearchParamSet61setParamSetSearchPrefilterResultUseCrumbBankDistanceMaxFramesEi, 
                       __ZN14SearchParamSet61setParamSetSearchWordSeedUnprefilteredUseThreshScoreDecrementEb, 
                       __ZN14SearchParamSet62setParamSetSearchWordEndAgainstBestWordEndThreshScoreDecrementEi, 
                       __ZN14SearchParamSetC1EPKc14B_ParamSetTypejj, __ZN14SearchParamSetC1ERKS_PKc14B_ParamSetTypejj, 
                       __ZN14SearchParamSetC2EPKc14B_ParamSetTypejj, __ZN14SearchParamSetC2ERKS_PKc14B_ParamSetTypejj, 
                       __ZN14SilenceTracker13trackIsSpeechEj, __ZN14SilenceTracker13updateSigProcEP7SigProc, 
                       __ZN14SilenceTracker15inOutlierRegionEj, __ZN14SilenceTracker18initSilenceTrackerEPK7SigProcPK15ChannelParamSet, 
                       __ZN14SilenceTracker23copySilenceTrackerStateEv, 
                       __ZN14SilenceTracker31loadSilenceTrackerStateFromCopyEv, 
                       __ZN14SilenceTrackerC1Ev, __ZN14SilenceTrackerC2Ev, 
                       __ZN14SilenceTrackerD1Ev, __ZN14SilenceTrackerD2Ev, 
                       __ZN14TLocaleHandler12ms_MacLocaleE, __ZN14TResGraphMaker3addEPK6TGraphm, 
                       __ZN14TResGraphMaker5clearEv, __ZN14TResultManager10createHintEmmN5THint5TTypeEPKwS3_, 
                       __ZN14TResultManager10createHintEmmPKcN5THint5TTypeE, 
                       __ZN14TResultManager11deserializeEPKcm, __ZN14TResultManager13setResultTextEPP22TPItnResultHandle_fakePKcRNSt3__16vectorImNS5_9allocatorImEEEE, 
                       __ZN14TResultManager14copyAlignRangeEPP22TPItnResultHandle_fakemm, 
                       __ZN14TResultManager16splitAtTextIndexEPP22TPItnResultHandle_fakem, 
                       __ZN14TResultManager5mergeEPKPP22TPItnResultHandle_fakem, 
                       __ZN14TResultManager5splitEPP22TPItnResultHandle_fakeRKNSt3__16vectorImNS3_9allocatorImEEEER7TBufferIS2_E, 
                       __ZN14TResultManager6createEPK6TBlockS2_mRKNSt3__16vectorI12TItnWordDataNS3_9allocatorIS5_EEEERK16TItnControlStatebb, 
                       __ZN14TResultManager7destroyEPP22TPItnResultHandle_fake, 
                       __ZN14TResultManager7replaceEPKPP22TPItnResultHandle_fakemmmPKcR7TBufferIS2_E, 
                       __ZN14TResultManager9applyHintEPP20TPItnHintHandle_fake, 
                       __ZN14TResultManager9getResultEPP22TPItnResultHandle_fake, 
                       __ZN14TResultManagerC1EP10TTokenizerP8TLexiconP16TItnParamManagerP15TItnRuleManager, 
                       __ZN14TResultManagerC2EP10TTokenizerP8TLexiconP16TItnParamManagerP15TItnRuleManager, 
                       __ZN14TResultManagerD0Ev, __ZN14TResultManagerD1Ev, 
                       __ZN14TResultManagerD2Ev, __ZN14TScoreCombiner10complementEd, 
                       __ZN14TScoreCombiner7combineEdd, __ZN14TScoreCombiner7scr_expEd, 
                       __ZN14TransUtilities12getNumErrorsERK8DgnArrayI12DgnPrimArrayIjEES5_PjS6_S6_S6_, 
                       __ZN14TransUtilities13stripSilencesERK8DgnArrayI12DgnPrimArrayIjEE, 
                       __ZN14TransUtilities14addEndSilencesER8DgnArrayI12DgnPrimArrayIjEE, 
                       __ZN14TransUtilities17addAlternatePronsER8DgnArrayI12DgnPrimArrayIjEE, 
                       __ZN14TransUtilities8countOOVERK8DgnArrayI12DgnPrimArrayIjEE, 
                       __ZN14TransUtilities9getErrorsERK8DgnArrayI12DgnPrimArrayIjEES5_PS0_I15AlignmentRegionE, 
                       __ZN15AdaptAccumStats19initAdaptAccumTimesERK8SnapTimeS2_S2_S2_S2_S2_, 
                       __ZN15AdaptApplyStats19initAdaptApplyTimesERK8SnapTimeS2_S2_S2_S2_S2_, 
                       __ZN15AdaptController10segmentOneEP9UtteranceRK12RecogContextbb, 
                       __ZN15AdaptController11getDataDevsEjP12DgnPrimArrayIyE, 
                       __ZN15AdaptController11loadMacFileEP5DFiled, __ZN15AdaptController11loadPacFileEP5DFiled, 
                       __ZN15AdaptController11saveMacFileEP5DFile, __ZN15AdaptController11savePacFileEP5DFile, 
                       __ZN15AdaptController12getDataMeansEjP12DgnPrimArrayIyE, 
                       __ZN15AdaptController12hasAccumDataEv, __ZN15AdaptController13adaptOneFrameEtdi, 
                       __ZN15AdaptController13endBatchAdaptEv, __ZN15AdaptController13loadPelAccumsEP5DFiled, 
                       __ZN15AdaptController13savePelAccumsEP5DFile, __ZN15AdaptController14collectDTMMOneEtP9UtteranceRK12RecogContextbPK8DgnArrayI12DgnPrimArrayIjEERK9DgnIArrayIPS7_ERKSB_IPS5_IS5_I10ParseTokenEEEbPK6PhnMgrbPFbvERKS7_P11PrefiltererP15LookaheadScorerRK8FileSpecbR8SnapTime, 
                       __ZN15AdaptController14getAccumByCompEj, __ZN15AdaptController15applyBatchAdaptERK8SnapTimePj, 
                       __ZN15AdaptController15beginBatchAdaptEv, __ZN15AdaptController16initAccumulatorsEv, 
                       __ZN15AdaptController16loadAccumulatorsERK8DgnArrayI8FileSpecERK12DgnPrimArrayIdE, 
                       __ZN15AdaptController16saveAccumulatorsERK8FileSpec, 
                       __ZN15AdaptController17adaptSegmentationEP9UtterancePK18BandwidthTransformPK12SegmentationPK12DgnPrimArrayIdE, 
                       __ZN15AdaptController17generateIntrudersEtP9UtterancePK18BandwidthTransformPK12SegmentationPK15NBestChoiceListPK11WordLatticeRK12DgnPrimArrayIjEP9DgnStringPKSE_IdERK8FileSpecb, 
                       __ZN15AdaptController17initNewBasisAccumEt, __ZN15AdaptController18accumDTMMGradientsEPFbvERK8DgnArrayI8FileSpecEb, 
                       __ZN15AdaptController18adaptAccumulateOneEtP9UtteranceRK12RecogContextbPK8DgnArrayI12DgnPrimArrayIjEERK9DgnIArrayIPS7_ERKSB_IPS5_IS5_I10ParseTokenEEEbPK6PhnMgrPK12SegmentationbPFbvERKS7_P11PrefiltererP15LookaheadScorerRK8SnapTimeRK8FileSpecb, 
                       __ZN15AdaptController18initNewWeightAccumEt, __ZN15AdaptController19accumFromPelSegmentEPK17SynchronizedArrayI12DgnPrimArrayIhEEPK10PelSegmentd, 
                       __ZN15AdaptController19releaseAccumulatorsEv, __ZN15AdaptController21maybeInitAccumsForPelEtb, 
                       __ZN15AdaptController22applyDTMMGradientAccumEv, 
                       __ZN15AdaptController23getScaledFrameCountDevsEj, 
                       __ZN15AdaptController24getScaledFrameCountMeansEj, 
                       __ZN15AdaptController25accumDTMMGradientsOneIterEjPFbvERK8DgnArrayI8FileSpecEd, 
                       __ZN15AdaptController25adaptToBaumWelchAlignmentEP9UtterancePK18BandwidthTransformPK8DgnArrayIS5_I8NodeDataEEPK12DgnPrimArrayIdE, 
                       __ZN15AdaptController26computeBaumWelchFrameProbsEPK8DgnArrayI8NodeDataEPK12DgnPrimArrayIdEPS6_, 
                       __ZN15AdaptController31getTotalNonSilFramesAccumulatedEv, 
                       __ZN15AdaptController32addRelevanceAndCopyBackPelAccumsEv, 
                       __ZN15AdaptController8adaptPelEtdi, __ZN15AdaptControllerC1EttjjjjjjjRK11AdaptConfig, 
                       __ZN15AdaptControllerC2EttjjjjjjjRK11AdaptConfig, 
                       __ZN15AdaptControllerD1Ev, __ZN15AdaptControllerD2Ev, 
                       __ZN15AdapterParamSet11setDefaultsEv, __ZN15AdapterParamSet15setIntParameterEti, 
                       __ZN15AdapterParamSet16setBoolParameterEtb, __ZN15AdapterParamSet16setEnumParameterEti, 
                       __ZN15AdapterParamSet18setDoubleParameterEtd, __ZN15AdapterParamSet18setStringParameterEtPKc, 
                       __ZN15AdapterParamSet33setParamSetAdaptationMaxLogWeightEi, 
                       __ZN15AdapterParamSet34setParamSetAdaptationDTMMErrorBetaEd, 
                       __ZN15AdapterParamSet35setParamSetAdaptationBaumWelchScaleEd, 
                       __ZN15AdapterParamSet35setParamSetAdaptationDTMMScoreScaleEd, 
                       __ZN15AdapterParamSet35setParamSetAdaptationMicUseDiagonalEb, 
                       __ZN15AdapterParamSet36setParamSetAdaptationDTMMErrorOffsetEd, 
                       __ZN15AdapterParamSet38setParamSetAdaptationBasisDevRelevanceEi, 
                       __ZN15AdapterParamSet38setParamSetAdaptationDTMMErrorFunctionEi, 
                       __ZN15AdapterParamSet38setParamSetAdaptationDTMMMinTotalCountEd, 
                       __ZN15AdapterParamSet38setParamSetAdaptationDTMMNumIterationsEi, 
                       __ZN15AdapterParamSet38setParamSetAdaptationDurationRelevanceEi, 
                       __ZN15AdapterParamSet38setParamSetAdaptationTransAccRelevanceEi, 
                       __ZN15AdapterParamSet39setParamSetAdaptationBasisMeanRelevanceEi, 
                       __ZN15AdapterParamSet39setParamSetAdaptationLogWeightRelevanceEi, 
                       __ZN15AdapterParamSet40setParamSetAdaptationDTMMSmoothGradientsEb, 
                       __ZN15AdapterParamSet40setParamSetAdaptationDTMMSmoothRelevanceEi, 
                       __ZN15AdapterParamSet41setParamSetAdaptationBaumWelchThreshScoreEi, 
                       __ZN15AdapterParamSet41setParamSetAdaptationConTransAccRelevanceEi, 
                       __ZN15AdapterParamSet41setParamSetAdaptationDTMMMaxIntruderCountEi, 
                       __ZN15AdapterParamSet41setParamSetAdaptationDTMMMinNegativeCountEd, 
                       __ZN15AdapterParamSet41setParamSetAdaptationDTMMMinPositiveCountEd, 
                       __ZN15AdapterParamSet42setParamSetAdaptationDTMMDevGradientWeightEd, 
                       __ZN15AdapterParamSet42setParamSetAdaptationTransAccNumIterationsEi, 
                       __ZN15AdapterParamSet43setParamSetAdaptationBaumWelchMaxUttSecondsEi, 
                       __ZN15AdapterParamSet43setParamSetAdaptationDTMMMeanGradientWeightEd, 
                       __ZN15AdapterParamSet43setParamSetAdaptationDTMMNormalizedDeltaMinEd, 
                       __ZN15AdapterParamSet43setParamSetAdaptationTransAccMinAccumFramesEi, 
                       __ZN15AdapterParamSet44setParamSetAdaptationSilenceAccumulateFactorEd, 
                       __ZN15AdapterParamSet45setParamSetAdaptationConTransAccNumIterationsEi, 
                       __ZN15AdapterParamSet45setParamSetAdaptationDTMMNormalizedDeltaRangeEd, 
                       __ZN15AdapterParamSet45setParamSetAdaptationTransAccMaxNumTransformsEi, 
                       __ZN15AdapterParamSet46setParamSetAdaptationConTransAccMinAccumFramesEi, 
                       __ZN15AdapterParamSet47setParamSetAdaptationDTMMNegativeGradientWeightEd, 
                       __ZN15AdapterParamSet47setParamSetAdaptationDTMMPositiveGradientWeightEd, 
                       __ZN15AdapterParamSet47setParamSetAdaptationNonSilenceAccumulateFactorEd, 
                       __ZN15AdapterParamSet48setParamSetAdaptationConTransAccMaxNumTransformsEi, 
                       __ZN15AdapterParamSet48setParamSetAdaptationDTMMIntruderMinMicrosecondsEi, 
                       __ZN15AdapterParamSet49setParamSetAdaptationConTransAccOnlineDecayFactorEd, 
                       __ZN15AdapterParamSet49setParamSetAdaptationDTMMUniqMaxDeltaMicrosecondsEi, 
                       __ZN15AdapterParamSet50setParamSetAdaptationConTransAccComputeTranslationEb, 
                       __ZN15AdapterParamSet50setParamSetAdaptationConTransAccDiagonalTransformsEb, 
                       __ZN15AdapterParamSet51setParamSetAdaptationConTransAccOnlineDecayIntervalEi, 
                       __ZN15AdapterParamSet52setParamSetAdaptationTransAccComponentBackoffPercentEd, 
                       __ZN15AdapterParamSet53setParamSetAdaptationAccumulateLeftGenericBackoffPelsEb, 
                       __ZN15AdapterParamSet53setParamSetAdaptationConTransAccSilenceToSpeechWeightEi, 
                       __ZN15AdapterParamSet53setParamSetAdaptationTransAccGenoneClassMinFrameCountEi, 
                       __ZN15AdapterParamSet53setParamSetAdaptationTransAccGlobalSmoothingRelevanceEi, 
                       __ZN15AdapterParamSet54setParamSetAdaptationAccumulateRightGenericBackoffPelsEb, 
                       __ZN15AdapterParamSet54setParamSetAdaptationConTransAccComputeTransformMatrixEb, 
                       __ZN15AdapterParamSet54setParamSetAdaptationConTransAccInitFromIdentityMatrixEb, 
                       __ZN15AdapterParamSet54setParamSetAdaptationConTransAccOnlineNumTransformsMinEi, 
                       __ZN15AdapterParamSet55setParamSetAdaptationAccumulateDoublyGenericBackoffPelsEb, 
                       __ZN15AdapterParamSet55setParamSetAdaptationConTransAccComponentBackoffPercentEd, 
                       __ZN15AdapterParamSet56setParamSetAdaptationConTransAccGenoneClassMinFrameCountEi, 
                       __ZN15AdapterParamSet56setParamSetAdaptationConTransAccGlobalSmoothingRelevanceEi, 
                       __ZN15AdapterParamSet56setParamSetAdaptationConTransAccOnlineCommitIntervalUttsEi, 
                       __ZN15AdapterParamSet56setParamSetAdaptationConTransAccOnlineNumTransformsRangeEi, 
                       __ZN15AdapterParamSet56setParamSetAdaptationDTMMMaxIntrudersPerStartTimeSegmentEi, 
                       __ZN15AdapterParamSet57setParamSetAdaptationConTransAccRidgeRegularizationFactorEi, 
                       __ZN15AdapterParamSet57setParamSetAdaptationTransAccMaxTotalComponentProbabilityEd, 
                       __ZN15AdapterParamSet58setParamSetAdaptationTransAccGlobalSmoothingMinAccumFramesEi, 
                       __ZN15AdapterParamSet59setParamSetAdaptationConTransAccComputeHierScorerTransformsEb, 
                       __ZN15AdapterParamSet59setParamSetAdaptationConTransAccOnlineCommitIntervalSecondsEi, 
                       __ZN15AdapterParamSet60setParamSetAdaptationConTransAccDecomposedAccumCutoffPercentEi, 
                       __ZN15AdapterParamSet60setParamSetAdaptationConTransAccEconomizeCofactorComputationEb, 
                       __ZN15AdapterParamSet60setParamSetAdaptationConTransAccMaxTotalComponentProbabilityEd, 
                       __ZN15AdapterParamSet60setParamSetAdaptationConTransAccRootGenoneClassMinFrameCountEi, 
                       __ZN15AdapterParamSet61setParamSetAdaptationConTransAccGlobalSmoothingMinAccumFramesEi, 
                       __ZN15AdapterParamSet61setParamSetAdaptationConTransAccOnlineIncludeCurrentTransformEb, 
                       __ZN15AdapterParamSet61setParamSetAdaptationDTMMStartTimeSegmentMaxDeltaMicrosecondsEi, 
                       __ZN15AdapterParamSetC1EPKc14B_ParamSetTypejj, __ZN15AdapterParamSetC1ERKS_PKc14B_ParamSetTypejj, 
                       __ZN15AdapterParamSetC2EPKc14B_ParamSetTypejj, __ZN15AdapterParamSetC2ERKS_PKc14B_ParamSetTypejj, 
                       __ZN15ChannelParamSet11setDefaultsEv, __ZN15ChannelParamSet15setIntParameterEti, 
                       __ZN15ChannelParamSet16setBoolParameterEtb, __ZN15ChannelParamSet16setEnumParameterEti, 
                       __ZN15ChannelParamSet18setDoubleParameterEtd, __ZN15ChannelParamSet18setStringParameterEtPKc, 
                       __ZN15ChannelParamSet31setParamSetChannelThreadingTypeEi, 
                       __ZN15ChannelParamSet32setParamSetUttDetSpeechOffsetMinEi, 
                       __ZN15ChannelParamSet33setParamSetUttDetLimitFrameEnergyEb, 
                       __ZN15ChannelParamSet34setParamSetUttDetSpeechOffsetRangeEi, 
                       __ZN15ChannelParamSet36setParamSetUttDetSpeechUttSecondsMinEi, 
                       __ZN15ChannelParamSet37setParamSetChannelEnablePitchTrackingEb, 
                       __ZN15ChannelParamSet38setParamSetUttDetSpeechUttSecondsRangeEi, 
                       __ZN15ChannelParamSet39setParamSetUttDetMaxNonSpeechUttSecondsEi, 
                       __ZN15ChannelParamSet40setParamSetChannelAdaptationCDFRelevanceEi, 
                       __ZN15ChannelParamSet40setParamSetChannelMaxNormEnergyUseOnlineEb, 
                       __ZN15ChannelParamSet40setParamSetUttDetBackgroundThreshPercentEi, 
                       __ZN15ChannelParamSet40setParamSetUttDetEndUttMinTriggerPercentEi, 
                       __ZN15ChannelParamSet41setParamSetChannelSilenceTrackerRelevanceEi, 
                       __ZN15ChannelParamSet41setParamSetUttDetEndUttWindowMicrosecondsEi, 
                       __ZN15ChannelParamSet42setParamSetChannelAdaptationMeansRelevanceEi, 
                       __ZN15ChannelParamSet42setParamSetUttDetBeginUttMinTriggerPercentEi, 
                       __ZN15ChannelParamSet42setParamSetUttDetInitialBackgroundLevelMinEi, 
                       __ZN15ChannelParamSet42setParamSetUttDetSpeechThreshOffsetPercentEi, 
                       __ZN15ChannelParamSet43setParamSetUttDetBeginUttWindowMicrosecondsEi, 
                       __ZN15ChannelParamSet44setParamSetChannelSilenceTrackerInitialLevelEi, 
                       __ZN15ChannelParamSet44setParamSetChannelSilenceTrackerSpeechThreshEi, 
                       __ZN15ChannelParamSet44setParamSetChannelWaveInputClippingThresholdEi, 
                       __ZN15ChannelParamSet44setParamSetUttDetInitialBackgroundLevelRangeEi, 
                       __ZN15ChannelParamSet45setParamSetChannelAdaptationVarianceRelevanceEi, 
                       __ZN15ChannelParamSet45setParamSetChannelWaveStereoInputSelectSourceEi, 
                       __ZN15ChannelParamSet45setParamSetUttDetInitializeWindowMicrosecondsEi, 
                       __ZN15ChannelParamSet46setParamSetChannelSpectralSubtractionDecayRateEd, 
                       __ZN15ChannelParamSet46setParamSetChannelSpectralSubtractionTargetSNREd, 
                       __ZN15ChannelParamSet47setParamSetChannelAdaptationMeansRelevanceScaleEd, 
                       __ZN15ChannelParamSet48setParamSetChannelAdaptationCDFUseSilenceTrackerEb, 
                       __ZN15ChannelParamSet48setParamSetChannelAdaptationDelayApplyTillUttEndEb, 
                       __ZN15ChannelParamSet48setParamSetChannelSilenceTrackerBackgroundThreshEi, 
                       __ZN15ChannelParamSet48setParamSetChannelWaveInputEnableSpectralWarpingEb, 
                       __ZN15ChannelParamSet49setParamSetChannelAdaptationCDFAdaptFastInitiallyEb, 
                       __ZN15ChannelParamSet49setParamSetChannelAdaptationCDFWindowMicrosecondsEi, 
                       __ZN15ChannelParamSet49setParamSetChannelAdaptationMeansApplySynchronousEb, 
                       __ZN15ChannelParamSet49setParamSetChannelAdaptationMeansReestimationTypeEi, 
                       __ZN15ChannelParamSet49setParamSetUttDetBackgroundFloorDecreasePerSecondEi, 
                       __ZN15ChannelParamSet49setParamSetUttDetBackgroundFloorIncreasePerSecondEi, 
                       __ZN15ChannelParamSet50setParamSetChannelAdaptationMeansUseSilenceTrackerEb, 
                       __ZN15ChannelParamSet50setParamSetChannelSilenceTrackerDecrementPerSecondEi, 
                       __ZN15ChannelParamSet50setParamSetChannelSilenceTrackerIncrementPerSecondEi, 
                       __ZN15ChannelParamSet50setParamSetUttDetResetFileChannelStateAfterSectionEb, 
                       __ZN15ChannelParamSet51setParamSetChannelAdaptationMeansAdaptFastInitiallyEb, 
                       __ZN15ChannelParamSet51setParamSetChannelAdaptationMeansWindowMicrosecondsEi, 
                       __ZN15ChannelParamSet51setParamSetChannelWavePacketLossDetectionPacketSizeEi, 
                       __ZN15ChannelParamSet51setParamSetChannelWavePacketLossDetectionWindowSizeEi, 
                       __ZN15ChannelParamSet52setParamSetChannelAdaptationMeansC0UseSilenceTrackerEb, 
                       __ZN15ChannelParamSet52setParamSetChannelAdaptationMeansDelayApplyInitiallyEb, 
                       __ZN15ChannelParamSet52setParamSetChannelWavePacketLossDetectionSlopeThreshEi, 
                       __ZN15ChannelParamSet53setParamSetChannelAdaptationVarianceUseSilenceTrackerEb, 
                       __ZN15ChannelParamSet54setParamSetChannelAdaptationVarianceAdaptFastInitiallyEb, 
                       __ZN15ChannelParamSet54setParamSetChannelAdaptationVarianceWindowMicrosecondsEi, 
                       __ZN15ChannelParamSet54setParamSetChannelOnlineMaxNormEnergyGeneralDecayValueEi, 
                       __ZN15ChannelParamSet54setParamSetChannelOnlineMaxNormEnergyGeneralRampFactorEi, 
                       __ZN15ChannelParamSet54setParamSetChannelSpectralSubtractionDelayMicrosecondsEi, 
                       __ZN15ChannelParamSet55setParamSetChannelSpectralSubtractionDisableAtTargetSNREb, 
                       __ZN15ChannelParamSet55setParamSetChannelSpectralSubtractionMinSNRMicrosecondsEi, 
                       __ZN15ChannelParamSet56setParamSetChannelOnlineMaxNormEnergyInitialWindowFramesEi, 
                       __ZN15ChannelParamSet56setParamSetChannelSilenceTrackerOutlierMinTriggerPercentEi, 
                       __ZN15ChannelParamSet56setParamSetChannelSpectralSubtractionMaxNoiseScaleChangeEd, 
                       __ZN15ChannelParamSet56setParamSetUttDetBackgroundFloorOutlierMinTriggerPercentEi, 
                       __ZN15ChannelParamSet57setParamSetChannelSilenceTrackerOutlierWindowMicrosecondsEi, 
                       __ZN15ChannelParamSet57setParamSetUttDetBackgroundFloorOutlierWindowMicrosecondsEi, 
                       __ZN15ChannelParamSet58setParamSetChannelAdaptationMeansInitialWindowMicrosecondsEi, 
                       __ZN15ChannelParamSet58setParamSetChannelWavePacketLossDetectionSlopeCountPercentEi, 
                       __ZN15ChannelParamSet62setParamSetChannelSpectralSubtractionInitialWindowMicrosecondsEi, 
                       __ZN15ChannelParamSet63setParamSetChannelAdaptationInterpolatedCDFMaxPercentMassPerBinEi, 
                       __ZN15ChannelParamSet64setParamSetChannelSpectralSubtractionStartDecimationMicrosecondsEi, 
                       __ZN15ChannelParamSet65setParamSetChannelAdaptationMeansAccumSmoothingWindowMicrosecondsEi, 
                       __ZN15ChannelParamSetC1EPKc14B_ParamSetTypejj, __ZN15ChannelParamSetC1ERKS_PKc14B_ParamSetTypejj, 
                       __ZN15ChannelParamSetC2EPKc14B_ParamSetTypejj, __ZN15ChannelParamSetC2ERKS_PKc14B_ParamSetTypejj, 
                       __ZN15CorrelationPeakC1Ev, __ZN15CorrelationPeakC2Ev, 
                       __ZN15CorrelationPeakaSERKS_, __ZN15DSMGlobalRecord12copyAsSharedERKS_16B_DSMGlobalState, 
                       __ZN15DSMGlobalRecord5resetEv, __ZN15DgnSharedMemMgr13startupDSMMgrEPKc, 
                       __ZN15DgnSharedMemMgr14shutdownDSMMgrEv, __ZN15DgnSharedMemMgr25getMaybeCreateSetObjectExERK9DgnStringS2_, 
                       __ZN15DgnSharedMemMgr9smpDSMMgrE, __ZN15DgnSharedMemMgrC1EPKc, 
                       __ZN15DgnSharedMemMgrC2EPKc, __ZN15DgnSharedMemMgrD1Ev, 
                       __ZN15DgnSharedMemMgrD2Ev, __ZN15DgnSharedMemSet10closeDSMExEj, 
                       __ZN15DgnSharedMemSet10unmapDSMExEj, __ZN15DgnSharedMemSet10unrefDSMExEj, 
                       __ZN15DgnSharedMemSet17openDSMWithSizeExEj13B_DSMOpenModePy, 
                       __ZN15DgnSharedMemSet21checkMaybeRepairDSMExEj14B_DSMCheckMode, 
                       __ZN15DgnSharedMemSet21createMaybeRemapDSMExEjb, 
                       __ZN15DgnSharedMemSet22waitTilCreatedAndMapExEjRK9DgnStringj, 
                       __ZN15DgnSharedMemSet28getMaybeReserveAndRefDSMIdExERK9DgnStringb, 
                       __ZN15DgnSharedMemSet8mapDSMExEjbPv, __ZN15DgnSharedMemSet9createSetERK9DgnStringS2_, 
                       __ZN15DgnSharedMemSetD1Ev, __ZN15DgnSharedMemSetD2Ev, 
                       __ZN15DgnThreadClient10clearTraceEv, __ZN15DgnThreadClient14playOneBlockedEv, 
                       __ZN15DgnThreadClient15handleExceptionEP12DgnException16B_ErrorThrowType, 
                       __ZN15DgnThreadClient19checkForWorkerErrorEv, __ZN15DgnThreadClient21handleMemoryExceptionEj, 
                       __ZN15DgnThreadClient22recordClientTraceEventEj25B_DgnThreadTraceEventType, 
                       __ZN15DgnThreadClient22recordWorkerTraceEventE25B_DgnThreadTraceEventType, 
                       __ZN15DgnThreadClient24playAllUntilWorkerPausesEv, 
                       __ZN15DgnThreadClient28waitForThreadDoneOrTerminateEj, 
                       __ZN15DgnThreadClient4playEv, __ZN15DgnThreadClient5errorEv, 
                       __ZN15DgnThreadClient5pauseEv, __ZN15DgnThreadClient5traceEb, 
                       __ZN15DgnThreadClient7startupEv, __ZN15DgnThreadClient8shutdownEv, 
                       __ZN15DgnThreadClient9newWorkerEv, __ZN15DgnThreadClient9terminateEv, 
                       __ZN15DgnThreadClientC1E24B_DgnThreadExecutionTypeP14MemChunkRegionPKc, 
                       __ZN15DgnThreadClientC2E24B_DgnThreadExecutionTypeP14MemChunkRegionPKc, 
                       __ZN15DgnThreadClientD0Ev, __ZN15DgnThreadClientD1Ev, 
                       __ZN15DgnThreadClientD2Ev, __ZN15DgnThreadWorker10onShutdownEv, 
                       __ZN15DgnThreadWorker12notificationEP19AbstractObservation, 
                       __ZN15DgnThreadWorker20reportErrorAsWarningEb, __ZN15DgnThreadWorker4mainEv, 
                       __ZN15DgnThreadWorker4playE18B_DgnThreadRequest, 
                       __ZN15DgnThreadWorker6onPlayEv, __ZN15DgnThreadWorker7playOneEv, 
                       __ZN15DgnThreadWorker9onStartupEv, __ZN15DgnThreadWorkerC1E24B_DgnThreadExecutionTypeP15DgnThreadClientP14MemChunkRegionj, 
                       __ZN15DgnThreadWorkerC2E24B_DgnThreadExecutionTypeP15DgnThreadClientP14MemChunkRegionj, 
                       __ZN15DgnThreadWorkerD0Ev, __ZN15DgnThreadWorkerD1Ev, 
                       __ZN15DgnThreadWorkerD2Ev, __ZN15DoubleParamSpecC1EPKcS1_S1_PK22DoubleParamHistoryItem, 
                       __ZN15DoubleParamSpecC2EPKcS1_S1_PK22DoubleParamHistoryItem, 
                       __ZN15DoubleParamSpecD0Ev, __ZN15DoubleParamSpecD1Ev, 
                       __ZN15DoubleParamSpecD2Ev, __ZN15DynamicParamSet15removeParameterEPKc, 
                       __ZN15DynamicParamSet15removeParameterEt, __ZN15DynamicParamSet15setIntParameterEPKci, 
                       __ZN15DynamicParamSet15setIntParameterEti, __ZN15DynamicParamSet16setBoolParameterEPKcb, 
                       __ZN15DynamicParamSet16setBoolParameterEtb, __ZN15DynamicParamSet16setEnumParameterEPKcS1_b, 
                       __ZN15DynamicParamSet16setEnumParameterEtPKcb, __ZN15DynamicParamSet18setDoubleParameterEPKcd, 
                       __ZN15DynamicParamSet18setDoubleParameterEtd, __ZN15DynamicParamSet18setStringParameterEPKcS1_b, 
                       __ZN15DynamicParamSet18setStringParameterEtPKcb, 
                       __ZN15DynamicParamSetC1EPKc14B_ParamSetType18DgnTextFileVersionRK12DgnPrimArrayItE, 
                       __ZN15DynamicParamSetC1ERKS_, __ZN15DynamicParamSetC2EPKc14B_ParamSetType18DgnTextFileVersionRK12DgnPrimArrayItE, 
                       __ZN15DynamicParamSetC2ERKS_, __ZN15ExternalChannel10openSourceEPK14AcousticFormatP9DgnString, 
                       __ZN15ExternalChannel11closeSourceEv, __ZN15ExternalChannel13readUtteranceEbbbb, 
                       __ZN15ExternalChannel14isUttAvailableEv, __ZN15ExternalChannel15getSourceFormatER14AcousticFormatP9DgnString, 
                       __ZN15ExternalChannel15processOneEventEv, __ZN15ExternalChannel22collectThroughUttFrameEP9Utterancei, 
                       __ZN15ExternalChannel23collectAllAvailableDataEv, 
                       __ZN15ExternalChannel26collectAvailableDataForUttEP9Utterance, 
                       __ZN15ExternalChannel29convertExtChanResToAbsChanResE22B_ExtAudioSourceStatus, 
                       __ZN15ExternalChannel30collectAllAvailableChannelDataEv, 
                       __ZN15ExternalChannelC1Ej13B_ChannelType, __ZN15ExternalChannelC1EjP19ExternalChannelSpecb, 
                       __ZN15ExternalChannelC2Ej13B_ChannelType, __ZN15ExternalChannelC2EjP19ExternalChannelSpecb, 
                       __ZN15ExternalChannelD0Ev, __ZN15ExternalChannelD1Ev, 
                       __ZN15ExternalChannelD2Ev, __ZN15FeatureSelector12processFrameEP9FrameDataP9DgnIArrayIS1_E, 
                       __ZN15FeatureSelectorC1ERK19FeatureSelectorSpec, 
                       __ZN15FeatureSelectorC2ERK19FeatureSelectorSpec, 
                       __ZN15FeatureUnscaler12processFrameEP9FrameDataP9DgnIArrayIS1_E, 
                       __ZN15FeatureUnscalerC1ERK16FeatureScaleSpec, __ZN15FeatureUnscalerC2ERK16FeatureScaleSpec, 
                       __ZN15FileAudioSource18newFileAudioSourceE21B_ChannelOpenFileTypeRK8FileSpecbbbbd, 
                       __ZN15FileAudioSource19isTimeForMoreFramesEv, __ZN15FileAudioSource20closeFileAudioSourceEv, 
                       __ZN15FileAudioSource21simulateFramesAllowedEv, 
                       __ZN15FileAudioSource28maybeStartSimulatingRealTimeEv, 
                       __ZN15GenoneClassTree11initForTypeE21B_GenoneClassTreeTypeP12DgnPrimArrayIjE, 
                       __ZN15GenoneClassTree15compareElementsEPvPKvS2_, 
                       __ZN15GenoneClassTree17getDynamicClassesERK12DgnPrimArrayIjEjjjR8DgnArrayIS1_ES6_, 
                       __ZN15GenoneClassTree17getGenIdsForTNodeEjR12DgnPrimArrayItE, 
                       __ZN15GenoneClassTree17initGenoneClassesEv, __ZN15GenoneClassTree17makeCTTNodeIdMapsEv, 
                       __ZN15GenoneClassTree19copyGenoneClassTreeEPKS_, 
                       __ZN15GenoneClassTree19loadGenoneClassTreeEP5DFileP14DFileChecksumsb, 
                       __ZN15GenoneClassTree23loadGenoneClassTreeTextEP5DFile, 
                       __ZN15GenoneClassTree27repairBasedOnExcisedGenonesEv, 
                       __ZN15GenoneClassTree34clearDecomposedInverseVarianceDataEv, 
                       __ZN15GenoneClassTree58decomposeInverseVariancesForTransformationMatrixAdaptationEv, 
                       __ZN15GenoneClassTree7releaseEv, __ZN15GenoneClassTreeC1EPK6PelMgr, 
                       __ZN15GenoneClassTreeC2EPK6PelMgr, __ZN15GenoneClassTreeD1Ev, 
                       __ZN15GenoneClassTreeD2Ev, __ZN15LUDecomposeData12forwardSubstER9DgnVector, 
                       __ZN15LUDecomposeData14signedDiagProdEv, __ZN15LUDecomposeData9backSubstER9DgnVector, 
                       __ZN15LUDecomposeData9decomposeEv, __ZN15LexTreePathIter12nextStandardEv, 
                       __ZN15LexTreePathIterC1EPK8DgnArrayI12TreePhoneRecEj, 
                       __ZN15LexTreePathIterC2EPK8DgnArrayI12TreePhoneRecEj, 
                       __ZN15LinearTransform10readObjectEP9DgnStreamRj, 
                       __ZN15LinearTransform12setTransformERK8DgnArrayI12DgnPrimArrayIiEEtRKS2_bjb, 
                       __ZN15LinearTransform7setSizeEjj, __ZN15LinearTransform9padMatrixEv, 
                       __ZN15LinearTransformC1ERKS_, __ZN15LinearTransformC1Ev, 
                       __ZN15LinearTransformC2ERKS_, __ZN15LinearTransformC2Ev, 
                       __ZN15LinearTransformD1Ev, __ZN15LinearTransformD2Ev, 
                       __ZN15LinearTransformaSERKS_, __ZN15LoadSaveTrackerC1Ev, 
                       __ZN15LoadSaveTrackerC2Ev, __ZN15LoadSaveTrackerD1Ev, 
                       __ZN15LoadSaveTrackerD2Ev, __ZN15NBestChoiceList16shrinkChoiceListEj, 
                       __ZN15NBestChoiceList17computeConfidenceEPK18ConfidenceParamSet, 
                       __ZN15NBestChoiceList22computeNBestConfidenceEjRK8DgnArrayIS0_I12DgnPrimArrayIjEEEjPS2_, 
                       __ZN15NBestChoiceList25computeUttLevelConfidenceEPK18ConfidenceParamSetPK17UttConfidenceInfo, 
                       __ZN15NBestChoiceList26computeConfidenceForResultEPK18ConfidenceParamSetP11NBestChoiceRK8DgnArrayIS5_I12DgnPrimArrayIjEEEjjP17UttConfidenceInfo, 
                       __ZN15NBestChoiceList26computeWordLevelConfidenceEPK18ConfidenceParamSetjP8DgnArrayI18WordConfidenceInfoE, 
                       __ZN15NBestChoiceListC1ERKS_, __ZN15NBestChoiceListC2ERKS_, 
                       __ZN15NistHeaderFieldC1ERKS_, __ZN15NistHeaderFieldC1Ev, 
                       __ZN15NistHeaderFieldC2ERKS_, __ZN15NistHeaderFieldC2Ev, 
                       __ZN15NistHeaderFieldaSERKS_, __ZN15NonCoartSyncNet12attachInPortEhP4Node, 
                       __ZN15NonCoartSyncNet16scoreNetInternalEiiiii, __ZN15NonCoartSyncNet17configureOutPortsEi, 
                       __ZN15NonCoartSyncNet18addNodesSequentialEj12B_ScoreOrder, 
                       __ZN15NonCoartSyncNet18calcNumActiveNodesEi, __ZN15NonCoartSyncNet20thresholdNetInternalEii, 
                       __ZN15NonCoartSyncNetD0Ev, __ZN15NonCoartSyncNetD1Ev, 
                       __ZN15NonCoartSyncNetD2Ev, __ZN15ParseTokenRange11computeHashERKS_, 
                       __ZN15ParseTokenRangeD1Ev, __ZN15ParseTokenRangeD2Ev, 
                       __ZN15PrefilterResult11setCompleteEv, __ZN15PrefilterResult19loadPrefilterResultERK8FileSpec, 
                       __ZN15PrefilterResult27fillFromPrefilterResultDataERK19PrefilterResultDataRK8FileSpec, 
                       __ZN15PrefilterResult8addEntryEijs, __ZN15PrefilterResult9cacheCopyERK8DgnArrayI4GermE, 
                       __ZN15PrefilterResult9initEmptyEj, __ZN15PrefilterResultC1Et, 
                       __ZN15PrefilterResultC2Et, __ZN15PrefilterResultD1Ev, 
                       __ZN15PrefilterResultD2Ev, __ZN15QuickFindFirstK12swapElementsEiiR8DgnArrayI13SScoreIdxPairE, 
                       __ZN15QuickFindFirstK15quickfindFirstKER8DgnArrayI13SScoreIdxPairEiii, 
                       __ZN15QuickFindFirstK24quickfindFirstKpartitionER8DgnArrayI13SScoreIdxPairEiii, 
                       __ZN15RecogController10accumulateEtR12DgnPrimArrayIhE, 
                       __ZN15RecogController11getReproMgrEv, __ZN15RecogController16setupRecognizersERK8DgnArrayI10ScoreArrayES4_bPK7HashKEVIjj12StateIdScopeES9_S9_PK8BitArrayRK12DgnPrimArrayItE, 
                       __ZN15RecogController17abortRecognizeOneEv, __ZN15RecogController17makePartialResultEv, 
                       __ZN15RecogController17startRecognizeOneEtP9UtterancePK15PrefilterResultR9DgnIArrayIP14SearchParamSetERK12RecogContextbPK8DgnArrayI12DgnPrimArrayIjEERKS5_IPSF_ERKS5_IPSD_ISD_I10ParseTokenEEERKS5_IPSD_I18WordTransducerSpecEERKS5_IPK11WordLatticeEbbPK6PhnMgrSI_bRKSE_IbEP11PrefiltererPS2_P15LookaheadScorerRK8SnapTimeP8ReproMgrPK12SegmentationSI_, 
                       __ZN15RecogController18finishRecognizeOneEP9DgnIArrayIP11WordLatticeE, 
                       __ZN15RecogController20doAtEndOfRecognitionEv, __ZN15RecogController20recognizeOneDoFramesEbjP13DgnBreakPoint, 
                       __ZN15RecogController22extractPrefilterResultEv, 
                       __ZN15RecogController23recognizeOneSingleLayerEtP9UtterancePK15PrefilterResultP14SearchParamSetRK12RecogContextbPK8DgnArrayI12DgnPrimArrayIjEERK9DgnIArrayIPSC_ERKSG_IPSA_ISA_I10ParseTokenEEEbbPK6PhnMgrSF_bbP11PrefiltererPS2_P15LookaheadScorerRK8SnapTime, 
                       __ZN15RecogController24recognizeOneDoMainSearchEP8SnapTimePj, 
                       __ZN15RecogController28setCallerThreadIdForChildrenEj, 
                       __ZN15RecogController33restartPostSynchronousRecognitionEv, 
                       __ZN15RecogController43maybeEstimateAndPreScoreActivePelsThisFrameEP8BitArrayRK12DgnPrimArrayIhE, 
                       __ZN15RecogController46maybeCleanupAfterEstimateAndPreScoreActivePelsERK8BitArray, 
                       __ZN15RecogControllerC1ERK9RecogSpecbP25PrefiltererSearchParamSetP24SearchCrossLayerParamSet, 
                       __ZN15RecogControllerC2ERK9RecogSpecbP25PrefiltererSearchParamSetP24SearchCrossLayerParamSet, 
                       __ZN15RecogControllerD0Ev, __ZN15RecogControllerD1Ev, 
                       __ZN15RecogControllerD2Ev, __ZN15RecogLayerStatsC1Ev, 
                       __ZN15RecogLayerStatsC2Ev, __ZN15RecogPhaseStatsC1Ev, 
                       __ZN15RecogPhaseStatsC2Ev, __ZN15ReturnListQueue11enqueueCopyEiRK8DgnArrayI4GermE, 
                       __ZN15ReturnListQueue11setCompleteEv, __ZN15ReturnListQueue5clearEv, 
                       __ZN15ReturnListQueue5resetEv, __ZN15ReturnListQueue7dequeueEPi, 
                       __ZN15ReturnListQueue7enqueueEiP8DgnArrayI4GermE, 
                       __ZN15ReturnListQueueC1EP15PrefilterResult39B_SearchPartialIncludePrefiltererResultt, 
                       __ZN15ReturnListQueueC1EP15PrefilterResultt, __ZN15ReturnListQueueC2EP15PrefilterResult39B_SearchPartialIncludePrefiltererResultt, 
                       __ZN15ReturnListQueueC2EP15PrefilterResultt, __ZN15ReturnListQueueD1Ev, 
                       __ZN15ReturnListQueueD2Ev, __ZN15SausageParamSet11setDefaultsEv, 
                       __ZN15SausageParamSet15setIntParameterEti, __ZN15SausageParamSet16setBoolParameterEtb, 
                       __ZN15SausageParamSet16setEnumParameterEti, __ZN15SausageParamSet18setDoubleParameterEtd, 
                       __ZN15SausageParamSet18setStringParameterEtPKc, 
                       __ZN15SausageParamSet40setParamSetSausageGenerationNewAlgorithmEb, 
                       __ZN15SausageParamSet45setParamSetSausageGenerationPruneGlobalThreshEd, 
                       __ZN15SausageParamSet46setParamSetSausageGenerationMinEpsilonPostProbEd, 
                       __ZN15SausageParamSet50setParamSetSausageGenerationAbortOnNumLatticeLinksEi, 
                       __ZN15SausageParamSetC1EPKc14B_ParamSetTypejj, __ZN15SausageParamSetC1ERKS_PKc14B_ParamSetTypejj, 
                       __ZN15SausageParamSetC2EPKc14B_ParamSetTypejj, __ZN15SausageParamSetC2ERKS_PKc14B_ParamSetTypejj, 
                       __ZN15SignalProcessor12processFrameEP9FrameDatabbbP9DgnIArrayIS1_ES4_, 
                       __ZN15SignalProcessor15resetAdaptablesEv, __ZN15SignalProcessor16enableAdaptablesEv, 
                       __ZN15SignalProcessor16resetPreEmphasisEv, __ZN15SignalProcessor16setTrackDCOffsetEb, 
                       __ZN15SignalProcessor18setWarpChoiceIndexEi, __ZN15SignalProcessor19updateSigProcUttDetEv, 
                       __ZN15SignalProcessor20copyAdaptablesStatesEv, __ZN15SignalProcessor21maybeComputePitchInfoEPK12DgnIOwnArrayIP8WaveDataEP8DgnArrayI9PitchInfoE, 
                       __ZN15SignalProcessor22updateSigProcChanStatsEv, 
                       __ZN15SignalProcessor25enableQueuingInAdaptablesEv, 
                       __ZN15SignalProcessor26disableQueuingInAdaptablesEv, 
                       __ZN15SignalProcessor28loadAdaptablesStatesFromCopyEv, 
                       __ZN15SignalProcessor52enableNonSpeechToSpeechTransitionQueuingInAdaptablesEv, 
                       __ZN15SignalProcessor53disableNonSpeechToSpeechTransitionQueuingInAdaptablesEv, 
                       __ZN15SignalProcessorC1EPK15ChannelParamSet18B_InputChannelTypeRK14AcousticFormatP7SigProcbbbbP12DgnPrimArrayIyEPS9_I15B_UtteranceTypeE, 
                       __ZN15SignalProcessorC2EPK15ChannelParamSet18B_InputChannelTypeRK14AcousticFormatP7SigProcbbbbP12DgnPrimArrayIyEPS9_I15B_UtteranceTypeE, 
                       __ZN15SignalProcessorD1Ev, __ZN15SignalProcessorD2Ev, 
                       __ZN15SimGenInterWord15similarityScoreERK7SectionS2_, 
                       __ZN15SimGenInterWord17similarityRescoreERK7SectionS2_iS2_i, 
                       __ZN15SimGenIntraWord15similarityScoreERK7SectionS2_, 
                       __ZN15SimGenIntraWord17similarityRescoreERK7SectionS2_iS2_i, 
                       __ZN15StringParamSpecC1EPKcS1_S1_PK22StringParamHistoryItem, 
                       __ZN15StringParamSpecC2EPKcS1_S1_PK22StringParamHistoryItem, 
                       __ZN15StringParamSpecD0Ev, __ZN15StringParamSpecD1Ev, 
                       __ZN15StringParamSpecD2Ev, __ZN15TCountingObjectC1EPK11TFileObjectRKNSt3__16vectorIP12TArrayObjectNS3_9allocatorIS6_EEEEP8TLexiconP10TAllocator, 
                       __ZN15TCountingObjectC2EPK11TFileObjectRKNSt3__16vectorIP12TArrayObjectNS3_9allocatorIS6_EEEEP8TLexiconP10TAllocator, 
                       __ZN15TGrammarManager10freeMemoryEv, __ZN15TGrammarManager10getLMScoreEPKwRKNSt3__16vectorI12TItnWordDataNS2_9allocatorIS4_EEEEmm, 
                       __ZN15TGrammarManager11clearResultEv, __ZN15TGrammarManager6searchERKNSt3__16vectorI12TItnWordDataNS0_9allocatorIS2_EEEEmmmRNS1_I21TGrammarManagerResultNS3_IS8_EEEE, 
                       __ZN15TGrammarManagerC1ER12TInputStreamPK11TTagManagerP8TLexiconP16TItnParamManager, 
                       __ZN15TGrammarManagerC2ER12TInputStreamPK11TTagManagerP8TLexiconP16TItnParamManager, 
                       __ZN15TGrammarManagerD1Ev, __ZN15TGrammarManagerD2Ev, 
                       __ZN15TItnRuleManager10deleteRuleEPP20TPItnRuleHandle_fake, 
                       __ZN15TItnRuleManager10freeMemoryEv, __ZN15TItnRuleManager10resetRulesEPKw, 
                       __ZN15TItnRuleManager13importChangesERKS_, __ZN15TItnRuleManager13resetAllRulesEv, 
                       __ZN15TItnRuleManager7addRuleEPK11TFileObjectbm, 
                       __ZN15TItnRuleManager7addRuleEPKwS1_bPKPP19TPItnTagHandle_fakeS6_S6_S6_PK16TPItnRuleControlS9_PP18TPParamHandle_fakeb, 
                       __ZN15TItnRuleManager9importAddERKS_RK7TBufferIPP20TPItnRuleHandle_fakeEPK5TWord, 
                       __ZN15TItnRuleManagerC1ER12TInputStreamP11TTagManagerP8TLexiconP16TItnParamManager, 
                       __ZN15TItnRuleManagerC2ER12TInputStreamP11TTagManagerP8TLexiconP16TItnParamManager, 
                       __ZN15TItnRuleManagerD0Ev, __ZN15TItnRuleManagerD1Ev, 
                       __ZN15TItnRuleManagerD2Ev, __ZN15TPatternManager10expandWordEP6TGraphP5TEdgeb, 
                       __ZN15TPatternManager10freeMemoryEv, __ZN15TPatternManager14addArrayObjectEPK11TFileObject, 
                       __ZN15TPatternManager14addDigitObjectEPK11TFileObject, 
                       __ZN15TPatternManager14addRomanObjectEPK11TFileObject, 
                       __ZN15TPatternManager17addCountingObjectEPK11TFileObject, 
                       __ZN15TPatternManager5clearEv, __ZN15TPatternManager8addWordsEP7TVertexP6TGraphP10TSegmenterm, 
                       __ZN15TPatternManagerC1ER12TInputStreamS1_P8TLexiconP22TTokenizerParamManager, 
                       __ZN15TPatternManagerC2ER12TInputStreamS1_P8TLexiconP22TTokenizerParamManager, 
                       __ZN15TPatternManagerD1Ev, __ZN15TPatternManagerD2Ev, 
                       __ZN15TRegExpCompiler10compileSetERPKw11TRegExpCaseP6TStateS5_, 
                       __ZN15TRegExpCompiler12compileFlagsERPKwP6TStateRS4_R11TRegExpCase, 
                       __ZN15TRegExpCompiler12compileRangeEww11TRegExpCaseP6TStateS2_, 
                       __ZN15TRegExpCompiler14mergeStateDataERKNSt3__13setIPK13TStateDataDefNS0_4lessIS4_EENS0_9allocatorIS4_EEEE, 
                       __ZN15TRegExpCompiler16addNfaTransitionEwP6TStateS1_, 
                       __ZN15TRegExpCompiler16compileCharacterERPKw11TRegExpCaseP6TStateS5_, 
                       __ZN15TRegExpCompiler17compileNegatedSetERPKw11TRegExpCaseP6TStateS5_, 
                       __ZN15TRegExpCompiler3addEPKwm, __ZN15TRegExpCompiler7compileERPKw11TRegExpCaseP6TStateS5_, 
                       __ZN15TRegExpCompiler7compileEv, __ZN15TRegExpCompilerC1ERK11TLocaleInfo, 
                       __ZN15TRegExpCompilerC2ERK11TLocaleInfo, __ZN15TRegExpCompilerD0Ev, 
                       __ZN15TRegExpCompilerD1Ev, __ZN15TRegExpCompilerD2Ev, 
                       __ZN15TRespellManager10expandWordEP6TGraphP5TEdgeb, 
                       __ZN15TRespellManager10freeMemoryEv, __ZN15TRespellManager16addRespellObjectEPK11TFileObject, 
                       __ZN15TRespellManagerC1ER12TInputStreamP8TLexiconPK22TTokenizerParamManager, 
                       __ZN15TRespellManagerC2ER12TInputStreamP8TLexiconPK22TTokenizerParamManager, 
                       __ZN15TRespellManagerD1Ev, __ZN15TRespellManagerD2Ev, 
                       __ZN15TWordBlockMaker13writeSequenceERKNSt3__16vectorIPK5TEdgeNS0_9allocatorIS4_EEEEbb, 
                       __ZN15TWordBlockMaker15updateDestLinksEPK5TEdgePK9TPathLinkRPS3_, 
                       __ZN15TWordBlockMaker16writeAlternativeEPK9TPathLink, 
                       __ZN15TWordBlockMaker3addEPK6TGraphm, __ZN15TWordBlockMaker4saveEPP12TknWordBlockPj, 
                       __ZN15TWordBlockMaker5clearEv, __ZN15TWordBlockMakerC1EmR11TLocaleInfo, 
                       __ZN15TWordBlockMakerC2EmR11TLocaleInfo, __ZN15TreePrefilterer10scoreFrameEiRK12DgnPrimArrayIhERK13ScoreFixArrayP15ReturnListQueue, 
                       __ZN15TreePrefilterer11getPhoneLmsERK12DgnPrimArrayIjEjPj, 
                       __ZN15TreePrefilterer14setInjectCwidsEPK8DgnArrayI12DgnPrimArrayIjEE, 
                       __ZN15TreePrefilterer15initPrefiltererEPK4Usertjb, 
                       __ZN15TreePrefilterer15initPrefiltererEPK4Usertjbb, 
                       __ZN15TreePrefilterer16endPrefSyncRecogEv, __ZN15TreePrefilterer16scoreFramesUntilEiPK17SynchronizedArrayI12DgnPrimArrayIhEEPKS0_I13ScoreFixArrayEP15ReturnListQueuePi, 
                       __ZN15TreePrefilterer17completeUtteranceEiP15ReturnListQueue, 
                       __ZN15TreePrefilterer17maybeDisplayShapeEv, __ZN15TreePrefilterer17setupEffectiveLmsEjj, 
                       __ZN15TreePrefilterer18beginPrefSyncRecogEbjjPK7CTFTMgrPK25PrefiltererSearchParamSet, 
                       __ZN15TreePrefilterer18computePicModelIdsEP3Vocj, 
                       __ZN15TreePrefilterer20setPelScoreCacheDataEPK17PelScoreCacheData, 
                       __ZN15TreePrefilterer20setupAllEffectiveLmsEv, __ZN15TreePrefilterer21populateUsingCwidListEb, 
                       __ZN15TreePrefilterer21setAllPhoneRecBestLmsEv, 
                       __ZN15TreePrefilterer22checkAndAddEndingWordsEjRK12DgnPrimArrayIjE, 
                       __ZN15TreePrefilterer27setPrefiltererBuildParamSetEPK24PrefiltererBuildParamSet, 
                       __ZN15TreePrefilterer30setSynchronousPrefiltererStatsEv, 
                       __ZN15TreePrefilterer7getListEiP8DgnArrayI4GermEj, 
                       __ZN15TreePrefiltererC1Ev, __ZN15TreePrefiltererC2Ev, 
                       __ZN15TreePrefiltererD0Ev, __ZN15TreePrefiltererD1Ev, 
                       __ZN15TreePrefiltererD2Ev, __ZN15WarpCoordinates10readObjectEP9DgnStreamRj, 
                       __ZN16ActiveWordCoart19addInPortEt, __ZN16ActiveWordCoart1C1EP13ActiveWordMgrP6HmmNet, 
                       __ZN16ActiveWordCoart1C2EP13ActiveWordMgrP6HmmNet, 
                       __ZN16ActiveWordCoart1D0Ev, __ZN16ActiveWordCoart1D1Ev, 
                       __ZN16ActiveWordCoart1D2Ev, __ZN16ActiveWordCoartN21unpackEndFromCallBackEv, 
                       __ZN16ActiveWordCoartN21unpackMidFromCallBackEv, 
                       __ZN16ActiveWordCoartN9addInPortEt, __ZN16ActiveWordCoartN9unpackEndEv, 
                       __ZN16ActiveWordCoartNC1EP13ActiveWordMgrP6HmmNet, 
                       __ZN16ActiveWordCoartNC2EP13ActiveWordMgrP6HmmNet, 
                       __ZN16ActiveWordCoartND0Ev, __ZN16ActiveWordCoartND1Ev, 
                       __ZN16ActiveWordCoartND2Ev, __ZN16CTModelRelevance21computeModelRelevanceEP6PelMgrjdbbbbb, 
                       __ZN16CTModelRelevanceC1Ev, __ZN16CTModelRelevanceC2Ev, 
                       __ZN16CTModelRelevanceD1Ev, __ZN16CTModelRelevanceD2Ev, 
                       __ZN16ChannelEstimator12processFrameEP9FrameDataP9DgnIArrayIS1_E, 
                       __ZN16ChannelEstimator15resetAdaptablesEv, __ZN16ChannelEstimator16enableAdaptablesEv, 
                       __ZN16ChannelEstimator18copyEstimatorStateEv, __ZN16ChannelEstimator19newChannelEstimatorE22B_ChannelEstimatorTypePK7SigProcPK15ChannelParamSet, 
                       __ZN16ChannelEstimator26loadEstimatorStateFromCopyEv, 
                       __ZN16ChannelEstimatorC2EPK15ChannelParamSet, __ZN16ChannelEstimatorD0Ev, 
                       __ZN16ChannelEstimatorD1Ev, __ZN16ChannelEstimatorD2Ev, 
                       __ZN16DgnReadWriteLock11acquireReadEv, __ZN16DgnReadWriteLock11releaseReadEv, 
                       __ZN16DgnReadWriteLock12acquireWriteEv, __ZN16DgnReadWriteLock12releaseWriteEv, 
                       __ZN16DgnReadWriteLockC1Ev, __ZN16DgnReadWriteLockC2Ev, 
                       __ZN16DgnReadWriteLockD1Ev, __ZN16DgnReadWriteLockD2Ev, 
                       __ZN16DiskNgramContext10setBi1ProbEd, __ZN16DiskNgramContext7setProbEd, 
                       __ZN16FeatureGenerator10computeFftEP9FrameData, 
                       __ZN16FeatureGenerator12processFrameEP9FrameDataP9DgnIArrayIS1_E, 
                       __ZN16FeatureGenerator13setSampleRateEj, __ZN16FeatureGenerator14compThroughFftERK12DgnPrimArrayIsEPS0_IdE, 
                       __ZN16FeatureGenerator17computeNoiseScaleEv, __ZN16FeatureGenerator18computeCep_fromFftEP9FrameData, 
                       __ZN16FeatureGenerator18setWarpChoiceIndexEi, __ZN16FeatureGenerator19loadCosineTransformEv, 
                       __ZN16FeatureGenerator20accumulateHistogramsEP9FrameData, 
                       __ZN16FeatureGenerator42maybeApplySpectralSubtractionAndComputeCepEP9DgnIArrayIP9FrameDataE, 
                       __ZN16FeatureGenerator5resetEv, __ZN16FeatureGenerator5setupEj, 
                       __ZN16FeatureGenerator8setScaleERK16FeatureScaleSpec, 
                       __ZN16FeatureGenerator9icostransEP9FrameDataP12DgnPrimArrayIdE, 
                       __ZN16FeatureGeneratorC1EPK15ChannelParamSetPK7SigProcj, 
                       __ZN16FeatureGeneratorC2EPK15ChannelParamSetPK7SigProcj, 
                       __ZN16FeatureGeneratorD0Ev, __ZN16FeatureGeneratorD1Ev, 
                       __ZN16FeatureGeneratorD2Ev, __ZN16FeatureScaleSpec10readObjectEP9DgnStreamRj, 
                       __ZN16FeatureScaleSpecaSERKS_, __ZN16FrameTransformer20makeFrameTransformerEPK18BandwidthTransformP9NeuralNetPK6ImeldaPK7FmpeMgrPK6PelMgr24B_DgnThreadExecutionTypejdbd, 
                       __ZN16FstSearchBackoff10seedTheoryEiijP11SearchStats, 
                       __ZN16FstSearchBackoff13advanceDeltasEiiP11SearchStatsb, 
                       __ZN16FstSearchBackoff13collectTracesEv, __ZN16FstSearchBackoff14propagateNullsEiiP11SearchStats, 
                       __ZN16FstSearchBackoff15seedFromMiniFstERi, __ZN16FstSearchBackoff16buildWordLatticeEP11WordLatticeR15DgnPrimFixArrayIhERS2_IbEb, 
                       __ZN16FstSearchBackoff16getBestExitScoreEv, __ZN16FstSearchBackoff17maybeInitDurModelEPK6PicMgrj, 
                       __ZN16FstSearchBackoff18createLatticeNodesER15DgnPrimFixArrayIiER12DgnPrimArrayIjEP11WordLatticeR8DgnArrayIS3_IiEERS0_IhERS0_IbE, 
                       __ZN16FstSearchBackoff18endTopRecSyncRecogEv, __ZN16FstSearchBackoff20beginTopRecSyncRecogEP7VirtMap, 
                       __ZN16FstSearchBackoff20maybeGeneratePelMapsEPK6PicMgr, 
                       __ZN16FstSearchBackoff21applyCutoffOnEmittingEjPi, 
                       __ZN16FstSearchBackoff22endTopRecPassSyncRecogEv, 
                       __ZN16FstSearchBackoff24beginTopRecPassSyncRecogEP9PelScorerPK8ArcGraph, 
                       __ZN16FstSearchBackoff29generateTraceTokensFromTracesEv, 
                       __ZN16FstSearchBackoff29makeViterbiDecisionOnEmittingEv, 
                       __ZN16FstSearchBackoff4viteEiiP11SearchStatsb, __ZN16FstSearchBackoff5resetEv, 
                       __ZN16FstSearchBackoff7doFrameEiiP11SearchStatsb, 
                       __ZN16FstSearchBackoffC1ERKiS1_, __ZN16FstSearchBackoffC2ERKiS1_, 
                       __ZN16FstSearchLattice10seedTheoryEiijP11SearchStats, 
                       __ZN16FstSearchLattice13advanceDeltasEiiP11SearchStatsb, 
                       __ZN16FstSearchLattice13collectTracesEv, __ZN16FstSearchLattice14propagateNullsEiiP11SearchStats, 
                       __ZN16FstSearchLattice15seedFromMiniFstERi, __ZN16FstSearchLattice16buildWordLatticeEP11WordLatticeR15DgnPrimFixArrayIhERS2_IbEb, 
                       __ZN16FstSearchLattice16getBestExitScoreEv, __ZN16FstSearchLattice17maybeInitDurModelEPK6PicMgrj, 
                       __ZN16FstSearchLattice18createLatticeNodesER15DgnPrimFixArrayIiER12DgnPrimArrayIjEP11WordLatticeR8DgnArrayIS3_IiEERS0_IhERS0_IbE, 
                       __ZN16FstSearchLattice18endTopRecSyncRecogEv, __ZN16FstSearchLattice20beginTopRecSyncRecogEP7VirtMap, 
                       __ZN16FstSearchLattice20maybeGeneratePelMapsEPK6PicMgr, 
                       __ZN16FstSearchLattice21applyCutoffOnEmittingEjPi, 
                       __ZN16FstSearchLattice22endTopRecPassSyncRecogEv, 
                       __ZN16FstSearchLattice24beginTopRecPassSyncRecogEP9PelScorerPK8ArcGraph, 
                       __ZN16FstSearchLattice29makeViterbiDecisionOnEmittingEv, 
                       __ZN16FstSearchLattice4viteEiiP11SearchStatsb, __ZN16FstSearchLattice5resetEv, 
                       __ZN16FstSearchLattice7doFrameEiiP11SearchStatsb, 
                       __ZN16FstSearchLatticeC1ERKiS1_, __ZN16FstSearchLatticeC2ERKiS1_, 
                       __ZN16LexTreeNetScorer10initScorerEtbP9PelScorerPK6PicMgrjPK8DgnArrayI12TreePhoneRecEPK12DgnPrimArrayIjERSC_jjjjdbPKS5_I19OpaquePelIdAndDurIdE, 
                       __ZN16LexTreeNetScorer10scoreFrameEiRK12DgnPrimArrayIhERK13ScoreFixArray, 
                       __ZN16LexTreeNetScorer14seedSuccessorsEjjjtij, __ZN16LexTreeNetScorer15updateTree_SkipEv, 
                       __ZN16LexTreeNetScorer16initSeqsAndStatsEv, __ZN16LexTreeNetScorer17updateTree_NoSkipEv, 
                       __ZN16LexTreeNetScorer17updateTrueBestPelEv, __ZN16LexTreeNetScorer18endScorerSyncRecogEv, 
                       __ZN16LexTreeNetScorer18initTreeThresholdsEPjPy, 
                       __ZN16LexTreeNetScorer19seedTreeAndEndWordsERK9ActiveSeqii, 
                       __ZN16LexTreeNetScorer20beginScorerSyncRecogEjPK25PrefiltererSearchParamSet, 
                       __ZN16LexTreeNetScorer21updateScorerDurationsEPK12DgnPrimArrayIsE, 
                       __ZN16LexTreeNetScorer23initLookaheadThresholdsEiRK13ScoreFixArray, 
                       __ZN16LexTreeNetScorer7getListEiP8DgnArrayI4GermEj, 
                       __ZN16LexTreeNetScorer8fillPensEjPK12DgnPrimArrayIsE, 
                       __ZN16LexTreeNetScorerC1Ev, __ZN16LexTreeNetScorerC2Ev, 
                       __ZN16LexTreeNetScorerD1Ev, __ZN16LexTreeNetScorerD2Ev, 
                       __ZN16PhonemeLatticeLC3cmpERKS_S1_, __ZN16PhonemeLatticeLCC1Et, 
                       __ZN16PhonemeLatticeLCC2Et, __ZN16ProcessLookaheadC1EP15LookaheadScorerPK17SynchronizedArrayI12DgnPrimArrayIhEEibbbPS2_I13ScoreFixArrayEPiP8SnapTimeSD_, 
                       __ZN16ProcessLookaheadC2EP15LookaheadScorerPK17SynchronizedArrayI12DgnPrimArrayIhEEibbbPS2_I13ScoreFixArrayEPiP8SnapTimeSD_, 
                       __ZN16ProcessLookaheadD1Ev, __ZN16ProcessLookaheadD2Ev, 
                       __ZN16RecogResultGraph19fillFromWordLatticeEPK11WordLattice, 
                       __ZN16StartEndTimePairC1ERKS_, __ZN16StartEndTimePairC1Eii, 
                       __ZN16StartEndTimePairC1Ev, __ZN16StartEndTimePairC2ERKS_, 
                       __ZN16StartEndTimePairC2Eii, __ZN16StartEndTimePairC2Ev, 
                       __ZN16StartEndTimePairaSERKS_, __ZN16TFhmParamManagerC1ER11TLocaleInfo, 
                       __ZN16TFhmParamManagerC2ER11TLocaleInfo, __ZN16TGrammarCompiler11compareDataEPK11TProductionS2_, 
                       __ZN16TGrammarCompiler13registerRulesER12TInputStreamP16TTerminalChecker, 
                       __ZN16TGrammarCompiler14makeClientDataEPPKwPKNS_9TArgumentEmR10TAllocator, 
                       __ZN16TGrammarCompiler16registerFunctionEPKwPFNS_9TArgumentEPKS2_mPvS5_R10TAllocatorEmmS5_S5_, 
                       __ZN16TGrammarCompiler17getAttributeValueEPK11TProductionPKwR10TAllocatorPb, 
                       __ZN16TGrammarCompiler7logDataEPK11TProductionRNSt3__113basic_ostreamIcNS3_11char_traitsIcEEEE, 
                       __ZN16TGrammarCompiler8finalizeEv, __ZN16TGrammarCompiler8loadRuleER6TLexerP16TTerminalChecker, 
                       __ZN16TGrammarCompiler8makeDataER10TChartInfo, __ZN16TGrammarCompiler9loadRulesER6TLexerP16TTerminalChecker, 
                       __ZN16TGrammarCompilerC1ERK11TLocaleInfo, __ZN16TGrammarCompilerC2ERK11TLocaleInfo, 
                       __ZN16TGrammarCompilerD0Ev, __ZN16TGrammarCompilerD1Ev, 
                       __ZN16TGrammarCompilerD2Ev, __ZN16TGrammarManager210freeMemoryEv, 
                       __ZN16TGrammarManager210getLMScoreEPKwRKNSt3__16vectorI12TItnWordDataNS2_9allocatorIS4_EEEEmm, 
                       __ZN16TGrammarManager211clearResultEv, __ZN16TGrammarManager26searchERKNSt3__16vectorI12TItnWordDataNS0_9allocatorIS2_EEEEmmmRNS1_I22TGrammarManager2ResultNS3_IS8_EEEE, 
                       __ZN16TGrammarManager2C1ER12TInputStreamPK11TTagManagerP8TLexiconP16TItnParamManager, 
                       __ZN16TGrammarManager2C2ER12TInputStreamPK11TTagManagerP8TLexiconP16TItnParamManager, 
                       __ZN16TGrammarManager2D1Ev, __ZN16TGrammarManager2D2Ev, 
                       __ZN16TItnControlState3setERKNSt3__16vectorI11TItnControlNS0_9allocatorIS2_EEEEbbbm, 
                       __ZN16TItnParamManager10initializeER12TInputStreamb, 
                       __ZN16TItnParamManager22initializeParamConfigsEv, 
                       __ZN16TItnParamManagerC1ER11TLocaleInfo, __ZN16TItnParamManagerC2ER11TLocaleInfo, 
                       __ZN16TMungeMapManager10freeMemoryEv, __ZN16TMungeMapManagerC1ER12TInputStreamP8TLexicon, 
                       __ZN16TMungeMapManagerC2ER12TInputStreamP8TLexicon, 
                       __ZN16TMungeMapManagerD1Ev, __ZN16TMungeMapManagerD2Ev, 
                       __ZN16TRneParamManagerC1ER11TLocaleInfo, __ZN16TRneParamManagerC2ER11TLocaleInfo, 
                       __ZN16TWideChartSeeder13makeTerminalsEmRNSt3__16vectorIPK7TSymbolNS0_9allocatorIS4_EEEERNS1_ImNS5_ImEEEERNS1_IPKvNS5_ISD_EEEER10TAllocator, 
                       __ZN16TWideChartSeederC1ERKNSt3__16vectorI12TItnWordDataNS0_9allocatorIS2_EEEEmmPK8TGrammar, 
                       __ZN16TWideChartSeederC2ERKNSt3__16vectorI12TItnWordDataNS0_9allocatorIS2_EEEEmmPK8TGrammar, 
                       __ZN17ActiveWordNoCoartC1EP13ActiveWordMgrP6HmmNet, 
                       __ZN17ActiveWordNoCoartC2EP13ActiveWordMgrP6HmmNet, 
                       __ZN17ActiveWordNoCoartD0Ev, __ZN17ActiveWordNoCoartD1Ev, 
                       __ZN17ActiveWordNoCoartD2Ev, __ZN17ActiveWordSilenceC1EP13ActiveWordMgrP6HmmNet, 
                       __ZN17ActiveWordSilenceC2EP13ActiveWordMgrP6HmmNet, 
                       __ZN17ActiveWordSilenceD0Ev, __ZN17ActiveWordSilenceD1Ev, 
                       __ZN17ActiveWordSilenceD2Ev, __ZN17AdaptStatsHistory22resetAdaptStatsHistoryEv, 
                       __ZN17AdaptStatsHistory7copyASBEPKS_, __ZN17AdaptStatsHistory7loadASBEP5DFileP14DFileChecksumsb, 
                       __ZN17AdaptStatsHistory8addEntryERK11AdaptConfigRK10AdaptStats, 
                       __ZN17AdaptStatsHistoryC1Ev, __ZN17AdaptStatsHistoryC2Ev, 
                       __ZN17AdaptStatsHistoryD1Ev, __ZN17AdaptStatsHistoryD2Ev, 
                       __ZN17AttackDecayFilter13processSampleEi, __ZN17AttackDecayFilterC1Eii, 
                       __ZN17AttackDecayFilterC2Eii, __ZN17BaseWordLatticeLCD0Ev, 
                       __ZN17BaseWordLatticeLCD1Ev, __ZN17BaseWordLatticeLCD2Ev, 
                       __ZN17BuildLmIdNgramCmp15compareElementsEPvPKvS2_, 
                       __ZN17CallbackInsuranceC1E20ApiCallbackIndexType31ResolveApiCallbackThreadingTypeb, 
                       __ZN17CallbackInsuranceC2E20ApiCallbackIndexType31ResolveApiCallbackThreadingTypeb, 
                       __ZN17CallbackInsuranceD1Ev, __ZN17CallbackInsuranceD2Ev, 
                       __ZN17DFileProgressInfo17resetReportedInfoEv, __ZN17DFileProgressInfo20recordFileAsReportedEi, 
                       __ZN17DFileProgressInfo21attachProgressHandlerEP23ProgressCallbackHandler, 
                       __ZN17DFileProgressInfo3addERK9DgnStringy, __ZN17DFileProgressInfo5resetEv, 
                       __ZN17DFileProgressInfoC1Ev, __ZN17DFileProgressInfoC2Ev, 
                       __ZN17DgnTextFileParser10readHeaderEv, __ZN17DgnTextFileParser13parseNextLineEv, 
                       __ZN17DgnTextFileParser17verifyNoBodyLinesEv, __ZN17DgnTextFileParser18getNextHeaderFieldEP9DgnStringS1_b, 
                       __ZN17DgnTextFileParser21openDgnTextFileParserEP5DFile16SubFileExtensionb, 
                       __ZN17DgnTextFileParser21openDgnTextFileParserEP9DgnStream, 
                       __ZN17DgnTextFileParser21openDgnTextFileParserERK8FileSpec, 
                       __ZN17DgnTextFileParser22verifyMatchingFileTypeEPKc, 
                       __ZN17DgnTextFileParser27verifyMatchingNumFieldSpecsEj, 
                       __ZN17DgnTextFileParser27verifyNoUnknownHeaderFieldsEv, 
                       __ZN17DgnTextFileParser28scanValueForLineFieldFormatsERK9DgnString, 
                       __ZN17DgnTextFileParser5atEofEv, __ZN17DgnTextFileParser7getLineEv, 
                       __ZN17DgnTextFileParserC1Ev, __ZN17DgnTextFileParserC2Ev, 
                       __ZN17DgnTextFileParserD0Ev, __ZN17DgnTextFileParserD1Ev, 
                       __ZN17DgnTextFileParserD2Ev, __ZN17DgnTextFileWriter11setFileTypeEPKcRK18DgnTextFileVersion, 
                       __ZN17DgnTextFileWriter11writeHeaderEv, __ZN17DgnTextFileWriter13writeNextLineEv, 
                       __ZN17DgnTextFileWriter14setHeaderFieldEPKcS1_, 
                       __ZN17DgnTextFileWriter17setLineFieldValueEjPKc, 
                       __ZN17DgnTextFileWriter18setHeaderFieldBoolEPKcb, 
                       __ZN17DgnTextFileWriter18setHeaderFieldRealEPKcd, 
                       __ZN17DgnTextFileWriter18setLineFieldFormatERK12DgnPrimArrayI24B_DgnTextFileFieldFormatERK8DgnArrayI9DgnStringE, 
                       __ZN17DgnTextFileWriter21openDgnTextFileWriterEP5DFile16SubFileExtensionb, 
                       __ZN17DgnTextFileWriter21openDgnTextFileWriterEP9DgnStream, 
                       __ZN17DgnTextFileWriter21openDgnTextFileWriterERK8FileSpec, 
                       __ZN17DgnTextFileWriter21setHeaderFieldIntegerEPKci, 
                       __ZN17DgnTextFileWriter21setLineFieldRealValueEjd, 
                       __ZN17DgnTextFileWriter22setHeaderFieldUnsignedEPKcy, 
                       __ZN17DgnTextFileWriter24setLineFieldIntegerValueEji, 
                       __ZN17DgnTextFileWriter25setLineFieldUnsignedValueEjj, 
                       __ZN17DgnTextFileWriterC1Ev, __ZN17DgnTextFileWriterC2Ev, 
                       __ZN17DgnTextFileWriterD0Ev, __ZN17DgnTextFileWriterD1Ev, 
                       __ZN17DgnTextFileWriterD2Ev, __ZN17FeatureFilterSpec10readObjectEP9DgnStreamRj, 
                       __ZN17FeatureFilterSpecC1EjjjjRK12DgnPrimArrayIiEi, 
                       __ZN17FeatureFilterSpecC1Ev, __ZN17FeatureFilterSpecC2EjjjjRK12DgnPrimArrayIiEi, 
                       __ZN17FeatureFilterSpecC2Ev, __ZN17FeatureFilterSpecaSERK20OldFeatureFilterSpec, 
                       __ZN17FeatureFilterSpecaSERKS_, __ZN17FrameDecisionTree10readObjectEP9DgnStreamRj, 
                       __ZN17FstSearchDuration10seedTheoryEiijP11SearchStats, 
                       __ZN17FstSearchDuration13advanceDeltasEiiP11SearchStatsb, 
                       __ZN17FstSearchDuration13collectTracesEv, __ZN17FstSearchDuration14propagateNullsEiiP11SearchStats, 
                       __ZN17FstSearchDuration15seedFromMiniFstERi, __ZN17FstSearchDuration16buildWordLatticeEP11WordLatticeR15DgnPrimFixArrayIhERS2_IbEb, 
                       __ZN17FstSearchDuration16getBestExitScoreEv, __ZN17FstSearchDuration17maybeInitDurModelEPK6PicMgrj, 
                       __ZN17FstSearchDuration18createLatticeNodesER15DgnPrimFixArrayIiER12DgnPrimArrayIjEP11WordLatticeR8DgnArrayIS3_IiEERS0_IhERS0_IbE, 
                       __ZN17FstSearchDuration18endTopRecSyncRecogEv, __ZN17FstSearchDuration20beginTopRecSyncRecogEP7VirtMap, 
                       __ZN17FstSearchDuration20maybeGeneratePelMapsEPK6PicMgr, 
                       __ZN17FstSearchDuration21applyCutoffOnEmittingEjPi, 
                       __ZN17FstSearchDuration22endTopRecPassSyncRecogEv, 
                       __ZN17FstSearchDuration24beginTopRecPassSyncRecogEP9PelScorerPK8ArcGraph, 
                       __ZN17FstSearchDuration29generateTraceTokensFromTracesEv, 
                       __ZN17FstSearchDuration29makeViterbiDecisionOnEmittingEv, 
                       __ZN17FstSearchDuration4viteEiiP11SearchStatsb, 
                       __ZN17FstSearchDuration5resetEv, __ZN17FstSearchDuration7doFrameEiiP11SearchStatsb, 
                       __ZN17FstSearchDurationC1ERKiS1_, __ZN17FstSearchDurationC2ERKiS1_, 
                       __ZN17MaximumNormalizer12processFrameEP9FrameDataP9DgnIArrayIS1_E, 
                       __ZN17MaximumNormalizer23calcOnlineEnergyMaxNormEhj, 
                       __ZN17MaximumNormalizer25calcOfflineEnergyMaxSoFarEP9FrameData, 
                       __ZN17MaximumNormalizerC1EPK7SigProcPK17SigProcDescriptorPK15ChannelParamSet, 
                       __ZN17MaximumNormalizerC2EPK7SigProcPK17SigProcDescriptorPK15ChannelParamSet, 
                       __ZN17MaximumNormalizerD0Ev, __ZN17MaximumNormalizerD1Ev, 
                       __ZN17MaximumNormalizerD2Ev, __ZN17NGramIteratorDataC1Ev, 
                       __ZN17NGramIteratorDataC2Ev, __ZN17NodeByInLinksICmp15compareElementsEPvPKvS2_, 
                       __ZN17OnDemandPelScorer10loadFramesEiPK17SynchronizedArrayI12DgnPrimArrayIhEEPi, 
                       __ZN17OnDemandPelScorer11endPelFrameEiP8PelStats, 
                       __ZN17OnDemandPelScorer13beginPelFrameEibPK12DgnPrimArrayIhEP8PelStatsb, 
                       __ZN17OnDemandPelScorer15endPelSyncRecogEv, __ZN17OnDemandPelScorer17beginPelSyncRecogEjPK11AdaptConfigPK7CTFTMgrbbbd, 
                       __ZN17OnDemandPelScorer24setFrameStaticsForGenoneEtP8PelStats, 
                       __ZN17OnDemandPelScorer34computeScoreForActivePelsThisFrameERK8BitArray, 
                       __ZN17OnDemandPelScorerC1EPK6PelMgrPK15GenoneClassTreePK11VarClassMgrPK7FmpeMgrPK9NeuralNetPK6Imeldabdbd, 
                       __ZN17OnDemandPelScorerC2EPK6PelMgrPK15GenoneClassTreePK11VarClassMgrPK7FmpeMgrPK9NeuralNetPK6Imeldabdbd, 
                       __ZN17OnDemandPelScorerD0Ev, __ZN17OnDemandPelScorerD1Ev, 
                       __ZN17OnDemandPelScorerD2Ev, __ZN17OnePhonemeSyncNet12attachInPortEhP4Node, 
                       __ZN17OnePhonemeSyncNet14addEpsilonNodeEv, __ZN17OnePhonemeSyncNet16scoreNetInternalEiiiii, 
                       __ZN17OnePhonemeSyncNet17configureOutPortsEi, __ZN17OnePhonemeSyncNet18addNodesSequentialEj12B_ScoreOrder, 
                       __ZN17OnePhonemeSyncNet18calcNumActiveNodesEi, __ZN17OnePhonemeSyncNet20thresholdNetInternalEii, 
                       __ZN17OnePhonemeSyncNetD0Ev, __ZN17OnePhonemeSyncNetD1Ev, 
                       __ZN17OnePhonemeSyncNetD2Ev, __ZN17ParamSetHolderMgr17getParamSetHolderEj, 
                       __ZN17ParamSetHolderMgr17getSearchParamSetEjj, __ZN17ParamSetHolderMgr17newParamSetHolderEv, 
                       __ZN17ParamSetHolderMgr18getAdapterParamSetEjj, 
                       __ZN17ParamSetHolderMgr18getChannelParamSetEjj, 
                       __ZN17ParamSetHolderMgr18getSausageParamSetEjj, 
                       __ZN17ParamSetHolderMgr18loadParamSetHolderEP5DFile, 
                       __ZN17ParamSetHolderMgr18saveParamSetHolderEjRK8FileSpecP16B_SaveResultCode24B_SaveOverrideFormatTypeb, 
                       __ZN17ParamSetHolderMgr20deleteParamSetHolderEj, 
                       __ZN17ParamSetHolderMgr20getPronGuessParamSetEjj, 
                       __ZN17ParamSetHolderMgr20getUserDeltaParamSetEjj, 
                       __ZN17ParamSetHolderMgr20smParamSetTypeRankedE, 
                       __ZN17ParamSetHolderMgr20smpParamSetHolderMgrE, 
                       __ZN17ParamSetHolderMgr21getConfidenceParamSetEjj, 
                       __ZN17ParamSetHolderMgr23getLatticeNBestParamSetEjj, 
                       __ZN17ParamSetHolderMgr24startupParamSetHolderMgrEv, 
                       __ZN17ParamSetHolderMgr25shutdownParamSetHolderMgrEv, 
                       __ZN17ParamSetHolderMgr26getLatticePostProbParamSetEjj, 
                       __ZN17ParamSetHolderMgr27getPrefiltererBuildParamSetEjj, 
                       __ZN17ParamSetHolderMgr27getSearchCrossLayerParamSetEjj, 
                       __ZN17ParamSetHolderMgr28getPrefiltererSearchParamSetEjj, 
                       __ZN17ParamSetHolderMgrC1Ev, __ZN17ParamSetHolderMgrC2Ev, 
                       __ZN17ParamSetHolderMgrD1Ev, __ZN17ParamSetHolderMgrD2Ev, 
                       __ZN17PelScoreCacheData4readERK8FileSpecj, __ZN17PelScoreCacheDataC1Ev, 
                       __ZN17PelScoreCacheDataC2Ev, __ZN17PelScoreCacheDataD1Ev, 
                       __ZN17PelScoreCacheDataD2Ev, __ZN17PrefiltererThread10scoreUntilEiPK17SynchronizedArrayI12DgnPrimArrayIhEEPKS0_I13ScoreFixArrayEP15ReturnListQueue, 
                       __ZN17PrefiltererThread11stopScoringEP15ReturnListQueue, 
                       __ZN17PrefiltererThread12startScoringEPK17SynchronizedArrayI12DgnPrimArrayIhEEPKS0_I13ScoreFixArrayE, 
                       __ZN17PrefiltererThread5resetEv, __ZN17PronGuessParamSet11setDefaultsEv, 
                       __ZN17PronGuessParamSet15setIntParameterEti, __ZN17PronGuessParamSet16setBoolParameterEtb, 
                       __ZN17PronGuessParamSet16setEnumParameterEti, __ZN17PronGuessParamSet18setDoubleParameterEtd, 
                       __ZN17PronGuessParamSet18setStringParameterEtPKc, 
                       __ZN17PronGuessParamSet36setParamSetPronGuessMinNewPronLengthEi, 
                       __ZN17PronGuessParamSet37setParamSetPronGuessFragmentSuffixTagEPKc, 
                       __ZN17PronGuessParamSet43setParamSetPronGuessLMPerBackoffWordPenaltyEi, 
                       __ZN17PronGuessParamSetC1EPKc14B_ParamSetTypejj, 
                       __ZN17PronGuessParamSetC1ERKS_PKc14B_ParamSetTypejj, 
                       __ZN17PronGuessParamSetC2EPKc14B_ParamSetTypejj, 
                       __ZN17PronGuessParamSetC2ERKS_PKc14B_ParamSetTypejj, 
                       __ZN17RealDFileDirEntryC1ERKS_, __ZN17RealDFileDirEntryC1Ev, 
                       __ZN17RealDFileDirEntryC2ERKS_, __ZN17RealDFileDirEntryC2Ev, 
                       __ZN17RealDFileDirEntryaSERKS_, __ZN17RecogCtlThreadSet17waitTilAnyOneDoneEv, 
                       __ZN17RecogCtlThreadSet8pauseAllEb, __ZN17RecogCtlThreadSet8startAllEv, 
                       __ZN17RecogCtlThreadSetC1ERK9DgnIArrayIP19RecogControllerBaseE, 
                       __ZN17RecogCtlThreadSetC2ERK9DgnIArrayIP19RecogControllerBaseE, 
                       __ZN17RecogCtlThreadSetD1Ev, __ZN17RecogCtlThreadSetD2Ev, 
                       __ZN17RecogGermIterator17advanceUntilMatchEv, __ZN17RecogGermIteratorD0Ev, 
                       __ZN17RecogGermIteratorD1Ev, __ZN17RecogGermIteratorD2Ev, 
                       __ZN17RecogResultChoice19fillFromNBestChoiceEPK11NBestChoicejbbP8DgnArrayI18WordConfidenceInfoE, 
                       __ZN17RecognizerOptionsC1ERKS_, __ZN17RecognizerOptionsC1Ebiiibbjjjiiiiiiiii18B_NodeSkippingTypejiiiibdijijjjjjbbbbbbjiibbbbbb19B_SearchLMLimitTypebiijib39B_SearchPartialIncludePrefiltererResultjjjjj, 
                       __ZN17RecognizerOptionsC2ERKS_, __ZN17RecognizerOptionsC2Ebiiibbjjjiiiiiiiii18B_NodeSkippingTypejiiiibdijijjjjjbbbbbbjiibbbbbb19B_SearchLMLimitTypebiijib39B_SearchPartialIncludePrefiltererResultjjjjj, 
                       __ZN17RecognizerOptionsD1Ev, __ZN17RecognizerOptionsD2Ev, 
                       __ZN17SigProcDescriptor21copySigProcDescriptorEPKS_, 
                       __ZN17SigProcDescriptor21loadSigProcDescriptorEP5DFileP14DFileChecksumsb, 
                       __ZN17SigProcDescriptor37willLoadSigProcDescriptorInTextFormatEP5DFile, 
                       __ZN17SigProcDescriptor7loadSPDEP5DFile, __ZN17SigProcDescriptorC1Ev, 
                       __ZN17SigProcDescriptorC2Ev, __ZN17SigProcDescriptorD1Ev, 
                       __ZN17SigProcDescriptorD2Ev, __ZN17TFileObjectParser10makeObjectER6TLexerPKw, 
                       __ZN17TFileObjectParser11loadObjectsER6TLexer, __ZN17TFileObjectParser17instantiateObjectEPK11TFileObject, 
                       __ZN17TFileObjectParser17instantiateObjectEPK11TFileObjectS2_, 
                       __ZN17TFileObjectParserC1EPKwmRK11TLocaleInfo, __ZN17TFileObjectParserC1ER12TInputStream, 
                       __ZN17TFileObjectParserC2EPKwmRK11TLocaleInfo, __ZN17TFileObjectParserC2ER12TInputStream, 
                       __ZN17TFileObjectParserD1Ev, __ZN17TFileObjectParserD2Ev, 
                       __ZN17TIntegrityCheckerclEPK7TSymbol, __ZN17TLatticeProcessor13splitMrecDataERK17TPLatticeMrecDataRS0_S3_jj, 
                       __ZN17TLatticeProcessor15combineMrecDataER17TPLatticeMrecDataRKS0_j, 
                       __ZN17TLatticeProcessorC2EP8TLexiconb, __ZN17TLatticeProcessorD0Ev, 
                       __ZN17TLatticeProcessorD1Ev, __ZN17TLatticeProcessorD2Ev, 
                       __ZN17TTmfeParamManagerC1ER11TLocaleInfo, __ZN17TTmfeParamManagerC2ER11TLocaleInfo, 
                       __ZN17TWideChartSeeder213makeTerminalsEmRNSt3__16vectorIPK7TSymbolNS0_9allocatorIS4_EEEERNS1_ImNS5_ImEEEERNS1_IPKvNS5_ISD_EEEER10TAllocator, 
                       __ZN17TWideChartSeeder2C1ERKNSt3__16vectorI12TItnWordDataNS0_9allocatorIS2_EEEEmmPK8TGrammar, 
                       __ZN17TWideChartSeeder2C2ERKNSt3__16vectorI12TItnWordDataNS0_9allocatorIS2_EEEEmmPK8TGrammar, 
                       __ZN17TagBitsAndStrings10removeWordEj, __ZN17TagBitsAndStrings10setTagBitsEjRK8BitArray, 
                       __ZN17TagBitsAndStrings11createIndexEjj, __ZN17TagBitsAndStrings12setTagStringEjPKc, 
                       __ZN17TagBitsAndStrings13setNumTagBitsEj, __ZN17TagBitsAndStrings6reInitEv, 
                       __ZN17TagBitsAndStrings7compactEv, __ZN17TagBitsAndStringsC1Ev, 
                       __ZN17TagBitsAndStringsC2Ev, __ZN17TagBitsAndStringsD1Ev, 
                       __ZN17TagBitsAndStringsD2Ev, __ZN17TransducerGrammar13saveToWordFSTER7WordFST, 
                       __ZN17TransducerGrammar14loadFromWordLME12DgnPrimArrayItEjsS0_IjEb, 
                       __ZN17TransducerGrammar15addPauseFillersE8DgnArrayI9DgnStringEi, 
                       __ZN17TransducerGrammar15loadFromFsmFileEPKcd, __ZN17TransducerGrammar15loadFromWordFSTER7WordFSTbbbb, 
                       __ZN17TransducerGrammar17buildFromStateMgrERK12DgnPrimArrayIjERK8DgnArrayIS4_I10ParseTokenEE, 
                       __ZN17TransducerGrammar19feedFromWordIdArrayERK12DgnPrimArrayIjE, 
                       __ZN17TransducerGrammar21loadTransducerGrammarEP5DFile, 
                       __ZN17TransducerGrammar21saveTransducerGrammarERK8FileSpecP16B_SaveResultCode24B_SaveOverrideFormatTypebP23ProgressCallbackHandler, 
                       __ZN17TransducerGrammar22determinizeAndMinimizeEbbbb, 
                       __ZN17TransducerGrammar23loadFromStatesToWordFSTERK12DgnPrimArrayIjER7WordFST, 
                       __ZN17TransducerGrammar23loadFromWordFSTInternalERK7WordFST, 
                       __ZN17TransducerGrammar24decrementTransducerCountEv, 
                       __ZN17TransducerGrammar24incrementTransducerCountEv, 
                       __ZN17TransducerGrammar27loadTransducerGrammarBinaryEP5DFileP14DFileChecksums, 
                       __ZN17TransducerGrammar27saveTransducerGrammarBinaryEP5DFileP14DFileChecksumsb, 
                       __ZN17TransducerGrammarC1EPK3Voct, __ZN17TransducerGrammarC2EPK3Voct, 
                       __ZN17TransducerGrammarD0Ev, __ZN17TransducerGrammarD1Ev, 
                       __ZN17TransducerGrammarD2Ev, __ZN17UserDeltaParamSet11setDefaultsEv, 
                       __ZN17UserDeltaParamSet15setIntParameterEti, __ZN17UserDeltaParamSet16setBoolParameterEtb, 
                       __ZN17UserDeltaParamSet16setEnumParameterEti, __ZN17UserDeltaParamSet18setDoubleParameterEtd, 
                       __ZN17UserDeltaParamSet18setStringParameterEtPKc, 
                       __ZN17UserDeltaParamSet29setParamSetUserDeltaTyingTypeEi, 
                       __ZN17UserDeltaParamSet32setParamSetUserDeltaRunLengthMinEi, 
                       __ZN17UserDeltaParamSet34setParamSetUserDeltaRunLengthRangeEi, 
                       __ZN17UserDeltaParamSet42setParamSetUserDeltaInclusionMinDivergenceEi, 
                       __ZN17UserDeltaParamSetC1EPKc14B_ParamSetTypejj, 
                       __ZN17UserDeltaParamSetC1ERKS_PKc14B_ParamSetTypejj, 
                       __ZN17UserDeltaParamSetC2EPKc14B_ParamSetTypejj, 
                       __ZN17UserDeltaParamSetC2ERKS_PKc14B_ParamSetTypejj, 
                       __ZN17UttConfidenceInfoC1EPK18ConfidenceParamSet, 
                       __ZN17UttConfidenceInfoC2EPK18ConfidenceParamSet, 
                       __ZN17WarpChooseChannel10openSourceEPK14AcousticFormatP9DgnString, 
                       __ZN17WarpChooseChannel13readUtteranceEbbbb, __ZN17WarpChooseChannel13updateSigProcEv, 
                       __ZN17WarpChooseChannel14isUttAvailableEv, __ZN17WarpChooseChannel15getSourceFormatER14AcousticFormatP9DgnString, 
                       __ZN17WarpChooseChannel18reSignalProcessUttEP9UtteranceS1_, 
                       __ZN17WarpChooseChannel20setupSignalProcessorERK14AcousticFormatP12DgnPrimArrayIyEPS3_I15B_UtteranceTypeE, 
                       __ZN17WarpChooseChannel21getSourceFramesOneUttEP9UtteranceP12DgnIOwnArrayIP9FrameDataE, 
                       __ZN17WarpChooseChannel30processSourceFrameUsingFftDataEiPK12FeatureFrame, 
                       __ZN17WarpChooseChannelC1EjjbPK14AcousticFormatb, 
                       __ZN17WarpChooseChannelC2EjjbPK14AcousticFormatb, 
                       __ZN17WarpChooseChannelD0Ev, __ZN17WarpChooseChannelD1Ev, 
                       __ZN17WarpChooseChannelD2Ev, __ZN17WordFSTFinalState12adjustWeightEib, 
                       __ZN17WordIdAndCountCmp15compareElementsEPvPKvS2_, 
                       __ZN17WordLanguageModel10deleteWordEjPbS0_, __ZN17WordLanguageModel10finalizeLMEP13LanguageModelP5DFileP14DFileChecksumsP18DgnSharedMemStreambbjjbP12DgnIOwnArrayIP17WordNgramTemplateEbyx, 
                       __ZN17WordLanguageModel10loadBinaryEP5DFileP14DFileChecksumsbjj, 
                       __ZN17WordLanguageModel10setContextERK12DgnPrimArrayIjEPS2_P7LMStatsRK13LMContextParsP13LMContextData, 
                       __ZN17WordLanguageModel10setLMScaleEj, __ZN17WordLanguageModel11addToRecentERK12DgnPrimArrayIjEj, 
                       __ZN17WordLanguageModel11clearRecentEv, __ZN17WordLanguageModel11loadDynamicEP5DFileS1_P14DFileChecksumsbbPbS4_bjj, 
                       __ZN17WordLanguageModel12initForBuildEPK18WordNgramBuildSpecPK17WordNgramTemplate, 
                       __ZN17WordLanguageModel12saveLMSharedEP18DgnSharedMemStreamb, 
                       __ZN17WordLanguageModel13languageScoreEjjP7LMStatsP13LMContextDataP14LMScoreDetailsbbPb, 
                       __ZN17WordLanguageModel13saveVocAndSvcEP5DFileS1_P14DFileChecksumsS3_byy30B_LMSBigramTrigramGroupingType25B_LMSQuadgramGroupingType, 
                       __ZN17WordLanguageModel14endLMSyncRecogEbP13LMContextData, 
                       __ZN17WordLanguageModel14reloadLMSharedEP18DgnSharedMemStreamb, 
                       __ZN17WordLanguageModel14throwOnBadBoWtEv, __ZN17WordLanguageModel15addBuildNgramLMERK8DgnArrayI12DgnPrimArrayIjEES5_RKS2_, 
                       __ZN17WordLanguageModel15addUnmappedWordEj, __ZN17WordLanguageModel15buildNgramProbsEjRK12DgnPrimArrayIdEdP12DgnIOwnArrayIP4HashI14BuildLmIdNgramS6_S6_dEESA_, 
                       __ZN17WordLanguageModel15clearLoadedDataE19B_LMClearLoadedType, 
                       __ZN17WordLanguageModel16assignBuildLmIdsEv, __ZN17WordLanguageModel16beginLMSyncRecogEbP13LMContextData, 
                       __ZN17WordLanguageModel16buildUnigramDataEP12DgnPrimArrayIdEPd, 
                       __ZN17WordLanguageModel16loadBigramRecordEjP7LMStatsRK13LMContextPars, 
                       __ZN17WordLanguageModel16loadBinarySharedEP18DgnSharedMemStreamP5DFileP14DFileChecksums16SubFileExtensionb, 
                       __ZN17WordLanguageModel16preloadQuadgramsEjRK8DgnArrayI12DgnPrimArrayIjEEjj, 
                       __ZN17WordLanguageModel16reabsorbStaticLMEv, __ZN17WordLanguageModel16readBigramRecordEjP12DgnPrimArrayItES2_PS0_IhEPS0_IjE, 
                       __ZN17WordLanguageModel16saveBinarySharedEP18DgnSharedMemStreamb, 
                       __ZN17WordLanguageModel16setBigramContextEP7LMStatsRK13LMContextParsR17WordLMContextData, 
                       __ZN17WordLanguageModel17loadTrigramRecordEjjjP7LMStatsRK13LMContextPars, 
                       __ZN17WordLanguageModel17readTrigramRecordEjP12DgnPrimArrayItES2_PS0_IhEPS0_IjE, 
                       __ZN17WordLanguageModel17setTrigramContextEP7LMStatsRK13LMContextParsR17WordLMContextData, 
                       __ZN17WordLanguageModel17throwOnBadTriBoWtEv, __ZN17WordLanguageModel17verifyBoWtForBiScEv, 
                       __ZN17WordLanguageModel18addWordDuringBuildEj, __ZN17WordLanguageModel18endBuildingNgramLMEv, 
                       __ZN17WordLanguageModel18loadQuadgramRecordEjjjP7LMStatsRK13LMContextPars, 
                       __ZN17WordLanguageModel18readQuadgramRecordEjP12DgnPrimArrayItES2_S2_PS0_IsEPS0_IhES2_S6_PS0_IjES8_S8_, 
                       __ZN17WordLanguageModel18setQuadgramContextEP7LMStatsRK13LMContextParsR17WordLMContextData, 
                       __ZN17WordLanguageModel18verifyUniScForBiScEv, __ZN17WordLanguageModel19getLMWithLegacyPathEP9DgnString, 
                       __ZN17WordLanguageModel19preloadBigramRecordEjP12DgnPrimArrayItES2_PS0_IhEPS0_IjE, 
                       __ZN17WordLanguageModel19verifyUniScForTriScEv, 
                       __ZN17WordLanguageModel20changeWordLMWordListEPK8WordListPK17WordNgramTemplate, 
                       __ZN17WordLanguageModel20preloadTrigramRecordEjP12DgnPrimArrayItES2_PS0_IhEPS0_IjE, 
                       __ZN17WordLanguageModel20startBuildingNgramLMEP12DgnPrimArrayIdEPdS3_P12DgnIOwnArrayIP4HashI16BuildWordIdNgramS6_S6_jEE, 
                       __ZN17WordLanguageModel20verifyUniScForQuadScEv, 
                       __ZN17WordLanguageModel21initializeScoreToProbEv, 
                       __ZN17WordLanguageModel21maybeAddAlienWordLmIdEddyy, 
                       __ZN17WordLanguageModel21notifyEmptiedWordListEv, 
                       __ZN17WordLanguageModel21preloadQuadgramRecordEjP12DgnPrimArrayItES2_S2_PS0_IsEPS0_IhES2_S6_PS0_IjES8_S8_, 
                       __ZN17WordLanguageModel21recordWordIdLmIdUsageEjj, 
                       __ZN17WordLanguageModel22languageScoreForSearchEjjP7LMStatsP13LMContextDatabPb, 
                       __ZN17WordLanguageModel22loadPersistentAndIndexEv, 
                       __ZN17WordLanguageModel22savePersistentAndIndexEP5DFileP14DFileChecksumsbyy30B_LMSBigramTrigramGroupingType25B_LMSQuadgramGroupingType, 
                       __ZN17WordLanguageModel23findQuadgramScoreSearchEjP7LMStatsRK17WordLMContextData, 
                       __ZN17WordLanguageModel23loadBigramMembersBinaryEP9DgnStreamRjbPy, 
                       __ZN17WordLanguageModel23readCompressedQuad3DataEP12DgnPrimArrayIjES2_Pj, 
                       __ZN17WordLanguageModel24loadUnigramMembersBinaryEP9DgnStreamRjbPy, 
                       __ZN17WordLanguageModel24setInterpolatedLmWeightsERK12DgnPrimArrayIdEPj, 
                       __ZN17WordLanguageModel25computeMinCountNotToPruneE12DgnPrimArrayIjEjPK4HashI16BuildWordIdNgramS3_S3_jEiP14BuildLmIdNgram, 
                       __ZN17WordLanguageModel25preloadBigramsAndTrigramsEjRK8DgnArrayI12DgnPrimArrayIjEEPjS6_, 
                       __ZN17WordLanguageModel25readUncompressedQuad3DataEP12DgnPrimArrayItES2_Pj, 
                       __ZN17WordLanguageModel26maybeAddBuildBegAndEndLmIdEv, 
                       __ZN17WordLanguageModel27beginRescoringInLMSyncRecogEP13LMContextData, 
                       __ZN17WordLanguageModel28addBuildOneTranscriptNgramLMERK12DgnPrimArrayIjES3_j, 
                       __ZN17WordLanguageModel28createBuildWordIdToLmIdArrayERK8DgnArrayI14WordIdAndCountE, 
                       __ZN17WordLanguageModel28recordWordIdContextLmIdUsageEjj, 
                       __ZN17WordLanguageModel28recordWordIdInvalidLmIdUsageEj, 
                       __ZN17WordLanguageModel31maybeUncompactWordIdToLmIdArrayEj, 
                       __ZN17WordLanguageModel31recomputeRecentBufferRemaindersEv, 
                       __ZN17WordLanguageModel34buildBigramDataFromProbsAndWeightsEPK4HashI14BuildLmIdNgramS1_S1_dES4_, 
                       __ZN17WordLanguageModel35buildTrigramDataFromProbsAndWeightsEPK4HashI14BuildLmIdNgramS1_S1_dES4_, 
                       __ZN17WordLanguageModel35maybeRepairOutOfRangeWordIdsOrThrowEbbjj, 
                       __ZN17WordLanguageModel35recordWordIdInvalidContextLmIdUsageEj, 
                       __ZN17WordLanguageModel38maybeUncompactWordIdToContextLmIdArrayEj, 
                       __ZN17WordLanguageModel45recomputeRecentBufferHeadClonesAndCommonWordsEv, 
                       __ZN17WordLanguageModel6loadLMEP5DFileS1_P14DFileChecksumsP18DgnSharedMemStreambbbjjbbPbS6_Pd, 
                       __ZN17WordLanguageModel7addWordEjj, __ZN17WordLanguageModel7loadWnsEP5DFilePdS2_, 
                       __ZN17WordLanguageModel8loadTextEP5DFilebjjdd, __ZN17WordLanguageModel9allocLmIdEj, 
                       __ZN17WordLanguageModelC1EjPK8WordList, __ZN17WordLanguageModelC2EjPK8WordList, 
                       __ZN17WordLanguageModelD0Ev, __ZN17WordLanguageModelD1Ev, 
                       __ZN17WordLanguageModelD2Ev, __ZN17WordNgramTemplate10deleteWordEj, 
                       __ZN17WordNgramTemplate21loadWordNgramTemplateEP5DFileP14DFileChecksumsb, 
                       __ZN17WordNgramTemplate25loadWordNgramTemplateTextEP5DFile, 
                       __ZN17WordNgramTemplate27loadWordNgramTemplateBinaryEP5DFileP14DFileChecksums, 
                       __ZN17WordNgramTemplate31fillInFromTemplateLanguageModelEv, 
                       __ZN17WordNgramTemplate7addWordEjj, __ZN17WordNgramTemplateC1EPK8WordListjj, 
                       __ZN17WordNgramTemplateC1EPK8WordListjjPK17WordLanguageModel, 
                       __ZN17WordNgramTemplateC2EPK8WordListjj, __ZN17WordNgramTemplateC2EPK8WordListjjPK17WordLanguageModel, 
                       __ZN18BackTraceNodeCache15createNodeCacheE22B_BackTraceLatticeTypePK10Constraintbb, 
                       __ZN18BandwidthTransform22copyBandwidthTransformEPKS_, 
                       __ZN18BandwidthTransform22loadBandwidthTransformEP5DFileP14DFileChecksumsb, 
                       __ZN18BandwidthTransform8loadTextEP5DFile, __ZN18CWIDCrumbWACSFrame11mergeCrumbsEPK10HistoryMgr, 
                       __ZN18CWIDCrumbWACSFrame12getHistScoreEPK10HistoryMgrj, 
                       __ZN18CWIDCrumbWACSFrame13endCrumbFrameEv, __ZN18CWIDCrumbWACSFrame15addFinalSilHABSERK6CWIDACjib, 
                       __ZN18CWIDCrumbWACSFrame16setTopChoiceWordEPK10HistoryMgrjb, 
                       __ZN18CWIDCrumbWACSFrame18addCrumbWACSRecordERK6CWIDACiRK18HistoryAndBigScoreRK8DgnArrayIS3_E, 
                       __ZN18CWIDCrumbWACSFrame18updateCrumbHistoryEjPK10HistoryMgr, 
                       __ZN18CWIDCrumbWACSFrame22addCrumbWACSRecordEFstERK6CWIDACiRK18HistoryAndBigScoreRK8DgnArrayIS3_Et, 
                       __ZN18CWIDCrumbWACSFrame4copyERKS_, __ZN18CWIDCrumbWACSFrameC1Ev, 
                       __ZN18CWIDCrumbWACSFrameC2Ev, __ZN18CWIDCrumbWACSFrameD1Ev, 
                       __ZN18CWIDCrumbWACSFrameD2Ev, __ZN18ConfidenceParamSet11setDefaultsEv, 
                       __ZN18ConfidenceParamSet15setIntParameterEti, __ZN18ConfidenceParamSet16setBoolParameterEtb, 
                       __ZN18ConfidenceParamSet16setEnumParameterEti, __ZN18ConfidenceParamSet18setDoubleParameterEtd, 
                       __ZN18ConfidenceParamSet18setStringParameterEtPKc, 
                       __ZN18ConfidenceParamSet35setParamSetConfidenceEnableUttLevelEb, 
                       __ZN18ConfidenceParamSet36setParamSetConfidenceEnableWordLevelEb, 
                       __ZN18ConfidenceParamSet38setParamSetConfidenceEnableForAllNBestEb, 
                       __ZN18ConfidenceParamSet38setParamSetConfidenceUttNBestLowThreshEd, 
                       __ZN18ConfidenceParamSet39setParamSetConfidenceUttNBestHighThreshEd, 
                       __ZN18ConfidenceParamSet40setParamSetConfidenceUttProbConstantTermEd, 
                       __ZN18ConfidenceParamSet41setParamSetConfidenceWordProbConstantTermEd, 
                       __ZN18ConfidenceParamSet42setParamSetConfidenceUttProbNBestMaxFactorEd, 
                       __ZN18ConfidenceParamSet42setParamSetConfidenceUttProbNBestMinFactorEd, 
                       __ZN18ConfidenceParamSet42setParamSetConfidenceWordProbLMScoreFactorEd, 
                       __ZN18ConfidenceParamSet43setParamSetConfidenceWordProbDurationFactorEd, 
                       __ZN18ConfidenceParamSet45setParamSetConfidenceWordProbNBestScoreFactorEd, 
                       __ZN18ConfidenceParamSet46setParamSetConfidenceUttProbLogWordCountFactorEd, 
                       __ZN18ConfidenceParamSet46setParamSetConfidenceUttProbTotalLMScoreFactorEd, 
                       __ZN18ConfidenceParamSet47setParamSetConfidenceUttProbNBestLowCountFactorEd, 
                       __ZN18ConfidenceParamSet47setParamSetConfidenceWordProbLogWordCountFactorEd, 
                       __ZN18ConfidenceParamSet48setParamSetConfidenceUttProbAverageLMScoreFactorEd, 
                       __ZN18ConfidenceParamSet48setParamSetConfidenceUttProbMaxWordsEndingFactorEd, 
                       __ZN18ConfidenceParamSet48setParamSetConfidenceUttProbNBestHighCountFactorEd, 
                       __ZN18ConfidenceParamSet48setParamSetConfidenceWordProbAcousticScoreFactorEd, 
                       __ZN18ConfidenceParamSet48setParamSetConfidenceWordProbLMScoreLCntx1FactorEd, 
                       __ZN18ConfidenceParamSet48setParamSetConfidenceWordProbLMScoreLCntx2FactorEd, 
                       __ZN18ConfidenceParamSet48setParamSetConfidenceWordProbLMScoreRCntx1FactorEd, 
                       __ZN18ConfidenceParamSet48setParamSetConfidenceWordProbLMScoreRCntx2FactorEd, 
                       __ZN18ConfidenceParamSet49setParamSetConfidenceUttProbAverageDurationFactorEd, 
                       __ZN18ConfidenceParamSet49setParamSetConfidenceWordProbDurationLCntx1FactorEd, 
                       __ZN18ConfidenceParamSet49setParamSetConfidenceWordProbDurationLCntx2FactorEd, 
                       __ZN18ConfidenceParamSet49setParamSetConfidenceWordProbDurationRCntx1FactorEd, 
                       __ZN18ConfidenceParamSet49setParamSetConfidenceWordProbDurationRCntx2FactorEd, 
                       __ZN18ConfidenceParamSet50setParamSetConfidenceUttProbNBestWordAverageFactorEd, 
                       __ZN18ConfidenceParamSet51setParamSetConfidenceWordProbAverageBestScoreFactorEd, 
                       __ZN18ConfidenceParamSet51setParamSetConfidenceWordProbNBestScoreLCntx1FactorEd, 
                       __ZN18ConfidenceParamSet51setParamSetConfidenceWordProbNBestScoreLCntx2FactorEd, 
                       __ZN18ConfidenceParamSet51setParamSetConfidenceWordProbNBestScoreRCntx1FactorEd, 
                       __ZN18ConfidenceParamSet51setParamSetConfidenceWordProbNBestScoreRCntx2FactorEd, 
                       __ZN18ConfidenceParamSet51setParamSetConfidenceWordProbWordsEndingCountFactorEd, 
                       __ZN18ConfidenceParamSet53setParamSetConfidenceWordProbLogWordCountLCntx1FactorEd, 
                       __ZN18ConfidenceParamSet53setParamSetConfidenceWordProbLogWordCountLCntx2FactorEd, 
                       __ZN18ConfidenceParamSet53setParamSetConfidenceWordProbLogWordCountRCntx1FactorEd, 
                       __ZN18ConfidenceParamSet53setParamSetConfidenceWordProbLogWordCountRCntx2FactorEd, 
                       __ZN18ConfidenceParamSet54setParamSetConfidenceWordProbAcousticScoreLCntx1FactorEd, 
                       __ZN18ConfidenceParamSet54setParamSetConfidenceWordProbAcousticScoreLCntx2FactorEd, 
                       __ZN18ConfidenceParamSet54setParamSetConfidenceWordProbAcousticScoreRCntx1FactorEd, 
                       __ZN18ConfidenceParamSet54setParamSetConfidenceWordProbAcousticScoreRCntx2FactorEd, 
                       __ZN18ConfidenceParamSet54setParamSetConfidenceWordProbAverageAMinusBScoreFactorEd, 
                       __ZN18ConfidenceParamSet55setParamSetConfidenceWordProbAverageAcousticScoreFactorEd, 
                       __ZN18ConfidenceParamSet56setParamSetConfidenceUttProbAverageActiveNodeCountFactorEd, 
                       __ZN18ConfidenceParamSet56setParamSetConfidenceUttProbUttAverageAMinusBScoreFactorEd, 
                       __ZN18ConfidenceParamSet56setParamSetConfidenceWordProbLeftContextIndicator1FactorEd, 
                       __ZN18ConfidenceParamSet56setParamSetConfidenceWordProbLeftContextIndicator2FactorEd, 
                       __ZN18ConfidenceParamSet57setParamSetConfidenceWordProbAverageActiveNodeCountFactorEd, 
                       __ZN18ConfidenceParamSet57setParamSetConfidenceWordProbAverageBestScoreLCntx1FactorEd, 
                       __ZN18ConfidenceParamSet57setParamSetConfidenceWordProbAverageBestScoreLCntx2FactorEd, 
                       __ZN18ConfidenceParamSet57setParamSetConfidenceWordProbAverageBestScoreRCntx1FactorEd, 
                       __ZN18ConfidenceParamSet57setParamSetConfidenceWordProbAverageBestScoreRCntx2FactorEd, 
                       __ZN18ConfidenceParamSet57setParamSetConfidenceWordProbRightContextIndicator1FactorEd, 
                       __ZN18ConfidenceParamSet57setParamSetConfidenceWordProbRightContextIndicator2FactorEd, 
                       __ZN18ConfidenceParamSet57setParamSetConfidenceWordProbWordsEndingCountLCntx1FactorEd, 
                       __ZN18ConfidenceParamSet57setParamSetConfidenceWordProbWordsEndingCountLCntx2FactorEd, 
                       __ZN18ConfidenceParamSet57setParamSetConfidenceWordProbWordsEndingCountRCntx1FactorEd, 
                       __ZN18ConfidenceParamSet57setParamSetConfidenceWordProbWordsEndingCountRCntx2FactorEd, 
                       __ZN18ConfidenceParamSet60setParamSetConfidenceWordProbAverageAMinusBScoreLCntx1FactorEd, 
                       __ZN18ConfidenceParamSet60setParamSetConfidenceWordProbAverageAMinusBScoreLCntx2FactorEd, 
                       __ZN18ConfidenceParamSet60setParamSetConfidenceWordProbAverageAMinusBScoreRCntx1FactorEd, 
                       __ZN18ConfidenceParamSet60setParamSetConfidenceWordProbAverageAMinusBScoreRCntx2FactorEd, 
                       __ZN18ConfidenceParamSet61setParamSetConfidenceWordProbAverageAcousticScoreLCntx1FactorEd, 
                       __ZN18ConfidenceParamSet61setParamSetConfidenceWordProbAverageAcousticScoreLCntx2FactorEd, 
                       __ZN18ConfidenceParamSet61setParamSetConfidenceWordProbAverageAcousticScoreRCntx1FactorEd, 
                       __ZN18ConfidenceParamSet61setParamSetConfidenceWordProbAverageAcousticScoreRCntx2FactorEd, 
                       __ZN18ConfidenceParamSet63setParamSetConfidenceWordProbAverageActiveNodeCountLCntx1FactorEd, 
                       __ZN18ConfidenceParamSet63setParamSetConfidenceWordProbAverageActiveNodeCountLCntx2FactorEd, 
                       __ZN18ConfidenceParamSet63setParamSetConfidenceWordProbAverageActiveNodeCountRCntx1FactorEd, 
                       __ZN18ConfidenceParamSet63setParamSetConfidenceWordProbAverageActiveNodeCountRCntx2FactorEd, 
                       __ZN18ConfidenceParamSetC1EPKc14B_ParamSetTypejj, 
                       __ZN18ConfidenceParamSetC1ERKS_PKc14B_ParamSetTypejj, 
                       __ZN18ConfidenceParamSetC2EPKc14B_ParamSetTypejj, 
                       __ZN18ConfidenceParamSetC2ERKS_PKc14B_ParamSetTypejj, 
                       __ZN18DgnFileIOExceptionC1EjPKciS1_iS1_, __ZN18DgnFileIOExceptionC2EjPKciS1_iS1_, 
                       __ZN18DgnFileIOExceptionD0Ev, __ZN18DgnFileIOExceptionD1Ev, 
                       __ZN18DgnFileIOExceptionD2Ev, __ZN18DgnSharedMemStream10writeBytesEPKcj, 
                       __ZN18DgnSharedMemStream11peekForCharEv, __ZN18DgnSharedMemStream11seekFromBegEy, 
                       __ZN18DgnSharedMemStream12readWithModeEPcj19B_DgnStreamReadMode, 
                       __ZN18DgnSharedMemStream15readSharedBytesEj, __ZN18DgnSharedMemStream16writeSharedBytesEPKcj, 
                       __ZN18DgnSharedMemStream5flushEv, __ZN18DgnSharedMemStream7openDSME13B_DSMOpenModey, 
                       __ZN18DgnSharedMemStream8closeDSMEv, __ZN18DgnSharedMemStream9seekToEndEv, 
                       __ZN18DgnSharedMemStreamC1ER15DgnSharedMemSetj, 
                       __ZN18DgnSharedMemStreamC1ER15DgnSharedMemSetj19B_DgnStreamOpenMode, 
                       __ZN18DgnSharedMemStreamC2ER15DgnSharedMemSetj, 
                       __ZN18DgnSharedMemStreamC2ER15DgnSharedMemSetj19B_DgnStreamOpenMode, 
                       __ZN18DgnSharedMemStreamD0Ev, __ZN18DgnSharedMemStreamD1Ev, 
                       __ZN18DgnSharedMemStreamD2Ev, __ZN18DummyLanguageModel10deleteWordEjPbS0_, 
                       __ZN18DummyLanguageModel10setLMScaleEj, __ZN18DummyLanguageModel12saveLMSharedEP18DgnSharedMemStreamb, 
                       __ZN18DummyLanguageModel13languageScoreEjjP7LMStatsP13LMContextDataP14LMScoreDetailsbbPb, 
                       __ZN18DummyLanguageModel14reloadLMSharedEP18DgnSharedMemStreamb, 
                       __ZN18DummyLanguageModel15addUnmappedWordEj, __ZN18DummyLanguageModel21notifyEmptiedWordListEv, 
                       __ZN18DummyLanguageModel22languageScoreForSearchEjjP7LMStatsP13LMContextDatabPb, 
                       __ZN18DummyLanguageModel31recomputeRecentBufferRemaindersEv, 
                       __ZN18DummyLanguageModel45recomputeRecentBufferHeadClonesAndCommonWordsEv, 
                       __ZN18DummyLanguageModel6loadLMEP5DFileS1_P14DFileChecksumsP18DgnSharedMemStreambbbjjbbPbS6_Pd, 
                       __ZN18DummyLanguageModel7addWordEjj, __ZN18DummyLanguageModelC1EjPK8WordList, 
                       __ZN18DummyLanguageModelC2EjPK8WordList, __ZN18FeatureFrameEnergy12processFrameEP9FrameDataP9DgnIArrayIS1_E, 
                       __ZN18FeatureFrameEnergyC1ERK16FeatureScaleSpec, 
                       __ZN18FeatureFrameEnergyC2ERK16FeatureScaleSpec, 
                       __ZN18FrameDecimatorSpec10readObjectEP9DgnStreamRj, 
                       __ZN18FrameDecimatorSpecC1Ej, __ZN18FrameDecimatorSpecC1Ev, 
                       __ZN18FrameDecimatorSpecC2Ej, __ZN18FrameDecimatorSpecC2Ev, 
                       __ZN18FrameDecimatorSpecaSERKS_, __ZN18IntGlobalParamBase5resetEv, 
                       __ZN18IntGlobalParamBase6setValEib, __ZN18IntGlobalParamBaseC1EPKcS1_S1_iRK13IntParamRangePFvvES1_, 
                       __ZN18IntGlobalParamBaseC2EPKcS1_S1_iRK13IntParamRangePFvvES1_, 
                       __ZN18IntGlobalParamBaseD0Ev, __ZN18IntGlobalParamBaseD1Ev, 
                       __ZN18IntGlobalParamBaseD2Ev, __ZN18LoggerThreadWorker9onStartupEv, 
                       __ZN18MultiLanguageModel10deleteWordEjPbS0_, __ZN18MultiLanguageModel10finalizeLMEP13LanguageModelP5DFileP14DFileChecksumsP18DgnSharedMemStreambbjjbP12DgnIOwnArrayIP17WordNgramTemplateEbyx, 
                       __ZN18MultiLanguageModel10setContextERK12DgnPrimArrayIjEPS2_P7LMStatsRK13LMContextParsP13LMContextData, 
                       __ZN18MultiLanguageModel10setLMScaleEj, __ZN18MultiLanguageModel10setWeightsERK12DgnPrimArrayIdE, 
                       __ZN18MultiLanguageModel11addToRecentERK12DgnPrimArrayIjEj, 
                       __ZN18MultiLanguageModel11clearRecentEv, __ZN18MultiLanguageModel12applyWeightsEj, 
                       __ZN18MultiLanguageModel12loadIntTableEP12DgnPrimArrayIiEPKciiiP17DgnTextFileParseriiiiii, 
                       __ZN18MultiLanguageModel12loadUnsTableEP12DgnPrimArrayIjEPKcjjjP17DgnTextFileParseriiiiii, 
                       __ZN18MultiLanguageModel12saveLMSharedEP18DgnSharedMemStreamb, 
                       __ZN18MultiLanguageModel13deleteWeightsEj, __ZN18MultiLanguageModel13languageScoreEjjP7LMStatsP13LMContextDataP14LMScoreDetailsbbPb, 
                       __ZN18MultiLanguageModel13loadMultiTextEP5DFilebP12DgnPrimArrayIdEPb, 
                       __ZN18MultiLanguageModel13loadRealTableEP12DgnPrimArrayIdEP9DgnStringPKcdddP17DgnTextFileParseriiiiii, 
                       __ZN18MultiLanguageModel13saveVocAndSvcEP5DFileS1_P14DFileChecksumsS3_byy30B_LMSBigramTrigramGroupingType25B_LMSQuadgramGroupingType, 
                       __ZN18MultiLanguageModel14deleteTopicLMsERK12DgnPrimArrayIjE, 
                       __ZN18MultiLanguageModel14endLMSyncRecogEbP13LMContextData, 
                       __ZN18MultiLanguageModel14makeNewWeightsERK9DgnString, 
                       __ZN18MultiLanguageModel14reloadLMSharedEP18DgnSharedMemStreamb, 
                       __ZN18MultiLanguageModel15addBuildTopicLMERK8DgnArrayI12DgnPrimArrayIjEES5_RKS2_, 
                       __ZN18MultiLanguageModel15addUnmappedWordEj, __ZN18MultiLanguageModel15clearLoadedDataE19B_LMClearLoadedType, 
                       __ZN18MultiLanguageModel15loadMultiBinaryEP5DFileP14DFileChecksumsPb, 
                       __ZN18MultiLanguageModel15loadStringTableEP8DgnArrayI9DgnStringEPKcP17DgnTextFileParseriiiiii, 
                       __ZN18MultiLanguageModel16beginLMSyncRecogEbP13LMContextData, 
                       __ZN18MultiLanguageModel18cleanupWeightsDataEv, 
                       __ZN18MultiLanguageModel18endBuildingTopicLMERK8DgnArrayI12DgnPrimArrayIjEES5_RKS2_i, 
                       __ZN18MultiLanguageModel18setTopicLmSlotNameEjRK9DgnString, 
                       __ZN18MultiLanguageModel19getLMWithLegacyPathEP9DgnString, 
                       __ZN18MultiLanguageModel19getTopicLmSlotNamesEP8DgnArrayI9DgnStringE, 
                       __ZN18MultiLanguageModel20abortBuildingTopicLMEv, 
                       __ZN18MultiLanguageModel20startBuildingTopicLMEj, 
                       __ZN18MultiLanguageModel21adjustNamedWeightsSetEj, 
                       __ZN18MultiLanguageModel21getLMForDirPathVerifyEPKcRK9DgnStringP13LanguageModelP5DFileb, 
                       __ZN18MultiLanguageModel21notifyEmptiedWordListEv, 
                       __ZN18MultiLanguageModel21setTopicLmSlotWeightsERK12DgnPrimArrayIjERKS0_IdE, 
                       __ZN18MultiLanguageModel21setWordNgramTemplatesEPK12DgnIOwnArrayIP17WordNgramTemplateEb, 
                       __ZN18MultiLanguageModel22adaptLMFromTranscriptsERK8DgnArrayI12DgnPrimArrayIjEES5_RKS2_ib, 
                       __ZN18MultiLanguageModel22adjustNamedWeightsSetsEv, 
                       __ZN18MultiLanguageModel22deleteTopicLMsInternalERK12DgnPrimArrayIbEPj, 
                       __ZN18MultiLanguageModel22getInternalTopicLmSlotEPjPPS_S0_, 
                       __ZN18MultiLanguageModel22languageScoreForSearchEjjP7LMStatsP13LMContextDatabPb, 
                       __ZN18MultiLanguageModel23loadComponentLMSubFilesEbP5DFileS1_P14DFileChecksumsP18DgnSharedMemStreambbbjjbbPbS6_b, 
                       __ZN18MultiLanguageModel23setWeightsForNewTopicLMEj, 
                       __ZN18MultiLanguageModel24setInterpolatedLmWeightsERK12DgnPrimArrayIdEPj, 
                       __ZN18MultiLanguageModel26setFactoryCorrectiveLmNameEjRK9DgnString, 
                       __ZN18MultiLanguageModel26transferAdjustedLmInternalEjPKS_j, 
                       __ZN18MultiLanguageModel27beginRescoringInLMSyncRecogEP13LMContextData, 
                       __ZN18MultiLanguageModel27getFactoryCorrectiveLmNamesEP8DgnArrayI9DgnStringE, 
                       __ZN18MultiLanguageModel28transferAdjustedTopicLmMultiEjPKS_j, 
                       __ZN18MultiLanguageModel29setActiveFactoryCorrectiveLmsERK12DgnPrimArrayIjERKS0_IbE, 
                       __ZN18MultiLanguageModel29setTopicLmSlotWeightsInternalERK12DgnPrimArrayIdEPj, 
                       __ZN18MultiLanguageModel30getInternalFactoryCorrectiveLmEPjPPS_S0_, 
                       __ZN18MultiLanguageModel31recomputeRecentBufferRemaindersEv, 
                       __ZN18MultiLanguageModel32maybeUpgradeToWordNgramTemplatesEP13LanguageModelP5DFilejjbP12DgnIOwnArrayIP17WordNgramTemplateE, 
                       __ZN18MultiLanguageModel36setDispatchPrefiltererPerWordPenaltyEjj, 
                       __ZN18MultiLanguageModel37setActiveFactoryCorrectiveLmsInternalERK12DgnPrimArrayIiEPj, 
                       __ZN18MultiLanguageModel45recomputeRecentBufferHeadClonesAndCommonWordsEv, 
                       __ZN18MultiLanguageModel6loadLMEP5DFileS1_P14DFileChecksumsP18DgnSharedMemStreambbbjjbbPbS6_Pd, 
                       __ZN18MultiLanguageModel7addWordEjj, __ZN18MultiLanguageModelC1EjPK8WordList, 
                       __ZN18MultiLanguageModelC2EjPK8WordList, __ZN18MultiLanguageModelD0Ev, 
                       __ZN18MultiLanguageModelD1Ev, __ZN18MultiLanguageModelD2Ev, 
                       __ZN18NodeByInLinksICmp115compareElementsEPvPKvS2_, 
                       __ZN18NodeByOutLinksICmp15compareElementsEPvPKvS2_, 
                       __ZN18ProcessPrefiltererC1EP11PrefiltererPK17SynchronizedArrayI12DgnPrimArrayIhEEPKS2_I13ScoreFixArrayEibbP15ReturnListQueuePiP8SnapTimeSG_SG_, 
                       __ZN18ProcessPrefiltererC2EP11PrefiltererPK17SynchronizedArrayI12DgnPrimArrayIhEEPKS2_I13ScoreFixArrayEibbP15ReturnListQueuePiP8SnapTimeSG_SG_, 
                       __ZN18ProcessPrefiltererD1Ev, __ZN18ProcessPrefiltererD2Ev, 
                       __ZN18TReentrancyHandler6ms_bInE, __ZN18TReentrancyHandler7ms_csInE, 
                       __ZN18UtbFileAudioSource12readOneFrameEPP9FrameDatabb, 
                       __ZN18UtbFileAudioSource13getDataFormatER14AcousticFormatP9DgnStringP5DFile, 
                       __ZN18UtbFileAudioSource13getHeaderSizeEv, __ZN18UtbFileAudioSource13openFromDFileEPK14AcousticFormatP9DgnStringP5DFile, 
                       __ZN18UtbFileAudioSource13readUtbHeaderEPjS0_P14AcousticFormat, 
                       __ZN18UtbFileAudioSource14readHeaderHereEP11UtbFileInfo, 
                       __ZN18UtbFileAudioSource15createUtbStreamEP5DFile, 
                       __ZN18UtbFileAudioSource19openFileAudioSourceEPK14AcousticFormatP9DgnString, 
                       __ZN18UtbFileAudioSource20closeFileAudioSourceEv, 
                       __ZN18UtbFileAudioSource20newEnvMgrThisSectionEv, 
                       __ZN18UtbFileAudioSource24maybeReadToNextUtteranceEv, 
                       __ZN18UtbFileAudioSource5resetEv, __ZN18UtbFileAudioSource9getEnvMgrEP6EnvMgr, 
                       __ZN18UtbFileAudioSourceC1ERK8FileSpecbbbd, __ZN18UtbFileAudioSourceC2ERK8FileSpecbbbd, 
                       __ZN18UtbFileAudioSourceD0Ev, __ZN18UtbFileAudioSourceD1Ev, 
                       __ZN18UtbFileAudioSourceD2Ev, __ZN18UtdFileAudioSource12readOneFrameEPP9FrameDatabb, 
                       __ZN18UtdFileAudioSource13getDataFormatER14AcousticFormatP9DgnStringP5DFile, 
                       __ZN18UtdFileAudioSource14setWaveDecoderEPK11WaveDecoder, 
                       __ZN18UtdFileAudioSource19isTimeForMoreFramesEv, 
                       __ZN18UtdFileAudioSource19openFileAudioSourceEPK14AcousticFormatP9DgnString, 
                       __ZN18UtdFileAudioSource20closeFileAudioSourceEv, 
                       __ZN18UtdFileAudioSource20newEnvMgrThisSectionEv, 
                       __ZN18UtdFileAudioSource9getEnvMgrEP6EnvMgr, __ZN18UtdFileAudioSource9safeCloseEv, 
                       __ZN18UtdFileAudioSourceC1ERK8FileSpecbbbd, __ZN18UtdFileAudioSourceC2ERK8FileSpecbbbd, 
                       __ZN18UtdFileAudioSourceD0Ev, __ZN18UtdFileAudioSourceD1Ev, 
                       __ZN18UtdFileAudioSourceD2Ev, __ZN18WordConfidenceInfo4initEPK18ConfidenceParamSet, 
                       __ZN18WordNgramBuildSpec10readObjectEP9DgnStreamRj, 
                       __ZN18WordNgramBuildSpec21loadWordDummySpecTextEP5DFile, 
                       __ZN18WordNgramBuildSpec22loadWordNgramBuildSpecEP5DFileP14DFileChecksumsb, 
                       __ZN18WordNgramBuildSpec26loadWordNgramBuildSpecTextEP5DFile, 
                       __ZN18WordNgramBuildSpec28loadWordNgramBuildSpecBinaryEP5DFileP14DFileChecksums, 
                       __ZN18WordNgramBuildSpecC1ERK13WordDummySpec, __ZN18WordNgramBuildSpecC1ERKS_, 
                       __ZN18WordNgramBuildSpecC1Ev, __ZN18WordNgramBuildSpecC2ERK13WordDummySpec, 
                       __ZN18WordNgramBuildSpecC2ERKS_, __ZN18WordNgramBuildSpecC2Ev, 
                       __ZN18WordNgramBuildSpecaSERKS_, __ZN19ActiveWordCoartBase10getEndPicsEtP8DgnArrayI3PicE, 
                       __ZN19ActiveWordCoartBase10seedInPortEtij, __ZN19ActiveWordCoartBaseC2EP13ActiveWordMgrP6HmmNet, 
                       __ZN19ActiveWordCoartBaseD0Ev, __ZN19ActiveWordCoartBaseD1Ev, 
                       __ZN19ActiveWordCoartBaseD2Ev, __ZN19AdaptConfigAndStats10readObjectEP9DgnStreamRj, 
                       __ZN19AdaptConfigAndStatsC1ERK11AdaptConfigRK10AdaptStats, 
                       __ZN19AdaptConfigAndStatsC1ERKS_, __ZN19AdaptConfigAndStatsC2ERK11AdaptConfigRK10AdaptStats, 
                       __ZN19AdaptConfigAndStatsC2ERKS_, __ZN19AdaptConfigAndStatsaSERKS_, 
                       __ZN19BaumWelchController16getCombinedScoreERK8NodeDataS2_PK12DgnPrimArrayIsE, 
                       __ZN19BaumWelchController20alignToTranscriptionEPK8DgnArrayI12DgnPrimArrayIjEEP9UtterancePK18BandwidthTransformP9PelScorerPK14SearchParamSetjbPKS1_IiEP22ItemizedAcousticScoresidiPP17PelScoreCacheData, 
                       __ZN19BaumWelchController9findMatchER8NodeDataiRK7HashKEVIPS0_S3_S0_ERK8DgnArrayI6CWIDACEdiPK12DgnPrimArrayIsE, 
                       __ZN19BaumWelchControllerC1ERK17RecognizerOptionst, 
                       __ZN19BaumWelchControllerC2ERK17RecognizerOptionst, 
                       __ZN19BaumWelchControllerD1Ev, __ZN19BaumWelchControllerD2Ev, 
                       __ZN19BaumWelchReverseNet14pushEntryScoreEv, __ZN19BaumWelchReverseNet17updateSilSeedTimeEbi, 
                       __ZN19BaumWelchReverseNet9scoreNodeEP11NodeNetNodePK8BaseNodeiiiiPbiiPjP6HmmNet, 
                       __ZN19BaumWelchReverseNetD0Ev, __ZN19BaumWelchReverseNetD1Ev, 
                       __ZN19BaumWelchReverseNetD2Ev, __ZN19BoolGlobalParamBase5resetEv, 
                       __ZN19BoolGlobalParamBase6setValEbb, __ZN19BoolGlobalParamBaseC1EPKcS1_S1_bPFvvES1_, 
                       __ZN19BoolGlobalParamBaseC2EPKcS1_S1_bPFvvES1_, 
                       __ZN19BoolGlobalParamBaseD0Ev, __ZN19BoolGlobalParamBaseD1Ev, 
                       __ZN19BoolGlobalParamBaseD2Ev, __ZN19BuildWordIdNgramCmp15compareElementsEPvPKvS2_, 
                       __ZN19DFileChecksumBucketC1ERKS_, __ZN19DFileChecksumBucketC1Ev, 
                       __ZN19DFileChecksumBucketC2ERKS_, __ZN19DFileChecksumBucketC2Ev, 
                       __ZN19DFileChecksumBucketD1Ev, __ZN19DFileChecksumBucketD2Ev, 
                       __ZN19DFileChecksumBucketaSERKS_, __ZN19EnumGlobalParamBase16setValEnumStringEPKcb, 
                       __ZN19EnumGlobalParamBase5resetEv, __ZN19EnumGlobalParamBase6setValEib, 
                       __ZN19EnumGlobalParamBaseC1EPKcS1_S1_iRK14EnumParamRangePFvvES1_, 
                       __ZN19EnumGlobalParamBaseC2EPKcS1_S1_iRK14EnumParamRangePFvvES1_, 
                       __ZN19EnumGlobalParamBaseD0Ev, __ZN19EnumGlobalParamBaseD1Ev, 
                       __ZN19EnumGlobalParamBaseD2Ev, __ZN19FeatureSelectorSpec10readObjectEP9DgnStreamRj, 
                       __ZN19FeatureSelectorSpecC1EjjRK8BitArray, __ZN19FeatureSelectorSpecC1Ev, 
                       __ZN19FeatureSelectorSpecC2EjjRK8BitArray, __ZN19FeatureSelectorSpecC2Ev, 
                       __ZN19FeatureSelectorSpecaSERKS_, __ZN19IdentAndNumberArray11showSummaryEv, 
                       __ZN19IdentAndNumberArray13setFromStringEPKc, __ZN19IdentAndNumberArrayC1EPKcS1_, 
                       __ZN19IdentAndNumberArrayC2EPKcS1_, __ZN19NistFileAudioSource10readHeaderEP11NistUttInfob, 
                       __ZN19NistFileAudioSource12fillOneFrameEPP9FrameDatabb, 
                       __ZN19NistFileAudioSource12fillWaveDataEPP8WaveDataS2_, 
                       __ZN19NistFileAudioSource12readOneFrameEPP9FrameDatabb, 
                       __ZN19NistFileAudioSource12readWaveDataEj, __ZN19NistFileAudioSource13getDataFormatER14AcousticFormatP9DgnStringP5DFile, 
                       __ZN19NistFileAudioSource13openFromDFileEPK14AcousticFormatP9DgnStringP5DFile, 
                       __ZN19NistFileAudioSource14setWaveDecoderEPK11WaveDecoder, 
                       __ZN19NistFileAudioSource16createWaveStreamEP5DFile, 
                       __ZN19NistFileAudioSource19openFileAudioSourceEPK14AcousticFormatP9DgnString, 
                       __ZN19NistFileAudioSource20closeFileAudioSourceEv, 
                       __ZN19NistFileAudioSource20newEnvMgrThisSectionEv, 
                       __ZN19NistFileAudioSource24maybeReadToNextUtteranceEv, 
                       __ZN19NistFileAudioSource9getEnvMgrEP6EnvMgr, __ZN19NistFileAudioSourceC1ERK8FileSpecbbbd, 
                       __ZN19NistFileAudioSourceC2ERK8FileSpecbbbd, __ZN19NistFileAudioSourceD0Ev, 
                       __ZN19NistFileAudioSourceD1Ev, __ZN19NistFileAudioSourceD2Ev, 
                       __ZN19NodeByOutLinksICmp115compareElementsEPvPKvS2_, 
                       __ZN19RealDFileHeaderFile10writeBytesEPKcj, __ZN19RealDFileHeaderFile11seekFromBegEy, 
                       __ZN19RealDFileHeaderFile9readBytesEPcj, __ZN19RealDFileHeaderFileC1EP9RealDFileyb, 
                       __ZN19RealDFileHeaderFileC2EP9RealDFileyb, __ZN19RecogControllerBase19makeRecogControllerE24B_DgnThreadExecutionTypeRK9RecogSpecbP25PrefiltererSearchParamSetP24SearchCrossLayerParamSet, 
                       __ZN19TGlobalParamManager12notifyChangeEPK6TParam, 
                       __ZN19TGlobalParamManagerC1ER11TLocaleInfo, __ZN19TGlobalParamManagerC2ER11TLocaleInfo, 
                       __ZN19WordIdPronCollArray10readObjectEP9DgnStreamRj, 
                       __ZN19WordIdPronCollArray11preAllocateEj, __ZN19WordIdPronCollArray11removeArrayERK12DgnPrimArrayIjE, 
                       __ZN19WordIdPronCollArray14getInsertIndexEjj, __ZN19WordIdPronCollArray15compareElementsEPKvS1_S1_, 
                       __ZN19WordIdPronCollArray17removeSortedArrayERK12DgnPrimArrayIjE, 
                       __ZN19WordIdPronCollArray21mergeLargeSortedArrayERK12DgnPrimArrayIjE, 
                       __ZN19WordIdPronCollArray21mergeSmallSortedArrayERK12DgnPrimArrayIjE, 
                       __ZN19WordIdPronCollArray3addEj, __ZN19WordIdPronCollArray6removeEj, 
                       __ZN19WordIdPronCollArray7compactEv, __ZN19WordIdPronCollArray8addArrayERK12DgnPrimArrayIjE, 
                       __ZN19WordIdPronCollArray9removeAllEv, __ZN19WordIdPronCollArray9sortArrayEP12DgnPrimArrayIjE, 
                       __ZN19WordIdPronCollArray9sortArrayEv, __ZN19WordIdPronCollArrayC1EPK8WordList, 
                       __ZN19WordIdPronCollArrayC1Ev, __ZN19WordIdPronCollArrayC2EPK8WordList, 
                       __ZN19WordIdPronCollArrayC2Ev, __ZN19WordIdPronCollArrayD1Ev, 
                       __ZN19WordIdPronCollArrayD2Ev, __ZN20FeatureGeneratorSpec10readObjectEP9DgnStreamRj, 
                       __ZN20FeatureGeneratorSpecC1Ev, __ZN20FeatureGeneratorSpecC2Ev, 
                       __ZN20FeatureGeneratorSpecD1Ev, __ZN20FeatureGeneratorSpecD2Ev, 
                       __ZN20FeatureGeneratorSpecaSERKS_, __ZN20FeatureRangeSelector12processFrameEP9FrameDataP9DgnIArrayIS1_E, 
                       __ZN20FeatureRangeSelectorC1Ej, __ZN20FeatureRangeSelectorC2Ej, 
                       __ZN20FstSearchHashBackoff10seedTheoryEiijP11SearchStats, 
                       __ZN20FstSearchHashBackoff13advanceDeltasEiiP11SearchStatsb, 
                       __ZN20FstSearchHashBackoff13collectTracesEv, __ZN20FstSearchHashBackoff14propagateNullsEiiP11SearchStats, 
                       __ZN20FstSearchHashBackoff15seedFromMiniFstERi, 
                       __ZN20FstSearchHashBackoff16buildWordLatticeEP11WordLatticeR15DgnPrimFixArrayIhERS2_IbEb, 
                       __ZN20FstSearchHashBackoff16getBestExitScoreEv, 
                       __ZN20FstSearchHashBackoff17maybeInitDurModelEPK6PicMgrj, 
                       __ZN20FstSearchHashBackoff18createLatticeNodesER15DgnPrimFixArrayIiER12DgnPrimArrayIjEP11WordLatticeR8DgnArrayIS3_IiEERS0_IhERS0_IbE, 
                       __ZN20FstSearchHashBackoff18endTopRecSyncRecogEv, 
                       __ZN20FstSearchHashBackoff20beginTopRecSyncRecogEP7VirtMap, 
                       __ZN20FstSearchHashBackoff20maybeGeneratePelMapsEPK6PicMgr, 
                       __ZN20FstSearchHashBackoff21applyCutoffOnEmittingEjPi, 
                       __ZN20FstSearchHashBackoff22endTopRecPassSyncRecogEv, 
                       __ZN20FstSearchHashBackoff24beginTopRecPassSyncRecogEP9PelScorerPK8ArcGraph, 
                       __ZN20FstSearchHashBackoff29generateTraceTokensFromTracesEv, 
                       __ZN20FstSearchHashBackoff4viteEiiP11SearchStatsb, 
                       __ZN20FstSearchHashBackoff5resetEv, __ZN20FstSearchHashBackoff7doFrameEiiP11SearchStatsb, 
                       __ZN20FstSearchHashBackoffC1ERKiS1_, __ZN20FstSearchHashBackoffC2ERKiS1_, 
                       __ZN20FstSearchLateLattice10seedTheoryEiijP11SearchStats, 
                       __ZN20FstSearchLateLattice13advanceDeltasEiiP11SearchStatsb, 
                       __ZN20FstSearchLateLattice14propagateNullsEiiP11SearchStats, 
                       __ZN20FstSearchLateLattice15seedFromMiniFstERi, 
                       __ZN20FstSearchLateLattice16buildWordLatticeEP11WordLatticeR15DgnPrimFixArrayIhERS2_IbEb, 
                       __ZN20FstSearchLateLattice16getBestExitScoreEv, 
                       __ZN20FstSearchLateLattice17maybeInitDurModelEPK6PicMgrj, 
                       __ZN20FstSearchLateLattice18createLatticeNodesER15DgnPrimFixArrayIiER12DgnPrimArrayIjEP11WordLatticeR8DgnArrayIS3_IiEERS0_IhERS0_IbE, 
                       __ZN20FstSearchLateLattice18endTopRecSyncRecogEv, 
                       __ZN20FstSearchLateLattice20beginTopRecSyncRecogEP7VirtMap, 
                       __ZN20FstSearchLateLattice20maybeGeneratePelMapsEPK6PicMgr, 
                       __ZN20FstSearchLateLattice21applyCutoffOnEmittingEjPi, 
                       __ZN20FstSearchLateLattice22endTopRecPassSyncRecogEv, 
                       __ZN20FstSearchLateLattice22getTraceTimeBoundariesER15DgnPrimFixArrayIjER12DgnPrimArrayIiE, 
                       __ZN20FstSearchLateLattice24beginTopRecPassSyncRecogEP9PelScorerPK8ArcGraph, 
                       __ZN20FstSearchLateLattice29generateTraceTokensFromTracesEv, 
                       __ZN20FstSearchLateLattice29makeViterbiDecisionOnEmittingEv, 
                       __ZN20FstSearchLateLattice33generateTraceTokensForLateLatticeEv, 
                       __ZN20FstSearchLateLattice4viteEiiP11SearchStatsb, 
                       __ZN20FstSearchLateLattice5resetEv, __ZN20FstSearchLateLattice7doFrameEiiP11SearchStatsb, 
                       __ZN20FstSearchLateLatticeC1ERKiS1_, __ZN20FstSearchLateLatticeC2ERKiS1_, 
                       __ZN20FstSearchLatticeHash10seedTheoryEiijP11SearchStats, 
                       __ZN20FstSearchLatticeHash13advanceDeltasEiiP11SearchStatsb, 
                       __ZN20FstSearchLatticeHash13collectTracesEv, __ZN20FstSearchLatticeHash14propagateNullsEiiP11SearchStats, 
                       __ZN20FstSearchLatticeHash15seedFromMiniFstERi, 
                       __ZN20FstSearchLatticeHash16buildWordLatticeEP11WordLatticeR15DgnPrimFixArrayIhERS2_IbEb, 
                       __ZN20FstSearchLatticeHash16getBestExitScoreEv, 
                       __ZN20FstSearchLatticeHash17maybeInitDurModelEPK6PicMgrj, 
                       __ZN20FstSearchLatticeHash18createLatticeNodesER15DgnPrimFixArrayIiER12DgnPrimArrayIjEP11WordLatticeR8DgnArrayIS3_IiEERS0_IhERS0_IbE, 
                       __ZN20FstSearchLatticeHash18endTopRecSyncRecogEv, 
                       __ZN20FstSearchLatticeHash18generateNullTracesEij, 
                       __ZN20FstSearchLatticeHash20annihilateNullTracesEv, 
                       __ZN20FstSearchLatticeHash20beginTopRecSyncRecogEP7VirtMap, 
                       __ZN20FstSearchLatticeHash20maybeGeneratePelMapsEPK6PicMgr, 
                       __ZN20FstSearchLatticeHash21applyCutoffOnEmittingEjPi, 
                       __ZN20FstSearchLatticeHash22endTopRecPassSyncRecogEv, 
                       __ZN20FstSearchLatticeHash24beginTopRecPassSyncRecogEP9PelScorerPK8ArcGraph, 
                       __ZN20FstSearchLatticeHash26annihilateNullActiveTokensEv, 
                       __ZN20FstSearchLatticeHash26annihilateNullLongestFinalEv, 
                       __ZN20FstSearchLatticeHash26getCandidateTokensForTraceERK25FstSearchLatticeHashTraceR8DgnArrayI30FstSearchLatticeHashTraceTokenE, 
                       __ZN20FstSearchLatticeHash4viteEiiP11SearchStatsb, 
                       __ZN20FstSearchLatticeHash5resetEv, __ZN20FstSearchLatticeHash7doFrameEiiP11SearchStatsb, 
                       __ZN20FstSearchLatticeHashC1ERKiS1_, __ZN20FstSearchLatticeHashC2ERKiS1_, 
                       __ZN20FstSearchLeafBackoff10seedTheoryEiijP11SearchStats, 
                       __ZN20FstSearchLeafBackoff13advanceDeltasEiiP11SearchStatsb, 
                       __ZN20FstSearchLeafBackoff13collectTracesEv, __ZN20FstSearchLeafBackoff14propagateNullsEiiP11SearchStats, 
                       __ZN20FstSearchLeafBackoff15seedFromMiniFstERi, 
                       __ZN20FstSearchLeafBackoff16buildWordLatticeEP11WordLatticeR15DgnPrimFixArrayIhERS2_IbEb, 
                       __ZN20FstSearchLeafBackoff16getBestExitScoreEv, 
                       __ZN20FstSearchLeafBackoff17maybeInitDurModelEPK6PicMgrj, 
                       __ZN20FstSearchLeafBackoff18createLatticeNodesER15DgnPrimFixArrayIiER12DgnPrimArrayIjEP11WordLatticeR8DgnArrayIS3_IiEERS0_IhERS0_IbE, 
                       __ZN20FstSearchLeafBackoff18endTopRecSyncRecogEv, 
                       __ZN20FstSearchLeafBackoff20beginTopRecSyncRecogEP7VirtMap, 
                       __ZN20FstSearchLeafBackoff20maybeGeneratePelMapsEPK6PicMgr, 
                       __ZN20FstSearchLeafBackoff21applyCutoffOnEmittingEjPi, 
                       __ZN20FstSearchLeafBackoff22endTopRecPassSyncRecogEv, 
                       __ZN20FstSearchLeafBackoff24beginTopRecPassSyncRecogEP9PelScorerPK8ArcGraph, 
                       __ZN20FstSearchLeafBackoff29generateTraceTokensFromTracesEv, 
                       __ZN20FstSearchLeafBackoff29makeViterbiDecisionOnEmittingEv, 
                       __ZN20FstSearchLeafBackoff4viteEiiP11SearchStatsb, 
                       __ZN20FstSearchLeafBackoff5resetEv, __ZN20FstSearchLeafBackoff7doFrameEiiP11SearchStatsb, 
                       __ZN20FstSearchLeafBackoffC1ERKiS1_, __ZN20FstSearchLeafBackoffC2ERKiS1_, 
                       __ZN20FstSearchLeafLattice10seedTheoryEiijP11SearchStats, 
                       __ZN20FstSearchLeafLattice13advanceDeltasEiiP11SearchStatsb, 
                       __ZN20FstSearchLeafLattice13collectTracesEv, __ZN20FstSearchLeafLattice14propagateNullsEiiP11SearchStats, 
                       __ZN20FstSearchLeafLattice15seedFromMiniFstERi, 
                       __ZN20FstSearchLeafLattice16buildWordLatticeEP11WordLatticeR15DgnPrimFixArrayIhERS2_IbEb, 
                       __ZN20FstSearchLeafLattice16getBestExitScoreEv, 
                       __ZN20FstSearchLeafLattice17maybeInitDurModelEPK6PicMgrj, 
                       __ZN20FstSearchLeafLattice18createLatticeNodesER15DgnPrimFixArrayIiER12DgnPrimArrayIjEP11WordLatticeR8DgnArrayIS3_IiEERS0_IhERS0_IbE, 
                       __ZN20FstSearchLeafLattice18endTopRecSyncRecogEv, 
                       __ZN20FstSearchLeafLattice20beginTopRecSyncRecogEP7VirtMap, 
                       __ZN20FstSearchLeafLattice20maybeGeneratePelMapsEPK6PicMgr, 
                       __ZN20FstSearchLeafLattice21applyCutoffOnEmittingEjPi, 
                       __ZN20FstSearchLeafLattice22endTopRecPassSyncRecogEv, 
                       __ZN20FstSearchLeafLattice24beginTopRecPassSyncRecogEP9PelScorerPK8ArcGraph, 
                       __ZN20FstSearchLeafLattice29makeViterbiDecisionOnEmittingEv, 
                       __ZN20FstSearchLeafLattice4viteEiiP11SearchStatsb, 
                       __ZN20FstSearchLeafLattice5resetEv, __ZN20FstSearchLeafLattice7doFrameEiiP11SearchStatsb, 
                       __ZN20FstSearchLeafLatticeC1ERKiS1_, __ZN20FstSearchLeafLatticeC2ERKiS1_, 
                       __ZN20HmmDurationPenalties20initDurationsLookupsEd, 
                       __ZN20LatticeNBestParamSet11setDefaultsEv, __ZN20LatticeNBestParamSet15setIntParameterEti, 
                       __ZN20LatticeNBestParamSet16setBoolParameterEtb, 
                       __ZN20LatticeNBestParamSet16setEnumParameterEti, 
                       __ZN20LatticeNBestParamSet18setDoubleParameterEtd, 
                       __ZN20LatticeNBestParamSet18setStringParameterEtPKc, 
                       __ZN20LatticeNBestParamSet36setParamSetLatticeNBestListMaxLengthEi, 
                       __ZN20LatticeNBestParamSetC1EPKc14B_ParamSetTypejj, 
                       __ZN20LatticeNBestParamSetC1ERKS_PKc14B_ParamSetTypejj, 
                       __ZN20LatticeNBestParamSetC2EPKc14B_ParamSetTypejj, 
                       __ZN20LatticeNBestParamSetC2ERKS_PKc14B_ParamSetTypejj, 
                       __ZN20OldFeatureFilterSpec10readObjectEP9DgnStreamRj, 
                       __ZN20OldFeatureFilterSpecC1EjjjRK12DgnPrimArrayIiEi, 
                       __ZN20OldFeatureFilterSpecC1Ev, __ZN20OldFeatureFilterSpecC2EjjjRK12DgnPrimArrayIiEi, 
                       __ZN20OldFeatureFilterSpecC2Ev, __ZN20OldFeatureFilterSpecaSERKS_, 
                       __ZN20RecogCtlThreadWorker10onShutdownEv, __ZN20RecogCtlThreadWorker7playOneEv, 
                       __ZN20RecogCtlThreadWorker9onStartupEv, __ZN20RecogCtlThreadWorkerC1E24B_DgnThreadExecutionTypeP15DgnThreadClientP14MemChunkRegionj, 
                       __ZN20RecogCtlThreadWorkerC2E24B_DgnThreadExecutionTypeP15DgnThreadClientP14MemChunkRegionj, 
                       __ZN20RecogLayerPhaseStatsC1Ev, __ZN20RecogLayerPhaseStatsC2Ev, 
                       __ZN20SeedMergedActiveWord17processMergedWordEP10ActiveWordPK10HistoryMgrRK11PhnIndexSeti, 
                       __ZN20SequenceRecogGrammar8finalizeEv, __ZN20SequenceRecogGrammarC1Et, 
                       __ZN20SequenceRecogGrammarC2Et, __ZN20SequenceRecogGrammarD0Ev, 
                       __ZN20SequenceRecogGrammarD1Ev, __ZN20SequenceRecogGrammarD2Ev, 
                       __ZN20SmoothedCDFEstimator10reestimateEbb, __ZN20SmoothedCDFEstimator14makeInverseCDFERK12DgnPrimArrayIjEPS1_, 
                       __ZN20SmoothedCDFEstimator14rebuildCDFMapsEv, __ZN20SmoothedCDFEstimator20makeInverseTargetCDFERK12DgnPrimArrayIjE, 
                       __ZN20SmoothedCDFEstimator21smoothAccumHistogramsEv, 
                       __ZN20SmoothedCDFEstimator23fillZeroSmoothHistogramERK12DgnPrimArrayIjEPS1_, 
                       __ZN20SmoothedCDFEstimatorC1EPK7SigProcPK15ChannelParamSet, 
                       __ZN20SmoothedCDFEstimatorC2EPK7SigProcPK15ChannelParamSet, 
                       __ZN20SortCwidsByPronScope15compareElementsEPvPKvS2_, 
                       __ZN20TCliticsParamManagerC1ER11TLocaleInfo, __ZN20TCliticsParamManagerC2ER11TLocaleInfo, 
                       __ZN20TLexiconParamManager12notifyChangeEPK6TParam, 
                       __ZN20TLexiconParamManagerC1EP8TLexicon, __ZN20TLexiconParamManagerC2EP8TLexicon, 
                       __ZN20TraceExternalOutPort24seedOutPortForTraceBack2EiiP6NetMgr, 
                       __ZN20TransducerGrammarArcC1ERKS_, __ZN20TransducerGrammarArcC1Ej17WordIdOrTrGrmLmIdi, 
                       __ZN20TransducerGrammarArcC1Ev, __ZN20TransducerGrammarArcC2ERKS_, 
                       __ZN20TransducerGrammarArcC2Ej17WordIdOrTrGrmLmIdi, 
                       __ZN20TransducerGrammarArcC2Ev, __ZN20TransducerGrammarMgr23smpTransducerGrammarMgrE, 
                       __ZN20TransducerGrammarMgr27startupTransducerGrammarMgrEPK12DgnIOwnArrayIP17TransducerGrammarE, 
                       __ZN20TransducerGrammarMgr28shutdownTransducerGrammarMgrEv, 
                       __ZN20TransducerGrammarMgrC1EPK12DgnIOwnArrayIP17TransducerGrammarE, 
                       __ZN20TransducerGrammarMgrC2EPK12DgnIOwnArrayIP17TransducerGrammarE, 
                       __ZN20TransducerGrammarMgrD1Ev, __ZN20TransducerGrammarMgrD2Ev, 
                       __ZN21ActiveWordEmbeddedFst10seedInPortEtij, __ZN21ActiveWordEmbeddedFstC1EP13ActiveWordMgrP6HmmNet, 
                       __ZN21ActiveWordEmbeddedFstC2EP13ActiveWordMgrP6HmmNet, 
                       __ZN21ActiveWordEmbeddedFstD0Ev, __ZN21ActiveWordEmbeddedFstD1Ev, 
                       __ZN21ActiveWordEmbeddedFstD2Ev, __ZN21ActiveWordNoCoartBase10seedInPortEtij, 
                       __ZN21ActiveWordNoCoartBaseC1EP13ActiveWordMgrP6HmmNet, 
                       __ZN21ActiveWordNoCoartBaseC2EP13ActiveWordMgrP6HmmNet, 
                       __ZN21ActiveWordNoCoartBaseD0Ev, __ZN21ActiveWordNoCoartBaseD1Ev, 
                       __ZN21ActiveWordNoCoartBaseD2Ev, __ZN21ActiveWordNonAcousticC1EP13ActiveWordMgrP6HmmNet, 
                       __ZN21ActiveWordNonAcousticC2EP13ActiveWordMgrP6HmmNet, 
                       __ZN21ActiveWordNonAcousticD0Ev, __ZN21ActiveWordNonAcousticD1Ev, 
                       __ZN21ActiveWordNonAcousticD2Ev, __ZN21AlternateRecogGrammar8finalizeEv, 
                       __ZN21AlternateRecogGrammarC1Et, __ZN21AlternateRecogGrammarC2Et, 
                       __ZN21AlternateRecogGrammarD0Ev, __ZN21AlternateRecogGrammarD1Ev, 
                       __ZN21AlternateRecogGrammarD2Ev, __ZN21ArcGraphStateFromText14setNonEmittingEv, 
                       __ZN21ArcGraphStateFromText8setPelIdEt, __ZN21ContainerRecogGrammar3addEP12RecogGrammar, 
                       __ZN21ContainerRecogGrammarC1Et, __ZN21ContainerRecogGrammarC2Et, 
                       __ZN21ContainerRecogGrammarD0Ev, __ZN21ContainerRecogGrammarD1Ev, 
                       __ZN21ContainerRecogGrammarD2Ev, __ZN21DoubleGlobalParamBase5resetEv, 
                       __ZN21DoubleGlobalParamBase6setValEdb, __ZN21DoubleGlobalParamBaseC1EPKcS1_S1_dRK16DoubleParamRangePFvvES1_, 
                       __ZN21DoubleGlobalParamBaseC2EPKcS1_S1_dRK16DoubleParamRangePFvvES1_, 
                       __ZN21DoubleGlobalParamBaseD0Ev, __ZN21DoubleGlobalParamBaseD1Ev, 
                       __ZN21DoubleGlobalParamBaseD2Ev, __ZN21ExternalChannelThread12setExtSourceEP14ExtAudioSource, 
                       __ZN21ExternalChannelThread14haltCollectionEv, __ZN21ExternalChannelThread15startCollectingEv, 
                       __ZN21ExternalChannelThread16addFeaturesToUttEP9Utterance, 
                       __ZN21ExternalChannelThread17setUtteranceAliveEv, 
                       __ZN21ExternalChannelThread18setSignalProcessorEP15SignalProcessor, 
                       __ZN21ExternalChannelThread19resetUtteranceAliveEv, 
                       __ZN21ExternalChannelThread21resetUttDetFramesSizeEv, 
                       __ZN21ExternalChannelThread22startCollectingNFramesEj, 
                       __ZN21ExternalChannelThread23updateFeaturesFromCacheEv, 
                       __ZN21ExternalChannelThread27startCollectingUntilNoEventEb, 
                       __ZN21ExternalChannelThread31processFrameAndAddFeatureFramesEP9FrameDatabb, 
                       __ZN21ExternalChannelWorker10onShutdownEv, __ZN21ExternalChannelWorker17setUtteranceAliveEv, 
                       __ZN21ExternalChannelWorker19resetUtteranceAliveEv, 
                       __ZN21ExternalChannelWorker21resetUttDetFramesSizeEv, 
                       __ZN21ExternalChannelWorker23updateFeaturesFromCacheEv, 
                       __ZN21ExternalChannelWorker31processFrameAndAddFeatureFramesEP9FrameDatabb, 
                       __ZN21ExternalChannelWorker6onPlayEv, __ZN21ExternalChannelWorker7playOneEv, 
                       __ZN21ExternalChannelWorker9onStartupEv, __ZN21ExternalChannelWorkerC1E24B_DgnThreadExecutionTypeP15DgnThreadClientP14MemChunkRegionj, 
                       __ZN21ExternalChannelWorkerC2E24B_DgnThreadExecutionTypeP15DgnThreadClientP14MemChunkRegionj, 
                       __ZN21ExternalChannelWorkerD0Ev, __ZN21ExternalChannelWorkerD1Ev, 
                       __ZN21ExternalChannelWorkerD2Ev, __ZN21FstSearchDurationHash10seedTheoryEiijP11SearchStats, 
                       __ZN21FstSearchDurationHash13advanceDeltasEiiP11SearchStatsb, 
                       __ZN21FstSearchDurationHash13collectTracesEv, __ZN21FstSearchDurationHash14propagateNullsEiiP11SearchStats, 
                       __ZN21FstSearchDurationHash15seedFromMiniFstERi, 
                       __ZN21FstSearchDurationHash16buildWordLatticeEP11WordLatticeR15DgnPrimFixArrayIhERS2_IbEb, 
                       __ZN21FstSearchDurationHash16getBestExitScoreEv, 
                       __ZN21FstSearchDurationHash17maybeInitDurModelEPK6PicMgrj, 
                       __ZN21FstSearchDurationHash18createLatticeNodesER15DgnPrimFixArrayIiER12DgnPrimArrayIjEP11WordLatticeR8DgnArrayIS3_IiEERS0_IhERS0_IbE, 
                       __ZN21FstSearchDurationHash18endTopRecSyncRecogEv, 
                       __ZN21FstSearchDurationHash20beginTopRecSyncRecogEP7VirtMap, 
                       __ZN21FstSearchDurationHash20maybeGeneratePelMapsEPK6PicMgr, 
                       __ZN21FstSearchDurationHash21applyCutoffOnEmittingEjPi, 
                       __ZN21FstSearchDurationHash22endTopRecPassSyncRecogEv, 
                       __ZN21FstSearchDurationHash24beginTopRecPassSyncRecogEP9PelScorerPK8ArcGraph, 
                       __ZN21FstSearchDurationHash29generateTraceTokensFromTracesEv, 
                       __ZN21FstSearchDurationHash4viteEiiP11SearchStatsb, 
                       __ZN21FstSearchDurationHash5resetEv, __ZN21FstSearchDurationHash7doFrameEiiP11SearchStatsb, 
                       __ZN21FstSearchDurationHashC1ERKiS1_, __ZN21FstSearchDurationHashC2ERKiS1_, 
                       __ZN21FstSearchLeafDuration10seedTheoryEiijP11SearchStats, 
                       __ZN21FstSearchLeafDuration13advanceDeltasEiiP11SearchStatsb, 
                       __ZN21FstSearchLeafDuration13collectTracesEv, __ZN21FstSearchLeafDuration14propagateNullsEiiP11SearchStats, 
                       __ZN21FstSearchLeafDuration15seedFromMiniFstERi, 
                       __ZN21FstSearchLeafDuration16buildWordLatticeEP11WordLatticeR15DgnPrimFixArrayIhERS2_IbEb, 
                       __ZN21FstSearchLeafDuration16getBestExitScoreEv, 
                       __ZN21FstSearchLeafDuration17maybeInitDurModelEPK6PicMgrj, 
                       __ZN21FstSearchLeafDuration18createLatticeNodesER15DgnPrimFixArrayIiER12DgnPrimArrayIjEP11WordLatticeR8DgnArrayIS3_IiEERS0_IhERS0_IbE, 
                       __ZN21FstSearchLeafDuration18endTopRecSyncRecogEv, 
                       __ZN21FstSearchLeafDuration20beginTopRecSyncRecogEP7VirtMap, 
                       __ZN21FstSearchLeafDuration20maybeGeneratePelMapsEPK6PicMgr, 
                       __ZN21FstSearchLeafDuration21applyCutoffOnEmittingEjPi, 
                       __ZN21FstSearchLeafDuration22endTopRecPassSyncRecogEv, 
                       __ZN21FstSearchLeafDuration24beginTopRecPassSyncRecogEP9PelScorerPK8ArcGraph, 
                       __ZN21FstSearchLeafDuration29generateTraceTokensFromTracesEv, 
                       __ZN21FstSearchLeafDuration29makeViterbiDecisionOnEmittingEv, 
                       __ZN21FstSearchLeafDuration4viteEiiP11SearchStatsb, 
                       __ZN21FstSearchLeafDuration5resetEv, __ZN21FstSearchLeafDuration7doFrameEiiP11SearchStatsb, 
                       __ZN21FstSearchLeafDurationC1ERKiS1_, __ZN21FstSearchLeafDurationC2ERKiS1_, 
                       __ZN21GermRecogGermIterator17advanceUntilMatchEv, 
                       __ZN21LookaheadScorerThread11stopScoringEP17SynchronizedArrayI13ScoreFixArrayE, 
                       __ZN21LookaheadScorerThread12startScoringEPK17SynchronizedArrayI12DgnPrimArrayIhEE, 
                       __ZN21LookaheadScorerThread15scoreUntilFrameEiPK17SynchronizedArrayI12DgnPrimArrayIhEEPS0_I13ScoreFixArrayE, 
                       __ZN21LookaheadScorerThread5resetEv, __ZN21MergedStateTransition27updateMergedStateTransitionERK9PredStateRK11HiddenState, 
                       __ZN21ProcessFrameTransformC1EPKcP16FrameTransformerPK17SynchronizedArrayI12DgnPrimArrayIhEEibbbPS7_PiP8SnapTimeSD_, 
                       __ZN21ProcessFrameTransformC2EPKcP16FrameTransformerPK17SynchronizedArrayI12DgnPrimArrayIhEEibbbPS7_PiP8SnapTimeSD_, 
                       __ZN21ProcessFrameTransformD1Ev, __ZN21ProcessFrameTransformD2Ev, 
                       __ZN21SimpleLookaheadScorer14doOverallScoreEP17SynchronizedArrayI13ScoreFixArrayE, 
                       __ZN21SimpleLookaheadScorer17scoreForLookaheadEiPK12DgnPrimArrayIhEP17SynchronizedArrayI13ScoreFixArrayE, 
                       __ZN21SimpleLookaheadScorer18computeSmoothFrameEv, 
                       __ZN21SimpleLookaheadScorer19computeMinimumScoreEv, 
                       __ZN21SimpleLookaheadScorer19scoreLookaheadUntilEiPK17SynchronizedArrayI12DgnPrimArrayIhEEPS0_I13ScoreFixArrayE, 
                       __ZN21SimpleLookaheadScorer20computeCombinedScoreEv, 
                       __ZN21SimpleLookaheadScorer5resetEv, __ZN21SimpleLookaheadScorer7doScoreERK12DgnPrimArrayIhE, 
                       __ZN21SimpleLookaheadScorerC1EPK9LookaheadPK6Imelda22B_LookaheadScoringType, 
                       __ZN21SimpleLookaheadScorerC2EPK9LookaheadPK6Imelda22B_LookaheadScoringType, 
                       __ZN21SimpleLookaheadScorerD0Ev, __ZN21SimpleLookaheadScorerD1Ev, 
                       __ZN21SimpleLookaheadScorerD2Ev, __ZN21StringGlobalParamBase5resetEv, 
                       __ZN21StringGlobalParamBase6setValEPKcb, __ZN21StringGlobalParamBaseC1EPKcS1_S1_S1_PFvvES1_, 
                       __ZN21StringGlobalParamBaseC2EPKcS1_S1_S1_PFvvES1_, 
                       __ZN21StringGlobalParamBaseD0Ev, __ZN21StringGlobalParamBaseD1Ev, 
                       __ZN21StringGlobalParamBaseD2Ev, __ZN21TLattProcParamManagerC1ER11TLocaleInfo, 
                       __ZN21TLattProcParamManagerC2ER11TLocaleInfo, __ZN22AdaptControllerResults17stealSegmentationEv, 
                       __ZN22AdaptControllerResults26stealPrefPelScoreCacheDataEv, 
                       __ZN22AdaptControllerResults27stealRecogPelScoreCacheDataEv, 
                       __ZN22AdaptControllerResultsC1ERKS_, __ZN22AdaptControllerResultsC1Ev, 
                       __ZN22AdaptControllerResultsC2ERKS_, __ZN22AdaptControllerResultsC2Ev, 
                       __ZN22AdaptControllerResultsD1Ev, __ZN22AdaptControllerResultsD2Ev, 
                       __ZN22AdaptControllerResultsaSERKS_, __ZN22ChannelThreadInsuranceC1EP9UtteranceP32UttFeatureArraySynchronizedArrayPiP8SnapTimeS6_S6_, 
                       __ZN22ChannelThreadInsuranceC2EP9UtteranceP32UttFeatureArraySynchronizedArrayPiP8SnapTimeS6_S6_, 
                       __ZN22ChannelThreadInsuranceD1Ev, __ZN22ChannelThreadInsuranceD2Ev, 
                       __ZN22CongruenceClassManager12splitClassesERK7WordFST, 
                       __ZN22CongruenceClassManager15loadFromWordFSTERK7WordFSTPK12DgnPrimArrayIiE, 
                       __ZN22ConstrainedTransAccMgr12releaseAccumEv, __ZN22ConstrainedTransAccMgr13copyBackMeansEtjR15LinearTransform, 
                       __ZN22ConstrainedTransAccMgr14downScaleAccumEjjd, 
                       __ZN22ConstrainedTransAccMgr16computeTransformEbdR8SnapTimePj, 
                       __ZN22ConstrainedTransAccMgr21computeMeansTransformEP10CTPelAccumbR9DgnMatrix, 
                       __ZN22ConstrainedTransAccMgr23computeInitialTransformEP10CTPelAccumbR9DgnMatrix, 
                       __ZN22ConstrainedTransAccMgr25computeIterativeTransformEP10CTPelAccumbdbbbP9DgnMatrixP9DgnVector, 
                       __ZN22ConstrainedTransAccMgr8adaptPelEtdiRK12DgnPrimArrayIhE, 
                       __ZN22ConstrainedTransAccMgr9initAccumEb, __ZN22ConstrainedTransAccMgr9loadAccumEP5DFiled, 
                       __ZN22ConstrainedTransAccMgrC1EP15AdaptControllerP15GenoneClassTree, 
                       __ZN22ConstrainedTransAccMgrC1EP15AdaptControllerP15GenoneClassTreeP7CTFTMgr, 
                       __ZN22ConstrainedTransAccMgrC1EP19RecogControllerBaseP7CTFTMgr, 
                       __ZN22ConstrainedTransAccMgrC2EP15AdaptControllerP15GenoneClassTree, 
                       __ZN22ConstrainedTransAccMgrC2EP15AdaptControllerP15GenoneClassTreeP7CTFTMgr, 
                       __ZN22ConstrainedTransAccMgrC2EP19RecogControllerBaseP7CTFTMgr, 
                       __ZN22ConstrainedTransAccMgrD1Ev, __ZN22ConstrainedTransAccMgrD2Ev, 
                       __ZN22FrameTransformerThread11stopScoringEP17SynchronizedArrayI12DgnPrimArrayIhEE, 
                       __ZN22FrameTransformerThread12startScoringEPK17SynchronizedArrayI12DgnPrimArrayIhEE, 
                       __ZN22FrameTransformerThread15scoreUntilFrameEiPK17SynchronizedArrayI12DgnPrimArrayIhEEPS3_, 
                       __ZN22FrameTransformerThread5resetEv, __ZN22ListDFileSubFileStreamC1E19B_DgnStreamOpenMode19B_DgnStreamFileTypeRK8FileSpecP9ListDFilePKc, 
                       __ZN22ListDFileSubFileStreamC2E19B_DgnStreamOpenMode19B_DgnStreamFileTypeRK8FileSpecP9ListDFilePKc, 
                       __ZN22ListDFileSubFileStreamD0Ev, __ZN22ListDFileSubFileStreamD1Ev, 
                       __ZN22ListDFileSubFileStreamD2Ev, __ZN22RealDFileSubFileStream10basicWriteEPKcj, 
                       __ZN22RealDFileSubFileStream10writeBytesEPKcj, __ZN22RealDFileSubFileStream11peekForCharEv, 
                       __ZN22RealDFileSubFileStream11seekFromBegEy, __ZN22RealDFileSubFileStream12readWithModeEPcj19B_DgnStreamReadMode, 
                       __ZN22RealDFileSubFileStream17basicReadWithModeEPcj19B_DgnStreamReadMode, 
                       __ZN22RealDFileSubFileStream18endCachedReadGroupEj, 
                       __ZN22RealDFileSubFileStream19basicCompressedReadEPcj, 
                       __ZN22RealDFileSubFileStream20beginCachedReadGroupEjjb, 
                       __ZN22RealDFileSubFileStream25basicWriteUns32InLSBOrderEj, 
                       __ZN22RealDFileSubFileStream5flushEv, __ZN22RealDFileSubFileStream9seekToEndEv, 
                       __ZN22RealDFileSubFileStreamC1E19B_DgnStreamOpenModeRK8FileSpecP9RealDFilePKc17B_SubFileOpenModetjjby, 
                       __ZN22RealDFileSubFileStreamC2E19B_DgnStreamOpenModeRK8FileSpecP9RealDFilePKc17B_SubFileOpenModetjjby, 
                       __ZN22RealDFileSubFileStreamD0Ev, __ZN22RealDFileSubFileStreamD1Ev, 
                       __ZN22RealDFileSubFileStreamD2Ev, __ZN22SimpleFrameTransformer12doFmpeStage1Ei, 
                       __ZN22SimpleFrameTransformer14transformFrameEibPK12DgnPrimArrayIhEP17SynchronizedArrayIS1_EP8DgnArrayIS0_IdEE, 
                       __ZN22SimpleFrameTransformer19concatenateFeaturesEPK12DgnPrimArrayIhEb, 
                       __ZN22SimpleFrameTransformer20transformFramesUntilEiPK17SynchronizedArrayI12DgnPrimArrayIhEEPS3_, 
                       __ZN22SimpleFrameTransformer20transformFramesUntilEibPK17SynchronizedArrayI12DgnPrimArrayIhEEPS3_P8DgnArrayIS1_IdEE, 
                       __ZN22SimpleFrameTransformer26doStage2ForRecogFramesOnlyEP17SynchronizedArrayI12DgnPrimArrayIhEE, 
                       __ZN22SimpleFrameTransformer5resetEv, __ZN22SimpleFrameTransformer8doImeldaEiPK12DgnPrimArrayIhE, 
                       __ZN22SimpleFrameTransformerC1EPK18BandwidthTransformP9NeuralNetPK6ImeldaPK7FmpeMgrPK6PelMgrjdbd, 
                       __ZN22SimpleFrameTransformerC2EPK18BandwidthTransformP9NeuralNetPK6ImeldaPK7FmpeMgrPK6PelMgrjdbd, 
                       __ZN22SimpleFrameTransformerD0Ev, __ZN22SimpleFrameTransformerD1Ev, 
                       __ZN22SimpleFrameTransformerD2Ev, __ZN22TTokenizerParamManager12notifyChangeEPK6TParam, 
                       __ZN22TTokenizerParamManager12upgradeParamEPK6TParam, 
                       __ZN22TTokenizerParamManager22initializeParamConfigsEv, 
                       __ZN22TTokenizerParamManagerC1ER11TLocaleInfo, __ZN22TTokenizerParamManagerC2ER11TLocaleInfo, 
                       __ZN22WavePacketLossDetector12processFrameEP9FrameDataP9DgnIArrayIS1_E, 
                       __ZN22WavePacketLossDetector28applyWavePacketLossDetectionEP9DgnIArrayIP9FrameDataE, 
                       __ZN22WavePacketLossDetector5resetEv, __ZN22WavePacketLossDetectorC1EPK15ChannelParamSet, 
                       __ZN22WavePacketLossDetectorC2EPK15ChannelParamSet, 
                       __ZN22WordStatesRecogGrammar17addToWordStateSetEv, 
                       __ZN22WordStatesRecogGrammar21setupPronGuessGrammarEPK13PronGeneratorbRK9DgnString, 
                       __ZN22WordStatesRecogGrammar28setupAlternateWordIdsGrammarEPK12DgnPrimArrayIjE, 
                       __ZN22WordStatesRecogGrammarC1Et, __ZN22WordStatesRecogGrammarC2Et, 
                       __ZN22WordStatesRecogGrammarD0Ev, __ZN22WordStatesRecogGrammarD1Ev, 
                       __ZN22WordStatesRecogGrammarD2Ev, __ZN23BackTraceLatticeBuilder10getLMScoreERK6CWIDACS2_PiP7LMStats, 
                       __ZN23BackTraceLatticeBuilder10pruneLinksEP11WordLatticej, 
                       __ZN23BackTraceLatticeBuilder11makeLatticeEtP9PelScorerbbbP12LatticeStatsijjb, 
                       __ZN23BackTraceLatticeBuilder11stackDecodeEP11WordLatticebPjS2_S2_S2_P7LMStats, 
                       __ZN23BackTraceLatticeBuilder14getLatticeTypeEbbjb, 
                       __ZN23BackTraceLatticeBuilder16getBackTraceItemEP11WordLatticeRK6CWIDACbPK7HistoryjiijP7LMStats, 
                       __ZN23BackTraceLatticeBuilder16seedFinalSilenceER9RecogGermjP11WordLatticebPjP7LMStats, 
                       __ZN23BackTraceLatticeBuilder16seedOneInContextEbRK9RecogGermS2_iiiiP11WordLatticeP7LMStatsPK8DgnArrayI18HistoryAndBigScoreEb, 
                       __ZN23BackTraceLatticeBuilder17makeSilentLatticeEtijjbP12LatticeStatsb, 
                       __ZN23BackTraceLatticeBuilder17seedAllRightGermsER9RecogGermjP11WordLatticebPjS4_S4_P7LMStats, 
                       __ZN23BackTraceLatticeBuilder18assembleRightGermsEv, 
                       __ZN23BackTraceLatticeBuilder18canSeedInLMContextERK6CWIDACRK9RecogGerm, 
                       __ZN23BackTraceLatticeBuilder23updateLinkBestPathScoreEij, 
                       __ZN23BackTraceLatticeBuilder24canSeedInAcousticContextERK9RecogGermS2_, 
                       __ZN23BackTraceLatticeBuilder24getStateWordPenaltyScoreERK6CWIDAC, 
                       __ZN23BackTraceLatticeBuilder26maybeEnableNBestGenerationEPK12DgnIdFactoryI19NetNBestTraceNoTimeIjELj1024EEPK10HistoryMgr, 
                       __ZN23BackTraceLatticeBuilder9bootStrapEP11WordLatticeP9PelScorerbP7LMStats, 
                       __ZN23BackTraceLatticeBuilderC1EP10ConstraintPK13CWIDCrumbBankPK12DgnIdFactoryI19NetNBestTraceNoTimeIjELj1024EEP14SearchLMScorerbd22B_BackTraceLatticeTypeijijjjjjbbbiibbbPS2_j, 
                       __ZN23BackTraceLatticeBuilderC2EP10ConstraintPK13CWIDCrumbBankPK12DgnIdFactoryI19NetNBestTraceNoTimeIjELj1024EEP14SearchLMScorerbd22B_BackTraceLatticeTypeijijjjjjbbbiibbbPS2_j, 
                       __ZN23BackTraceLatticeBuilderD1Ev, __ZN23BackTraceLatticeBuilderD2Ev, 
                       __ZN23FstSearchLatticeBackoff10seedTheoryEiijP11SearchStats, 
                       __ZN23FstSearchLatticeBackoff13advanceDeltasEiiP11SearchStatsb, 
                       __ZN23FstSearchLatticeBackoff13collectTracesEv, 
                       __ZN23FstSearchLatticeBackoff14propagateNullsEiiP11SearchStats, 
                       __ZN23FstSearchLatticeBackoff15seedFromMiniFstERi, 
                       __ZN23FstSearchLatticeBackoff16buildWordLatticeEP11WordLatticeR15DgnPrimFixArrayIhERS2_IbEb, 
                       __ZN23FstSearchLatticeBackoff16getBestExitScoreEv, 
                       __ZN23FstSearchLatticeBackoff17maybeInitDurModelEPK6PicMgrj, 
                       __ZN23FstSearchLatticeBackoff18createLatticeNodesER15DgnPrimFixArrayIiER12DgnPrimArrayIjEP11WordLatticeR8DgnArrayIS3_IiEERS0_IhERS0_IbE, 
                       __ZN23FstSearchLatticeBackoff18endTopRecSyncRecogEv, 
                       __ZN23FstSearchLatticeBackoff20beginTopRecSyncRecogEP7VirtMap, 
                       __ZN23FstSearchLatticeBackoff20maybeGeneratePelMapsEPK6PicMgr, 
                       __ZN23FstSearchLatticeBackoff21applyCutoffOnEmittingEjPi, 
                       __ZN23FstSearchLatticeBackoff22endTopRecPassSyncRecogEv, 
                       __ZN23FstSearchLatticeBackoff24beginTopRecPassSyncRecogEP9PelScorerPK8ArcGraph, 
                       __ZN23FstSearchLatticeBackoff29makeViterbiDecisionOnEmittingEv, 
                       __ZN23FstSearchLatticeBackoff4viteEiiP11SearchStatsb, 
                       __ZN23FstSearchLatticeBackoff5resetEv, __ZN23FstSearchLatticeBackoff7doFrameEiiP11SearchStatsb, 
                       __ZN23FstSearchLatticeBackoffC1ERKiS1_, __ZN23FstSearchLatticeBackoffC2ERKiS1_, 
                       __ZN23LatticePostProbParamSet11setDefaultsEv, __ZN23LatticePostProbParamSet15setIntParameterEti, 
                       __ZN23LatticePostProbParamSet16setBoolParameterEtb, 
                       __ZN23LatticePostProbParamSet16setEnumParameterEti, 
                       __ZN23LatticePostProbParamSet18setDoubleParameterEtd, 
                       __ZN23LatticePostProbParamSet18setStringParameterEtPKc, 
                       __ZN23LatticePostProbParamSet37setParamSetLatticePostProbDenominatorEi, 
                       __ZN23LatticePostProbParamSet38setParamSetLatticePostProbLMScoreScaleEi, 
                       __ZN23LatticePostProbParamSet44setParamSetLatticePostProbAcousticScoreScaleEi, 
                       __ZN23LatticePostProbParamSet45setParamSetLatticePostProbPerWordPenaltyScaleEi, 
                       __ZN23LatticePostProbParamSet47setParamSetLatticePostProbStateWordPenaltyScaleEi, 
                       __ZN23LatticePostProbParamSet48setParamSetLatticePostProbWordDurationScoreScaleEi, 
                       __ZN23LatticePostProbParamSet54setParamSetLatticePostProbInterWordSilencePenaltyScaleEi, 
                       __ZN23LatticePostProbParamSetC1EPKc14B_ParamSetTypejj, 
                       __ZN23LatticePostProbParamSetC1ERKS_PKc14B_ParamSetTypejj, 
                       __ZN23LatticePostProbParamSetC2EPKc14B_ParamSetTypejj, 
                       __ZN23LatticePostProbParamSetC2ERKS_PKc14B_ParamSetTypejj, 
                       __ZN23PrefiltererThreadWorker10onShutdownEv, __ZN23PrefiltererThreadWorker5resetEv, 
                       __ZN23PrefiltererThreadWorker6onPlayEv, __ZN23PrefiltererThreadWorker7playOneEv, 
                       __ZN23PrefiltererThreadWorker9onStartupEv, __ZN23PrefiltererThreadWorkerC1E24B_DgnThreadExecutionTypeP15DgnThreadClientP14MemChunkRegionj, 
                       __ZN23PrefiltererThreadWorkerC2E24B_DgnThreadExecutionTypeP15DgnThreadClientP14MemChunkRegionj, 
                       __ZN23PrefiltererThreadWorkerD0Ev, __ZN23PrefiltererThreadWorkerD1Ev, 
                       __ZN23PrefiltererThreadWorkerD2Ev, __ZN23ProgressCallbackHandler11addProgressEPS_, 
                       __ZN23ProgressCallbackHandler12updateTotalsEPS_, 
                       __ZN23ProgressCallbackHandler12updateTotalsEv, __ZN23ProgressCallbackHandler13getCallAmountEv, 
                       __ZN23ProgressCallbackHandler13resetDoneInfoEv, 
                       __ZN23ProgressCallbackHandler14startReportingEPS_, 
                       __ZN23ProgressCallbackHandler23addDFileProgressInfoPtrEP17DFileProgressInfo, 
                       __ZN23ProgressCallbackHandler23addDFileProgressInfoPtrEPS_P17DFileProgressInfo, 
                       __ZN23ProgressCallbackHandlerC1EPFvjPKvES1_, __ZN23ProgressCallbackHandlerC2EPFvjPKvES1_, 
                       __ZN23ProgressCallbackHandlerD1Ev, __ZN23ProgressCallbackHandlerD2Ev, 
                       __ZN23SortCwidsByWordEndScope15compareElementsEPvPKvS2_, 
                       __ZN23StringIdCollCmpWithTemp15compareElementsEPvPKvS2_, 
                       __ZN23TCompounderParamManagerC1ER11TLocaleInfo, 
                       __ZN23TCompounderParamManagerC2ER11TLocaleInfo, 
                       __ZN23TResultRelativePositionC1EPK14TResultManagerPKPP22TPItnResultHandle_fakeS7_m, 
                       __ZN23TResultRelativePositionC2EPK14TResultManagerPKPP22TPItnResultHandle_fakeS7_m, 
                       __ZN23ThreadedExternalChannel10openSourceEPK14AcousticFormatP9DgnString, 
                       __ZN23ThreadedExternalChannel11closeSourceEv, __ZN23ThreadedExternalChannel12closeChannelEv, 
                       __ZN23ThreadedExternalChannel12closeSigProcEv, __ZN23ThreadedExternalChannel13readUtteranceEbbbb, 
                       __ZN23ThreadedExternalChannel15processFeaturesEP9Utterance, 
                       __ZN23ThreadedExternalChannel17completeUtteranceEP9Utteranceb, 
                       __ZN23ThreadedExternalChannel17errorIfCollectingEv, 
                       __ZN23ThreadedExternalChannel18processSourceFrameEP9FrameDatab, 
                       __ZN23ThreadedExternalChannel18terminateUtteranceEb, 
                       __ZN23ThreadedExternalChannel20setupSignalProcessorERK14AcousticFormatP12DgnPrimArrayIyEPS3_I15B_UtteranceTypeE, 
                       __ZN23ThreadedExternalChannel22collectThroughUttFrameEP9Utterancei, 
                       __ZN23ThreadedExternalChannel23collectAllAvailableDataEv, 
                       __ZN23ThreadedExternalChannel26collectAvailableDataForUttEP9Utterance, 
                       __ZN23ThreadedExternalChannel26maybeSyncRecogCtlUtteranceEP9Utterance, 
                       __ZN23ThreadedExternalChannel29maybeStopCollectingDataForUttEP9Utterance, 
                       __ZN23ThreadedExternalChannel30collectAllAvailableChannelDataEv, 
                       __ZN23ThreadedExternalChannel30maybeStartCollectingDataForUttEP9Utterance, 
                       __ZN23ThreadedExternalChannel31processQueuedFramesInAdaptablesEv, 
                       __ZN23ThreadedExternalChannelC1E24B_DgnThreadExecutionTypejP19ExternalChannelSpecb, 
                       __ZN23ThreadedExternalChannelC2E24B_DgnThreadExecutionTypejP19ExternalChannelSpecb, 
                       __ZN23ThreadedExternalChannelD0Ev, __ZN23ThreadedExternalChannelD1Ev, 
                       __ZN23ThreadedExternalChannelD2Ev, __ZN23ThreadedLookaheadScorer16maybeStopScoringEbP17SynchronizedArrayI13ScoreFixArrayE, 
                       __ZN23ThreadedLookaheadScorer17maybeStartScoringEPK17SynchronizedArrayI12DgnPrimArrayIhEE, 
                       __ZN23ThreadedLookaheadScorer19scoreLookaheadUntilEiPK17SynchronizedArrayI12DgnPrimArrayIhEEPS0_I13ScoreFixArrayE, 
                       __ZN23ThreadedLookaheadScorer5resetEv, __ZN23ThreadedLookaheadScorerC1E24B_DgnThreadExecutionTypePK9LookaheadPK6Imelda22B_LookaheadScoringType, 
                       __ZN23ThreadedLookaheadScorerC2E24B_DgnThreadExecutionTypePK9LookaheadPK6Imelda22B_LookaheadScoringType, 
                       __ZN23ThreadedLookaheadScorerD0Ev, __ZN23ThreadedLookaheadScorerD1Ev, 
                       __ZN23ThreadedLookaheadScorerD2Ev, __ZN23ThreadedRecogController11getReproMgrEv, 
                       __ZN23ThreadedRecogController16setupRecognizersERK8DgnArrayI10ScoreArrayES4_bPK7HashKEVIjj12StateIdScopeES9_S9_PK8BitArrayRK12DgnPrimArrayItE, 
                       __ZN23ThreadedRecogController17abortRecognizeOneEv, 
                       __ZN23ThreadedRecogController17makePartialResultEv, 
                       __ZN23ThreadedRecogController17startRecognizeOneEtP9UtterancePK15PrefilterResultR9DgnIArrayIP14SearchParamSetERK12RecogContextbPK8DgnArrayI12DgnPrimArrayIjEERKS5_IPSF_ERKS5_IPSD_ISD_I10ParseTokenEEERKS5_IPSD_I18WordTransducerSpecEERKS5_IPK11WordLatticeEbbPK6PhnMgrSI_bRKSE_IbEP11PrefiltererPS2_P15LookaheadScorerRK8SnapTimeP8ReproMgrPK12SegmentationSI_, 
                       __ZN23ThreadedRecogController18finishRecognizeOneEP9DgnIArrayIP11WordLatticeE, 
                       __ZN23ThreadedRecogController20recognizeOneDoFramesEbjP13DgnBreakPoint, 
                       __ZN23ThreadedRecogController22extractPrefilterResultEv, 
                       __ZN23ThreadedRecogController23recognizeOneSingleLayerEtP9UtterancePK15PrefilterResultP14SearchParamSetRK12RecogContextbPK8DgnArrayI12DgnPrimArrayIjEERK9DgnIArrayIPSC_ERKSG_IPSA_ISA_I10ParseTokenEEEbbPK6PhnMgrSF_bbP11PrefiltererPS2_P15LookaheadScorerRK8SnapTime, 
                       __ZN23ThreadedRecogController24maybeStopRecogControllerEv, 
                       __ZN23ThreadedRecogController24setPrefPelScoreCacheDataEP17PelScoreCacheData, 
                       __ZN23ThreadedRecogController25maybeStartRecogControllerEP8DgnEvent, 
                       __ZN23ThreadedRecogController25setRecogPelScoreCacheDataEP17PelScoreCacheData, 
                       __ZN23ThreadedRecogControllerC1E24B_DgnThreadExecutionTypeRK9RecogSpecbP25PrefiltererSearchParamSetP24SearchCrossLayerParamSet, 
                       __ZN23ThreadedRecogControllerC2E24B_DgnThreadExecutionTypeRK9RecogSpecbP25PrefiltererSearchParamSetP24SearchCrossLayerParamSet, 
                       __ZN23ThreadedRecogControllerD0Ev, __ZN23ThreadedRecogControllerD1Ev, 
                       __ZN23ThreadedRecogControllerD2Ev, __ZN23ThreadedTreePrefilterer14setInjectCwidsEPK8DgnArrayI12DgnPrimArrayIjEE, 
                       __ZN23ThreadedTreePrefilterer15initPrefiltererEPK4Usertjb, 
                       __ZN23ThreadedTreePrefilterer16endPrefSyncRecogEv, 
                       __ZN23ThreadedTreePrefilterer16maybeStopScoringEbP15ReturnListQueue, 
                       __ZN23ThreadedTreePrefilterer16scoreFramesUntilEiPK17SynchronizedArrayI12DgnPrimArrayIhEEPKS0_I13ScoreFixArrayEP15ReturnListQueuePi, 
                       __ZN23ThreadedTreePrefilterer17maybeStartScoringEPK17SynchronizedArrayI12DgnPrimArrayIhEEPKS0_I13ScoreFixArrayE, 
                       __ZN23ThreadedTreePrefilterer18beginPrefSyncRecogEbjjPK7CTFTMgrPK25PrefiltererSearchParamSet, 
                       __ZN23ThreadedTreePrefilterer20setPelScoreCacheDataEPK17PelScoreCacheData, 
                       __ZN23ThreadedTreePrefilterer30setSynchronousPrefiltererStatsEv, 
                       __ZN23ThreadedTreePrefiltererC1E24B_DgnThreadExecutionType, 
                       __ZN23ThreadedTreePrefiltererC2E24B_DgnThreadExecutionType, 
                       __ZN23ThreadedTreePrefiltererD0Ev, __ZN23ThreadedTreePrefiltererD1Ev, 
                       __ZN23ThreadedTreePrefiltererD2Ev, __ZN24FstSearchDurationBackoff10seedTheoryEiijP11SearchStats, 
                       __ZN24FstSearchDurationBackoff13advanceDeltasEiiP11SearchStatsb, 
                       __ZN24FstSearchDurationBackoff13collectTracesEv, 
                       __ZN24FstSearchDurationBackoff14propagateNullsEiiP11SearchStats, 
                       __ZN24FstSearchDurationBackoff15seedFromMiniFstERi, 
                       __ZN24FstSearchDurationBackoff16buildWordLatticeEP11WordLatticeR15DgnPrimFixArrayIhERS2_IbEb, 
                       __ZN24FstSearchDurationBackoff16getBestExitScoreEv, 
                       __ZN24FstSearchDurationBackoff17maybeInitDurModelEPK6PicMgrj, 
                       __ZN24FstSearchDurationBackoff18createLatticeNodesER15DgnPrimFixArrayIiER12DgnPrimArrayIjEP11WordLatticeR8DgnArrayIS3_IiEERS0_IhERS0_IbE, 
                       __ZN24FstSearchDurationBackoff18endTopRecSyncRecogEv, 
                       __ZN24FstSearchDurationBackoff20beginTopRecSyncRecogEP7VirtMap, 
                       __ZN24FstSearchDurationBackoff20maybeGeneratePelMapsEPK6PicMgr, 
                       __ZN24FstSearchDurationBackoff21applyCutoffOnEmittingEjPi, 
                       __ZN24FstSearchDurationBackoff22endTopRecPassSyncRecogEv, 
                       __ZN24FstSearchDurationBackoff24beginTopRecPassSyncRecogEP9PelScorerPK8ArcGraph, 
                       __ZN24FstSearchDurationBackoff29generateTraceTokensFromTracesEv, 
                       __ZN24FstSearchDurationBackoff29makeViterbiDecisionOnEmittingEv, 
                       __ZN24FstSearchDurationBackoff4viteEiiP11SearchStatsb, 
                       __ZN24FstSearchDurationBackoff5resetEv, __ZN24FstSearchDurationBackoff7doFrameEiiP11SearchStatsb, 
                       __ZN24FstSearchDurationBackoffC1ERKiS1_, __ZN24FstSearchDurationBackoffC2ERKiS1_, 
                       __ZN24FstSearchLateLatticeHash10seedTheoryEiijP11SearchStats, 
                       __ZN24FstSearchLateLatticeHash13advanceDeltasEiiP11SearchStatsb, 
                       __ZN24FstSearchLateLatticeHash14propagateNullsEiiP11SearchStats, 
                       __ZN24FstSearchLateLatticeHash15seedFromMiniFstERi, 
                       __ZN24FstSearchLateLatticeHash16buildWordLatticeEP11WordLatticeR15DgnPrimFixArrayIhERS2_IbEb, 
                       __ZN24FstSearchLateLatticeHash16getBestExitScoreEv, 
                       __ZN24FstSearchLateLatticeHash17maybeInitDurModelEPK6PicMgrj, 
                       __ZN24FstSearchLateLatticeHash18createLatticeNodesER15DgnPrimFixArrayIiER12DgnPrimArrayIjEP11WordLatticeR8DgnArrayIS3_IiEERS0_IhERS0_IbE, 
                       __ZN24FstSearchLateLatticeHash18endTopRecSyncRecogEv, 
                       __ZN24FstSearchLateLatticeHash20beginTopRecSyncRecogEP7VirtMap, 
                       __ZN24FstSearchLateLatticeHash20maybeGeneratePelMapsEPK6PicMgr, 
                       __ZN24FstSearchLateLatticeHash21applyCutoffOnEmittingEjPi, 
                       __ZN24FstSearchLateLatticeHash22endTopRecPassSyncRecogEv, 
                       __ZN24FstSearchLateLatticeHash22getTraceTimeBoundariesER15DgnPrimFixArrayIjER12DgnPrimArrayIiE, 
                       __ZN24FstSearchLateLatticeHash24beginTopRecPassSyncRecogEP9PelScorerPK8ArcGraph, 
                       __ZN24FstSearchLateLatticeHash29generateTraceTokensFromTracesEv, 
                       __ZN24FstSearchLateLatticeHash33generateTraceTokensForLateLatticeEv, 
                       __ZN24FstSearchLateLatticeHash4viteEiiP11SearchStatsb, 
                       __ZN24FstSearchLateLatticeHash5resetEv, __ZN24FstSearchLateLatticeHash7doFrameEiiP11SearchStatsb, 
                       __ZN24FstSearchLateLatticeHashC1ERKiS1_, __ZN24FstSearchLateLatticeHashC2ERKiS1_, 
                       __ZN24FstSearchLatticeDuration10seedTheoryEiijP11SearchStats, 
                       __ZN24FstSearchLatticeDuration13advanceDeltasEiiP11SearchStatsb, 
                       __ZN24FstSearchLatticeDuration13collectTracesEv, 
                       __ZN24FstSearchLatticeDuration14propagateNullsEiiP11SearchStats, 
                       __ZN24FstSearchLatticeDuration15seedFromMiniFstERi, 
                       __ZN24FstSearchLatticeDuration16buildWordLatticeEP11WordLatticeR15DgnPrimFixArrayIhERS2_IbEb, 
                       __ZN24FstSearchLatticeDuration16getBestExitScoreEv, 
                       __ZN24FstSearchLatticeDuration17maybeInitDurModelEPK6PicMgrj, 
                       __ZN24FstSearchLatticeDuration18createLatticeNodesER15DgnPrimFixArrayIiER12DgnPrimArrayIjEP11WordLatticeR8DgnArrayIS3_IiEERS0_IhERS0_IbE, 
                       __ZN24FstSearchLatticeDuration18endTopRecSyncRecogEv, 
                       __ZN24FstSearchLatticeDuration20beginTopRecSyncRecogEP7VirtMap, 
                       __ZN24FstSearchLatticeDuration20maybeGeneratePelMapsEPK6PicMgr, 
                       __ZN24FstSearchLatticeDuration21applyCutoffOnEmittingEjPi, 
                       __ZN24FstSearchLatticeDuration22endTopRecPassSyncRecogEv, 
                       __ZN24FstSearchLatticeDuration24beginTopRecPassSyncRecogEP9PelScorerPK8ArcGraph, 
                       __ZN24FstSearchLatticeDuration29makeViterbiDecisionOnEmittingEv, 
                       __ZN24FstSearchLatticeDuration4viteEiiP11SearchStatsb, 
                       __ZN24FstSearchLatticeDuration5resetEv, __ZN24FstSearchLatticeDuration7doFrameEiiP11SearchStatsb, 
                       __ZN24FstSearchLatticeDurationC1ERKiS1_, __ZN24FstSearchLatticeDurationC2ERKiS1_, 
                       __ZN24InterpolatedCDFEstimator10reestimateEbb, __ZN24InterpolatedCDFEstimator14findUpperIndexEhRK12DgnPrimArrayIjE, 
                       __ZN24InterpolatedCDFEstimator15smoothHistogramER12DgnPrimArrayIjEjj, 
                       __ZN24InterpolatedCDFEstimator20getPercentileIndicesERK12DgnPrimArrayIjEjjRS1_, 
                       __ZN24InterpolatedCDFEstimator25updateAllEstimatedIndicesEv, 
                       __ZN24InterpolatedCDFEstimator8dumpMassER12DgnPrimArrayIjEjjj, 
                       __ZN24InterpolatedCDFEstimatorC1EPK7SigProcPK15ChannelParamSet, 
                       __ZN24InterpolatedCDFEstimatorC2EPK7SigProcPK15ChannelParamSet, 
                       __ZN24LookaheadThreadInsuranceC1EPKcP15LookaheadScorerPK17SynchronizedArrayI12DgnPrimArrayIhEEPS4_I13ScoreFixArrayEPiP8SnapTimeSF_, 
                       __ZN24LookaheadThreadInsuranceC2EPKcP15LookaheadScorerPK17SynchronizedArrayI12DgnPrimArrayIhEEPS4_I13ScoreFixArrayEPiP8SnapTimeSF_, 
                       __ZN24LookaheadThreadInsuranceD1Ev, __ZN24LookaheadThreadInsuranceD2Ev, 
                       __ZN24PrefiltererBuildParamSet11setDefaultsEv, __ZN24PrefiltererBuildParamSet15setIntParameterEti, 
                       __ZN24PrefiltererBuildParamSet16setBoolParameterEtb, 
                       __ZN24PrefiltererBuildParamSet16setEnumParameterEti, 
                       __ZN24PrefiltererBuildParamSet18setDoubleParameterEtd, 
                       __ZN24PrefiltererBuildParamSet18setStringParameterEtPKc, 
                       __ZN24PrefiltererBuildParamSet33setParamSetPrefiltererBuildUseGPUEb, 
                       __ZN24PrefiltererBuildParamSet38setParamSetPrefiltererBuildContextTypeEi, 
                       __ZN24PrefiltererBuildParamSet40setParamSetPrefiltererBuildMaxPronLengthEi, 
                       __ZN24PrefiltererBuildParamSet40setParamSetPrefiltererBuildThreadingTypeEi, 
                       __ZN24PrefiltererBuildParamSet42setParamSetPrefiltererBuildMaxWordEndScoreEi, 
                       __ZN24PrefiltererBuildParamSet43setParamSetPrefiltererBuildDisableGPUScorerEb, 
                       __ZN24PrefiltererBuildParamSet43setParamSetPrefiltererBuildWordBoundaryTypeEi, 
                       __ZN24PrefiltererBuildParamSet45setParamSetPrefiltererBuildDurationScoreScaleEd, 
                       __ZN24PrefiltererBuildParamSet45setParamSetPrefiltererBuildHierScorerBeamListEPKc, 
                       __ZN24PrefiltererBuildParamSet47setParamSetPrefiltererBuildLookaheadScoringTypeEi, 
                       __ZN24PrefiltererBuildParamSet49setParamSetPrefiltererBuildLookaheadThreadingTypeEi, 
                       __ZN24PrefiltererBuildParamSet52setParamSetPrefiltererBuildDisableHierarchicalScorerEb, 
                       __ZN24PrefiltererBuildParamSet52setParamSetPrefiltererBuildHierScorerCutoffRatioListEPKc, 
                       __ZN24PrefiltererBuildParamSet53setParamSetPrefiltererBuildAllowMultiPhonemeSequencesEb, 
                       __ZN24PrefiltererBuildParamSet53setParamSetPrefiltererBuildHierInactiveComponentScoreEi, 
                       __ZN24PrefiltererBuildParamSet55setParamSetPrefiltererBuildEnableGenoneScoreCacheThreshEd, 
                       __ZN24PrefiltererBuildParamSet58setParamSetPrefiltererBuildFmpeMinimumPosteriorProbabilityEd, 
                       __ZN24PrefiltererBuildParamSet59setParamSetPrefiltererBuildTruncatePackedIntComponentScoresEb, 
                       __ZN24PrefiltererBuildParamSet63setParamSetPrefiltererBuildBestScoreAdditionalPhonemeStartDepthEi, 
                       __ZN24PrefiltererBuildParamSetC1EPKc14B_ParamSetTypejj, 
                       __ZN24PrefiltererBuildParamSetC1ERKS_PKc14B_ParamSetTypejj, 
                       __ZN24PrefiltererBuildParamSetC2EPKc14B_ParamSetTypejj, 
                       __ZN24PrefiltererBuildParamSetC2ERKS_PKc14B_ParamSetTypejj, 
                       __ZN24SearchCrossLayerParamSet11setDefaultsEv, __ZN24SearchCrossLayerParamSet15setIntParameterEti, 
                       __ZN24SearchCrossLayerParamSet16setBoolParameterEtb, 
                       __ZN24SearchCrossLayerParamSet16setEnumParameterEti, 
                       __ZN24SearchCrossLayerParamSet18setDoubleParameterEtd, 
                       __ZN24SearchCrossLayerParamSet18setStringParameterEtPKc, 
                       __ZN24SearchCrossLayerParamSet41setParamSetSearchCrossLayerUseBestSilenceEb, 
                       __ZN24SearchCrossLayerParamSet53setParamSetSearchCrossLayerThreshScoreIncrementMatrixEPKc, 
                       __ZN24SearchCrossLayerParamSet60setParamSetSearchCrossLayerWordEndThreshScoreIncrementMatrixEPKc, 
                       __ZN24SearchCrossLayerParamSetC1EPKc14B_ParamSetTypejj, 
                       __ZN24SearchCrossLayerParamSetC1ERKS_PKc14B_ParamSetTypejj, 
                       __ZN24SearchCrossLayerParamSetC2EPKc14B_ParamSetTypejj, 
                       __ZN24SearchCrossLayerParamSetC2ERKS_PKc14B_ParamSetTypejj, 
                       __ZN24ThreadedFrameTransformer17endTransSyncRecogEv, 
                       __ZN24ThreadedFrameTransformer19beginTransSyncRecogEv, 
                       __ZN24ThreadedFrameTransformer20transformFramesUntilEiPK17SynchronizedArrayI12DgnPrimArrayIhEEPS3_, 
                       __ZN24ThreadedFrameTransformer20transformFramesUntilEibPK17SynchronizedArrayI12DgnPrimArrayIhEEPS3_P8DgnArrayIS1_IdEE, 
                       __ZN24ThreadedFrameTransformer21maybeStopTransformingEbP17SynchronizedArrayI12DgnPrimArrayIhEE, 
                       __ZN24ThreadedFrameTransformer22maybeStartTransformingEPK17SynchronizedArrayI12DgnPrimArrayIhEE, 
                       __ZN24ThreadedFrameTransformer5resetEv, __ZN24ThreadedFrameTransformerC1E24B_DgnThreadExecutionTypePK18BandwidthTransformP9NeuralNetPK6ImeldaPK7FmpeMgrPK6PelMgrjdbd, 
                       __ZN24ThreadedFrameTransformerC2E24B_DgnThreadExecutionTypePK18BandwidthTransformP9NeuralNetPK6ImeldaPK7FmpeMgrPK6PelMgrjdbd, 
                       __ZN24ThreadedFrameTransformerD0Ev, __ZN24ThreadedFrameTransformerD1Ev, 
                       __ZN24ThreadedFrameTransformerD2Ev, __ZN25ParamSetIdCollCmpWithTemp15compareElementsEPvPKvS2_, 
                       __ZN25PrefiltererSearchParamSet11setDefaultsEv, 
                       __ZN25PrefiltererSearchParamSet15setIntParameterEti, 
                       __ZN25PrefiltererSearchParamSet16setBoolParameterEtb, 
                       __ZN25PrefiltererSearchParamSet16setEnumParameterEti, 
                       __ZN25PrefiltererSearchParamSet18setDoubleParameterEtd, 
                       __ZN25PrefiltererSearchParamSet18setStringParameterEtPKc, 
                       __ZN25PrefiltererSearchParamSet34setParamSetPrefiltererMaxSeedScoreEi, 
                       __ZN25PrefiltererSearchParamSet34setParamSetPrefiltererMinNodeScoreEi, 
                       __ZN25PrefiltererSearchParamSet35setParamSetPrefiltererPelScoreScaleEd, 
                       __ZN25PrefiltererSearchParamSet36setParamSetPrefiltererDecimationTypeEi, 
                       __ZN25PrefiltererSearchParamSet38setParamSetPrefiltererNodeSkippingTypeEi, 
                       __ZN25PrefiltererSearchParamSet41setParamSetPrefiltererReturnListMaxLengthEi, 
                       __ZN25PrefiltererSearchParamSet42setParamSetPrefiltererActiveNodeCountLimitEi, 
                       __ZN25PrefiltererSearchParamSet42setParamSetPrefiltererLookaheadThreshScoreEi, 
                       __ZN25PrefiltererSearchParamSet44setParamSetPrefiltererAllowFirstNodeSkippingEb, 
                       __ZN25PrefiltererSearchParamSet44setParamSetPrefiltererLookaheadApplyOnReseedEb, 
                       __ZN25PrefiltererSearchParamSet45setParamSetPrefiltererReturnDistanceMaxFramesEi, 
                       __ZN25PrefiltererSearchParamSet46setParamSetPrefiltererPelScoreUseBestCompScoreEb, 
                       __ZN25PrefiltererSearchParamSet48setParamSetPrefiltererThreshScoreWhenSilenceBestEi, 
                       __ZN25PrefiltererSearchParamSet50setParamSetPrefiltererReturnDistanceAdjustDurationEb, 
                       __ZN25PrefiltererSearchParamSet50setParamSetPrefiltererSeedScoreIncludeWordEndScoreEb, 
                       __ZN25PrefiltererSearchParamSet51setParamSetPrefiltererReturnDistancePerFramePenaltyEi, 
                       __ZN25PrefiltererSearchParamSet52setParamSetPrefiltererPelBackoffThreshScoreDecrementEi, 
                       __ZN25PrefiltererSearchParamSet52setParamSetPrefiltererReturnListThreshScoreDecrementEi, 
                       __ZN25PrefiltererSearchParamSet54setParamSetPrefiltererReturnDistanceWordDurationFactorEd, 
                       __ZN25PrefiltererSearchParamSet56setParamSetPrefiltererBestScorePerAdditionalPhonemeScoreEi, 
                       __ZN25PrefiltererSearchParamSet58setParamSetPrefiltererLookaheadSequenceFirstPhonemeLMScaleEd, 
                       __ZN25PrefiltererSearchParamSet60setParamSetPrefiltererThreshScoreIncrementWhenNonSilenceBestEi, 
                       __ZN25PrefiltererSearchParamSetC1EPKc14B_ParamSetTypejj, 
                       __ZN25PrefiltererSearchParamSetC1ERKS_PKc14B_ParamSetTypejj, 
                       __ZN25PrefiltererSearchParamSetC2EPKc14B_ParamSetTypejj, 
                       __ZN25PrefiltererSearchParamSetC2ERKS_PKc14B_ParamSetTypejj, 
                       __ZN25WordFSTForDeterminization25deleteSelfLoopStateAndArcEjjj, 
                       __ZN26ParentFirstStateIdIterator21addChildStatesToQueueEj, 
                       __ZN26ParentFirstStateIdIterator4nextEv, __ZN26ParentFirstStateIdIteratorC1EPK8StateMgr, 
                       __ZN26ParentFirstStateIdIteratorC2EPK8StateMgr, 
                       __ZN26ParentFirstStateIdIteratorD1Ev, __ZN26ParentFirstStateIdIteratorD2Ev, 
                       __ZN26PrefiltererThreadInsuranceC1EP11PrefiltererPK17SynchronizedArrayI12DgnPrimArrayIhEEPKS2_I13ScoreFixArrayEP15ReturnListQueuePiP8SnapTimeSG_SG_, 
                       __ZN26PrefiltererThreadInsuranceC2EP11PrefiltererPK17SynchronizedArrayI12DgnPrimArrayIhEEPKS2_I13ScoreFixArrayEP15ReturnListQueuePiP8SnapTimeSG_SG_, 
                       __ZN26PrefiltererThreadInsuranceD1Ev, __ZN26PrefiltererThreadInsuranceD2Ev, 
                       __ZN26SortWordIdsByPrefPronScope15compareElementsEPvPKvS2_, 
                       __ZN26WordIdToHeadCloneWordIdMap10deleteWordEj, 
                       __ZN26WordIdToHeadCloneWordIdMap10readObjectEP9DgnStreamRj, 
                       __ZN26WordIdToHeadCloneWordIdMap19addVisibleWordIdMapEjj, 
                       __ZN26WordIdToHeadCloneWordIdMap21setDecrementForWordIdEjj, 
                       __ZN26WordIdToHeadCloneWordIdMapC1EPK8WordListjj, 
                       __ZN26WordIdToHeadCloneWordIdMapC2EPK8WordListjj, 
                       __ZN27FstSearchLateLatticeBackoff10seedTheoryEiijP11SearchStats, 
                       __ZN27FstSearchLateLatticeBackoff13advanceDeltasEiiP11SearchStatsb, 
                       __ZN27FstSearchLateLatticeBackoff14propagateNullsEiiP11SearchStats, 
                       __ZN27FstSearchLateLatticeBackoff15seedFromMiniFstERi, 
                       __ZN27FstSearchLateLatticeBackoff16buildWordLatticeEP11WordLatticeR15DgnPrimFixArrayIhERS2_IbEb, 
                       __ZN27FstSearchLateLatticeBackoff16getBestExitScoreEv, 
                       __ZN27FstSearchLateLatticeBackoff17maybeInitDurModelEPK6PicMgrj, 
                       __ZN27FstSearchLateLatticeBackoff18createLatticeNodesER15DgnPrimFixArrayIiER12DgnPrimArrayIjEP11WordLatticeR8DgnArrayIS3_IiEERS0_IhERS0_IbE, 
                       __ZN27FstSearchLateLatticeBackoff18endTopRecSyncRecogEv, 
                       __ZN27FstSearchLateLatticeBackoff20beginTopRecSyncRecogEP7VirtMap, 
                       __ZN27FstSearchLateLatticeBackoff20maybeGeneratePelMapsEPK6PicMgr, 
                       __ZN27FstSearchLateLatticeBackoff21applyCutoffOnEmittingEjPi, 
                       __ZN27FstSearchLateLatticeBackoff22endTopRecPassSyncRecogEv, 
                       __ZN27FstSearchLateLatticeBackoff22getTraceTimeBoundariesER15DgnPrimFixArrayIjER12DgnPrimArrayIiE, 
                       __ZN27FstSearchLateLatticeBackoff24beginTopRecPassSyncRecogEP9PelScorerPK8ArcGraph, 
                       __ZN27FstSearchLateLatticeBackoff29generateTraceTokensFromTracesEv, 
                       __ZN27FstSearchLateLatticeBackoff29makeViterbiDecisionOnEmittingEv, 
                       __ZN27FstSearchLateLatticeBackoff33generateTraceTokensForLateLatticeEv, 
                       __ZN27FstSearchLateLatticeBackoff4viteEiiP11SearchStatsb, 
                       __ZN27FstSearchLateLatticeBackoff5resetEv, __ZN27FstSearchLateLatticeBackoff7doFrameEiiP11SearchStatsb, 
                       __ZN27FstSearchLateLatticeBackoffC1ERKiS1_, __ZN27FstSearchLateLatticeBackoffC2ERKiS1_, 
                       __ZN27FstSearchLatticeHashBackoff10seedTheoryEiijP11SearchStats, 
                       __ZN27FstSearchLatticeHashBackoff13advanceDeltasEiiP11SearchStatsb, 
                       __ZN27FstSearchLatticeHashBackoff13collectTracesEv, 
                       __ZN27FstSearchLatticeHashBackoff14propagateNullsEiiP11SearchStats, 
                       __ZN27FstSearchLatticeHashBackoff15seedFromMiniFstERi, 
                       __ZN27FstSearchLatticeHashBackoff16buildWordLatticeEP11WordLatticeR15DgnPrimFixArrayIhERS2_IbEb, 
                       __ZN27FstSearchLatticeHashBackoff16getBestExitScoreEv, 
                       __ZN27FstSearchLatticeHashBackoff17maybeInitDurModelEPK6PicMgrj, 
                       __ZN27FstSearchLatticeHashBackoff18createLatticeNodesER15DgnPrimFixArrayIiER12DgnPrimArrayIjEP11WordLatticeR8DgnArrayIS3_IiEERS0_IhERS0_IbE, 
                       __ZN27FstSearchLatticeHashBackoff18endTopRecSyncRecogEv, 
                       __ZN27FstSearchLatticeHashBackoff18generateNullTracesEij, 
                       __ZN27FstSearchLatticeHashBackoff20annihilateNullTracesEv, 
                       __ZN27FstSearchLatticeHashBackoff20beginTopRecSyncRecogEP7VirtMap, 
                       __ZN27FstSearchLatticeHashBackoff20maybeGeneratePelMapsEPK6PicMgr, 
                       __ZN27FstSearchLatticeHashBackoff21applyCutoffOnEmittingEjPi, 
                       __ZN27FstSearchLatticeHashBackoff22endTopRecPassSyncRecogEv, 
                       __ZN27FstSearchLatticeHashBackoff24beginTopRecPassSyncRecogEP9PelScorerPK8ArcGraph, 
                       __ZN27FstSearchLatticeHashBackoff26annihilateNullActiveTokensEv, 
                       __ZN27FstSearchLatticeHashBackoff26annihilateNullLongestFinalEv, 
                       __ZN27FstSearchLatticeHashBackoff26getCandidateTokensForTraceERK32FstSearchLatticeHashBackoffTraceR8DgnArrayI37FstSearchLatticeHashBackoffTraceTokenE, 
                       __ZN27FstSearchLatticeHashBackoff4viteEiiP11SearchStatsb, 
                       __ZN27FstSearchLatticeHashBackoff5resetEv, __ZN27FstSearchLatticeHashBackoff7doFrameEiiP11SearchStatsb, 
                       __ZN27FstSearchLatticeHashBackoffC1ERKiS1_, __ZN27FstSearchLatticeHashBackoffC2ERKiS1_, 
                       __ZN27FstSearchLeafLatticeBackoff10seedTheoryEiijP11SearchStats, 
                       __ZN27FstSearchLeafLatticeBackoff13advanceDeltasEiiP11SearchStatsb, 
                       __ZN27FstSearchLeafLatticeBackoff13collectTracesEv, 
                       __ZN27FstSearchLeafLatticeBackoff14propagateNullsEiiP11SearchStats, 
                       __ZN27FstSearchLeafLatticeBackoff15seedFromMiniFstERi, 
                       __ZN27FstSearchLeafLatticeBackoff16buildWordLatticeEP11WordLatticeR15DgnPrimFixArrayIhERS2_IbEb, 
                       __ZN27FstSearchLeafLatticeBackoff16getBestExitScoreEv, 
                       __ZN27FstSearchLeafLatticeBackoff17maybeInitDurModelEPK6PicMgrj, 
                       __ZN27FstSearchLeafLatticeBackoff18createLatticeNodesER15DgnPrimFixArrayIiER12DgnPrimArrayIjEP11WordLatticeR8DgnArrayIS3_IiEERS0_IhERS0_IbE, 
                       __ZN27FstSearchLeafLatticeBackoff18endTopRecSyncRecogEv, 
                       __ZN27FstSearchLeafLatticeBackoff20beginTopRecSyncRecogEP7VirtMap, 
                       __ZN27FstSearchLeafLatticeBackoff20maybeGeneratePelMapsEPK6PicMgr, 
                       __ZN27FstSearchLeafLatticeBackoff21applyCutoffOnEmittingEjPi, 
                       __ZN27FstSearchLeafLatticeBackoff22endTopRecPassSyncRecogEv, 
                       __ZN27FstSearchLeafLatticeBackoff24beginTopRecPassSyncRecogEP9PelScorerPK8ArcGraph, 
                       __ZN27FstSearchLeafLatticeBackoff29makeViterbiDecisionOnEmittingEv, 
                       __ZN27FstSearchLeafLatticeBackoff4viteEiiP11SearchStatsb, 
                       __ZN27FstSearchLeafLatticeBackoff5resetEv, __ZN27FstSearchLeafLatticeBackoff7doFrameEiiP11SearchStatsb, 
                       __ZN27FstSearchLeafLatticeBackoffC1ERKiS1_, __ZN27FstSearchLeafLatticeBackoffC2ERKiS1_, 
                       __ZN27LookaheadScorerThreadWorker10onShutdownEv, 
                       __ZN27LookaheadScorerThreadWorker5resetEv, __ZN27LookaheadScorerThreadWorker6onPlayEv, 
                       __ZN27LookaheadScorerThreadWorker7playOneEv, __ZN27LookaheadScorerThreadWorker9onStartupEv, 
                       __ZN27LookaheadScorerThreadWorkerC1E24B_DgnThreadExecutionTypeP15DgnThreadClientP14MemChunkRegionj, 
                       __ZN27LookaheadScorerThreadWorkerC2E24B_DgnThreadExecutionTypeP15DgnThreadClientP14MemChunkRegionj, 
                       __ZN27LookaheadScorerThreadWorkerD0Ev, __ZN27LookaheadScorerThreadWorkerD1Ev, 
                       __ZN27LookaheadScorerThreadWorkerD2Ev, __ZN28CorpusWordIdCollCmpWithTemps15compareElementsEPvPKvS2_, 
                       __ZN28DiskNgramContextQuadGroupCmp15compareElementsEPvPKvS2_, 
                       __ZN28FrameTransformerThreadWorker10onShutdownEv, 
                       __ZN28FrameTransformerThreadWorker5resetEv, __ZN28FrameTransformerThreadWorker6onPlayEv, 
                       __ZN28FrameTransformerThreadWorker7playOneEv, __ZN28FrameTransformerThreadWorker9onStartupEv, 
                       __ZN28FrameTransformerThreadWorkerC1E24B_DgnThreadExecutionTypeP15DgnThreadClientP14MemChunkRegionj, 
                       __ZN28FrameTransformerThreadWorkerC2E24B_DgnThreadExecutionTypeP15DgnThreadClientP14MemChunkRegionj, 
                       __ZN28FrameTransformerThreadWorkerD0Ev, __ZN28FrameTransformerThreadWorkerD1Ev, 
                       __ZN28FrameTransformerThreadWorkerD2Ev, __ZN28FstSearchDurationHashBackoff10seedTheoryEiijP11SearchStats, 
                       __ZN28FstSearchDurationHashBackoff13advanceDeltasEiiP11SearchStatsb, 
                       __ZN28FstSearchDurationHashBackoff13collectTracesEv, 
                       __ZN28FstSearchDurationHashBackoff14propagateNullsEiiP11SearchStats, 
                       __ZN28FstSearchDurationHashBackoff15seedFromMiniFstERi, 
                       __ZN28FstSearchDurationHashBackoff16buildWordLatticeEP11WordLatticeR15DgnPrimFixArrayIhERS2_IbEb, 
                       __ZN28FstSearchDurationHashBackoff16getBestExitScoreEv, 
                       __ZN28FstSearchDurationHashBackoff17maybeInitDurModelEPK6PicMgrj, 
                       __ZN28FstSearchDurationHashBackoff18createLatticeNodesER15DgnPrimFixArrayIiER12DgnPrimArrayIjEP11WordLatticeR8DgnArrayIS3_IiEERS0_IhERS0_IbE, 
                       __ZN28FstSearchDurationHashBackoff18endTopRecSyncRecogEv, 
                       __ZN28FstSearchDurationHashBackoff20beginTopRecSyncRecogEP7VirtMap, 
                       __ZN28FstSearchDurationHashBackoff20maybeGeneratePelMapsEPK6PicMgr, 
                       __ZN28FstSearchDurationHashBackoff21applyCutoffOnEmittingEjPi, 
                       __ZN28FstSearchDurationHashBackoff22endTopRecPassSyncRecogEv, 
                       __ZN28FstSearchDurationHashBackoff24beginTopRecPassSyncRecogEP9PelScorerPK8ArcGraph, 
                       __ZN28FstSearchDurationHashBackoff29generateTraceTokensFromTracesEv, 
                       __ZN28FstSearchDurationHashBackoff4viteEiiP11SearchStatsb, 
                       __ZN28FstSearchDurationHashBackoff5resetEv, __ZN28FstSearchDurationHashBackoff7doFrameEiiP11SearchStatsb, 
                       __ZN28FstSearchDurationHashBackoffC1ERKiS1_, __ZN28FstSearchDurationHashBackoffC2ERKiS1_, 
                       __ZN28FstSearchLeafDurationBackoff10seedTheoryEiijP11SearchStats, 
                       __ZN28FstSearchLeafDurationBackoff13advanceDeltasEiiP11SearchStatsb, 
                       __ZN28FstSearchLeafDurationBackoff13collectTracesEv, 
                       __ZN28FstSearchLeafDurationBackoff14propagateNullsEiiP11SearchStats, 
                       __ZN28FstSearchLeafDurationBackoff15seedFromMiniFstERi, 
                       __ZN28FstSearchLeafDurationBackoff16buildWordLatticeEP11WordLatticeR15DgnPrimFixArrayIhERS2_IbEb, 
                       __ZN28FstSearchLeafDurationBackoff16getBestExitScoreEv, 
                       __ZN28FstSearchLeafDurationBackoff17maybeInitDurModelEPK6PicMgrj, 
                       __ZN28FstSearchLeafDurationBackoff18createLatticeNodesER15DgnPrimFixArrayIiER12DgnPrimArrayIjEP11WordLatticeR8DgnArrayIS3_IiEERS0_IhERS0_IbE, 
                       __ZN28FstSearchLeafDurationBackoff18endTopRecSyncRecogEv, 
                       __ZN28FstSearchLeafDurationBackoff20beginTopRecSyncRecogEP7VirtMap, 
                       __ZN28FstSearchLeafDurationBackoff20maybeGeneratePelMapsEPK6PicMgr, 
                       __ZN28FstSearchLeafDurationBackoff21applyCutoffOnEmittingEjPi, 
                       __ZN28FstSearchLeafDurationBackoff22endTopRecPassSyncRecogEv, 
                       __ZN28FstSearchLeafDurationBackoff24beginTopRecPassSyncRecogEP9PelScorerPK8ArcGraph, 
                       __ZN28FstSearchLeafDurationBackoff29generateTraceTokensFromTracesEv, 
                       __ZN28FstSearchLeafDurationBackoff29makeViterbiDecisionOnEmittingEv, 
                       __ZN28FstSearchLeafDurationBackoff4viteEiiP11SearchStatsb, 
                       __ZN28FstSearchLeafDurationBackoff5resetEv, __ZN28FstSearchLeafDurationBackoff7doFrameEiiP11SearchStatsb, 
                       __ZN28FstSearchLeafDurationBackoffC1ERKiS1_, __ZN28FstSearchLeafDurationBackoffC2ERKiS1_, 
                       __ZN28FstSearchLeafLatticeDuration10seedTheoryEiijP11SearchStats, 
                       __ZN28FstSearchLeafLatticeDuration13advanceDeltasEiiP11SearchStatsb, 
                       __ZN28FstSearchLeafLatticeDuration13collectTracesEv, 
                       __ZN28FstSearchLeafLatticeDuration14propagateNullsEiiP11SearchStats, 
                       __ZN28FstSearchLeafLatticeDuration15seedFromMiniFstERi, 
                       __ZN28FstSearchLeafLatticeDuration16buildWordLatticeEP11WordLatticeR15DgnPrimFixArrayIhERS2_IbEb, 
                       __ZN28FstSearchLeafLatticeDuration16getBestExitScoreEv, 
                       __ZN28FstSearchLeafLatticeDuration17maybeInitDurModelEPK6PicMgrj, 
                       __ZN28FstSearchLeafLatticeDuration18createLatticeNodesER15DgnPrimFixArrayIiER12DgnPrimArrayIjEP11WordLatticeR8DgnArrayIS3_IiEERS0_IhERS0_IbE, 
                       __ZN28FstSearchLeafLatticeDuration18endTopRecSyncRecogEv, 
                       __ZN28FstSearchLeafLatticeDuration20beginTopRecSyncRecogEP7VirtMap, 
                       __ZN28FstSearchLeafLatticeDuration20maybeGeneratePelMapsEPK6PicMgr, 
                       __ZN28FstSearchLeafLatticeDuration21applyCutoffOnEmittingEjPi, 
                       __ZN28FstSearchLeafLatticeDuration22endTopRecPassSyncRecogEv, 
                       __ZN28FstSearchLeafLatticeDuration24beginTopRecPassSyncRecogEP9PelScorerPK8ArcGraph, 
                       __ZN28FstSearchLeafLatticeDuration29makeViterbiDecisionOnEmittingEv, 
                       __ZN28FstSearchLeafLatticeDuration4viteEiiP11SearchStatsb, 
                       __ZN28FstSearchLeafLatticeDuration5resetEv, __ZN28FstSearchLeafLatticeDuration7doFrameEiiP11SearchStatsb, 
                       __ZN28FstSearchLeafLatticeDurationC1ERKiS1_, __ZN28FstSearchLeafLatticeDurationC2ERKiS1_, 
                       __ZN28OnlineConstrainedTransAccMgr29copyOnlineConstrainedTransAccEPKS_, 
                       __ZN28OnlineConstrainedTransAccMgr29loadOnlineConstrainedTransAccEP5DFileP14DFileChecksumsb, 
                       __ZN28OnlineConstrainedTransAccMgr7loadOCTEP5DFile, 
                       __ZN28OnlineConstrainedTransAccMgrC1Ev, __ZN28OnlineConstrainedTransAccMgrC2Ev, 
                       __ZN29FrameTransformThreadInsuranceC1EPKcP16FrameTransformerPK17SynchronizedArrayI12DgnPrimArrayIhEEPS7_PiP8SnapTimeSD_, 
                       __ZN29FrameTransformThreadInsuranceC2EPKcP16FrameTransformerPK17SynchronizedArrayI12DgnPrimArrayIhEEPS7_PiP8SnapTimeSD_, 
                       __ZN29FrameTransformThreadInsuranceD1Ev, __ZN29FrameTransformThreadInsuranceD2Ev, 
                       __ZN30PrefiltererWordIdPronCollArray10readObjectEP9DgnStreamRj, 
                       __ZN30PrefiltererWordIdPronCollArray11preAllocateEj, 
                       __ZN30PrefiltererWordIdPronCollArray11removeArrayERK12DgnPrimArrayIjE, 
                       __ZN30PrefiltererWordIdPronCollArray14getInsertIndexEjj, 
                       __ZN30PrefiltererWordIdPronCollArray17removeSortedArrayERK12DgnPrimArrayIjE, 
                       __ZN30PrefiltererWordIdPronCollArray21mergeLargeSortedArrayERK12DgnPrimArrayIjE, 
                       __ZN30PrefiltererWordIdPronCollArray21mergeSmallSortedArrayERK12DgnPrimArrayIjE, 
                       __ZN30PrefiltererWordIdPronCollArray7compactEv, 
                       __ZN30PrefiltererWordIdPronCollArray8addArrayERK12DgnPrimArrayIjE, 
                       __ZN30PrefiltererWordIdPronCollArray9removeAllEv, 
                       __ZN30PrefiltererWordIdPronCollArray9sortArrayEP12DgnPrimArrayIjE, 
                       __ZN30PrefiltererWordIdPronCollArray9sortArrayEv, 
                       __ZN30PrefiltererWordIdPronCollArrayC1EPK3Voc, __ZN30PrefiltererWordIdPronCollArrayC1Ev, 
                       __ZN30PrefiltererWordIdPronCollArrayC2EPK3Voc, __ZN30PrefiltererWordIdPronCollArrayC2Ev, 
                       __ZN30PrefiltererWordIdPronCollArrayD1Ev, __ZN30PrefiltererWordIdPronCollArrayD2Ev, 
                       __ZN30TFloatingPointExceptionHandlerC1Ev, __ZN30TFloatingPointExceptionHandlerC2Ev, 
                       __ZN30TFloatingPointExceptionHandlerD1Ev, __ZN30TFloatingPointExceptionHandlerD2Ev, 
                       __ZN31DiskNgramContextQuadIsolatedCmp15compareElementsEPvPKvS2_, 
                       __ZN31FstSearchLateLatticeHashBackoff10seedTheoryEiijP11SearchStats, 
                       __ZN31FstSearchLateLatticeHashBackoff13advanceDeltasEiiP11SearchStatsb, 
                       __ZN31FstSearchLateLatticeHashBackoff14propagateNullsEiiP11SearchStats, 
                       __ZN31FstSearchLateLatticeHashBackoff15seedFromMiniFstERi, 
                       __ZN31FstSearchLateLatticeHashBackoff16buildWordLatticeEP11WordLatticeR15DgnPrimFixArrayIhERS2_IbEb, 
                       __ZN31FstSearchLateLatticeHashBackoff16getBestExitScoreEv, 
                       __ZN31FstSearchLateLatticeHashBackoff17maybeInitDurModelEPK6PicMgrj, 
                       __ZN31FstSearchLateLatticeHashBackoff18createLatticeNodesER15DgnPrimFixArrayIiER12DgnPrimArrayIjEP11WordLatticeR8DgnArrayIS3_IiEERS0_IhERS0_IbE, 
                       __ZN31FstSearchLateLatticeHashBackoff18endTopRecSyncRecogEv, 
                       __ZN31FstSearchLateLatticeHashBackoff20beginTopRecSyncRecogEP7VirtMap, 
                       __ZN31FstSearchLateLatticeHashBackoff20maybeGeneratePelMapsEPK6PicMgr, 
                       __ZN31FstSearchLateLatticeHashBackoff21applyCutoffOnEmittingEjPi, 
                       __ZN31FstSearchLateLatticeHashBackoff22endTopRecPassSyncRecogEv, 
                       __ZN31FstSearchLateLatticeHashBackoff22getTraceTimeBoundariesER15DgnPrimFixArrayIjER12DgnPrimArrayIiE, 
                       __ZN31FstSearchLateLatticeHashBackoff24beginTopRecPassSyncRecogEP9PelScorerPK8ArcGraph, 
                       __ZN31FstSearchLateLatticeHashBackoff29generateTraceTokensFromTracesEv, 
                       __ZN31FstSearchLateLatticeHashBackoff33generateTraceTokensForLateLatticeEv, 
                       __ZN31FstSearchLateLatticeHashBackoff4viteEiiP11SearchStatsb, 
                       __ZN31FstSearchLateLatticeHashBackoff5resetEv, __ZN31FstSearchLateLatticeHashBackoff7doFrameEiiP11SearchStatsb, 
                       __ZN31FstSearchLateLatticeHashBackoffC1ERKiS1_, 
                       __ZN31FstSearchLateLatticeHashBackoffC2ERKiS1_, 
                       __ZN31FstSearchLatticeDurationBackoff10seedTheoryEiijP11SearchStats, 
                       __ZN31FstSearchLatticeDurationBackoff13advanceDeltasEiiP11SearchStatsb, 
                       __ZN31FstSearchLatticeDurationBackoff13collectTracesEv, 
                       __ZN31FstSearchLatticeDurationBackoff14propagateNullsEiiP11SearchStats, 
                       __ZN31FstSearchLatticeDurationBackoff15seedFromMiniFstERi, 
                       __ZN31FstSearchLatticeDurationBackoff16buildWordLatticeEP11WordLatticeR15DgnPrimFixArrayIhERS2_IbEb, 
                       __ZN31FstSearchLatticeDurationBackoff16getBestExitScoreEv, 
                       __ZN31FstSearchLatticeDurationBackoff17maybeInitDurModelEPK6PicMgrj, 
                       __ZN31FstSearchLatticeDurationBackoff18createLatticeNodesER15DgnPrimFixArrayIiER12DgnPrimArrayIjEP11WordLatticeR8DgnArrayIS3_IiEERS0_IhERS0_IbE, 
                       __ZN31FstSearchLatticeDurationBackoff18endTopRecSyncRecogEv, 
                       __ZN31FstSearchLatticeDurationBackoff20beginTopRecSyncRecogEP7VirtMap, 
                       __ZN31FstSearchLatticeDurationBackoff20maybeGeneratePelMapsEPK6PicMgr, 
                       __ZN31FstSearchLatticeDurationBackoff21applyCutoffOnEmittingEjPi, 
                       __ZN31FstSearchLatticeDurationBackoff22endTopRecPassSyncRecogEv, 
                       __ZN31FstSearchLatticeDurationBackoff24beginTopRecPassSyncRecogEP9PelScorerPK8ArcGraph, 
                       __ZN31FstSearchLatticeDurationBackoff29makeViterbiDecisionOnEmittingEv, 
                       __ZN31FstSearchLatticeDurationBackoff4viteEiiP11SearchStatsb, 
                       __ZN31FstSearchLatticeDurationBackoff5resetEv, __ZN31FstSearchLatticeDurationBackoff7doFrameEiiP11SearchStatsb, 
                       __ZN31FstSearchLatticeDurationBackoffC1ERKiS1_, 
                       __ZN31FstSearchLatticeDurationBackoffC2ERKiS1_, 
                       __ZN32DiskNgramContextBiTriIsolatedCmp15compareElementsEPvPKvS2_, 
                       __ZN32UttFeatureArraySynchronizedArray6updateEPK9Utterance, 
                       __ZN35FstSearchLeafLatticeDurationBackoff10seedTheoryEiijP11SearchStats, 
                       __ZN35FstSearchLeafLatticeDurationBackoff13advanceDeltasEiiP11SearchStatsb, 
                       __ZN35FstSearchLeafLatticeDurationBackoff13collectTracesEv, 
                       __ZN35FstSearchLeafLatticeDurationBackoff14propagateNullsEiiP11SearchStats, 
                       __ZN35FstSearchLeafLatticeDurationBackoff15seedFromMiniFstERi, 
                       __ZN35FstSearchLeafLatticeDurationBackoff16buildWordLatticeEP11WordLatticeR15DgnPrimFixArrayIhERS2_IbEb, 
                       __ZN35FstSearchLeafLatticeDurationBackoff16getBestExitScoreEv, 
                       __ZN35FstSearchLeafLatticeDurationBackoff17maybeInitDurModelEPK6PicMgrj, 
                       __ZN35FstSearchLeafLatticeDurationBackoff18createLatticeNodesER15DgnPrimFixArrayIiER12DgnPrimArrayIjEP11WordLatticeR8DgnArrayIS3_IiEERS0_IhERS0_IbE, 
                       __ZN35FstSearchLeafLatticeDurationBackoff18endTopRecSyncRecogEv, 
                       __ZN35FstSearchLeafLatticeDurationBackoff20beginTopRecSyncRecogEP7VirtMap, 
                       __ZN35FstSearchLeafLatticeDurationBackoff20maybeGeneratePelMapsEPK6PicMgr, 
                       __ZN35FstSearchLeafLatticeDurationBackoff21applyCutoffOnEmittingEjPi, 
                       __ZN35FstSearchLeafLatticeDurationBackoff22endTopRecPassSyncRecogEv, 
                       __ZN35FstSearchLeafLatticeDurationBackoff24beginTopRecPassSyncRecogEP9PelScorerPK8ArcGraph, 
                       __ZN35FstSearchLeafLatticeDurationBackoff29makeViterbiDecisionOnEmittingEv, 
                       __ZN35FstSearchLeafLatticeDurationBackoff4viteEiiP11SearchStatsb, 
                       __ZN35FstSearchLeafLatticeDurationBackoff5resetEv, 
                       __ZN35FstSearchLeafLatticeDurationBackoff7doFrameEiiP11SearchStatsb, 
                       __ZN35FstSearchLeafLatticeDurationBackoffC1ERKiS1_, 
                       __ZN35FstSearchLeafLatticeDurationBackoffC2ERKiS1_, 
                       __ZN36CorpusCorrelationDataIndexNumericCmp15compareElementsEPvPKvS2_, 
                       __ZN36SortWordIdsByPrefPicModelIdPronScope15compareElementsEPvPKvS2_, 
                       __ZN37DiskNgramContextBiTriGroupTrigramsCmp15compareElementsEPvPKvS2_, 
                       __ZN3ARC15compareElementsEPvPKvS2_, __ZN3LPC5autocERK12DgnPrimArrayIdEjPS1_Pd, 
                       __ZN3LPC6durbinEPK12DgnPrimArrayIdEPS1_Pd, __ZN3LPCC1Ev, 
                       __ZN3LPCC2Ev, __ZN3Voc10createWordEPKcjS1_, __ZN3Voc10setLMScaleEj, 
                       __ZN3Voc12createCorpusERK8FileSpec, __ZN3Voc12loadCachedLMEv, 
                       __ZN3Voc13saveVocSharedER15DgnSharedMemSetjRK8FileSpecb, 
                       __ZN3Voc14unloadCachedLMEv, __ZN3Voc16loadPrefLmScoresEP5DFileP14DFileChecksums, 
                       __ZN3Voc17setClientPronDataEjRK9DgnStringP12DgnPrimArrayIjES5_, 
                       __ZN3Voc17writeVocGroupInfoEPK12VocGroupInfoRK8FileSpec, 
                       __ZN3Voc18clearPrefPicModelsEv, __ZN3Voc18notifyBuiltTopicLMEj, 
                       __ZN3Voc18notifyStateDeletedEj, __ZN3Voc18setWordClientPronsEjRK8DgnArrayI12DgnPrimArrayItEERKS1_IhES8_PS1_IjESA_SA_, 
                       __ZN3Voc19computePrefLmScoresEv, __ZN3Voc19copyWordListFromVocEPKS_RK12DgnPrimArrayIjEPS4_PK8DgnArrayI9DgnStringEPS3_SC_PKc, 
                       __ZN3Voc19transferClientPronsEPKS_jjjjP12DgnPrimArrayIjES4_, 
                       __ZN3Voc20notifyDeletedTopicLMERK12DgnPrimArrayIjE, 
                       __ZN3Voc20setAllWordsAsFactoryEv, __ZN3Voc21addPrefPicModelIdPronEjRK12DgnPrimArrayIjE, 
                       __ZN3Voc21deleteWordClientPronsEjP12DgnPrimArrayIjES2_, 
                       __ZN3Voc21findOrAddPrefPicModelERK8DgnArrayI19OpaquePelIdAndDurIdE, 
                       __ZN3Voc21notifyPrefLmScoresBadEv, __ZN3Voc21notifyStateWordsAddedEjRK12DgnPrimArrayIjE, 
                       __ZN3Voc21notifyWordFamilyAddedEjRK12DgnPrimArrayIjEj, 
                       __ZN3Voc22getVocSvcCompatibilityEP5DFileS1_b, __ZN3Voc23addVocReferringReproRefEv, 
                       __ZN3Voc23deleteWordIdArrayFamilyERK12DgnPrimArrayIjERK8DgnArrayIS1_E, 
                       __ZN3Voc23deleteWordsFromWordListERK12DgnPrimArrayIjE, 
                       __ZN3Voc23loadAndDiscardReproDataEP5DFile, __ZN3Voc23notifyStateWordsRemovedEjRK12DgnPrimArrayIjE, 
                       __ZN3Voc23notifyWordFamilyChangedERK12DgnPrimArrayIjE, 
                       __ZN3Voc23notifyWordFamilyDeletedERK12DgnPrimArrayIjEjPbS4_, 
                       __ZN3Voc24decrementTransducerCountEv, __ZN3Voc24incrementTransducerCountEv, 
                       __ZN3Voc24notifyTransferredTopicLMEj, __ZN3Voc25addVocReferringLatticeRefEv, 
                       __ZN3Voc25addVocReferringSausageRefEv, __ZN3Voc25decrementPrefiltererCountEv, 
                       __ZN3Voc25incrementPrefiltererCountEv, __ZN3Voc25loadAndDiscardReproResultEP5DFile, 
                       __ZN3Voc26addPrefWordIdsSortedByPronERK12DgnPrimArrayIjE, 
                       __ZN3Voc26removeVocReferringReproRefEv, __ZN3Voc27loadPrefWordIdsSortedByPronEP5DFileP14DFileChecksums, 
                       __ZN3Voc28newWordListFromWordListPronsERK12DgnPrimArrayIjERK9DgnIArrayIPKcEPS1_, 
                       __ZN3Voc28removeVocReferringLatticeRefEv, __ZN3Voc28removeVocReferringSausageRefEv, 
                       __ZN3Voc29addClientPronsAvoidDuplicatesEjP12DgnPrimArrayIjES2_RK8DgnArrayIS0_ItEERKS0_IhESA_jPKcS2_, 
                       __ZN3Voc29removePrefWordIdsSortedByPronERK12DgnPrimArrayIjE, 
                       __ZN3Voc30computePrefWordIdsSortedByPronEv, __ZN3Voc30setWordFamilyAllPronsAsFactoryEjRK12DgnPrimArrayIjERK8DgnArrayIS0_ItEERKS0_IhESB_PS1_SC_SC_, 
                       __ZN3Voc31decrementTransducerCountInRulesERK8DgnArrayIS0_I10ParseTokenEE, 
                       __ZN3Voc31decrementTransducerGrammarCountEv, __ZN3Voc31incrementTransducerCountInRulesERK8DgnArrayIS0_I10ParseTokenEE, 
                       __ZN3Voc31incrementTransducerGrammarCountEv, __ZN3Voc32decrementTransducerCountInStatesERK12DgnPrimArrayIjE, 
                       __ZN3Voc32incrementTransducerCountInStatesERK12DgnPrimArrayIjE, 
                       __ZN3Voc32notifyPrefWordIdsSortedByPronBadEv, __ZN3Voc32setLMStaticizationNoGroupingSizeEy, 
                       __ZN3Voc33addVocReferringPrefilterResultRefEv, __ZN3Voc34notifyWordFamilyAboutToDeletePronsERK12DgnPrimArrayIjEj, 
                       __ZN3Voc35setWordClientPronsFromWordSequencesEjRK8DgnArrayI12DgnPrimArrayIjEEjPS2_S6_, 
                       __ZN3Voc36removeVocReferringPrefilterResultRefEv, 
                       __ZN3Voc38decrementTransducerGrammarCountInRulesERK8DgnArrayIS0_I10ParseTokenEE, 
                       __ZN3Voc38incrementTransducerGrammarCountInRulesERK8DgnArrayIS0_I10ParseTokenEE, 
                       __ZN3Voc39decrementTransducerGrammarCountInStatesERK12DgnPrimArrayIjE, 
                       __ZN3Voc39incrementTransducerGrammarCountInStatesERK12DgnPrimArrayIjE, 
                       __ZN3Voc47setWordFamilyAllPronsFromWordSequencesAsFactoryEjRK8DgnArrayI12DgnPrimArrayIjEEjPS2_S6_, 
                       __ZN3Voc7loadVocEP5DFileS1_P15DgnSharedMemSetjxbbPbP14DFileChecksumsS4_, 
                       __ZN3Voc7saveVocERK8FileSpecS2_P16B_SaveResultCodeP14DFileChecksumsbb30B_LMSBigramTrigramGroupingType25B_LMSQuadgramGroupingType, 
                       __ZN3VocC1Et, __ZN3VocC2Et, __ZN3VocD1Ev, __ZN3VocD2Ev, 
                       __ZN48DiskNgramContextBiTriGroupTrigramsWithBigramsCmp15compareElementsEPvPKvS2_, 
                       __ZN4Node13thresholdNodeEi, __ZN4Node16scoreNodeOneBestEPK8BaseNodebiiiPbP6NetMgriiPjP6HmmNet, 
                       __ZN4Node18updateNodeOneBest1EiiiP6NetMgrP6HmmNet, 
                       __ZN4Node19scoreNodeSuccessorsEPK8BaseNodebiiijP6NetMgriiPjS5_, 
                       __ZN4Node20scoreNodeWithPatternEPK8BaseNodejiiP6NetMgriiPbP6HmmNet, 
                       __ZN4Node24scoreNodeSuccessorsNBestEPK8BaseNodebiiijP6NetMgriiPjS5_, 
                       __ZN4Node25scoreNodeWithPatternNBestEPK8BaseNodejjiiP6NetMgriiPbP6HmmNet, 
                       __ZN4Node26scoreNodeSuccessorsSkipOneEPK8BaseNodebiiijP6NetMgriiPjS5_, 
                       __ZN4Node27scoreNodeSuccessorsSkipManyEPK8BaseNodebiiijP6NetMgriiPjS5_, 
                       __ZN4Node29scoreNodeActiveCurrActiveSeedEPK8BaseNodeiiPbP6NetMgriiP6HmmNet, 
                       __ZN4Node31scoreNodeSuccessorsSkipOneNBestEPK8BaseNodebiiijP6NetMgriiPjS5_, 
                       __ZN4Node32scoreNodeSuccessorsSkipManyNBestEPK8BaseNodebiiijP6NetMgriiPjS5_, 
                       __ZN4PMCC15computeFeaturesERK12DgnPrimArrayIdEPS1_, 
                       __ZN4PMCC5setupEjjj, __ZN4PMCCC1Ev, __ZN4PMCCC2Ev, 
                       __ZN4PMCCD1Ev, __ZN4PMCCD2Ev, __ZN4Rule18addIncludedWordRefEv, 
                       __ZN4Rule21removeIncludedWordRefEv, __ZN4Rule22addIncludingLatticeRefEv, 
                       __ZN4Rule25addIncludingTransducerRefEv, __ZN4Rule25removeIncludingLatticeRefEv, 
                       __ZN4Rule28removeIncludingTransducerRefEv, __ZN4Rule32addIncludingTransducerGrammarRefEv, 
                       __ZN4Rule35removeIncludingTransducerGrammarRefEv, 
                       __ZN4Rule7setDescERK8DgnArrayI8RuleDescE, __ZN4Rule7setNameEPKc, 
                       __ZN4Rule8killRuleEv, __ZN4Rule8readRuleEP9DgnStreamRj, 
                       __ZN4RuleC1ERKS_, __ZN4RuleC1Ev, __ZN4RuleC2ERKS_, 
                       __ZN4RuleC2Ev, __ZN4RuleD1Ev, __ZN4RuleD2Ev, __ZN4RuleaSERKS_, 
                       __ZN4TFhm4saveEP12TDataManagerS1_, __ZN4TFhm5applyERKNSt3__16vectorIPKwNS0_9allocatorIS3_EEEEPK8TLatticem, 
                       __ZN4TFhmC1EPK12TDataManagerPS0_P8TLexicon, __ZN4TFhmC2EPK12TDataManagerPS0_P8TLexicon, 
                       __ZN4TFhmD0Ev, __ZN4TFhmD1Ev, __ZN4TFhmD2Ev, __ZN4TFsa11deleteStateEP6TState, 
                       __ZN4TFsa11deleteTransEP6TTrans, __ZN4TFsa12addExtremityEP6TState10TDirection, 
                       __ZN4TFsa14deleteAllTransEP6TState10TDirection, 
                       __ZN4TFsa15removeExtremityEP6TState10TDirection, 
                       __ZN4TFsa15topologicalSortERNSt3__16vectorIP6TStateNS0_9allocatorIS3_EEEE, 
                       __ZN4TFsa5clearEv, __ZN4TFsa8minimizeEv, __ZN4TFsa8newStateEPK13TStateDataDef, 
                       __ZN4TFsa8newTransEP6TStateS1_PK13TTransDataDef, 
                       __ZN4TFsa8nfaToDfaERS_P16TFsaDataCallBack, __ZN4TFsaC1Ev, 
                       __ZN4TFsaC2Ev, __ZN4TFsaD1Ev, __ZN4TFsaD2Ev, __ZN4TRne10freeMemoryEv, 
                       __ZN4TRne13applyInternalERKNSt3__16vectorIPKwNS0_9allocatorIS3_EEEEPK8TLatticeRNS1_IP29TLatticeConstructionTransDataNS4_ISD_EEEERm, 
                       __ZN4TRne4saveEP12TDataManagerS1_, __ZN4TRne5applyERKNSt3__16vectorIPK5TWordNS0_9allocatorIS4_EEEEmmmRNS1_INS0_4pairIS4_mEENS5_ISB_EEEE, 
                       __ZN4TRne5applyERKNSt3__16vectorIPKwNS0_9allocatorIS3_EEEEPK8TLatticem, 
                       __ZN4TRneC1EP8TLexicon, __ZN4TRneC1EPK12TDataManagerPS0_P8TLexicon, 
                       __ZN4TRneC2EP8TLexicon, __ZN4TRneC2EPK12TDataManagerPS0_P8TLexicon, 
                       __ZN4TRneD0Ev, __ZN4TRneD1Ev, __ZN4TRneD2Ev, __ZN4TTagC1EPK11TFileObjectRK11TTagManager, 
                       __ZN4TTagC1EPKwmPP19TPItnTagHandle_fake, __ZN4TTagC2EPK11TFileObjectRK11TTagManager, 
                       __ZN4TTagC2EPKwmPP19TPItnTagHandle_fake, __ZN4User13loadChecksumsEP5DFileP14DFileChecksums, 
                       __ZN4User14saveUserSharedER15DgnSharedMemSetjRK8FileSpec, 
                       __ZN4User19addFileHistoryEntryEPKc, __ZN4User21decrementAdapterCountEv, 
                       __ZN4User21incrementAdapterCountEv, __ZN4User21maybeComputeDurIniPenEj, 
                       __ZN4User24decrementTransducerCountEv, __ZN4User24incrementTransducerCountEv, 
                       __ZN4User25decrementPrefiltererCountEv, __ZN4User25incrementPrefiltererCountEv, 
                       __ZN4User34addFileHistoryEntryWithElapsedTimeEPKcRK8SnapTime, 
                       __ZN4User8copyUserEPKS_, __ZN4User8loadUserEP5DFileP15DgnSharedMemSetj, 
                       __ZN4User8saveUserERK8FileSpecP16B_SaveResultCode24B_SaveOverrideFormatTypebP23ProgressCallbackHandler, 
                       __ZN4UserC1Et, __ZN4UserC2Et, __ZN4UserD1Ev, __ZN4UserD2Ev, 
                       __ZN5CPUID10resetCPUIDEv, __ZN5CPUID13getApicFieldsEPhS0_S0_, 
                       __ZN5CPUID15addCacheSummaryEPjijbPKc, __ZN5CPUID7smCPUIDE, 
                       __ZN5CPUID9countCPUsEv, __ZN5CPUID9initCPUIDEv, 
                       __ZN5DFile11openSubFileE16SubFileExtension17B_SubFileOpenMode19B_DgnStreamFileType, 
                       __ZN5DFile13openRealDFileERK8FileSpec15B_DFileOpenModejP10DFileOwner, 
                       __ZN5DFile13removeSubFileE16SubFileExtension, __ZN5DFile14copyDFileStateEPKS_, 
                       __ZN5DFile14getSubFileSizeE16SubFileExtension, __ZN5DFile14reportProgressEPKc, 
                       __ZN5DFile15makeSubFileNameERK8DgnArrayI15SubDirExtensionE16SubFileExtensionP9DgnString, 
                       __ZN5DFile15makeSubFileNameERK8DgnArrayI15SubDirExtensionEPKcP9DgnString, 
                       __ZN5DFile17clearBigReadCacheEb, __ZN5DFile20cacheSubFileSizeInfoEv, 
                       __ZN5DFile20getSubFileSizeOrZeroE16SubFileExtension, 
                       __ZN5DFile22getNameForSemanticTypeEj, __ZN5DFile25popCurrentSubDirComponentEv, 
                       __ZN5DFile26pushCurrentSubDirComponentERK15SubDirExtension, 
                       __ZN5DFile28removeFileAfterSaveExceptionEPPS_, __ZN5DFile39getDFileSupportTypeAndRecognizerVersionERK8FileSpecjP18B_DFileSupportTypeP9DgnString, 
                       __ZN5DFile9openDFileERK8FileSpec15B_DFileOpenModejP10DFileOwner, 
                       __ZN5DFileC2ERK8FileSpec, __ZN5DFileD0Ev, __ZN5DFileD1Ev, 
                       __ZN5DFileD2Ev, __ZN5FBank9initFBankEjjRK12DgnPrimArrayIdE, 
                       __ZN5FBankC1Ev, __ZN5FBankC2Ev, __ZN5TEdgeC1EmP7TVertexS1_RK9TEdgeData, 
                       __ZN5TEdgeC2EmP7TVertexS1_RK9TEdgeData, __ZN5TRule10freeMemoryEv, 
                       __ZN5TRuleC1EPK11TFileObjectP8TLexiconR10TAllocatorm, 
                       __ZN5TRuleC1EmPPK7TSymbolPKbm, __ZN5TRuleC2EPK11TFileObjectP8TLexiconR10TAllocatorm, 
                       __ZN5TRuleC2EmPPK7TSymbolPKbm, __ZN5TRuleD1Ev, __ZN5TRuleD2Ev, 
                       __ZN5TTmfe10freeMemoryEv, __ZN5TTmfe10loadRegExpEPK11TFileObject13TTmfeWordFlag, 
                       __ZN5TTmfe12loadFeaturesER12TInputStreamPKcS3_, 
                       __ZN5TTmfe12loadWordFlagER12TInputStream, __ZN5TTmfe13applyInternalERKNSt3__16vectorINS0_4pairIPK5TWordjEENS0_9allocatorIS6_EEEEmRNS1_INS2_IS5_mEENS7_ISC_EEEE, 
                       __ZN5TTmfe13getInsertionsER10TAllocatorRNSt3__16vectorIPK16TTmfeReplacementNS2_9allocatorIS6_EEEE, 
                       __ZN5TTmfe15getReplacementsERKNSt3__16vectorINS0_4pairIPK5TWordjEENS0_9allocatorIS6_EEEER10TAllocatorRNS1_INS1_IPK16TTmfeReplacementNS7_ISG_EEEENS7_ISI_EEEEb, 
                       __ZN5TTmfe23getReplacementWordNamesEPKwR10TAllocatorRNSt3__16vectorIS1_NS4_9allocatorIS1_EEEE, 
                       __ZN5TTmfe4saveEP12TDataManagerS1_, __ZN5TTmfe5applyERKNSt3__16vectorIPKwNS0_9allocatorIS3_EEEEPK8TLatticem, 
                       __ZN5TTmfeC1EPK12TDataManagerPS0_P8TLexicon, __ZN5TTmfeC2EPK12TDataManagerPS0_P8TLexicon, 
                       __ZN5TTmfeD0Ev, __ZN5TTmfeD1Ev, __ZN5TTmfeD2Ev, 
                       __ZN5TWord13ms_pnOTBIndexE, __ZN5TWordC1EPKwP8TLexicon, 
                       __ZN5TWordC1EPKwP8TLexiconPP12SDhWord_fakem, __ZN5TWordC2EPKwP8TLexicon, 
                       __ZN5TWordC2EPKwP8TLexiconPP12SDhWord_fakem, __ZN6Active13addActiveWordERK6CWIDACP10ActiveWord, 
                       __ZN6Active13newActiveWordERK6CWIDACi18B_NodeSkippingTypeb, 
                       __ZN6Active16addActiveWordFstERK6CWIDACP10ActiveWord, 
                       __ZN6Active16removeActiveWordEP10ActiveWordi, __ZN6Active16scoreActiveWordsEiiiiii, 
                       __ZN6Active17getBestActiveWordEPPK8BaseNode, __ZN6Active18endActiveSyncRecogEv, 
                       __ZN6Active20beginActiveSyncRecogEPK12DgnPrimArrayIsEP13PelScoreCachejj, 
                       __ZN6Active20newActiveWordSilenceERK6CWIDAC, __ZN6Active20pruneTimeConstrainedEi, 
                       __ZN6Active20thresholdActiveWordsEiii, __ZN6Active24newActiveWordNonAcousticERK6CWIDAC, 
                       __ZN6Active5pruneEv, __ZN6ActiveC1E11B_RecogMode9Direction9B_NetTypePK6PicMgr, 
                       __ZN6ActiveC2E11B_RecogMode9Direction9B_NetTypePK6PicMgr, 
                       __ZN6Branch10readObjectEP9DgnStreamRj, __ZN6CWIDAC11computeHashERKS_, 
                       __ZN6Corpus10loadCorpusEP5DFile, __ZN6Corpus11addDocumentEjRK12DgnPrimArrayIjE, 
                       __ZN6Corpus12createCorpusEPK8WordListPK8CharInfoRK8FileSpec, 
                       __ZN6Corpus14finalizeCorpusEv, __ZN6Corpus16getDocumentWordsEjP12DgnPrimArrayIjE, 
                       __ZN6Corpus17histogramDocumentERK12DgnPrimArrayIjE, 
                       __ZN6Corpus22addWordCorrelationDataERK12DgnPrimArrayIjEjS3_, 
                       __ZN6Corpus23findCorrelatedDocumentsERK12DgnPrimArrayIjEPS0_IyEPS1_j, 
                       __ZN6Corpus28histogramWordCorrelationDataERK12DgnPrimArrayIjE, 
                       __ZN6CorpusC1Ev, __ZN6CorpusC2Ev, __ZN6CorpusD1Ev, 
                       __ZN6CorpusD2Ev, __ZN6EnvMgr10copyEnvMgrEPKS_, __ZN6EnvMgr10loadEnvMgrEP5DFileP14DFileChecksums, 
                       __ZN6EnvMgr10saveEnvMgrEP5DFileP14DFileChecksumsbb, 
                       __ZN6EnvMgr11setTopEnvIdEj, __ZN6EnvMgr12setItemEnvIdEjj, 
                       __ZN6EnvMgr13releaseStringEt, __ZN6EnvMgr15setSemanticTypeEj, 
                       __ZN6EnvMgr16saveEnvMgrToTextEP5DFileb, __ZN6EnvMgr16setItemPairEnvIdEjjj, 
                       __ZN6EnvMgr18loadEnvMgrFromTextEP5DFile, __ZN6EnvMgr18saveEnvMgrToStreamEP9DgnStreamPjbb, 
                       __ZN6EnvMgr19getTopEnvIdMaybeNewEb, __ZN6EnvMgr20getItemEnvIdMaybeNewEjb, 
                       __ZN6EnvMgr20loadEnvMgrFromStreamEP5DFileP9DgnStreamPjb, 
                       __ZN6EnvMgr20setZeroEnvStringDataEPKcS1_j, __ZN6EnvMgr24getItemPairEnvIdMaybeNewEjjb, 
                       __ZN6EnvMgr6newEnvEv, __ZN6EnvMgr7compactEv, __ZN6EnvMgr7killEnvEj, 
                       __ZN6EnvMgr7setDataEjPKcPKhjb, __ZN6EnvMgr9addStringEPKc, 
                       __ZN6EnvMgrC1Ej, __ZN6EnvMgrC2Ej, __ZN6EnvMgrD1Ev, 
                       __ZN6EnvMgrD2Ev, __ZN6FsmArc15compareElementsEPvPKvS2_, 
                       __ZN6FstLat5clearEv, __ZN6FstLat5writeEPKcd, __ZN6FstLat8sortArcsEv, 
                       __ZN6FstLatC1EP8ArcGraph, __ZN6FstLatC1Ev, __ZN6FstLatC2EP8ArcGraph, 
                       __ZN6FstLatC2Ev, __ZN6FwdBwd10isEmittingEi, __ZN6FwdBwd10seedTheoryEiijP11SearchStats, 
                       __ZN6FwdBwd13doStepViterbiEii, __ZN6FwdBwd14doBackwardPassEv, 
                       __ZN6FwdBwd14doBackwardStepEi, __ZN6FwdBwd14propagateNullsEi, 
                       __ZN6FwdBwd15doStepFwdBwdCPUEii, __ZN6FwdBwd15doStepFwdBwdGPUEii, 
                       __ZN6FwdBwd16buildWordLatticeEP11WordLatticeR15DgnPrimFixArrayIhERS2_IbEb, 
                       __ZN6FwdBwd16getBestExitScoreEv, __ZN6FwdBwd17copyWithCutoffCPUEPK7FBTokenj, 
                       __ZN6FwdBwd17copyWithCutoffGPUEj, __ZN6FwdBwd17copyWithCutoffItfEj, 
                       __ZN6FwdBwd17cumulativeSumsCPUEPii, __ZN6FwdBwd17cumulativeSumsGPUEPii, 
                       __ZN6FwdBwd17cumulativeSumsItfEPii, __ZN6FwdBwd17findStateInFwdBwdEiPK12FwdBwdColumn, 
                       __ZN6FwdBwd17getNumOutPortsCPUEv, __ZN6FwdBwd17getNumOutPortsGPUEv, 
                       __ZN6FwdBwd17getNumOutPortsItfEv, __ZN6FwdBwd17loadArcGraphOnGPUEv, 
                       __ZN6FwdBwd18endTopRecSyncRecogEv, __ZN6FwdBwd19unloadArcGraphOnGPUEv, 
                       __ZN6FwdBwd20beginTopRecSyncRecogEP7VirtMap, __ZN6FwdBwd20copyActiveToFwdProbsEi, 
                       __ZN6FwdBwd20makeBackwardDecisionEid, __ZN6FwdBwd21getStateBlockSizesCPUEiii, 
                       __ZN6FwdBwd21getStateBlockSizesGPUEiii, __ZN6FwdBwd21getStateBlockSizesItfEiii, 
                       __ZN6FwdBwd22endTopRecPassSyncRecogEv, __ZN6FwdBwd22initCandidateBlocksCPUEiiii, 
                       __ZN6FwdBwd22initCandidateBlocksGPUEiiii, __ZN6FwdBwd22initCandidateBlocksItfEiiii, 
                       __ZN6FwdBwd22initCandidateStatesCPUEv, __ZN6FwdBwd22initCandidateStatesGPUEi, 
                       __ZN6FwdBwd22initCandidateStatesItfEi, __ZN6FwdBwd22maybeReallocBlockStartEi, 
                       __ZN6FwdBwd22updateBackwardLinksGPUEi, __ZN6FwdBwd24beginTopRecPassSyncRecogEP9PelScorerPK8ArcGraph, 
                       __ZN6FwdBwd24maybeReallocFwdBwdColumnEi, __ZN6FwdBwd24sortCandidatesByScoreGPUEi, 
                       __ZN6FwdBwd24sortCandidatesByScoreItfEi, __ZN6FwdBwd24sortCandidatesByStateGPUEi, 
                       __ZN6FwdBwd24sortCandidatesByStateItfEi, __ZN6FwdBwd26maybeCopyActiveStatesOnGPUEv, 
                       __ZN6FwdBwd26updateBackwardProbNullArcsEP12FwdBwdColumni, 
                       __ZN6FwdBwd27appendNonEmittingCandidatesE7FBTokenR8DgnArrayIS0_Ei, 
                       __ZN6FwdBwd27maybeReallocCandidateStatesEi, __ZN6FwdBwd27maybeReallocCandidateTokensEi, 
                       __ZN6FwdBwd28maybeReallocTargetStateStartEi, __ZN6FwdBwd28sortBackwardLinksByOriginGPUEi, 
                       __ZN6FwdBwd29copyNonCondensedBackwardLinksEi, __ZN6FwdBwd29doBackwardStepFromEmittingCPUEi, 
                       __ZN6FwdBwd29doBackwardStepFromEmittingGPUEi, __ZN6FwdBwd29doBackwardStepFromEmittingItfEi, 
                       __ZN6FwdBwd32getNumOutPortsFromFwdBwdProbsGPUEi, 
                       __ZN6FwdBwd33maybeCopyNormalizationFactorOnGPUEd, 
                       __ZN6FwdBwd33sortAndMergeNonEmittingCandidatesER8DgnArrayI7FBTokenEi, 
                       __ZN6FwdBwd33updateBackwardProbFromEmittingCPUER10FwdBwdProbPK12FwdBwdColumn, 
                       __ZN6FwdBwd37maybeReallocAndCopyBackwardLinksOnGPUEi, 
                       __ZN6FwdBwd37maybeReallocAndCopyBackwardProbsOnGPUEi, 
                       __ZN6FwdBwd5resetEv, __ZN6FwdBwd7doFrameEiiP11SearchStatsb, 
                       __ZN6FwdBwd7isFinalEi, __ZN6FwdBwd9doStepItfEii, 
                       __ZN6FwdBwdC1EPK6PicMgr, __ZN6FwdBwdC2EPK6PicMgr, 
                       __ZN6FwdBwdD0Ev, __ZN6FwdBwdD1Ev, __ZN6FwdBwdD2Ev, 
                       __ZN6HmmNet12unpackInPortERK3PicP4Node, __ZN6HmmNet13deleteInPortsEv, 
                       __ZN6HmmNet13seedInPortFstEhij, __ZN6HmmNet13unpackNoCoartEPK3Pici, 
                       __ZN6HmmNet13unpackSilenceEv, __ZN6HmmNet14addEpsilonNodeEv, 
                       __ZN6HmmNet14deleteOutPortsEv, __ZN6HmmNet14initEndIndicesEv, 
                       __ZN6HmmNet14pushEntryScoreEv, __ZN6HmmNet14unpackSequenceEPK3PiciPP4NodeS5_12B_ScoreOrder, 
                       __ZN6HmmNet16unpackEndSilenceEv, __ZN6HmmNet17unpackEmbeddedFstEv, 
                       __ZN6HmmNet17unpackFstSequenceEPP4NodeS2_, __ZN6HmmNet17unpackNonAcousticEv, 
                       __ZN6HmmNet19unpackEmptySequenceEPP4NodeS2_, __ZN6HmmNet20preallocEndSequencesEtj, 
                       __ZN6HmmNet21passScoresToOutPorts1Ei, __ZN6HmmNet21unpackOneFromPicNodesEPK7PicNodejRK3PicPP4NodeS8_12B_ScoreOrder, 
                       __ZN6HmmNet24appendCalculatedSegmentsEPK8BaseNodeiP12DgnIOwnArrayIP14PelSegmentDataE, 
                       __ZN6HmmNet25configureOutPortsExternalEj, __ZN6HmmNet25configureOutPortsInternalEj, 
                       __ZN6HmmNet6addArcEPK4NodePS0_, __ZN6HmmNet9unpackEndERK8DgnArrayI3PicE12B_ScoreOrder, 
                       __ZN6HmmNet9unpackOneERK3PicPP4NodeS5_12B_ScoreOrder, 
                       __ZN6HmmNetC2EP6NetMgrRK6CWIDAC10B_NetShape12B_PortStatus18B_NodeSkippingType, 
                       __ZN6HmmNetD0Ev, __ZN6HmmNetD1Ev, __ZN6HmmNetD2Ev, 
                       __ZN6Imelda10copyImeldaEPKS_, __ZN6Imelda10loadImeldaEP5DFileP14DFileChecksumsb, 
                       __ZN6Imelda14loadImeldaTextEP5DFile, __ZN6NetMgr10shadowBestEPS_iib, 
                       __ZN6NetMgr11addEmptyNetERK6CWIDAC, __ZN6NetMgr12addNonSilNetERK6CWIDACbbiti18B_NodeSkippingType, 
                       __ZN6NetMgr14endNetMgrFrameEi, __ZN6NetMgr16beginNetMgrFrameEi, 
                       __ZN6NetMgr18computeThreshScoreEiiiiPjPy, __ZN6NetMgr18endNetMgrSyncRecogEv, 
                       __ZN6NetMgr19adjustBestForBWBackEbiPi, __ZN6NetMgr20beginNetMgrSyncRecogEPK6PicMgrPK12DgnPrimArrayIsEP13PelScoreCachejj, 
                       __ZN6NetMgr31computeEstimatedThreshThisFrameEitiiii, 
                       __ZN6NetMgr38normalizeBestAndComputeEstimatedThreshEiiPi, 
                       __ZN6NetMgr9addSilNetERK6CWIDAC, __ZN6NetMgrC1E11B_RecogMode9B_NetType9Direction, 
                       __ZN6NetMgrC2E11B_RecogMode9B_NetType9Direction, 
                       __ZN6NetMgrD1Ev, __ZN6NetMgrD2Ev, __ZN6OsFile10fileExistsEPKc, 
                       __ZN6OsFile10fileExistsERK8FileSpec, __ZN6OsFile10openOsFileERK8FileSpec16B_OsFileOpenMode, 
                       __ZN6OsFile10shrinkSizeEy, __ZN6OsFile10writeBytesEPKcj, 
                       __ZN6OsFile11seekFromBegEy, __ZN6OsFile12testReadFileEPKcjjbjj, 
                       __ZN6OsFile15compareElementsEPvPKvS2_, __ZN6OsFile20deleteFileAndCleanUpEv, 
                       __ZN6OsFile24seekFromBegGrowWithZerosEy, __ZN6OsFile9dirExistsEPKc, 
                       __ZN6OsFile9dirExistsERK8FileSpec, __ZN6OsFile9readBytesEPcj, 
                       __ZN6OsFile9seekToEndEv, __ZN6OsFileC1ERK8FileSpeci, 
                       __ZN6OsFileC2ERK8FileSpeci, __ZN6OsFileD1Ev, __ZN6OsFileD2Ev, 
                       __ZN6PLPStr10bandToAutoERK12DgnPrimArrayIdEi, __ZN6PLPStr11plpCepstrumEP12DgnPrimArrayIdES2_, 
                       __ZN6PLPStr7loadPLPEiiid, __ZN6PLPStr8lpcToCepEP12DgnPrimArrayIdE, 
                       __ZN6PLPStrC1Ev, __ZN6PLPStrC2Ev, __ZN6PelMgr10copyPelMgrEPKS_, 
                       __ZN6PelMgr10loadPelMgrEP5DFileP14DFileChecksumsP18DgnSharedMemStreambPb, 
                       __ZN6PelMgr14loadPelMgrTextEP5DFilePb, __ZN6PelMgr16loadPelMgrBinaryEP5DFileP14DFileChecksumsP18DgnSharedMemStreamPbS6_, 
                       __ZN6PelMgr16packPelComponentEjRK12DgnPrimArrayIjERKS0_IiE, 
                       __ZN6PelMgr16packPelComponentEjRK12DgnPrimArrayIjES3_, 
                       __ZN6PelMgr16savePelMgrBinaryEP5DFileP14DFileChecksumsbP18DgnSharedMemStream, 
                       __ZN6PelMgr16savePelMgrSharedEP18DgnSharedMemStream, 
                       __ZN6PelMgr17buildPostLoadDataEb, __ZN6PelMgr18compressShortListsERK8BitArray, 
                       __ZN6PelMgr18loadMixturePelTextEP5DFilePb, __ZN6PelMgr19packGenoneComponentEtjRK12DgnPrimArrayIjERKS0_IiEb, 
                       __ZN6PelMgr19packGenoneComponentEtjRK12DgnPrimArrayIjES3_, 
                       __ZN6PelMgr20clearScorerHierarchyEv, __ZN6PelMgr20computeComponentSizeEv, 
                       __ZN6PelMgr21allocateAuxiliaryDataEj, __ZN6PelMgr21createScorerHierarchyERK12DgnPrimArrayIjEjj, 
                       __ZN6PelMgr21loadMixtureGenoneTextEP5DFile, __ZN6PelMgr21updateScorerHierarchyEv, 
                       __ZN6PelMgr22updateAuxiliaryPelDataEt, __ZN6PelMgr23packRawMixtureComponentEPhRK12DgnPrimArrayIjES4_, 
                       __ZN6PelMgr23packRawMixtureComponentEPhjRK12DgnPrimArrayIjERKS1_IiEb, 
                       __ZN6PelMgr24computePackingParametersEv, __ZN6PelMgr24loadMixtureComponentTextEP5DFileP12DgnPrimArrayIhE, 
                       __ZN6PelMgr24loadMixtureShortListTextEP5DFile, __ZN6PelMgr26loadHierarchicalScorerTextEP5DFile, 
                       __ZN6PelMgr28packFloatRawMixtureComponentEPfRK12DgnPrimArrayIjES4_, 
                       __ZN6PelMgr28packFloatRawMixtureComponentEPfjRK12DgnPrimArrayIjERKS1_IiEb, 
                       __ZN6PelMgr29setAndPackRawMixtureComponentEPhRK12DgnPrimArrayIjES4_, 
                       __ZN6PelMgr29setAndPackRawMixtureComponentEPhjRK12DgnPrimArrayIjERKS1_IiEb, 
                       __ZN6PelMgr30setAndPackRawMixtureComponentsEP12DgnPrimArrayIhEPS0_IiE, 
                       __ZN6PelMgr31packMulTableRawMixtureComponentEPhRK12DgnPrimArrayIjES4_, 
                       __ZN6PelMgr31setRightAndDoubleGenericGenonesERK8BitArray, 
                       __ZN6PelMgr32packPackedIntRawMixtureComponentEPhRK12DgnPrimArrayIjES4_, 
                       __ZN6PelMgr32packPackedIntRawMixtureComponentEPhjRK12DgnPrimArrayIjERKS1_IiEb, 
                       __ZN6PelMgr32repairBasedOnUnneededPelsGenonesERK12DgnPrimArrayItEPS1_, 
                       __ZN6PelMgr34allocateAndSetDataQuantPerDimTableEv, 
                       __ZN6PelMgr34loadMixtureComponentBasisCoeffTextEP5DFileP12DgnPrimArrayIiE, 
                       __ZN6PelMgr34packQuantPerDimRawMixtureComponentEPhRK12DgnPrimArrayIjES4_, 
                       __ZN6PelMgr35allocateAndLoadQuantPerDimTableTextER17DgnTextFileParserjjPKcjjjjjjjP12DgnPrimArrayIhES6_, 
                       __ZN6PelMgr35loadMixtureComponentBasisMatrixTextEP5DFile, 
                       __ZN6PelMgr37initializeAdaptStatWithDefaultClassesEv, 
                       __ZN6PelMgrC1EPK8MulTablej, __ZN6PelMgrC2EPK8MulTablej, 
                       __ZN6PelMgrD1Ev, __ZN6PelMgrD2Ev, __ZN6PhnMgr10addGenericEv, 
                       __ZN6PhnMgr10addSilenceEv, __ZN6PhnMgr10copyPhnMgrEPKS_, 
                       __ZN6PhnMgr10copyPhnMgrERKS_, __ZN6PhnMgr10loadPhnMgrEP5DFileP14DFileChecksumsb, 
                       __ZN6PhnMgr11addPronlessEv, __ZN6PhnMgr14loadPhnMgrTextEP5DFile, 
                       __ZN6PhnMgr15addWordBoundaryEv, __ZN6PhnMgr31populateWithSpecialPhonemesOnlyEv, 
                       __ZN6PhnMgr8addPhoneEPKc, __ZN6PhnMgrC1Ev, __ZN6PhnMgrC2Ev, 
                       __ZN6PhnMgrD1Ev, __ZN6PhnMgrD2Ev, __ZN6PicMgr10copyPicMgrEPKS_P6PelMgr, 
                       __ZN6PicMgr10loadBinaryEP5DFileP14DFileChecksumsPb, 
                       __ZN6PicMgr10loadPicMgrEP5DFilePK6PelMgrP14DFileChecksumsPb, 
                       __ZN6PicMgr12buildLookupsEv, __ZN6PicMgr13computeIniPenEtj, 
                       __ZN6PicMgr19relabelBranchArraysEv, __ZN6PicMgr20findOrAddLookupModelEP8DgnArrayI7PicNodeERK9DgnIArrayIPKS1_E, 
                       __ZN6PicMgr20loadPicTreesFromTextEP5DFilePK6PelMgr, 
                       __ZN6PicMgr21loadQuestionsFromTextEP5DFile, __ZN6PicMgr21maybeComputeDurIniPenEjj, 
                       __ZN6PicMgr21repairPelMgrAndPicMgrEP6PelMgr, __ZN6PicMgr22computeEverInitialPelsEv, 
                       __ZN6PicMgr25loadAdaptPhonemesFromTextEP5DFile, 
                       __ZN6PicMgr25loadDurationDistributionsEP5DFilePb, 
                       __ZN6PicMgr26walkPicTreeAndRenameDurIdsERK12DgnPrimArrayItE, 
                       __ZN6PicMgr26walkPicTreeAndRenamePelIdsERK12DgnPrimArrayItE, 
                       __ZN6PicMgr26willLoadPicMgrInTextFormatEP5DFile, 
                       __ZN6PicMgr28getPelIdBitArrayFromPicNodesERK9DgnIArrayIPK7PicNodeER8BitArray, 
                       __ZN6PicMgr29setDurMeanScaledFrameDurationEtt, __ZN6PicMgr35repairUnneededDurationDistributionsEv, 
                       __ZN6PicMgrC1EPK6PhnMgr, __ZN6PicMgrC2EPK6PhnMgr, 
                       __ZN6ProMgr10recordFreeEm, __ZN6ProMgr11initProfileEb, 
                       __ZN6ProMgr11recordAllocEm, __ZN6ProMgr11stopProfileEv, 
                       __ZN6ProMgr12clearProfileEv, __ZN6ProMgr12printProfileEPKcS1_bbb23B_FunctionDemangleStyle14B_ProfileStyleS1_S1_S1_S1_, 
                       __ZN6ProMgr12startProfileEv, __ZN6ProMgr13isInitializedEv, 
                       __ZN6ProMgr14destroyProfileEv, __ZN6ProMgr15startupProfilerEv, 
                       __ZN6ProMgr16shutdownProfilerEv, __ZN6ProMgr17getColumnNamesBufE14B_ProfileStyle, 
                       __ZN6ProMgr21getColumnNamesBufSizeE14B_ProfileStyle, 
                       __ZN6ProMgr21printStandardProfilesEPKcS1_, __ZN6ProMgr33combineBinaryDirectoryAndFileNameEPKcS1_b, 
                       __ZN6ProMgr7isInUseEv, __ZN6TBlock12adjustResultEv, 
                       __ZN6TBlock13applyControlsERKNSt3__16vectorI11TItnControlNS0_9allocatorIS2_EEEEPK16TItnParamManagerPK20TLexiconParamManager, 
                       __ZN6TBlock6formatEPKwRK16TItnControlStatewmwPK16TItnParamManagerPK20TLexiconParamManagerR7TBufferIwE, 
                       __ZN6TBlock7setRuleEPK8TItnRule, __ZN6TBlockC1EPKwbPK8TItnRuleS1_PKNSt3__13setIPP19TPItnTagHandle_fakeNS5_4lessIS9_EENS5_9allocatorIS9_EEEE, 
                       __ZN6TBlockC2EPKwbPK8TItnRuleS1_PKNSt3__13setIPP19TPItnTagHandle_fakeNS5_4lessIS9_EENS5_9allocatorIS9_EEEE, 
                       __ZN6TGraph10deleteEdgeEP5TEdge, __ZN6TGraph12deleteVertexEP7TVertex, 
                       __ZN6TGraph13getNextVertexEPKc, __ZN6TGraph13getPrevVertexEPKc, 
                       __ZN6TGraph6setMapEP7TVertex, __ZN6TGraph7addEdgeEP7TVertexS1_RK9TEdgeData, 
                       __ZN6TGraph8minimizeEv, __ZN6TGraph9addVertexEPKc, 
                       __ZN6TGraph9getVertexEPKc, __ZN6TGraphC1EPKcR10TSegmenterb, 
                       __ZN6TGraphC2EPKcR10TSegmenterb, __ZN6TGraphD1Ev, 
                       __ZN6TGraphD2Ev, __ZN6TGroup10freeMemoryEv, __ZN6TGroupC1EPK11TFileObjectP7TRegExpmP8TLexiconR10TAllocatorm, 
                       __ZN6TGroupC2EPK11TFileObjectP7TRegExpmP8TLexiconR10TAllocatorm, 
                       __ZN6TGroupD1Ev, __ZN6TGroupD2Ev, __ZN6TLexerC1EPKwmPK13TLexerLexiconP10TAllocator, 
                       __ZN6TLexerC1ER12TInputStreammPK13TLexerLexiconP10TAllocator, 
                       __ZN6TLexerC2EPKwmPK13TLexerLexiconP10TAllocator, 
                       __ZN6TLexerC2ER12TInputStreammPK13TLexerLexiconP10TAllocator, 
                       __ZN6TParam12notifyChangeEm, __ZN6TParamC2ENS_5TTypeEPKw, 
                       __ZN6TParamC2ENS_5TTypeEPKwS2_mS2_S2_, __ZN6TParamD0Ev, 
                       __ZN6TParamD1Ev, __ZN6TParamD2Ev, __ZN6TState11deleteTransEP6TTrans10TDirection, 
                       __ZN6TState8addTransEP6TTrans10TDirection, __ZN6TState9findTransEPK6TTrans10TDirection, 
                       __ZN6VocMgr13startupVocMgrEPK12DgnIOwnArrayIP3VocE, 
                       __ZN6VocMgr14shutdownVocMgrEv, __ZN6VocMgr18endRuleCalculationEv, 
                       __ZN6VocMgr20beginRuleCalculationEv, __ZN6VocMgr30endRuleStateRecursiveOperationEv, 
                       __ZN6VocMgr32beginRuleStateRecursiveOperationEv, 
                       __ZN6VocMgr42maybeRecomputeRecursivePrefilteringAllowedEv, 
                       __ZN6VocMgr9smpVocMgrE, __ZN6VocMgrC1EPK12DgnIOwnArrayIP3VocE, 
                       __ZN6VocMgrC2EPK12DgnIOwnArrayIP3VocE, __ZN6VocMgrD1Ev, 
                       __ZN6VocMgrD2Ev, __ZN6Window15setWindowLengthE12B_WindowTypej, 
                       __ZN6WindowC1Ev, __ZN6WindowC2Ev, __ZN7CTFTMgr12loadCTFTTextEP5DFile, 
                       __ZN7CTFTMgr8loadCTFTEP5DFileP14DFileChecksumsb, 
                       __ZN7CTFTMgrC1Ej, __ZN7CTFTMgrC2Ej, __ZN7CTFTMgrD1Ev, 
                       __ZN7CTFTMgrD2Ev, __ZN7Channel11openChannelEjP12DgnPrimArrayIyEPS0_I15B_UtteranceTypeEP9DgnString, 
                       __ZN7Channel12closeChannelEv, __ZN7Channel12closeSigProcEv, 
                       __ZN7Channel13getSignalInfoEP10SignalInfo, __ZN7Channel14startUtteranceEPK9FrameData15B_UtteranceType, 
                       __ZN7Channel15resetAdaptablesEv, __ZN7Channel16addFeaturesToUttEv, 
                       __ZN7Channel16enableAdaptablesEv, __ZN7Channel16setTrackDCOffsetEb, 
                       __ZN7Channel17doEndOfUttSigProcEb, __ZN7Channel17errorIfCollectingEv, 
                       __ZN7Channel18processSourceFrameEP9FrameDatab, __ZN7Channel18reSignalProcessUttEP9UtteranceS1_, 
                       __ZN7Channel18setWarpChoiceIndexEi, __ZN7Channel18terminateUtteranceEb, 
                       __ZN7Channel19updateSigProcUttDetEv, __ZN7Channel20copyAdaptablesStatesEv, 
                       __ZN7Channel20setupSignalProcessorERK14AcousticFormatP12DgnPrimArrayIyEPS3_I15B_UtteranceTypeE, 
                       __ZN7Channel22updateSigProcChanStatsEv, __ZN7Channel26disableQueuingInAdaptablesEv, 
                       __ZN7Channel28loadAdaptablesStatesFromCopyEv, __ZN7Channel29maybeStopCollectingDataForUttEP9Utterance, 
                       __ZN7Channel30maybeStartCollectingDataForUttEP9Utterance, 
                       __ZN7Channel31processFrameAndAddFeatureFramesEP9FrameDatabbP9DgnIArrayIS1_E, 
                       __ZN7Channel31processQueuedFramesInAdaptablesEv, 
                       __ZN7ChannelC2Ej13B_ChannelType, __ZN7ChannelD0Ev, 
                       __ZN7ChannelD1Ev, __ZN7ChannelD2Ev, __ZN7CollMgr11loadCollMgrEP5DFileP14DFileChecksumsb, 
                       __ZN7CollMgr11saveCollMgrEP5DFileP14DFileChecksumsbb, 
                       __ZN7CollMgr16newUns8CollationEPKcRK8DgnArrayI18Uns8SpecialMapItemES6_S6_RK12DgnPrimArrayIhE, 
                       __ZN7CollMgr17newUns32CollationEPKcRK8DgnArrayI19Uns32SpecialMapItemES6_S6_RK16Uns32OneToOneMap, 
                       __ZN7CollMgr17saveCollMgrToTextEP5DFileb, __ZN7CollMgr19loadCollMgrFromTextEP5DFile, 
                       __ZN7CollMgr20newTwoLevelCollationEPKctt, __ZN7CollMgr21flushPendingCollationERK9DgnStringS2_P8DgnArrayI18Uns8SpecialMapItemES6_S6_P12DgnPrimArrayIhEPS3_I19Uns32SpecialMapItemESC_SC_P16Uns32OneToOneMap, 
                       __ZN7CollMgrC1EPK8CharInfo, __ZN7CollMgrC1ERKS_, 
                       __ZN7CollMgrC2EPK8CharInfo, __ZN7CollMgrC2ERKS_, 
                       __ZN7CollMgrD1Ev, __ZN7CollMgrD2Ev, __ZN7DgnLockD1Ev, 
                       __ZN7DgnLockD2Ev, __ZN7FmpeMgr13copyFmpeModelEPKS_, 
                       __ZN7FmpeMgr13loadFmpeModelEP5DFileP14DFileChecksumsP18DgnSharedMemStreamb, 
                       __ZN7FmpeMgr19loadFmpeModelSharedEP18DgnSharedMemStream, 
                       __ZN7FmpeMgr19saveFmpeModelSharedEP18DgnSharedMemStream, 
                       __ZN7FmpeMgr20loadProjectionMatrixEP5DFile, __ZN7FmpeMgr21reloadFmpeModelSharedEP18DgnSharedMemStream, 
                       __ZN7FmpeMgr26computeScoreProbabilityMapEv, __ZN7FmpeMgrC1EPK8MulTablej, 
                       __ZN7FmpeMgrC2EPK8MulTablej, __ZN7FmpeMgrD1Ev, __ZN7FmpeMgrD2Ev, 
                       __ZN7FstCore10seedTheoryEiij, __ZN7FstCore13setConstraintEP10Constraint, 
                       __ZN7FstCore14makeRecognizerERK14FstCoreOptionstPK4UserjPK8ArcGraph, 
                       __ZN7FstCore15doFrameEmbeddedEib, __ZN7FstCore15generateDecoderE30B_FstCoreLatticeGenerationTypebbbbii, 
                       __ZN7FstCore15setRecogEndTimeEi, __ZN7FstCore16getBestExitScoreEv, 
                       __ZN7FstCore16getNActiveStatesEv, __ZN7FstCore16getPelScoreCacheEv, 
                       __ZN7FstCore17makeFstActiveWordERK6CWIDACP6ActiveRK14FstCoreOptionstPK4UsertP9PelScorerijj, 
                       __ZN7FstCore18endTopRecSyncRecogEv, __ZN7FstCore19maybeRescoreLatticeEP11WordLattice, 
                       __ZN7FstCore20beginTopRecSyncRecogEjP7VirtMap, __ZN7FstCore21makeRecognizerResultsEbb, 
                       __ZN7FstCore21maybeAddGrammarStatesEP11WordLatticePS1_, 
                       __ZN7FstCore22endTopRecPassSyncRecogEv, __ZN7FstCore22setEmbeddedTransducersEPK8DgnArrayI18WordTransducerSpecE, 
                       __ZN7FstCore24beginTopRecPassSyncRecogEjiP9PelScorer, 
                       __ZN7FstCore27estimateActivePelsThisFrameEP8BitArray, 
                       __ZN7FstCore30endTopRecPassSyncRecogEmbeddedEv, 
                       __ZN7FstCore30getBestScoreMaybeUpdateFstNodeEP4Node, 
                       __ZN7FstCore32beginTopRecPassSyncRecogEmbeddedEjiP9PelScoreri, 
                       __ZN7FstCore7doFrameERK12DgnPrimArrayIhE, __ZN7FstCoreC1ERK14FstCoreOptionstPK4UserjPK8ArcGraph, 
                       __ZN7FstCoreC2ERK14FstCoreOptionstPK4UserjPK8ArcGraph, 
                       __ZN7FstCoreD1Ev, __ZN7FstCoreD2Ev, __ZN7HScorer11endPelFrameEiP8PelStats, 
                       __ZN7HScorer13beginPelFrameEibPK12DgnPrimArrayIhEP8PelStatsb, 
                       __ZN7HScorer15endPelSyncRecogEv, __ZN7HScorer16computeHierarchyEPK12DgnPrimArrayIhEPy, 
                       __ZN7HScorer17beginPelSyncRecogEjPK11AdaptConfigPK7CTFTMgrbbbd, 
                       __ZN7HScorer34computeScoreForActivePelsThisFrameERK8BitArray, 
                       __ZN7HScorerC1EPK6PelMgrPK15GenoneClassTreePK11VarClassMgrPK7FmpeMgrPK9NeuralNetPK6ImeldabdbdRK12DgnPrimArrayIjESL_j, 
                       __ZN7HScorerC2EPK6PelMgrPK15GenoneClassTreePK11VarClassMgrPK7FmpeMgrPK9NeuralNetPK6ImeldabdbdRK12DgnPrimArrayIjESL_j, 
                       __ZN7HScorerD0Ev, __ZN7HScorerD1Ev, __ZN7HScorerD2Ev, 
                       __ZN7HistoryC1ERK12HistContentsj, __ZN7HistoryC2ERK12HistContentsj, 
                       __ZN7Itakura10distortionEP12DgnPrimArrayIdES2_, 
                       __ZN7Itakura5setupEjdjd, __ZN7ItakuraC1Ev, __ZN7ItakuraC2Ev, 
                       __ZN7LMStats10resetStatsEv, __ZN7LMStatsC1ERKS_, 
                       __ZN7LMStatsC2ERKS_, __ZN7LMStatsaSERKS_, __ZN7LMStatsmIERKS_, 
                       __ZN7MiniFst11updateFrameEPiii, __ZN7MiniFst20beginTopFstSyncRecogEv, 
                       __ZN7MiniFst4initEPK8ArcGraphP13PelScoreCache, __ZN7MiniFst4seedEiiii, 
                       __ZN7NodeNet12attachInPortEhP4Node, __ZN7NodeNet14addEpsilonNodeEv, 
                       __ZN7NodeNet14fillTraceNodesEjjPK3Pici12B_ScoreOrder, 
                       __ZN7NodeNet14unpackSequenceEPK3PiciPP4NodeS5_12B_ScoreOrder, 
                       __ZN7NodeNet15fillEpsilonNodeEP11NodeNetNodeS1_, 
                       __ZN7NodeNet16addNodesIndirectEj, __ZN7NodeNet16scoreNetInternalEiiiii, 
                       __ZN7NodeNet16seedEpsilonNodesEi, __ZN7NodeNet16unpackEndSilenceEv, 
                       __ZN7NodeNet17configureOutPortsEi, __ZN7NodeNet18calcNumActiveNodesEi, 
                       __ZN7NodeNet18unpackEpsilonNodesEjj, __ZN7NodeNet20preallocEndSequencesEtj, 
                       __ZN7NodeNet20thresholdNetInternalEii, __ZN7NodeNet21unpackOneFromPicNodesEPK7PicNodejRK3PicPP4NodeS8_12B_ScoreOrder, 
                       __ZN7NodeNet6addArcEPK4NodePS0_, __ZN7NodeNet7newNodeEb, 
                       __ZN7NodeNet9scoreNodeEP11NodeNetNodePK8BaseNodeiiiiPbiiPjP6HmmNet, 
                       __ZN7NodeNet9unpackOneERK3PicPP4NodeS5_12B_ScoreOrder, 
                       __ZN7NodeNetD0Ev, __ZN7NodeNetD1Ev, __ZN7NodeNetD2Ev, 
                       __ZN7PRStats19recordPartialResultERK12DgnPrimArrayIjEyRK8SnapTime, 
                       __ZN7PRStatsC1Ev, __ZN7PRStatsC2Ev, __ZN7RuleMgr10deleteRuleEt, 
                       __ZN7RuleMgr11addBuiltRefEtj, __ZN7RuleMgr11loadRuleMgrEP5DFileP14DFileChecksumsbPbt, 
                       __ZN7RuleMgr12setLMAllowedEtb, __ZN7RuleMgr13verifyNewDescERK8DgnArrayI8RuleDescE, 
                       __ZN7RuleMgr14addWordToStateEjj, __ZN7RuleMgr14endCalculationEv, 
                       __ZN7RuleMgr14newStateInRuleEttj, __ZN7RuleMgr14removeBuiltRefEtj, 
                       __ZN7RuleMgr14updateRefCountERK8DgnArrayIS0_I10ParseTokenEEbb, 
                       __ZN7RuleMgr15fixAlteredStateEtj, __ZN7RuleMgr15setCoartAllowedEtb, 
                       __ZN7RuleMgr16addIncludingRuleEttj, __ZN7RuleMgr16beginCalculationEv, 
                       __ZN7RuleMgr16invalidateStatesEt, __ZN7RuleMgr16killStatesOfRuleEtj, 
                       __ZN7RuleMgr16makeStatesOfRuleEtRK8DgnArrayI8RuleDescEtjbR17MakeStatesContextj, 
                       __ZN7RuleMgr17endUsingTempMarksEv, __ZN7RuleMgr18alteredStateInRuleEj, 
                       __ZN7RuleMgr19beginUsingTempMarksEv, __ZN7RuleMgr19invalidateAllStatesEv, 
                       __ZN7RuleMgr19makeStatesOfSubRuleEttR17MakeStatesContextj, 
                       __ZN7RuleMgr19removeIncludingRuleEttj, __ZN7RuleMgr21calculateStatesOfRuleEtRK8DgnArrayI8RuleDescEjbb, 
                       __ZN7RuleMgr21endRecursiveOperationEv, __ZN7RuleMgr21makeStatesOfEmptyRuleEtR17MakeStatesContextj, 
                       __ZN7RuleMgr22addIncludingLatticeRefEt, __ZN7RuleMgr22calculateNewStateInVocEv, 
                       __ZN7RuleMgr22hasBuiltIncludingRulesERK12DgnPrimArrayItEtRK8DgnArrayI4RuleEj, 
                       __ZN7RuleMgr22makeStatesOfRepeatRuleEtRK8DgnArrayI8RuleDescEtjR17MakeStatesContextj, 
                       __ZN7RuleMgr22preAllocToEnsureRuleIdEt, __ZN7RuleMgr22setNewStateForRuleDescEj8RuleDesc, 
                       __ZN7RuleMgr22setPrefilteringAllowedEtb, __ZN7RuleMgr23beginRecursiveOperationEv, 
                       __ZN7RuleMgr23calculateAsSeparateRuleEtb, __ZN7RuleMgr24calculateStatesOfSubRuleEttbb, 
                       __ZN7RuleMgr24makeStatesOfOptionalRuleEtRK8DgnArrayI8RuleDescEtjR17MakeStatesContextj, 
                       __ZN7RuleMgr24makeStatesOfSequenceItemEtRK8DgnArrayI8RuleDescEtjR17MakeStatesContextj, 
                       __ZN7RuleMgr24makeStatesOfSequenceRuleEtRK8DgnArrayI8RuleDescEtjR17MakeStatesContextj, 
                       __ZN7RuleMgr25addIncludingTransducerRefEt, __ZN7RuleMgr25computeRuleIdNameChecksumEv, 
                       __ZN7RuleMgr25removeIncludingLatticeRefEt, __ZN7RuleMgr26buildRuleAndGetStartStatesEtP12DgnPrimArrayIjEP8DgnArrayIS3_I10ParseTokenEE, 
                       __ZN7RuleMgr26calculateStatesOfEmptyRuleEb, __ZN7RuleMgr26emptyAllRuleDescsNoRebuildEv, 
                       __ZN7RuleMgr26makeStatesOfAlternatesRuleEtRK8DgnArrayI8RuleDescEtjR17MakeStatesContextj, 
                       __ZN7RuleMgr27calculateStatesOfRepeatRuleEtRK8DgnArrayI8RuleDescEjbb, 
                       __ZN7RuleMgr27makeStatesOfAlternativeItemEtRK8DgnArrayI8RuleDescEtjR17MakeStatesContextR12DgnPrimArrayIjEj, 
                       __ZN7RuleMgr28removeIncludingTransducerRefEt, __ZN7RuleMgr29calculateStatesOfOptionalRuleEtRK8DgnArrayI8RuleDescEjbb, 
                       __ZN7RuleMgr29calculateStatesOfSequenceRuleEtRK8DgnArrayI8RuleDescEjbb, 
                       __ZN7RuleMgr30calculateNumStatesForRuleBuildEtb, 
                       __ZN7RuleMgr31calculateStatesOfAlternatesRuleEtRK8DgnArrayI8RuleDescEjbb, 
                       __ZN7RuleMgr32addIncludingTransducerGrammarRefEt, 
                       __ZN7RuleMgr32calculateStatesOfGeneralRuleDescEtRK8DgnArrayI8RuleDescEjbbb, 
                       __ZN7RuleMgr32verifyRuleNotRecursivelyIncludedEtt, 
                       __ZN7RuleMgr35removeIncludingTransducerGrammarRefEt, 
                       __ZN7RuleMgr7newRuleEj, __ZN7RuleMgr7newRuleEjt, 
                       __ZN7RuleMgr7setDescEtRK8DgnArrayI8RuleDescE, __ZN7RuleMgr7setNameEtPKc, 
                       __ZN7RuleMgr8makeRuleEtj, __ZN7RuleMgr9getHandleEjPKc, 
                       __ZN7RuleMgrC1EP3Voc, __ZN7RuleMgrC2EP3Voc, __ZN7RuleMgrD1Ev, 
                       __ZN7RuleMgrD2Ev, __ZN7Sausage10allocSlotsEjd, __ZN7Sausage16splitNonAcousticEv, 
                       __ZN7Sausage16updateReferencesEv, __ZN7Sausage21adjustReferenceCountsEb, 
                       __ZN7Sausage25newSausageFromWordLatticeEPK11WordLatticeP15SausageParamSet, 
                       __ZN7Sausage5finitEyjjj, __ZN7Sausage5mergeEPS_dd, 
                       __ZN7Sausage7addSlotEP11SausageSlot, __ZN7SausageC1ERKS_, 
                       __ZN7SausageC1Ev, __ZN7SausageC2ERKS_, __ZN7SausageC2Ev, 
                       __ZN7SausageD1Ev, __ZN7SausageD2Ev, __ZN7SigProc11loadSigProcEP5DFile, 
                       __ZN7SigProc11openChannelEj, __ZN7SigProc11saveSigProcERK8FileSpecP16B_SaveResultCode24B_SaveOverrideFormatTypeb, 
                       __ZN7SigProc12closeChannelEj, __ZN7SigProc18setWarpChoiceIndexEi, 
                       __ZN7SigProc19addFileHistoryEntryEPKc, __ZN7SigProc21decrementAdapterCountEv, 
                       __ZN7SigProc21incrementAdapterCountEv, __ZN7SigProc34addFileHistoryEntryWithElapsedTimeEPKcRK8SnapTime, 
                       __ZN7SigProcC1Ej, __ZN7SigProcC2Ej, __ZN7SigProcD1Ev, 
                       __ZN7SigProcD2Ev, __ZN7SimCell15compareElementsEPvPKvS2_, 
                       __ZN7SyncNet12attachInPortEhP4Node, __ZN7SyncNet14addEpsilonNodeEv, 
                       __ZN7SyncNet15maybeDoCallbackEi, __ZN7SyncNet16scoreNetInternalEiiiii, 
                       __ZN7SyncNet17configureOutPortsEi, __ZN7SyncNet18addNodesSequentialEj12B_ScoreOrder, 
                       __ZN7SyncNet18calcNumActiveNodesEi, __ZN7SyncNet20preallocEndSequencesEtj, 
                       __ZN7SyncNet20thresholdNetInternalEii, __ZN7SyncNet6addArcEPK4NodePS0_, 
                       __ZN7SyncNetD0Ev, __ZN7SyncNetD1Ev, __ZN7SyncNetD2Ev, 
                       __ZN7TParser17addOpenProductionEP11TProduction, 
                       __ZN7TParser17getAllProductionsEP14TTerminalMaker, 
                       __ZN7TParser19addClosedProductionEP11TProduction, 
                       __ZN7TParser19startNewProductionsEPK11TProduction, 
                       __ZN7TParser7getCellEPK7TSymbolm, __ZN7TParserC1EPK8TGrammarP10TDataMaker, 
                       __ZN7TParserC2EPK8TGrammarP10TDataMaker, __ZN7TParserD1Ev, 
                       __ZN7TParserD2Ev, __ZN7TRegExp10doneAddingEv, __ZN7TRegExp14stringToRegExpEPKwR7TBufferIwE11TRegExpCase13TRegExpAnchor, 
                       __ZN7TRegExp3addEPKwm, __ZN7TRegExpC1EPKwRK11TLocaleInfo, 
                       __ZN7TRegExpC1ERK11TLocaleInfo, __ZN7TRegExpC2EPKwRK11TLocaleInfo, 
                       __ZN7TRegExpC2ERK11TLocaleInfo, __ZN7TRegExpD1Ev, 
                       __ZN7TRegExpD2Ev, __ZN7TResult7setTextEPKcRKNSt3__16vectorImNS2_9allocatorImEEEE, 
                       __ZN7TResultC1EPK6TBlockS2_mRKNSt3__16vectorI12TItnWordDataNS3_9allocatorIS5_EEEEPK8TLexiconRK16TItnControlStatebb, 
                       __ZN7TResultC1EPKS_S1_, __ZN7TResultC1EPKS_mm, __ZN7TResultC1EPKcRKNSt3__16vectorIPKwNS2_9allocatorIS5_EEEERKNS3_ImNS6_ImEEEEPK8TLexiconbb, 
                       __ZN7TResultC1EPKcmP8TLexicon, __ZN7TResultC2EPK6TBlockS2_mRKNSt3__16vectorI12TItnWordDataNS3_9allocatorIS5_EEEEPK8TLexiconRK16TItnControlStatebb, 
                       __ZN7TResultC2EPKS_S1_, __ZN7TResultC2EPKS_mm, __ZN7TResultC2EPKcRKNSt3__16vectorIPKwNS2_9allocatorIS5_EEEERKNS3_ImNS6_ImEEEEPK8TLexiconbb, 
                       __ZN7TResultC2EPKcmP8TLexicon, __ZN7TResultD1Ev, 
                       __ZN7TResultD2Ev, __ZN7TSymbolC1EPKwmm, __ZN7TSymbolC2EPKwmm, 
                       __ZN7TVertex10getOutEdgeEv, __ZN7TVertex9getInEdgeEv, 
                       __ZN7TVertexC1EmPKcS1_, __ZN7TVertexC2EmPKcS1_, 
                       __ZN7UserMgr10smpUserMgrE, __ZN7UserMgr14startupUserMgrEPK12DgnIOwnArrayIP4UserE, 
                       __ZN7UserMgr15shutdownUserMgrEv, __ZN7UserMgrC1EPK12DgnIOwnArrayIP4UserE, 
                       __ZN7UserMgrC2EPK12DgnIOwnArrayIP4UserE, __ZN7UserMgrD1Ev, 
                       __ZN7UserMgrD2Ev, __ZN7UttFile12writeNistWavEP9Utterance, 
                       __ZN7UttFile8writeUtbEP9Utterance, __ZN7UttFile8writeUttEP9Utterance, 
                       __ZN7UttFileC1E13B_UttFileTypePKcbb, __ZN7UttFileC2E13B_UttFileTypePKcbb, 
                       __ZN7UttFileD1Ev, __ZN7UttFileD2Ev, __ZN7VirtMap8setEmptyEv, 
                       __ZN7VirtMapC1Ev, __ZN7VirtMapC2Ev, __ZN7VirtMapD1Ev, 
                       __ZN7VirtMapD2Ev, __ZN7WordFST11determinizeER25WordFSTForDeterminizationPK8WordListbbP12DgnPrimArrayIiEb, 
                       __ZN7WordFST14findLostStatesEv, __ZN7WordFST14removeEpsilonsEPK8WordListb, 
                       __ZN7WordFST15createMinimizedERKS_RK22CongruenceClassManager, 
                       __ZN7WordFST17dropWorstSubStateER8DgnArrayI30WordFSTStateWithResidualWeightEi, 
                       __ZN7WordFST21fixInitAndFinalStatesEv, __ZN7WordFST8minimizeERKS_PK12DgnPrimArrayIiE, 
                       __ZN7WordFSTC1Ev, __ZN7WordFSTC2Ev, __ZN8ApiState11smpApiStateE, 
                       __ZN8ApiState12errorReentryEPKc, __ZN8ApiState12smLogHandlerE, 
                       __ZN8ApiState13errorReexitedEv, __ZN8ApiState13smLogUserDataE, 
                       __ZN8ApiState13staticSendLogEPKc, __ZN8ApiState14smErrorHandlerE, 
                       __ZN8ApiState15sendMemoryErrorEPKciS1_iS1_, __ZN8ApiState15smErrorUserDataE, 
                       __ZN8ApiState15startupApiStateEPKc, __ZN8ApiState15startupHandlersEPFvPKcyEyS3_yS3_y, 
                       __ZN8ApiState15staticSendErrorEPKcjb16B_ErrorThrowTypeS1_iS1_iS1_, 
                       __ZN8ApiState16setAccumCallbackEPFiyEy, __ZN8ApiState16setAdaptDataFileEPKc, 
                       __ZN8ApiState16setApplyCallbackEPFiyEy, __ZN8ApiState16shutdownApiStateEbb, 
                       __ZN8ApiState16shutdownHandlersEPyS0_S0_, __ZN8ApiState17callAccumCallbackEv, 
                       __ZN8ApiState17callApplyCallbackEv, __ZN8ApiState17errorRDApiNotInitEPKc, 
                       __ZN8ApiState18errorBadHeapOnExitEv, __ZN8ApiState18handleDgnExceptionEP12DgnException, 
                       __ZN8ApiState18resetCallHistogramEv, __ZN8ApiState19allowAccumCallbacksEv, 
                       __ZN8ApiState19allowApplyCallbacksEv, __ZN8ApiState19deleteAdaptDataFileEv, 
                       __ZN8ApiState19errorBadHeapOnEntryEPKc, __ZN8ApiState20displayCallHistogramEPKc, 
                       __ZN8ApiState20errorCallDuringRecogEPKc, __ZN8ApiState20printSdapiCallExitedEv, 
                       __ZN8ApiState20smMemoryErrorHandlerE, __ZN8ApiState21smMemoryErrorUserDataE, 
                       __ZN8ApiState21staticSendMemoryErrorE16B_ErrorThrowTypePKciS2_iS2_, 
                       __ZN8ApiState22disallowAccumCallbacksEv, __ZN8ApiState22disallowApplyCallbacksEv, 
                       __ZN8ApiState23getLastResultCodeStringEv, __ZN8ApiState23progressCallbackWrapperEjPKv, 
                       __ZN8ApiState23setLastResultCodeStringEPKc, __ZN8ApiState24handleDgnMemoryExceptionEP18DgnMemoryException, 
                       __ZN8ApiState25cleanUpAfterSaveExceptionEP18DgnFileIOExceptionP9DgnString, 
                       __ZN8ApiState26shutdownApiStateAfterErrorEv, __ZN8ApiState27callReallocateArrayCallbackEPFvyjjPvjPS0_PjEyjjS0_jS1_S2_, 
                       __ZN8ApiState37extChanForwardServerEventSinkCallbackE24B_ExtChanServerEventTypejPv, 
                       __ZN8ApiState39extChanForwardClientEventSourceCallbackEP22ExtChanClientFrameDataPv, 
                       __ZN8ApiState4initEPKc, __ZN8ApiState5closeEbb, 
                       __ZN8ApiState7sendLogEPKc, __ZN8ApiState9sendErrorEPKcjb16B_ErrorThrowTypeS1_iS1_iS1_, 
                       __ZN8ApiStateC1Ev, __ZN8ApiStateC2Ev, __ZN8ApiStateD1Ev, 
                       __ZN8ApiStateD2Ev, __ZN8ArcGraph12loadArcGraphEP5DFileP15DgnSharedMemSetj, 
                       __ZN8ArcGraph12sMagicStringE, __ZN8ArcGraph12saveArcGraphERK8FileSpecP16B_SaveResultCode24B_SaveOverrideFormatTypebP23ProgressCallbackHandler, 
                       __ZN8ArcGraph14sFormatVersionE, __ZN8ArcGraph15convertFromTextERK8DgnArrayI21ArcGraphStateFromTextE, 
                       __ZN8ArcGraph15loadArcGraphCVXERK8FileSpecP18DgnSharedMemStream, 
                       __ZN8ArcGraph15setFromCompilerERK14ArcGraphHeaderjijR12DgnPrimArrayIiEi, 
                       __ZN8ArcGraph16loadArcGraphTextEP5DFile, __ZN8ArcGraph17upgradeFormat6to7Ev, 
                       __ZN8ArcGraph17upgradeFormat8To9Ev, __ZN8ArcGraph18loadArcGraphBinaryEP5DFileP14DFileChecksumsP18DgnSharedMemStream, 
                       __ZN8ArcGraph18saveArcGraphBinaryEP5DFileP14DFileChecksumsbP18DgnSharedMemStream, 
                       __ZN8ArcGraph18saveArcGraphSharedER15DgnSharedMemSetjRK8FileSpec, 
                       __ZN8ArcGraph19convertArcsFromTextERK8DgnArrayI21ArcGraphStateFromTextEjRK12DgnPrimArrayIjEb, 
                       __ZN8ArcGraph19doConnectivityCheckEv, __ZN8ArcGraph26loadArcGraphFromTextARPABOERK8FileSpec, 
                       __ZN8ArcGraphC1Ettt, __ZN8ArcGraphC2Ettt, __ZN8ArcGraphD1Ev, 
                       __ZN8ArcGraphD2Ev, __ZN8BestData17newOrTiedBestNodeEiPK4NodeP6HmmNet, 
                       __ZN8BestData4copyERKS_, __ZN8BestData5clearEv, 
                       __ZN8BestDataC1ERKS_, __ZN8BestDataC1Ev, __ZN8BestDataC2ERKS_, 
                       __ZN8BestDataC2Ev, __ZN8BestDataD1Ev, __ZN8BestDataD2Ev, 
                       __ZN8BestDataaSERKS_, __ZN8BitArray10clearRangeEjj, 
                       __ZN8BitArray10inplaceAndERKS_, __ZN8BitArray10releaseAllEv, 
                       __ZN8BitArray11preAllocateEj, __ZN8BitArray11reallocEltsEjb, 
                       __ZN8BitArray13setSizeNoGrowEj, __ZN8BitArray14setBitsInRangeERKS_jj, 
                       __ZN8BitArray15inplaceSubtractERKS_, __ZN8BitArray17inplaceOrSameSizeERKS_, 
                       __ZN8BitArray18inplaceAndSameSizeERKS_, __ZN8BitArray18preAllocateAddSizeEj, 
                       __ZN8BitArray4copyERKS_j, __ZN8BitArray6invertEv, 
                       __ZN8BitArray7addSizeEj, __ZN8BitArray7compactEv, 
                       __ZN8BitArray7setSizeEj, __ZN8BitArray8addArrayERKS_, 
                       __ZN8BitArray8setRangeEjj, __ZN8BitArray9inplaceOrERKS_b, 
                       __ZN8BitArrayC1ERKS_, __ZN8BitArrayC1Ej, __ZN8BitArrayC1Ev, 
                       __ZN8BitArrayC2ERKS_, __ZN8BitArrayC2Ej, __ZN8BitArrayC2Ev, 
                       __ZN8BitArrayD1Ev, __ZN8BitArrayD2Ev, __ZN8BitArrayaSERKS_, 
                       __ZN8CharInfo12loadCharInfoEP5DFileP14DFileChecksumsb, 
                       __ZN8CharInfo16decodeCharStringEPKhP12DgnPrimArrayIjE, 
                       __ZN8CharInfo20loadCharInfoFromTextEP5DFile, __ZN8CharInfo21errorBadEncodedStringEhjjPKc, 
                       __ZN8CharInfo25validateEncodedCharStringEPKh, __ZN8CharInfo41getLogicalCharLengthsForEncodedCharStringEPKhP12DgnPrimArrayIhE, 
                       __ZN8CharInfoC1ERKS_, __ZN8CharInfoC1Ev, __ZN8CharInfoC2ERKS_, 
                       __ZN8CharInfoC2Ev, __ZN8CharInfoD1Ev, __ZN8CharInfoD2Ev, 
                       __ZN8DgnEvent4waitEv, __ZN8DgnEvent6signalEv, __ZN8DgnEvent9timedWaitEj, 
                       __ZN8DgnEventC1Ev, __ZN8DgnEventC2Ev, __ZN8DgnEventD1Ev, 
                       __ZN8DgnEventD2Ev, __ZN8DgnLockXD1Ev, __ZN8DgnLockXD2Ev, 
                       __ZN8DiffUser12diffWithUserEPK4UserP7SigProcPK17UserDeltaParamSet, 
                       __ZN8DiffUser15canDiffWithUserEPK4UserPK7SigProcb, 
                       __ZN8DiffUser24applySigProcModelOffsetsEP7SigProc, 
                       __ZN8DiffUser25initializeComponentDeltasEPK4User, 
                       __ZN8DiffUser27canApplySigProcModelOffsetsEPK7SigProcb, 
                       __ZN8DiffUserC1EP4User, __ZN8DiffUserC2EP4User, 
                       __ZN8DiffUserD1Ev, __ZN8DiffUserD2Ev, __ZN8DurAccum10accumulateEtj, 
                       __ZN8DurAccum10scaleAccumEd, __ZN8DurAccum23addRelevanceAndCopyBackEP6PicMgrP15AdapterParamSet, 
                       __ZN8DurAccum8addAccumERKS_, __ZN8DurAccum9initAccumEP4Userj, 
                       __ZN8DurAccum9loadAccumEP5DFile, __ZN8EmptyNet12attachInPortEhP4Node, 
                       __ZN8EmptyNet16scoreNetInternalEiiiii, __ZN8EmptyNet17configureOutPortsEi, 
                       __ZN8EmptyNet17getExitContextPtrEv, __ZN8EmptyNet18calcNumActiveNodesEi, 
                       __ZN8EmptyNet19unpackEmptySequenceEPP4NodeS2_, __ZN8EmptyNet20thresholdNetInternalEii, 
                       __ZN8EmptyNetD0Ev, __ZN8EmptyNetD1Ev, __ZN8EmptyNetD2Ev, 
                       __ZN8FileSpec10isAbsoluteEPKc, __ZN8FileSpec10isRelativeEPKc, 
                       __ZN8FileSpec12fillFromNameEPKc, __ZN8FileSpec17containsPathCharsEPKc, 
                       __ZN8FileSpec19fillFromPathAndNameEPKcS1_, __ZN8FileSpec22fillFromDefPathAndNameEPKcS1_, 
                       __ZN8FileSpec23getDiagnosticMaskedNameEPKcP9DgnString, 
                       __ZN8FileSpec25getRelativeSourceFileNameEPKcP9DgnString, 
                       __ZN8FileSpec7isValidEPKc, __ZN8FileSpec8setEmptyEv, 
                       __ZN8FileSpecC1EPKc, __ZN8FileSpecC1ERKS_, __ZN8FileSpecC1Ev, 
                       __ZN8FileSpecC2EPKc, __ZN8FileSpecC2ERKS_, __ZN8FileSpecC2Ev, 
                       __ZN8FileSpecD1Ev, __ZN8FileSpecD2Ev, __ZN8FileSpecaSERKS_, 
                       __ZN8FstStats10resetStatsEv, __ZN8FstStatsC1ERKS_, 
                       __ZN8FstStatsC2ERKS_, __ZN8FstStatsaSERKS_, __ZN8FstStatsmIERKS_, 
                       __ZN8HashBaseC2EPKc, __ZN8HashBaseD0Ev, __ZN8HashBaseD1Ev, 
                       __ZN8HashBaseD2Ev, __ZN8MSausage25newSausageFromWordLatticeEPK11WordLatticeP15SausageParamSet, 
                       __ZN8MemChunk12initMemChunkEmmPS_P14MemChunkRegion, 
                       __ZN8ModelMgr10createWordEtPKcjS1_, __ZN8ModelMgr10freeCorpusEt, 
                       __ZN8ModelMgr10loadCorpusEP5DFile, __ZN8ModelMgr11smpModelMgrE, 
                       __ZN8ModelMgr12createCorpusEtRK8FileSpec, __ZN8ModelMgr12freeArcGraphEt, 
                       __ZN8ModelMgr12loadArcGraphEP5DFilettP15DgnSharedMemSetP23ProgressCallbackHandler, 
                       __ZN8ModelMgr13freeReproDataEj, __ZN8ModelMgr13loadReproDataEP5DFilett, 
                       __ZN8ModelMgr13newTransducerEtt, __ZN8ModelMgr14checkChecksumsEP12VocGroupInfoPK14DFileChecksumsbt, 
                       __ZN8ModelMgr14createArcGraphEtt, __ZN8ModelMgr14newPrefiltererEttjjj, 
                       __ZN8ModelMgr15freePrefiltererEt, __ZN8ModelMgr15loadArcGraphCVXEPKcttP15DgnSharedMemSet, 
                       __ZN8ModelMgr15setEmbRecSpecIdEtjt, __ZN8ModelMgr15startupModelMgrEv, 
                       __ZN8ModelMgr16shutdownModelMgrEv, __ZN8ModelMgr17setClientPronDataEtjRK9DgnString, 
                       __ZN8ModelMgr18getEmbeddedRecSpecEt, __ZN8ModelMgr18rebuildPrefiltererEtttj, 
                       __ZN8ModelMgr18setEmbeddedRecSpecEtjP15EmbeddedRecSpec, 
                       __ZN8ModelMgr18setWordClientPronsEtjRK8DgnArrayI12DgnPrimArrayItEERKS1_IhES8_, 
                       __ZN8ModelMgr19copyWordListFromVocEttRK12DgnPrimArrayIjEPS2_PK8DgnArrayI9DgnStringEPS1_PKc, 
                       __ZN8ModelMgr19transferClientPronsEtjtjjj, __ZN8ModelMgr20clearScorerHierarchyEt, 
                       __ZN8ModelMgr21createScorerHierarchyEtRK12DgnPrimArrayIjEjj, 
                       __ZN8ModelMgr21deleteWordClientPronsEtj, __ZN8ModelMgr21freeTransducerGrammarEt, 
                       __ZN8ModelMgr21loadTransducerGrammarEP5DFiletP23ProgressCallbackHandler, 
                       __ZN8ModelMgr21notifyStateWordsAddedEtjRK12DgnPrimArrayIjE, 
                       __ZN8ModelMgr21notifyWordFamilyAddedEtjRK12DgnPrimArrayIjE, 
                       __ZN8ModelMgr23notifyStateWordsRemovedEtjRK12DgnPrimArrayIjE, 
                       __ZN8ModelMgr23notifyWordFamilyDeletedEtjRK12DgnPrimArrayIjE, 
                       __ZN8ModelMgr24notifyVocUnigramsChangedEt, __ZN8ModelMgr26loadArcGraphFromTextARPABOEPKctt, 
                       __ZN8ModelMgr27rebuildAllStalePrefilterersEv, __ZN8ModelMgr28deleteWordFamilyFromWordListEtRK12DgnPrimArrayIjE, 
                       __ZN8ModelMgr28loadTransducerGrammarFromFSMEtPKcd, 
                       __ZN8ModelMgr28newWordListFromWordListPronsEtRK12DgnPrimArrayIjERK9DgnIArrayIPKcEPS1_, 
                       __ZN8ModelMgr28notifyWordFamilyChangedPronsEtjRK12DgnPrimArrayIjES3_, 
                       __ZN8ModelMgr29addClientPronsAvoidDuplicatesEtjP12DgnPrimArrayIjES2_RK8DgnArrayIS0_ItEERKS0_IhESA_jPKcS2_, 
                       __ZN8ModelMgr30setWordFamilyAllPronsAsFactoryEtjR8DgnArrayI12DgnPrimArrayItEERS1_IhES6_, 
                       __ZN8ModelMgr35generateTransducerGrammarFromWordLMEt12DgnPrimArrayItEjsS0_IjEb, 
                       __ZN8ModelMgr35setWordClientPronsFromWordSequencesEtjRK8DgnArrayI12DgnPrimArrayIjEEj, 
                       __ZN8ModelMgr42generateTransducerGrammarFromRulesOrStatesEtRK12DgnPrimArrayItERKS0_IjE, 
                       __ZN8ModelMgr44setWordFamilyPronsFromWordSequencesAsFactoryEtjRK8DgnArrayI12DgnPrimArrayIjEEj, 
                       __ZN8ModelMgr7freeVocEt, __ZN8ModelMgr7loadVocEP5DFileS1_P15DgnSharedMemSetxbbP23ProgressCallbackHandler, 
                       __ZN8ModelMgr7saveVocEtRK8FileSpecS2_P16B_SaveResultCode24B_SaveOverrideFormatTypebP23ProgressCallbackHandler30B_LMSBigramTrigramGroupingType25B_LMSQuadgramGroupingType, 
                       __ZN8ModelMgr8copyUserEt, __ZN8ModelMgr8freeUserEt, 
                       __ZN8ModelMgr8loadUserEP5DFileP15DgnSharedMemSetP23ProgressCallbackHandler, 
                       __ZN8ModelMgrC1Ev, __ZN8ModelMgrC2Ev, __ZN8ModelMgrD1Ev, 
                       __ZN8ModelMgrD2Ev, __ZN8MrecTime21setToCurrentLocalTimeEv, 
                       __ZN8MrecTime23appendLocalTimeToStringEP9DgnString, 
                       __ZN8MrecTime23unpackLittleEndMrecTimeEPKjj, __ZN8MrecTime33setToPreprocessorStyleDateAndTimeEPKcS1_, 
                       __ZN8MrecTime8zeroTimeEv, __ZN8MrecTimeC1ERKS_, 
                       __ZN8MrecTimeC1Ev, __ZN8MrecTimeC2ERKS_, __ZN8MrecTimeC2Ev, 
                       __ZN8MrecTimeaSERKS_, __ZN8MulTable12copyMulTableEPKS_, 
                       __ZN8MulTable12loadMulTableEP5DFileP14DFileChecksumsb, 
                       __ZN8MulTable16loadMulTableTextEP5DFile, __ZN8MulTableC1Ev, 
                       __ZN8MulTableC2Ev, __ZN8MulTableD1Ev, __ZN8MulTableD2Ev, 
                       __ZN8NetStats10resetStatsEv, __ZN8NetStatsC1ERKS_, 
                       __ZN8NetStatsC2ERKS_, __ZN8NetStatsaSERKS_, __ZN8NetStatsmIERKS_, 
                       __ZN8NodeData11computeHashEPKS_, __ZN8NodeDataC1EP4NodeRK6CWIDACRK3Picts, 
                       __ZN8NodeDataC2EP4NodeRK6CWIDACRK3Picts, __ZN8NodeICmp15compareElementsEPvPKvS2_, 
                       __ZN8PelStats10resetStatsEv, __ZN8PelStatsC1ERKS_, 
                       __ZN8PelStatsC2ERKS_, __ZN8PelStatsaSERKS_, __ZN8PelStatsmIERKS_, 
                       __ZN8PelStatspLERKS_, __ZN8ReproMgr12saveReproVocEb, 
                       __ZN8ReproMgr16validateReproDirEv, __ZN8ReproMgr17maybeSaveReproUttEv, 
                       __ZN8ReproMgr18saveReproParamSetsEP11PrefiltererP15AdaptControllerPK18ConfidenceParamSetPK20LatticeNBestParamSetPK25PrefiltererSearchParamSetPK17PronGuessParamSetRK9DgnIArrayIP14SearchParamSetEPK24SearchCrossLayerParamSet, 
                       __ZN8ReproMgr19saveReproResultDataERK9DgnIArrayIP11WordLatticeE, 
                       __ZN8ReproMgr22saveReproParsAndModelsEP11PrefiltererPK15PrefilterResultPK9DgnIArrayIPK11WordLatticeEP15AdaptControllerPK18ConfidenceParamSetPK20LatticeNBestParamSetPK25PrefiltererSearchParamSetPK17PronGuessParamSetRKS5_IP14SearchParamSetEPK24SearchCrossLayerParamSetb, 
                       __ZN8ReproMgrC1EPKc11B_ReproType, __ZN8ReproMgrC2EPKc11B_ReproType, 
                       __ZN8ReproMgrD1Ev, __ZN8ReproMgrD2Ev, __ZN8RuleDesc10readObjectEP9DgnStreamRj, 
                       __ZN8Sequence11scoreNoSkipEPK8BaseNodebiiiP6NetMgriiPjS5_, 
                       __ZN8Sequence12scoreOneSkipEPK8BaseNodebiiiP6NetMgriiPjS5_, 
                       __ZN8Sequence12thresholdSeqEi, __ZN8Sequence14scoreMultiSkipEPK8BaseNodebiiiP6NetMgriiPjS5_, 
                       __ZN8Sequence16scoreNoSkipNBestEPK8BaseNodebiiiP6NetMgriiPjS5_, 
                       __ZN8Sequence17scoreOneSkipNBestEPK8BaseNodebiiiP6NetMgriiPjS5_, 
                       __ZN8Sequence18calcNumActiveNodesEi, __ZN8Sequence18scoreNoSkipDeadSeqEPK8BaseNodebiiiP6NetMgriiPjS5_, 
                       __ZN8Sequence19scoreMultiSkipNBestEPK8BaseNodebiiiP6NetMgriiPjS5_, 
                       __ZN8Sequence19scoreOneSkipDeadSeqEPK8BaseNodebiiiP6NetMgriiPjS5_, 
                       __ZN8Sequence21scoreMultiSkipDeadSeqEPK8BaseNodebiiiP6NetMgriiPjS5_, 
                       __ZN8Sequence23scoreNoSkipDeadSeqNBestEPK8BaseNodebiiiP6NetMgriiPjS5_, 
                       __ZN8Sequence24scoreOneSkipDeadSeqNBestEPK8BaseNodebiiiP6NetMgriiPjS5_, 
                       __ZN8Sequence26scoreMultiSkipDeadSeqNBestEPK8BaseNodebiiiP6NetMgriiPjS5_, 
                       __ZN8Sequence9badifySeqEv, __ZN8SimTable10setCurrentEi, 
                       __ZN8SimTable3popEP7LNCMPID, __ZN8SimTable4doneEv, 
                       __ZN8SimTable4moveERK7LNCMPIDS2_, __ZN8SimTable4nextEv, 
                       __ZN8SimTable4sortEv, __ZN8SimTable4stopEv, __ZN8SimTable5firstEv, 
                       __ZN8SimTable5startEv, __ZN8SimTable6addRowEjR8BitArray, 
                       __ZN8SimTable6removeERK7LNCMPID, __ZN8SimTable7currentEP7LNCMPID, 
                       __ZN8SimTable8setScoreERK7LNCMPIDi, __ZN8SimTableC1Ev, 
                       __ZN8SimTableC2Ev, __ZN8SimTableD1Ev, __ZN8SimTableD2Ev, 
                       __ZN8SortLink15compareElementsEPvPKvS2_, __ZN8SpUttDet12addToWindowsEs, 
                       __ZN8SpUttDet12processFrameEP9FrameDataP9DgnIArrayIS1_Ebb, 
                       __ZN8SpUttDet12resetWindowsEv, __ZN8SpUttDet13setBackgroundEsb, 
                       __ZN8SpUttDet15processOneFrameEP9FrameDataP9DgnIArrayIS1_Ebb, 
                       __ZN8SpUttDet16adjustThresholdsEv, __ZN8SpUttDet17minTrackAddSampleEd, 
                       __ZN8SpUttDet18failSafeInitializeEd, __ZN8SpUttDet19processUtteranceEndEP9FrameDataP9DgnIArrayIS1_E, 
                       __ZN8SpUttDet20setStartStopCriteriaEjjjj, __ZN8SpUttDet21processUtteranceBeginEP9FrameDataP9DgnIArrayIS1_Eb, 
                       __ZN8SpUttDet21setThresholdFractionsEiiii, __ZN8SpUttDet22initializeSignalLevelsEs, 
                       __ZN8SpUttDet22processUtteranceMiddleEP9FrameDataP9DgnIArrayIS1_Eb, 
                       __ZN8SpUttDet22setAdaptationExponentsEii, __ZN8SpUttDet27initializeFromWindowMinimumEPs, 
                       __ZN8SpUttDet27processUtteranceNotInSpeechEP9FrameDataP9DgnIArrayIS1_Eb, 
                       __ZN8SpUttDet28processExternalUttBoundariesEP9FrameDataP9DgnIArrayIS1_Eb, 
                       __ZN8SpUttDet28processInternalUttBoundariesEP9FrameDataP9DgnIArrayIS1_Ebb, 
                       __ZN8SpUttDet34verifyExternalUttDurationsFinishedEv, 
                       __ZN8SpUttDet5resetEv, __ZN8SpUttDet9addEnergyEsi, 
                       __ZN8SpUttDet9setSpeechEsb, __ZN8SpUttDetC1EPK15ChannelParamSetjP12DgnPrimArrayIyEPS3_I15B_UtteranceTypeEtt, 
                       __ZN8SpUttDetC2EPK15ChannelParamSetjP12DgnPrimArrayIyEPS3_I15B_UtteranceTypeEtt, 
                       __ZN8SpUttDetD1Ev, __ZN8SpUttDetD2Ev, __ZN8SpecWarp10initializeEjj, 
                       __ZN8SpecWarp18setWarpChoiceIndexEi, __ZN8SpecWarp9warpMagsqEPd, 
                       __ZN8SpecWarpC1EPK13ChanStatsSpec, __ZN8SpecWarpC2EPK13ChanStatsSpec, 
                       __ZN8SpecWarpD1Ev, __ZN8SpecWarpD2Ev, __ZN8StateMgr10setWeightsEjjb, 
                       __ZN8StateMgr11getBitWordsEj, __ZN8StateMgr12addChildRuleEjt, 
                       __ZN8StateMgr12compactStateEj, __ZN8StateMgr12loadStateMgrEP5DFileP14DFileChecksumsbt, 
                       __ZN8StateMgr12setLMAllowedEjbb, __ZN8StateMgr14addWordIdArrayEjPK12DgnPrimArrayIjEb, 
                       __ZN8StateMgr14saveFsmGrammarER12DgnPrimArrayIjEPKc, 
                       __ZN8StateMgr14setCollapsibleEjb, __ZN8StateMgr14setSkipAllowedEjbb, 
                       __ZN8StateMgr14setWordPenaltyEjib, __ZN8StateMgr14updateRefCountERK12DgnPrimArrayIjEbb, 
                       __ZN8StateMgr15isWordIdInStateEjjb, __ZN8StateMgr15removeChildRuleEjt, 
                       __ZN8StateMgr15setCoartAllowedEjbb, __ZN8StateMgr16setLeftWBAllowedEjbb, 
                       __ZN8StateMgr17deleteWordIdArrayEjPK12DgnPrimArrayIjEb, 
                       __ZN8StateMgr17doneEnsureStateIdEv, __ZN8StateMgr17getTimeConstraintEjPjS0_S0_S0_, 
                       __ZN8StateMgr17killStateInternalEjbb, __ZN8StateMgr17setRightWBAllowedEjbb, 
                       __ZN8StateMgr17setTimeConstraintEjjjjj, __ZN8StateMgr17setWordAliasStateEjjb, 
                       __ZN8StateMgr18addStateTransitionEjRK12DgnPrimArrayIjEbPK8DgnArrayI10ParseTokenEPKS4_IS6_E, 
                       __ZN8StateMgr18includeStateInRuleEjt, __ZN8StateMgr18notifyPronsChangedEPK12DgnPrimArrayIjE, 
                       __ZN8StateMgr18setStateTransitionEjRK12DgnPrimArrayIjEbPK8DgnArrayI10ParseTokenEPKS4_IS6_E, 
                       __ZN8StateMgr19addAliasingStateRefEjj, __ZN8StateMgr20deleteWordIdNoPhonesEjjb, 
                       __ZN8StateMgr20unincludeStateInRuleEjt, __ZN8StateMgr21addPrimitiveBegPhonesEjj, 
                       __ZN8StateMgr21endRecursiveOperationEv, __ZN8StateMgr21makeSpecialEouStateIdEv, 
                       __ZN8StateMgr22addIncludingLatticeRefEj, __ZN8StateMgr22addWordIdArrayNoPhonesEjPK12DgnPrimArrayIjEb, 
                       __ZN8StateMgr22removeAliasingStateRefEjj, __ZN8StateMgr22setPrefilteringAllowedEjbb, 
                       __ZN8StateMgr23beginRecursiveOperationEv, __ZN8StateMgr23cacheAllWordInStateInfoEv, 
                       __ZN8StateMgr23preAllocToEnsureStateIdEj, __ZN8StateMgr23setEmptyStateTransitionEjb, 
                       __ZN8StateMgr24addTransitioningStateRefEjj, __ZN8StateMgr24addWordIdsToStatesWithIdEPK12DgnPrimArrayIjEj, 
