--- !tapi-tbd-v3
archs:                 [ armv7, armv7s, arm64, arm64e ]
platform:              ios
flags:                 [ flat_namespace ]
install-name:          /System/Library/MediaCapture/H13ISP.mediacapture
current-version:       1
compatibility-version: 1
objc-constraint:       retain_release
exports:
  - archs:                [ armv7, armv7s, arm64, arm64e ]
    symbols:              [ _ApplePhotonDetectorServicesGetGlobalCorrectionFactor,
                            _ApplePhotonDetectorServicesGetLux,
                            _DERAccessDescriptionItemSpecs,
                            _DERAlgorithmIdItemSpecs,
                            _DERAttributeTypeAndValueItemSpecs,
                            _DERAuthorityKeyIdentifierItemSpecs,
                            _DERBasicConstraintsItemSpecs, _DERDecodeItem,
                            _DERDecodeItemPartialBuffer,
                            _DERDecodeItemPartialBufferGetLength,
                            _DERDecodeSeqContentInit, _DERDecodeSeqInit,
                            _DERDecodeSeqNext,
                            _DERDecodeSequenceContentWithBlock,
                            _DERDecodeSequenceWithBlock,
                            _DERDistributionPointItemSpecs,
                            _DERExtensionItemSpecs, _DERGeneralSubtreeItemSpecs,
                            _DERImg4CompressionItemSpecs, _DERImg4Decode,
                            _DERImg4DecodeContentFindItemWithTag,
                            _DERImg4DecodeFindInSequence,
                            _DERImg4DecodeFindProperty,
                            _DERImg4DecodeFindPropertyInSequence,
                            _DERImg4DecodeManifest,
                            _DERImg4DecodeParseManifestProperties,
                            _DERImg4DecodePayload,
                            _DERImg4DecodePayloadCompression,
                            _DERImg4DecodePayloadProperties,
                            _DERImg4DecodePayloadWithProperties,
                            _DERImg4DecodeProperty,
                            _DERImg4DecodePropertyWithItem,
                            _DERImg4DecodeRestoreInfo, _DERImg4DecodeTagCompare,
                            _DERImg4DecodeUnsignedManifest, _DERImg4ItemSpecs,
                            _DERImg4ManifestItemSpecs, _DERImg4PayloadItemSpecs,
                            _DERImg4PayloadPropertiesItemSpecs,
                            _DERImg4PayloadWithPropertiesItemSpecs,
                            _DERImg4RestoreInfoItemSpecs,
                            _DERImg4UnsignedManifestItemSpecs,
                            _DERNameConstraintsItemSpecs,
                            _DERNoticeReferenceItemSpecs,
                            _DERNumAccessDescriptionItemSpecs,
                            _DERNumAlgorithmIdItemSpecs,
                            _DERNumAttributeTypeAndValueItemSpecs,
                            _DERNumAuthorityKeyIdentifierItemSpecs,
                            _DERNumBasicConstraintsItemSpecs,
                            _DERNumDistributionPointItemSpecs,
                            _DERNumExtensionItemSpecs,
                            _DERNumGeneralSubtreeItemSpecs,
                            _DERNumImg4CompressionItemSpecs,
                            _DERNumImg4ItemSpecs, _DERNumImg4ManifestItemSpecs,
                            _DERNumImg4PayloadItemSpecs,
                            _DERNumImg4PayloadPropertiesItemSpecs,
                            _DERNumImg4PayloadWithPropertiesItemSpecs,
                            _DERNumImg4RestoreInfoItemSpecs,
                            _DERNumImg4UnsignedManifestItemSpecs,
                            _DERNumNameConstraintsItemSpecs,
                            _DERNumNoticeReferenceItemSpecs,
                            _DERNumOtherNameItemSpecs,
                            _DERNumPolicyConstraintsItemSpecs,
                            _DERNumPolicyInformationItemSpecs,
                            _DERNumPolicyMappingItemSpecs,
                            _DERNumPolicyQualifierInfoItemSpecs,
                            _DERNumPrivateKeyUsagePeriodItemSpecs,
                            _DERNumRSAKeyPairItemSpecs,
                            _DERNumRSAPrivKeyCRTItemSpecs,
                            _DERNumRSAPubKeyAppleItemSpecs,
                            _DERNumRSAPubKeyPKCS1ItemSpecs,
                            _DERNumRevokedCertItemSpecs,
                            _DERNumSignedCertCrlItemSpecs,
                            _DERNumSubjPubKeyInfoItemSpecs,
                            _DERNumTBSCertItemSpecs, _DERNumTBSCrlItemSpecs,
                            _DERNumUserNoticeItemSpecs, _DERNumValidityItemSpecs,
                            _DEROidCompare, _DEROtherNameItemSpecs,
                            _DERParseBitString, _DERParseBoolean,
                            _DERParseBooleanWithDefault, _DERParseInteger,
                            _DERParseInteger64, _DERParseSequence,
                            _DERParseSequenceContent,
                            _DERParseSequenceContentToObject,
                            _DERParseSequenceToObject,
                            _DERPolicyConstraintsItemSpecs,
                            _DERPolicyInformationItemSpecs,
                            _DERPolicyMappingItemSpecs,
                            _DERPolicyQualifierInfoItemSpecs,
                            _DERPrivateKeyUsagePeriodItemSpecs,
                            _DERRSAKeyPairItemSpecs, _DERRSAPrivKeyCRTItemSpecs,
                            _DERRSAPubKeyAppleItemSpecs,
                            _DERRSAPubKeyPKCS1ItemSpecs,
                            _DERRevokedCertItemSpecs, _DERSignedCertCrlItemSpecs,
                            _DERSubjPubKeyInfoItemSpecs, _DERTBSCertItemSpecs,
                            _DERTBSCrlItemSpecs, _DERUserNoticeItemSpecs,
                            _DERValidityItemSpecs,
                            _EC384_SHA384_LP_ROOT_CA_CERTIFICATE,
                            _EC384_SHA384_LP_ROOT_CA_CERTIFICATE_SIZE,
                            _GMC_Verbose, _H13ISPCaptureDeviceCreate,
                            _Img4DecodeComputeDigest,
                            _Img4DecodeCopyManifestDigest,
                            _Img4DecodeCopyManifestHash,
                            _Img4DecodeCopyManifestHashWithCallback,
                            _Img4DecodeCopyManifestTrustedBootPolicyMeasurement,
                            _Img4DecodeCopyPayloadDigest,
                            _Img4DecodeCopyPayloadHash,
                            _Img4DecodeCopyPayloadHashWithCallback,
                            _Img4DecodeCopyPayloadPropertiesDigest,
                            _Img4DecodeDigestFinal, _Img4DecodeDigestInit,
                            _Img4DecodeDigestReturnHash, _Img4DecodeDigestUpdate,
                            _Img4DecodeEvaluateCertificateProperties,
                            _Img4DecodeEvaluateDictionaryProperties,
                            _Img4DecodeEvaluateManifestProperties,
                            _Img4DecodeEvaluateObjectProperties,
                            _Img4DecodeEvaluateTrust,
                            _Img4DecodeEvaluateTrustWithCallbacks,
                            _Img4DecodeGetBooleanFromSection,
                            _Img4DecodeGetDataFromSection,
                            _Img4DecodeGetInteger64FromSection,
                            _Img4DecodeGetIntegerFromSection,
                            _Img4DecodeGetManifest, _Img4DecodeGetObjectProperty,
                            _Img4DecodeGetObjectPropertyBoolean,
                            _Img4DecodeGetObjectPropertyData,
                            _Img4DecodeGetObjectPropertyInteger,
                            _Img4DecodeGetObjectPropertyInteger64,
                            _Img4DecodeGetObjectPropertyString,
                            _Img4DecodeGetPayload,
                            _Img4DecodeGetPayloadCompressionInfo,
                            _Img4DecodeGetPayloadKeybag,
                            _Img4DecodeGetPayloadProperties,
                            _Img4DecodeGetPayloadPropertiesBoolean,
                            _Img4DecodeGetPayloadPropertiesData,
                            _Img4DecodeGetPayloadPropertiesInteger,
                            _Img4DecodeGetPayloadPropertiesInteger64,
                            _Img4DecodeGetPayloadType,
                            _Img4DecodeGetPayloadVersion,
                            _Img4DecodeGetPayloadVersionPropertyString,
                            _Img4DecodeGetPropertyBoolean,
                            _Img4DecodeGetPropertyData,
                            _Img4DecodeGetPropertyFromSection,
                            _Img4DecodeGetPropertyInteger,
                            _Img4DecodeGetPropertyInteger64,
                            _Img4DecodeGetRestoreInfoBoolean,
                            _Img4DecodeGetRestoreInfoData,
                            _Img4DecodeGetRestoreInfoInteger,
                            _Img4DecodeGetRestoreInfoInteger64, _Img4DecodeInit,
                            _Img4DecodeInitManifest, _Img4DecodeInitPayload,
                            _Img4DecodeInitUnsignedManifest,
                            _Img4DecodeManifestExists,
                            _Img4DecodeParseLengthFromBuffer,
                            _Img4DecodeParseLengthFromBufferWithTag,
                            _Img4DecodePayloadCompressionInfoExists,
                            _Img4DecodePayloadExists,
                            _Img4DecodePayloadKeybagExists,
                            _Img4DecodePayloadPropertiesExists,
                            _Img4DecodePayloadPropertiesFindItemWithTag,
                            _Img4DecodePayloadProperty,
                            _Img4DecodePayloadPropertyExistsByTag,
                            _Img4DecodePerformManifestTrustEvaluationWithCallbacks,
                            _Img4DecodePerformTrustEvaluatation,
                            _Img4DecodePerformTrustEvaluatationWithCallbacks,
                            _Img4DecodePerformTrustEvaluation,
                            _Img4DecodePerformTrustEvaluationWithCallbacks,
                            _Img4DecodeRestoreInfoExists,
                            _Img4DecodeSectionExists,
                            _LOCAL_EC256_SHA256_ROOT_CA_CERTIFICATE,
                            _LOCAL_EC256_SHA256_ROOT_CA_CERTIFICATE_SIZE,
                            _LOCAL_EC384_SHA384_ROOT_CA_CERTIFICATE,
                            _LOCAL_EC384_SHA384_ROOT_CA_CERTIFICATE_SIZE,
                            _LOCAL_RSA4K_SHA384_LP_ROOT_CA_CERTIFICATE,
                            _LOCAL_RSA4K_SHA384_LP_ROOT_CA_CERTIFICATE_SIZE,
                            _QA_EC384_SHA384_ROOT_CA_CERTIFICATE,
                            _QA_EC384_SHA384_ROOT_CA_CERTIFICATE_SIZE,
                            _ROOT_CA_CERTIFICATE, _ROOT_CA_CERTIFICATE_SIZE,
                            _RSA3K_SHA384_ROOT_CA_CERTIFICATE,
                            _RSA3K_SHA384_ROOT_CA_CERTIFICATE_SIZE,
                            _RSA4K_SHA384_DDI_FAKE_GLOBAL_ROOT_CA_CERTIFICATE,
                            _RSA4K_SHA384_DDI_FAKE_GLOBAL_ROOT_CA_CERTIFICATE_SIZE,
                            _RSA4K_SHA384_DDI_FAKE_ROOT_CA_CERTIFICATE,
                            _RSA4K_SHA384_DDI_FAKE_ROOT_CA_CERTIFICATE_SIZE,
                            _RSA4K_SHA384_DDI_GLOBAL_ROOT_CA_CERTIFICATE,
                            _RSA4K_SHA384_DDI_GLOBAL_ROOT_CA_CERTIFICATE_SIZE,
                            _RSA4K_SHA384_DDI_ROOT_CA_CERTIFICATE,
                            _RSA4K_SHA384_DDI_ROOT_CA_CERTIFICATE_SIZE,
                            _RSA4K_SHA384_LP_ROOT_CA_CERTIFICATE,
                            _RSA4K_SHA384_LP_ROOT_CA_CERTIFICATE_SIZE,
                            _RSA4K_SHA384_ROOT_CA_CERTIFICATE,
                            _RSA4K_SHA384_ROOT_CA_CERTIFICATE_AWG1,
                            _RSA4K_SHA384_ROOT_CA_CERTIFICATE_AWG1_SIZE,
                            _RSA4K_SHA384_ROOT_CA_CERTIFICATE_SIZE,
                            _RSA4K_SHA384_X86_ROOT_CA_CERTIFICATE,
                            _RSA4K_SHA384_X86_ROOT_CA_CERTIFICATE_SIZE,
                            _SCRAMBLING_OFFSET,
                            _SupportedOutputFormatsGPVISInput,
                            _SupportedOutputFormatsGPVISOutputIntermediateTap,
                            _SupportedOutputFormatsGPVISOutputPrimaryScaler,
                            _SupportedOutputFormatsIRSensor,
                            _SupportedOutputFormatsIntermediateTap,
                            _SupportedOutputFormatsJasperSensor,
                            _SupportedOutputFormatsPointCloud,
                            _SupportedOutputFormatsPrimaryScaler,
                            _SupportedOutputFormatsRaw,
                            _SupportedOutputFormatsSecondaryScaler,
                            _SupportedOutputFormatsStillImage,
                            _SupportedOutputFormatsStillImageIntermediateTap,
                            _SupportedOutputFormatsStillImageQuadra,
                            _SupportedOutputFormatsStillImageRaw,
                            _SupportedOutputFormatsVisPipe,
                            __Z10SaveToFileRKNSt3__112basic_stringIcNS_11char_traitsIcEENS_9allocatorIcEEEEPKvm,
                            __Z10meanFilterPfm,
                            __Z10vDSPImgfirIdEvPKT_iiS2_PS0_ii,
                            __Z10vDSPImgfirIfEvPKT_iiS2_PS0_ii,
                            __Z11GetFileSizeRKNSt3__112basic_stringIcNS_11char_traitsIcEENS_9allocatorIcEEEE,
                            __Z11fun_cpes_thffff,
                            __Z11fun_get_fftPfS_S_iiS_PP14OpaqueFFTSetupP15DSPSplitComplex,
                            __Z11fun_get_luxP27grimaldi_calibration_data_tffffffi,
                            __Z11fun_get_maxPfiS_Pi, __Z11fun_vec_mpyPfS_S_i,
                            __Z12GMCAlgorithmR11MatrixNxPtsILj3EdES1_S1_R11_GMC_ParamsR9MatrixMxNILj3ELj3EdEP12_GMC_ResultsP18GMCInnerStatistics,
                            __Z12LSCFlipAppleP27sCIspCmdAppleChLSCConfigure,
                            __Z12averageGreenPtS_tt, __Z12fun_dc_ratioiPfififS_f,
                            __Z12fun_mpy_testff, __Z12medianFilterPfi,
                            __Z12waveMatchingPfmfS_S_h,
                            __Z13GMC_UndistortR11MatrixNxPtsILj2EdES1_RK11_GMC_ParamsPS_ILj3EdES6_,
                            __Z13GetNamedValueP9__CFArrayi,
                            __Z13InitCamParamsN8MathLibs10_CamParamsIfEE,
                            __Z13InitCubicPolyddddP10_CubicPoly,
                            __Z13bidiagonalSVDlPdS_S_S_S_, __Z13fun_equal_maxfff,
                            __Z13fun_val_ratioffff,
                            __Z13jasperDetectCPfS_ffffibPhP13sDSIDepthHintb,
                            __Z13resizeRawPoolP19H13ISPCaptureDeviceP19H13ISPCaptureStreamb,
                            __Z14CICComputeGainPtS_PKdPK7_LsInfoj,
                            __Z14ComputeIdealLsPK7_LsInfoPdh,
                            __Z14GMC_ControllerR11MatrixNxPtsILj2EdES1_RS_ILj1EdES2_R11_GMC_ParamsbP12_GMC_ResultsP18GMCInnerStatistics,
                            __Z14GMC_HomographyR11MatrixNxPtsILj3EdES1_RK11_GMC_Params,
                            __Z14LSCComputeGainPtS_PKdS1_PK7_LsInfojh,
                            __Z14vDSPMtransposeIdEvPKT_iPS0_iii,
                            __Z14vDSPMtransposeIfEvPKT_iPS0_iii,
                            __Z15ALS2RotateAppleP24sCIspCmdChAls2ProfileSet,
                            __Z15analyze_flickerPfifS_S_S_PP14OpaqueFFTSetup,
                            __Z15fun_get_percentfffPf,
                            __Z15normalizeCoordsRK11MatrixNxPtsILj3EdERK9MatrixMxNILj3ELj3EdE,
                            __Z15quickSort_floatPfPii,
                            __Z16AppendNamedValueP9__CFArrayPK14__CFDictionary,
                            __Z16ClearNamedValuesP9__CFArray,
                            __Z16CountNamedValuesP9__CFArray,
                            __Z16CreateDirForFileRKNSt3__112basic_stringIcNS_11char_traitsIcEENS_9allocatorIcEEEE,
                            __Z16CreateNamedValuePKcS0_P9__CFArray,
                            __Z16LSCFlipPerModuleP7uNvmLSCPh,
                            __Z16ReleaseCamParamsN8MathLibs10_CamParamsIfEE,
                            __Z16fun_median_floatPfi,
                            __Z16getGainAndOffsetP27grimaldi_calibration_data_tiPfS1_S1_S1_,
                            __Z16reportIsfResults9IsfStatusRKN3Isf18IsfInnerStatisticsENS0_12ResultOriginE12SelectedModeddRK26sCIspCmdChPearlCalibrationR38H13ISPAnalyticsIsfHistoricalThresholds,
                            __Z17CICInterpolateNvmPdPKtPK7_LsInfoPK10_NvmLsInfo,
                            __Z17CreateNamedValuesv,
                            __Z17GMC_AmbiguityTestR11MatrixNxPtsILj3EdES1_R9MatrixMxNILj3ELj3EdERK11_GMC_ParamsdPbPd,
                            __Z17GMC_ToleranceTestRK9MatrixMxNILj3ELj3EdER11_GMC_Params,
                            __Z17GMC_ToleranceTestRK9MatrixMxNILj3ELj3EdER11_GMC_ParamsRS_ILj1ELj3EdE,
                            __Z17LSCInterpolateNvmPdPKhPK7_LsInfoPK10_NvmLsInfoh,
                            __Z17ReleaseNamedValuePK14__CFDictionary,
                            __Z17fun_get_histogramPfiiPiS_,
                            __Z17fun_get_tight_idxPfii,
                            __Z17fun_non_equal_maxfff,
                            __Z17linearInterpolatePK6_CoordS1_d,
                            __Z17runGmcOnGmsBufferPKyiRK26sCIspCmdChPearlCalibrationRK14PCEShiftParamsRK14PCEDepthConfigPdP18GMCInnerStatistics15ePearlHWVersion,
                            __Z17runGmcOnGmsPointsPKyibRK26sCIspCmdChPearlCalibrationRK14PCEDepthConfigRK14PCEShiftParamsdPdP18GMCInnerStatistics15ePearlHWVersion,
                            __Z18GMC_Normalise2DPtsR11MatrixNxPtsILj3EdEPS0_P9MatrixMxNILj3ELj3EdE,
                            __Z18PBCreateDirForFileRNSt3__112basic_stringIcNS_11char_traitsIcEENS_9allocatorIcEEEE,
                            __Z18ReleaseNamedValuesP9__CFArray,
                            __Z19GMC_EssentialMatrixRK9MatrixMxNILj3ELj3EdERK11_GMC_ParamsPS0_,
                            __Z19GMC_SingularityTestRK9MatrixMxNILj1ELj9EdEd,
                            __Z19GMC_WorldFromPoints11MatrixNxPtsILj3EdES0_RK9MatrixMxNILj3ELj3EdES4_S4_RKS1_ILj1ELj3EdEb,
                            __Z19bilinearInterpolatePK13_BIDataPointsPK18_BIDataPointsCoorddd,
                            __Z19calcProjectionDistsR11MatrixNxPtsILj3EdES1_R11_GMC_ParamsP21ProjectionDistResults,
                            __Z20AppendMotionMetadataP25MotionMetadataDebugLoggerPN6H13ISP19H13ISPFrameMetadataEy,
                            __Z20GMC_BundleAdjustmentRK11MatrixNxPtsILj3EdES2_RS0_RK9MatrixMxNILj3ELj3EdERKS4_ILj1ELj3EdERK11_GMC_ParamsPS5_PdPiSG_,
                            __Z20GMC_FaceCoverageTestRK11MatrixNxPtsILj3EdERK11_GMC_ParamsS_ILj1EdEPS_ILj1EbEPjPd,
                            __Z20LSCAverageGreenAppleP27sCIspCmdAppleChLSCConfigure,
                            __Z20SaveToFileWithPrefixRKNSt3__112basic_stringIcNS_11char_traitsIcEENS_9allocatorIcEEEEPKvm,
                            __Z20fun_vector_mpy_floatPfS_S_i,
                            __Z21AttachIntrinsicMatrixP10__CVBufferPK14__CFDictionaryiiP26H13ISPCharacterizationData,
                            __Z21LogCaptureDeviceEvent23eCaptureDeviceEventTypeP19H13ISPCaptureDeviceP19H13ISPCaptureStreamP18H13ISPCaptureGroupPK10__CFStringPKvb,
                            __Z21calcEpipolarDistancesR11MatrixNxPtsILj3EdES1_R9MatrixMxNILj3ELj3EdEPS_ILj1EdE,
                            __Z22CICComputeFromNVMAppleP50sCIspCmdAppleChChannelImbalanceCorrectionConfigurePKhttPfS3_,
                            __Z22GMC_ExtractTestSamplesRK11MatrixNxPtsILj3EdES2_jbRKS_ILj1EbEPS0_S6_S6_S6_PS3_,
                            __Z22LSCComputeFromNVMAppleP27sCIspCmdAppleChLSCConfigurePKhtthhPfS3_,
                            __Z22flicker_detection_initP17flicker_control_tiiiiffPh,
                            __Z22fun_get_hannign_windowiPf,
                            __Z22fun_get_spectrum_valuefPfiiS_,
                            __Z22fun_signal_correlationiPfifiS_,
                            __Z22fun_signal_noise_ratioiPfififS_,
                            __Z22fun_vector_dotpr_floatPfS_i,
                            __Z22reportStereoGmcResultsRK18GMCInnerStatisticsRK26sCIspCmdChPearlCalibrationy,
                            __Z22rotationMatrixToAngles9MatrixMxNILj3ELj3EdE,
                            __Z23GMC_RansacFitFundMatrixR11MatrixNxPtsILj3EdES1_R11_GMC_ParamsbRS_ILj1EbEP9MatrixMxNILj3ELj3EdEPS_ILj1EjEPjPbPd,
                            __Z23GMC_SpatialCoverageTestRK11MatrixNxPtsILj3EdER11_GMC_ParamsPd,
                            __Z23analyze_flicker_HawkingPfifS_S_S_PP14OpaqueFFTSetup,
                            __Z23flicker_data_processingP17flicker_control_tPP14OpaqueFFTSetupPfS4_fP16flicker_output_t,
                            __Z23fun_get_data_pulse_diffPfS_ii,
                            __Z23fun_get_interpolate_maxiPfii,
                            __Z23fun_signal_correlation2iPfifiS_,
                            __Z24GMC_ConstrainWorldPointsR11MatrixNxPtsILj3EdES1_RK11_GMC_ParamsP9MatrixMxNILj3ELj3EdEPS_ILj1EjEPjPS0_SB_S7_SB_,
                            __Z24InitNonuniformCatmullRomdddddddP10_CubicPoly,
                            __Z24LSCComputeSNFRadialGainsP31sCIspCmdAppleChSNFRadialGainSetPK27sCIspCmdAppleChLSCConfigure13H13ISPVersion,
                            __Z25MyH13ISPFrameReceivedProcPvyjjPN6H13ISP36H13ISPFrameReceiverImageBufferStructE,
                            __Z25fun_get_calibration_paramPhS_P27grimaldi_calibration_data_t,
                            __Z25reportProjectorGmcResultsRK26sCIspCmdChPearlCalibrationRK18GMCInnerStatisticsiS1_RK22H13ISPAnalyticsGMCInfo,
                            __Z26H13ISPDisplayStrobeDisposeP26H13ISPDisplayStrobeContext,
                            __Z26H13ISPDisplayStrobePrepareb,
                            __Z26cubicInterpolateNonuniformPdS_d,
                            __Z26readAnalyticsIsfThresholdsR38H13ISPAnalyticsIsfHistoricalThresholds,
                            __Z26reportJasperStateAnalytics13eJasperStatesS_yyiii,
                            __Z27GMC_UpdateParamsWithResultsP11_GMC_ParamsR12_GMC_Results,
                            __Z27H13ISPFlickerDetectorCreate17FlickerDetectorHW,
                            __Z27fun_get_threshold_histogramPiiPffS0_,
                            __Z27writeAnalyticsIsfThresholdsRK38H13ISPAnalyticsIsfHistoricalThresholds,
                            __Z28H13ISPFlickerDetectorDisposeP28H13ISPFlickerDetectorContext,
                            __Z28H13ISPFlickerDetectorGetGainP28H13ISPFlickerDetectorContextPf,
                            __Z28H13ISPFlickerDetectorSetGainP28H13ISPFlickerDetectorContextf,
                            __Z28bicubicInterpolateNonuniformPA4_dPdS1_dd,
                            __Z29H13ISPProcessingSessionCreateP22OpaqueFigCaptureDevicePK13__CFAllocatorPK14__CFDictionaryPPKv,
                            __Z29PhotonDetectorArrivedCallbackPvj,
                            __Z30StopJasperForInternalStreamingP22OpaqueFigCaptureStream,
                            __Z30reportMutualInformationResultsiRKN16RgbIrCalibration20RgbIrInnerStatisticsE15MutualInfoStagey,
                            __Z31CreateMotionMetadataDebugLoggerPKcjPN6H13ISP12H13ISPDeviceE,
                            __Z31StartJasperForInternalStreamingP22OpaqueFigCaptureStream,
                            __Z31flicker_temporal_filter_HawkingffffPfP19CPastFlickerHistory,
                            __Z31flicker_temporal_filter_PenrosefffffPfS_P19CPastFlickerHistoryd,
                            __Z32ApplePhotonDetectorServicesStartPP36ApplePhotonDetectorServicesAssistantP23H13ISPServicesAssistant,
                            __Z32DestroyMotionMetadataDebugLoggerP25MotionMetadataDebugLogger,
                            __Z32MyH13ISPFrameReceiverMessageProcjjjPvS_S_,
                            __Z33H13ISPDisplayStrobeSetScreenColorP26H13ISPDisplayStrobeContextPd,
                            __Z33MyH13ISPDeviceMessageNotificationPN6H13ISP12H13ISPDeviceEjPvS2_,
                            __Z33PrepareVImgBuffersFromCVPixBufferP10__CVBufferR13vImage_Buffer,
                            __Z33SavePixelBufferWithMetadataToFileP10__CVBufferRKNSt3__112basic_stringIcNS1_11char_traitsIcEENS1_9allocatorIcEEEE,
                            __Z34MyH13ISPServicesRemoteNotification25H13ISPServicesRemoteEventPv,
                            __Z35H13ISPFlickerDetectorSetJasperStateP28H13ISPFlickerDetectorContextb,
                            __Z36MyH13ISPDeviceControllerNotificationPN6H13ISP22H13ISPDeviceControllerEPvPNS_12H13ISPDeviceE,
                            __Z37H13ISPDisplayGetStrobeBrightnessRatioP26H13ISPDisplayStrobeContextPf,
                            __Z37OneDimensionVerticalFilterWithPaddingR6MatrixIfES1_PS0_,
                            __Z38ApplePhotonDetectorServicesThreadStartP39ApplePhotonDetectorServicesThreadParams,
                            __Z38H13ISPDisplayStrobeSetScreenBrightnessP26H13ISPDisplayStrobeContext36H13ISPDisplayStrobeBrightnessCommand,
                            __Z39H13ISPFlickerDetectorStopDataCollectionP28H13ISPFlickerDetectorContext,
                            __Z39OneDimensionHorizontalFilterWithPaddingR6MatrixIfES1_PS0_,
                            __Z40H13ISPFlickerDetectorSetIRStreamingStateP28H13ISPFlickerDetectorContextb,
                            __Z40H13ISPFlickerDetectorStartDataCollectionP28H13ISPFlickerDetectorContext,
                            __Z41ConfigurePearlForExclusiveFirmwareControlP19H13ISPCaptureDeviceP19H13ISPCaptureStream,
                            __Z4ListPK14__CFDictionary,
                            __Z4NamePK14__CFDictionary, __Z4flipPttt,
                            __Z51H13ISPFlickerDetectorRegisterDataCollectionCallbackP28H13ISPFlickerDetectorContextPvPFiS0_S1_P25photometer_flicker_resultE,
                            __Z5ValuePK14__CFDictionary,
                            __Z6dlasr_PKcS0_PlS1_PdS2_S2_S1_,
                            __Z6svd_oslPdS_S_S_,
                            __Z7dbdsqr_PlS_S_PdS0_S0_S_S0_S_S0_S_,
                            __Z7dlasv2_PdS_S_S_S_S_S_S_S_, __Z7my_log2i,
                            __Z7vDSPMaxIdEvPKT_iPS0_i, __Z7vDSPMaxIfEvPKT_iPS0_i,
                            __Z7vDSPSveIdEvPKT_iPS0_i, __Z7vDSPSveIfEvPKT_iPS0_i,
                            __Z7vDSPVsqIdEvPKT_iPS0_ii,
                            __Z7vDSPVsqIfEvPKT_iPS0_ii, __Z8mem_freePPv,
                            __Z8vDSPMinvIdEvPKT_iPS0_i,
                            __Z8vDSPMinvIfEvPKT_iPS0_i,
                            __Z8vDSPMmovIdEvPKT_PS0_iiii,
                            __Z8vDSPMmovIfEvPKT_PS0_iiii,
                            __Z8vDSPMmulIdEvPKT_iS2_iPS0_iiii,
                            __Z8vDSPMmulIfEvPKT_iS2_iPS0_iiii,
                            __Z8vDSPVabsIdEvPKT_iPS0_ii,
                            __Z8vDSPVabsIfEvPKT_iPS0_ii,
                            __Z8vDSPVabsIiEvPKT_iPS0_ii,
                            __Z8vDSPVaddIdEvPKT_iS2_iPS0_ii,
                            __Z8vDSPVaddIfEvPKT_iS2_iPS0_ii,
                            __Z8vDSPVaddIiEvPKT_iS2_iPS0_ii,
                            __Z8vDSPVdivIdEvPKT_iS2_iPS0_ii,
                            __Z8vDSPVdivIfEvPKT_iS2_iPS0_ii,
                            __Z8vDSPVdivIiEvPKT_iS2_iPS0_ii,
                            __Z8vDSPVmulIddEvPKT_iPKT0_iPS0_ii,
                            __Z8vDSPVmulIffEvPKT_iPKT0_iPS0_ii,
                            __Z8vDSPVsmaIdEvPKT_iS2_S2_iPS0_ii,
                            __Z8vDSPVsmaIfEvPKT_iS2_S2_iPS0_ii,
                            __Z8vDSPVsubIdEvPKT_iS2_iPS0_ii,
                            __Z8vDSPVsubIfEvPKT_iS2_iPS0_ii,
                            __Z9CreateDirRKNSt3__112basic_stringIcNS_11char_traitsIcEENS_9allocatorIcEEEE,
                            __Z9vDSPMeanvIdEvPKT_iPS0_i,
                            __Z9vDSPMeanvIfEvPKT_iPS0_i,
                            __Z9vDSPSvdivIdEvPKT_S2_iPS0_ii,
                            __Z9vDSPSvdivIfEvPKT_S2_iPS0_ii,
                            __Z9vDSPSvesqIdEvPKT_iPS0_i,
                            __Z9vDSPSvesqIfEvPKT_iPS0_i,
                            __Z9vDSPVfillIdEvPKT_PS0_ii,
                            __Z9vDSPVfillIfEvPKT_PS0_ii,
                            __Z9vDSPVfillIiEvPKT_PS0_ii,
                            __Z9vDSPVrampIdEvPKT_S2_PS0_ii,
                            __Z9vDSPVrampIfEvPKT_S2_PS0_ii,
                            __Z9vDSPVsaddIdEvPKT_iS2_PS0_ii,
                            __Z9vDSPVsaddIfEvPKT_iS2_PS0_ii,
                            __Z9vDSPVsaddIiEvPKT_iS2_PS0_ii,
                            __Z9vDSPVsdivIdEvPKT_iS2_PS0_ii,
                            __Z9vDSPVsdivIfEvPKT_iS2_PS0_ii,
                            __Z9vDSPVsdivIiEvPKT_iS2_PS0_ii,
                            __Z9vDSPVsmulIdEvPKT_iS2_PS0_ii,
                            __Z9vDSPVsmulIfEvPKT_iS2_PS0_ii,
                            __Z9vDSPVsortIdEvPT_ii, __Z9vDSPVsortIfEvPT_ii,
                            __ZN10BayerArray14GetPackedPixelEmmtm,
                            __ZN10BayerArrayC1EPKtmmmi, __ZN10BayerArrayC1Ev,
                            __ZN10BayerArrayC2EPKtmmmi, __ZN10BayerArrayC2Ev,
                            __ZN10ImageUtils12CloseRect2x2ERK6MatrixIbEPS1_,
                            __ZN10ImageUtils12CloseRect3x3ERK6MatrixIbEPS1_,
                            __ZN10ImageUtils12ErodeRect2x2ERK6MatrixIbEPS1_,
                            __ZN10ImageUtils12ErodeRect3x3ERK6MatrixIbEPS1_,
                            __ZN10ImageUtils13DilateRect2x2ERK6MatrixIbEPS1_,
                            __ZN10ImageUtils13DilateRect3x3ERK6MatrixIbEPS1_,
                            __ZN10ImageUtils13OtsuThresholdERK6MatrixIdE,
                            __ZN10ImageUtils20TraceOuterBoundariesERK6MatrixItEhPNSt3__16vectorINS_4BlobENS4_9allocatorIS6_EEEE,
                            __ZN10NamedValue3SetEPKcS1_P9__CFArray,
                            __ZN10NamedValueC1EPKcS1_P9__CFArray,
                            __ZN10NamedValueC1Ev,
                            __ZN10NamedValueC2EPKcS1_P9__CFArray,
                            __ZN10NamedValueC2Ev, __ZN10NamedValueD1Ev,
                            __ZN10NamedValueD2Ev,
                            __ZN10PearlIRIsf14updatePCECalibERKN3Isf10IsfHistoryER26sCIspCmdChPearlCalibration,
                            __ZN10PearlIRIsf3RunERN3Isf10IsfHistoryEddddRNS0_18IsfInnerStatisticsE,
                            __ZN10PearlIRIsfC1Ev, __ZN10PearlIRIsfC2Ev,
                            __ZN10PearlIRIsfD0Ev, __ZN10PearlIRIsfD1Ev,
                            __ZN10PearlIRIsfD2Ev,
                            __ZN11DisjointSet11SetCapacityEj,
                            __ZN11DisjointSet7CompactEtb,
                            __ZN11DisjointSet9UnCompactEv, __ZN11DisjointSetC1Ev,
                            __ZN11DisjointSetC2Ev, __ZN11DisjointSetD1Ev,
                            __ZN11DisjointSetD2Ev,
                            __ZN11IsfInternal12CleanHistoryERN3Isf10IsfHistoryE,
                            __ZN11IsfInternal13GetElementIdxEPN3Isf15ReferenceRecordE,
                            __ZN11IsfInternal13StepDetectionEv,
                            __ZN11IsfInternal15CalcNewRotationERKN3Isf10IsfHistoryE,
                            __ZN11IsfInternal15InsertNewRecordEddddN3Isf12ResultOriginE,
                            __ZN11IsfInternal18RemoveOldestRecordEv,
                            __ZN11IsfInternal20setStepDetectionModeEb,
                            __ZN11IsfInternal22OutlierDetectAndWeightEv,
                            __ZN11IsfInternal24InsertRecordInSortedListEii,
                            __ZN11IsfInternal25GetInitialWeightForRecordERN3Isf15ReferenceRecordE,
                            __ZN11IsfInternal29ConvertSavedToInternalHistoryERKN3Isf10IsfHistoryE,
                            __ZN11IsfInternal30CalculateWeightedAvgAngleValueEPd,
                            __ZN11IsfInternal36ConvertInternalHistoryToBufferToSaveERN3Isf10IsfHistoryE,
                            __ZN11IsfInternal3RunERN3Isf10IsfHistoryEddddNS0_12ResultOriginE,
                            __ZN11IsfInternalD0Ev, __ZN11IsfInternalD1Ev,
                            __ZN11IsfInternalD2Ev,
                            __ZN11NamedValues9push_backERK10NamedValue,
                            __ZN11NamedValuesC1Ev, __ZN11NamedValuesC2Ev,
                            __ZN11NamedValuesD1Ev, __ZN11NamedValuesD2Ev,
                            __ZN12GMCProcessor17populateGMSBufferEPyiiiPKtiS2_iPKhii,
                            __ZN12GMCProcessor20postProcessStereoGMCE12_GMC_Results26sCIspCmdChPearlCalibration18GMCInnerStatisticsyb,
                            __ZN12GMCProcessor21updatePCECalibWithISFEddddRK26sCIspCmdChPearlCalibrationRS0_,
                            __ZN12GMCProcessor23postProcessProjectorGMCE26sCIspCmdChPearlCalibrationS0_j18GMCInnerStatisticsyb,
                            __ZN12GMCProcessor28updatePCECalibWithGMCResultsERK12_GMC_ResultsRK18GMCInnerStatisticsbRK26sCIspCmdChPearlCalibrationRS6_P22H13ISPAnalyticsGMCInfo,
                            __ZN12GMCProcessor3runEP49H13ISPFirmwareWorkProcessorItemBufferParamsStructj,
                            __ZN12GMCProcessorC1EPN6H13ISP12H13ISPDeviceE,
                            __ZN12GMCProcessorC2EPN6H13ISP12H13ISPDeviceE,
                            __ZN12GMCProcessorD1Ev, __ZN12GMCProcessorD2Ev,
                            __ZN12MetalObjects12createBufferEPU15__autoreleasingPU19objcproto9MTLBuffer11objc_objectPvm,
                            __ZN12MetalObjects12createBufferEPU15__autoreleasingPU19objcproto9MTLBuffer11objc_objectii,
                            __ZN12MetalObjects12medianFilterEPU21objcproto10MTLTexture11objc_objectS1_jb,
                            __ZN12MetalObjects13createTextureEPU15__autoreleasingPU21objcproto10MTLTexture11objc_objectPfii,
                            __ZN12MetalObjects13createTextureEPU15__autoreleasingPU21objcproto10MTLTexture11objc_objectPtii,
                            __ZN12MetalObjects13createTextureEPU15__autoreleasingPU21objcproto10MTLTexture11objc_objectii,
                            __ZN12MetalObjects16convultionFilterEPU21objcproto10MTLTexture11objc_object6MatrixIfES1_b,
                            __ZN12MetalObjects19createTextureMedianEPU15__autoreleasingPU21objcproto10MTLTexture11objc_objectPhiiii,
                            __ZN12MetalObjects30Algo_DistortRadialLiteInternalEPU21objcproto10MTLTexture11objc_objectS1_S1_PU19objcproto9MTLBuffer11objc_objectS3_S3_S3_S1_S3_S3_S3_S3_S1_b,
                            __ZN12MetalObjects4initEv,
                            __ZN12SparseMatrix11allocateMemEv,
                            __ZN12SparseMatrix14SolveLTInPlaceEP11MatrixNxPtsILj1EdE,
                            __ZN12SparseMatrix22ReverseStorageOfColumnEi,
                            __ZN12SparseMatrix23GetColumnAsSparseVectorEi,
                            __ZN12SparseMatrix4ZeroEv,
                            __ZN12SparseMatrix6ExpandEmm,
                            __ZN12SparseMatrix7SqueezeEmm,
                            __ZN12SparseMatrix7freeMemEv,
                            __ZN12SparseMatrix8AddValueEiid,
                            __ZN12SparseMatrixC1EOS_, __ZN12SparseMatrixC1ERKS_,
                            __ZN12SparseMatrixC1EmmPKiii, __ZN12SparseMatrixC1Ev,
                            __ZN12SparseMatrixC2EOS_, __ZN12SparseMatrixC2ERKS_,
                            __ZN12SparseMatrixC2EmmPKiii, __ZN12SparseMatrixC2Ev,
                            __ZN12SparseMatrixD1Ev, __ZN12SparseMatrixD2Ev,
                            __ZN12SparseMatrixaSEOS_,
                            __ZN12SparseVector13AddWithFactorERKS_d,
                            __ZN12SparseVectorC1EOS_, __ZN12SparseVectorC1ERKS_,
                            __ZN12SparseVectorC1Eii,
                            __ZN12SparseVectorC1EiiPiPdb,
                            __ZN12SparseVectorC2EOS_, __ZN12SparseVectorC2ERKS_,
                            __ZN12SparseVectorC2Eii,
                            __ZN12SparseVectorC2EiiPiPdb, __ZN12SparseVectorD1Ev,
                            __ZN12SparseVectorD2Ev, __ZN12SparseVectoraSERKS_,
                            __ZN13ALSParameters10kThresholdE,
                            __ZN13ALSParameters11kIIR_factorE,
                            __ZN13ALSParameters13kALSAlgorithmE,
                            __ZN13ALSParameters21overrideALSParametersEv,
                            __ZN13ALSParameters23kAWBDebounceCountReloadE,
                            __ZN13ALSParameters31kCompensateRetryCountReloadLongE,
                            __ZN13ALSParameters32kCompensateRetryCountReloadShortE,
                            __ZN13ALSParameters4sMinE,
                            __ZN13ALSParameters5bgMaxE,
                            __ZN13ALSParameters5bgMinE,
                            __ZN13ALSParameters5kTMaxE,
                            __ZN13ALSParameters5kTMinE,
                            __ZN13ALSParameters6kTableE,
                            __ZN13ALSParameters6tTableE,
                            __ZN13ALSParameters7fp2compE,
                            __ZN13ALSParameters7kOne_59E,
                            __ZN13H13ISPMetrics10StartTimerEv,
                            __ZN13H13ISPMetrics12ClearSamplesEv,
                            __ZN13H13ISPMetrics17GetMetricsSummaryEP21_H13ISPMetricsSummary,
                            __ZN13H13ISPMetrics19PrintMetricsSummaryEv,
                            __ZN13H13ISPMetrics9AddSampleEyy,
                            __ZN13H13ISPMetrics9StopTimerEv,
                            __ZN13H13ISPMetricsC1Ej, __ZN13H13ISPMetricsC2Ej,
                            __ZN13H13ISPMetricsD1Ev, __ZN13H13ISPMetricsD2Ev,
                            __ZN14CalibrateRgbIr10ScaleImageEPfmmmmRNSt3__110unique_ptrIA_fNS1_14default_deleteIS3_EEEERm,
                            __ZN14CalibrateRgbIr12GetCamParamsERK26sCIspCmdChPearlCalibrationRN8MathLibs10_CamParamsIfEE,
                            __ZN14CalibrateRgbIr12GetTargetCamERK26sCIspCmdChPearlCalibrationttRK14PCEDepthConfigRN8MathLibs10_CamParamsIfEE,
                            __ZN14CalibrateRgbIr12MedianFilterER6MatrixIfEmjS2_,
                            __ZN14CalibrateRgbIr12ScanCostGridER6MatrixIfES2_R11MatrixNxPtsILj1EfEPjR9CostEntryR15MutualInfoStage,
                            __ZN14CalibrateRgbIr13CalculateGridER8GridAreaiiR11MatrixNxPtsILj1EfEPj,
                            __ZN14CalibrateRgbIr13ChooseResult2ER8GridAreaS1_jj,
                            __ZN14CalibrateRgbIr14PrepareIrImageEP10__CVBufferR6MatrixIfERmS5_,
                            __ZN14CalibrateRgbIr14SaveDebugPlistEv,
                            __ZN14CalibrateRgbIr15PrepareXyzWorldERN8MathLibs10_CamParamsIfEER6MatrixIfERK4_ROIS6_P10PixelCoordPj,
                            __ZN14CalibrateRgbIr15RetrieveRoiInfoEPK9__CFArraymmR4_ROI,
                            __ZN14CalibrateRgbIr15ValidateResultsEff,
                            __ZN14CalibrateRgbIr17PrepareColorImageEP10__CVBufferjjP10PixelCoordjR11MatrixNxPtsILj1EfE,
                            __ZN14CalibrateRgbIr17PrepareDepthImageEP10__CVBuffermmRNSt3__110unique_ptrIA_fNS2_14default_deleteIS4_EEEE,
                            __ZN14CalibrateRgbIr18CheckPceCalibValidEPK14__CFDictionaryRK26sCIspCmdChPearlCalibration,
                            __ZN14CalibrateRgbIr18GetCommonCamParamsERK24PCECalibCameraIntrinsicsRN8MathLibs10_CamParamsIfEE,
                            __ZN14CalibrateRgbIr18SelectRefineResultEfffRK26sCIspCmdChPearlCalibrationRS0_,
                            __ZN14CalibrateRgbIr19InitDebugDictionaryEv,
                            __ZN14CalibrateRgbIr19ReleaseMetalObjectsEv,
                            __ZN14CalibrateRgbIr20CalculateFinalResultEfffR22PCECalibRotationAngles,
                            __ZN14CalibrateRgbIr21ApplyGaussian2DFilterER6MatrixIfES2_j,
                            __ZN14CalibrateRgbIr21CalcMutualInfoSamplesER6MatrixIfEj,
                            __ZN14CalibrateRgbIr21LocalValidationSelectER8GridAreaPP9CostEntry,
                            __ZN14CalibrateRgbIr21ReleaseLocalResourcesEv,
                            __ZN14CalibrateRgbIr21SetParamsForShiftMapsERK26sCIspCmdChPearlCalibration,
                            __ZN14CalibrateRgbIr22PrepareGridCalculationER6MatrixIfES2_jj,
                            __ZN14CalibrateRgbIr22SampleWorldPointsOnCamER12MTLCamParamsPU15__autoreleasingPU21objcproto10MTLTexture11objc_objectR12MetalObjects,
                            __ZN14CalibrateRgbIr24GetCamParamsFromMetaDataEPK14__CFDictionaryRN8MathLibs10_CamParamsIfEE,
                            __ZN14CalibrateRgbIr4InitEv,
                            __ZN14CalibrateRgbIr5abortEv,
                            __ZN14CalibrateRgbIr7CostFmiER9CostEntryR11MatrixNxPtsILj1EfER12MetalObjectsPj,
                            __ZN14CalibrateRgbIr9CalibrateEP10__CVBufferPK14__CFDictionaryS1_S4_S1_bPK11__CFBooleanRK26sCIspCmdChPearlCalibrationPK9__CFArraysRK14PCEDepthConfigR22PCECalibRotationAnglesR15MutualInfoStage,
                            __ZN14GrayScaleImage4saveERKNSt3__112basic_stringIcNS0_11char_traitsIcEENS0_9allocatorIcEEEEP10__CVBufferS8_bb,
                            __ZN14JacobianMatrix5SolveERK11MatrixNxPtsILj1EdE,
                            __ZN14JacobianMatrixC1Ei, __ZN14JacobianMatrixC1Eib,
                            __ZN14JacobianMatrixC1Ev, __ZN14JacobianMatrixC2Ei,
                            __ZN14JacobianMatrixC2Eib, __ZN14JacobianMatrixC2Ev,
                            __ZN14PCECalibration12isOverriddenEv,
                            __ZN14PCECalibration13readNVMBufferEPm,
                            __ZN14PCECalibration17readColorAssemblyER18PCECalibExtrinsicsR24PCECalibCameraIntrinsics,
                            __ZN14PCECalibration25readRosalineConfigurationEPt,
                            __ZN14PCECalibration4fillEPN6H13ISP12H13ISPDeviceER26sCIspCmdChPearlCalibrationb,
                            __ZN14PCECalibration4saveERK26sCIspCmdChPearlCalibration,
                            __ZN14PCECalibration9configureEj,
                            __ZN14PortableBuffer10CheckMagicEPKh,
                            __ZN14PortableBuffer10ReadHeaderERKNSt3__112basic_stringIcNS0_11char_traitsIcEENS0_9allocatorIcEEEEbRNS_8Header_tERNS0_14basic_ifstreamIcS3_EE,
                            __ZN14PortableBuffer11m_outputDirE,
                            __ZN14PortableBuffer12BuildAndSaveERKNSt3__112basic_stringIcNS0_11char_traitsIcEENS0_9allocatorIcEEEEPhS8_NS_13PB_FormatTypeEmmmNS_14PB_PixelFormatEbb,
                            __ZN14PortableBuffer12MAGIC_NUMBERE,
                            __ZN14PortableBuffer18SaveBufferInternalERKNSt3__112basic_stringIcNS0_11char_traitsIcEENS0_9allocatorIcEEEEPKvRKNS_8Header_tEb,
                            __ZN14PortableBuffer30GetBytePerPixelFromPixelFormatENS_14PB_PixelFormatE,
                            __ZN14PortableBuffer30GetPixelFormatFromBytePerPixelEm,
                            __ZN14PortableBuffer4saveERKNSt3__112basic_stringIcNS0_11char_traitsIcEENS0_9allocatorIcEEEEPhS8_mb,
                            __ZN14ProjectorToken11writeToFileEPKc,
                            __ZN14ProjectorToken12readFromFileEPKc,
                            __ZN14ProjectorToken5printEv,
                            __ZN14ProjectorTokenC1EPKcjPjllibS1_,
                            __ZN14ProjectorTokenC1Ev,
                            __ZN14ProjectorTokenC2EPKcjPjllibS1_,
                            __ZN14ProjectorTokenC2Ev,
                            __ZN15FDRInputFactory11_tofUnifiedE,
                            __ZN15FDRInputFactory13_pearlUnifiedE,
                            __ZN15FDRInputFactory19_fdr3SupportCheckedE,
                            __ZN16CRandomGenerator10NormalRandEf,
                            __ZN16CRandomGenerator11UniformRandEv,
                            __ZN16CRandomGenerator4InitEj,
                            __ZN16CRandomGenerator7randlcgEv,
                            __ZN16CRandomGeneratorC1Ej,
                            __ZN16CRandomGeneratorC2Ej,
                            __ZN16CRandomGeneratorD0Ev,
                            __ZN16CRandomGeneratorD1Ev,
                            __ZN16CRandomGeneratorD2Ev,
                            __ZN16FileInputFactory20_entitlementsCheckedE,
                            __ZN16FileInputFactory20overrideFilesAllowedEv,
                            __ZN16FileInputFactory21_overrideFilesAllowedE,
                            __ZN16PearlInternalIsf13StepDetectionEv,
                            __ZN16PearlInternalIsf14updatePCECalibERKN3Isf10IsfHistoryER18PCECalibExtrinsics,
                            __ZN16PearlInternalIsfC1Ev,
                            __ZN16PearlInternalIsfC2Ev,
                            __ZN16PearlInternalIsfD0Ev,
                            __ZN16PearlInternalIsfD1Ev,
                            __ZN16PearlInternalIsfD2Ev,
                            __ZN16RgbIrCalibration12GetDebugInfoEv,
                            __ZN16RgbIrCalibration14IgnoreMetadataEb,
                            __ZN16RgbIrCalibration5abortEv,
                            __ZN16RgbIrCalibration9CalibrateEP10__CVBufferPK14__CFDictionaryS1_S4_S1_bPK11__CFBooleanRK26sCIspCmdChPearlCalibrationPK9__CFArraysRK14PCEDepthConfigR12SelectedModeR22PCECalibRotationAnglesR15MutualInfoStageRNS_20RgbIrInnerStatisticsE,
                            __ZN16RgbIrCalibrationC1Ej,
                            __ZN16RgbIrCalibrationC2Ej,
                            __ZN16RgbIrCalibrationD1Ev,
                            __ZN16RgbIrCalibrationD2Ev,
                            __ZN17H13ISPRgbIrRunner10setVerboseEb,
                            __ZN17H13ISPRgbIrRunner12runAlgorithmEP10__CVBufferPK14__CFDictionaryS1_S4_S1_bRK26sCIspCmdChPearlCalibrationRK14PCEDepthConfigt,
                            __ZN17H13ISPRgbIrRunner13validateFrameEP10__CVBufferPK14__CFDictionaryS4_b,
                            __ZN17H13ISPRgbIrRunner14setMaxAttemptsEi,
                            __ZN17H13ISPRgbIrRunner15markForDeletionEv,
                            __ZN17H13ISPRgbIrRunner15setOnEveryStartEb,
                            __ZN17H13ISPRgbIrRunner15validateSessionEP10__CVBufferPK14__CFDictionaryS4_b,
                            __ZN17H13ISPRgbIrRunner17setDumpAlgoFramesEb,
                            __ZN17H13ISPRgbIrRunner18getUpdatedPceCalibER26sCIspCmdChPearlCalibration,
                            __ZN17H13ISPRgbIrRunner20setStepDetectionModeE20kFigIsfStepDetection,
                            __ZN17H13ISPRgbIrRunner3runEP10__CVBufferS1_S1_PK14__CFDictionaryS4_b26sCIspCmdChPearlCalibration14PCEDepthConfigtt,
                            __ZN17H13ISPRgbIrRunner9getReportEv,
                            __ZN17H13ISPRgbIrRunner9isContextEPv,
                            __ZN17H13ISPRgbIrRunnerC1EPv,
                            __ZN17H13ISPRgbIrRunnerC2EPv,
                            __ZN17H13ISPRgbIrRunnerD1Ev,
                            __ZN17H13ISPRgbIrRunnerD2Ev,
                            __ZN17JasperCalibration13copyCalibDataEPN6H13ISP12H13ISPDeviceEj,
                            __ZN17JasperCalibration23calcFactoryWideToJasperEPKvRA3_A4_Kf,
                            __ZN17JasperCalibration27calcOperationalWideToJasperEPKvRA3_A4_KfRA3_A4_fR13simd_float4x3Rb,
                            __ZN17JasperCalibration3getEPN6H13ISP12H13ISPDeviceEb,
                            __ZN17JasperCalibration4saveEPKv,
                            __ZN17RenderTestPattern19calculate_color_barEidddib,
                            __ZN17RenderTestPattern19calculate_gray_stepEiiib,
                            __ZN17RenderTestPattern20SubPatternHeights420EmNS_8RationalE,
                            __ZN17RenderTestPattern20SubPatternHeights422EmNS_8RationalE,
                            __ZN17RenderTestPattern37RenderTestPattern_YCbCr_420_Y_UV_8bitEPvS0_mmmmddbNS_8RationalE,
                            __ZN17RenderTestPattern37RenderTestPattern_YCbCr_422_YUYV_8bitEPvmmmddbNS_8RationalE,
                            __ZN17RenderTestPattern37RenderTestPattern_YCbCr_422_Y_UV_8bitEPvS0_mmmmddbNS_8RationalE,
                            __ZN17RenderTestPattern38RenderTestPattern_YCbCr_420_Y_UV_10bitEPvS0_mmmmddbNS_8RationalE,
                            __ZN17RenderTestPattern38RenderTestPattern_YCbCr_422_Y_UV_10bitEPvS0_mmmmddbNS_8RationalE,
                            __ZN18H13ISPFirmwareWork11FirmwareRPCEP41H13ISPFirmwareWorkProcessorItemArgsStructPb,
                            __ZN18H13ISPFirmwareWork11RPCFileInfoEP49H13ISPFirmwareWorkProcessorItemBufferParamsStructj,
                            __ZN18H13ISPFirmwareWork11RPCFileReadEP49H13ISPFirmwareWorkProcessorItemBufferParamsStructj,
                            __ZN18H13ISPFirmwareWork12RPCFileWriteEP49H13ISPFirmwareWorkProcessorItemBufferParamsStructj,
                            __ZN18H13ISPFirmwareWork17SPDProcessWrapperEP49H13ISPFirmwareWorkProcessorItemBufferParamsStructj,
                            __ZN18H13ISPFirmwareWork19BlurMProcessWrapperEP49H13ISPFirmwareWorkProcessorItemBufferParamsStructj,
                            __ZN18H13ISPFirmwareWork20PDAFProcessX1WrapperEP49H13ISPFirmwareWorkProcessorItemBufferParamsStructj,
                            __ZN18H13ISPFirmwareWork20PDAFProcessX2WrapperEP49H13ISPFirmwareWorkProcessorItemBufferParamsStructj,
                            __ZN18H13ISPFirmwareWork20PDAFProcessX3WrapperEP49H13ISPFirmwareWorkProcessorItemBufferParamsStructj,
                            __ZN18H13ISPFirmwareWork20PDAFProcessX4WrapperEP49H13ISPFirmwareWorkProcessorItemBufferParamsStructj,
                            __ZN18H13ISPFirmwareWorkC1EPN6H13ISP12H13ISPDeviceE,
                            __ZN18H13ISPFirmwareWorkC2EPN6H13ISP12H13ISPDeviceE,
                            __ZN18H13ISPFirmwareWorkD1Ev,
                            __ZN18H13ISPFirmwareWorkD2Ev,
                            __ZN18PearlInternalIRIsf13StepDetectionEv,
                            __ZN18PearlInternalIRIsf14updatePCECalibERKN3Isf10IsfHistoryER18PCECalibExtrinsics,
                            __ZN18PearlInternalIRIsfC1Ev,
                            __ZN18PearlInternalIRIsfC2Ev,
                            __ZN18PearlInternalIRIsfD0Ev,
                            __ZN18PearlInternalIRIsfD1Ev,
                            __ZN18PearlInternalIRIsfD2Ev,
                            __ZN20CNeonBlurMAccelerateC1Ev,
                            __ZN20CNeonBlurMAccelerateC2Ev,
                            __ZN20CNeonBlurMAccelerateD0Ev,
                            __ZN20CNeonBlurMAccelerateD1Ev,
                            __ZN20CNeonBlurMAccelerateD2Ev,
                            __ZN20MobileProjectorToken3useEj20ProjectorTokenTargetPl,
                            __ZN20MobileProjectorToken5printE20ProjectorTokenTarget,
                            __ZN20MobileProjectorToken6createEjjPjibPKc20ProjectorTokenTarget,
                            __ZN20MobileProjectorToken6removeE20ProjectorTokenTarget,
                            __ZN20MobileProjectorToken7VERSIONE,
                            __ZN21CGMC_BundleAdjustment12calcJacobianERKNS_18OptimizationParamsEP14JacobianMatrixP11MatrixNxPtsILj1EdE,
                            __ZN21CGMC_BundleAdjustment13solveLinearEqERK14JacobianMatrixRK11MatrixNxPtsILj1EdEdS6_i,
                            __ZN21CGMC_BundleAdjustment17getResidualsStatsERK11MatrixNxPtsILj1EdERdS4_S4_,
                            __ZN21CGMC_BundleAdjustment18OptimizationParams7ShiftByERK11MatrixNxPtsILj1EdE,
                            __ZN21CGMC_BundleAdjustment18OptimizationParamsC1EO9MatrixMxNILj1ELj3EdEOS1_ILj3ELj3EdEO11MatrixNxPtsILj3EdEb,
                            __ZN21CGMC_BundleAdjustment18OptimizationParamsC1ERKS0_,
                            __ZN21CGMC_BundleAdjustment18OptimizationParamsC2EO9MatrixMxNILj1ELj3EdEOS1_ILj3ELj3EdEO11MatrixNxPtsILj3EdEb,
                            __ZN21CGMC_BundleAdjustment18OptimizationParamsC2ERKS0_,
                            __ZN21CGMC_BundleAdjustment25angleAxisToRotationMatrixE9MatrixMxNILj1ELj3EdE,
                            __ZN21CGMC_BundleAdjustment25rotationMatrixToAngleAxisERK9MatrixMxNILj3ELj3EdE,
                            __ZN21CGMC_BundleAdjustment30calculateCostFunctionResidualsERKNS_18OptimizationParamsE,
                            __ZN21CGMC_BundleAdjustment6CalcBAERK11MatrixNxPtsILj3EdERK9MatrixMxNILj3ELj3EdES7_RKS4_ILj1ELj3EdERK11_GMC_ParamsPS5_PdPi,
                            __ZN21CGMC_BundleAdjustment9isStalledERK11MatrixNxPtsILj1EdEdRK11_GMC_Params,
                            __ZN21CGMC_BundleAdjustmentC1ERK11MatrixNxPtsILj3EdES3_,
                            __ZN21CGMC_BundleAdjustmentC2ERK11MatrixNxPtsILj3EdES3_,
                            __ZN24JasperCalibrationManagerI15FDRInputFactoryEC1Ev,
                            __ZN24JasperCalibrationManagerI15FDRInputFactoryEC2Ev,
                            __ZN25ApplePhotonDetectorDevice10DeviceOpenEv,
                            __ZN25ApplePhotonDetectorDevice11DeviceCloseEv,
                            __ZN25ApplePhotonDetectorDeviceC1Ej,
                            __ZN25ApplePhotonDetectorDeviceC2Ej,
                            __ZN25ApplePhotonDetectorDeviceD1Ev,
                            __ZN25ApplePhotonDetectorDeviceD2Ev,
                            __ZN31ApplePhotonDetectorThreadSyncer15signalAndUnlockEv,
                            __ZN31ApplePhotonDetectorThreadSyncer4lockEv,
                            __ZN31ApplePhotonDetectorThreadSyncer4waitEv,
                            __ZN31ApplePhotonDetectorThreadSyncerC1Ev,
                            __ZN31ApplePhotonDetectorThreadSyncerC2Ev,
                            __ZN31ApplePhotonDetectorThreadSyncerD1Ev,
                            __ZN31ApplePhotonDetectorThreadSyncerD2Ev,
                            __ZN36ApplePhotonDetectorServicesAssistant10OpenDeviceEv,
                            __ZN36ApplePhotonDetectorServicesAssistant11SetupDeviceEv,
                            __ZN36ApplePhotonDetectorServicesAssistantC1EP23H13ISPServicesAssistant,
                            __ZN36ApplePhotonDetectorServicesAssistantC2EP23H13ISPServicesAssistant,
                            __ZN36ApplePhotonDetectorServicesAssistantD1Ev,
                            __ZN36ApplePhotonDetectorServicesAssistantD2Ev,
                            __ZN3Isf20setStepDetectionModeEb,
                            __ZN3Isf6RunIsfEP11IsfInternalRNS_10IsfHistoryEddddNS_12ResultOriginERNS_18IsfInnerStatisticsE,
                            __ZN3SPD4InitEPNS_7ContextE,
                            __ZN3SPD7PrepareEPNS_7ContextE,
                            __ZN3SPD7ProcessEPNS_7ContextEPh,
                            __ZN4Algo11LinearSpaceEddj,
                            __ZN4Algo11NormXcorr2dE6MatrixIdES1_PS1_,
                            __ZN4Algo12RandomSampleEjP16CRandomGeneratorP11MatrixNxPtsILj1EjE,
                            __ZN4Algo13FundMatrix3x3ER11MatrixNxPtsILj3EdES2_P9MatrixMxNILj3ELj3EdEdPbPd,
                            __ZN4Algo14Normalize2DPtsERK11MatrixNxPtsILj3EdEPS1_P9MatrixMxNILj3ELj3EdE,
                            __ZN4Algo16RansacHomographyER11MatrixNxPtsILj3EdES2_jdjjjPS0_ILj1EjEPjS5_,
                            __ZN4Algo17LinearSpaceByStepEddj,
                            __ZN4Algo24calcWeightedCenterOfMassE6MatrixIdENSt3__16vectorIN10ImageUtils4BlobENS2_9allocatorIS5_EEEEdP11MatrixNxPtsILj3EdE,
                            __ZN4Algo3GcdEjj, __ZN4Algo3LcmEjj,
                            __ZN4Algo3cosE6MatrixIdEPS1_,
                            __ZN4Algo3sinE6MatrixIdEPS1_,
                            __ZN4Algo3tanE6MatrixIdEPS1_,
                            __ZN4Algo4MeanERK6MatrixIdEPS1_,
                            __ZN4Algo4acosE6MatrixIdEPS1_,
                            __ZN4Algo4asinE6MatrixIdEPS1_,
                            __ZN4Algo4atanE6MatrixIdEPS1_,
                            __ZN4Algo5atan2E6MatrixIdES1_PS1_,
                            __ZN4Algo6RansacER11MatrixNxPtsILj3EdES2_jdjjjPS0_ILj1EjEPj,
                            __ZN4Algo6RansacER11MatrixNxPtsILj3EdES2_jdjjjbS0_ILj1EbEdPS0_ILj1EjEPj,
                            __ZN4Algo8FspecialEN8MathLibs10FilterTypeEid,
                            __ZN4Algo8FundDistER9MatrixMxNILj3ELj3EdER11MatrixNxPtsILj3EdES5_dPS3_ILj1EjEPj,
                            __ZN4Algo8cart2sphE6MatrixIdES1_S1_PS1_S2_S2_,
                            __ZN4Algo9StdFilterE6MatrixIdEiPS1_,
                            __ZN4PDAF11PixelEngine10Process_x1EPKhPNS0_7ContextE,
                            __ZN4PDAF11PixelEngine10Process_x2EPKhS2_PNS0_7ContextE,
                            __ZN4PDAF11PixelEngine10Process_x3EPKhS2_S2_PNS0_7ContextE,
                            __ZN4PDAF11PixelEngine10Process_x4EPKhS2_S2_S2_PNS0_7ContextE,
                            __ZN4PDAF11PixelEngine12SetupBuffersEPNS0_7ContextE,
                            __ZN5BlurM10calcMedianEPsiiS0_S0_S0_h,
                            __ZN5BlurM10detectBlurEPsS0_iiPfS1_S1_h,
                            __ZN5BlurM12shellSortDBLEPsm,
                            __ZN5BlurM13calcSharpnessEPsiiPfh,
                            __ZN5BlurM13print2dRoiDBLEPKsiiiii,
                            __ZN5BlurM13printPyrRoiU8EPKhiiiii,
                            __ZN5BlurM15calcNoiseFilterEPsiiS0_S0_S0_S0_S0_h,
                            __ZN5BlurM17calcNoiseMAD_MeanEPsiiS0_S0_S0_S0_h,
                            __ZN5BlurM5hlwt2EPsiiS0_S0_S0_S0_S0_S0_h,
                            __ZN5BlurM7PrepareEPNS_7ContextE,
                            __ZN5BlurM7ProcessEPNS_7ContextEPPKh,
                            __ZN5BlurM8calcEmapEPsS0_S0_iiS0_h,
                            __ZN5BlurM8calcEmaxEPsiiPiS0_iS0_h,
                            __ZN5BlurM8calcMeanEPsiiS0_h,
                            __ZN5BlurM9createROIEddddddddddPdS0_PiS1_S0_S0_S0_S0_h,
                            __ZN5BlurM9selectKthEPsii,
                            __ZN6H13ISP12H13ISPDevice10ALSSuspendEj,
                            __ZN6H13ISP12H13ISPDevice10BLCSuspendEj,
                            __ZN6H13ISP12H13ISPDevice10CaptureNowEjj,
                            __ZN6H13ISP12H13ISPDevice10DisableALSEj,
                            __ZN6H13ISP12H13ISPDevice10EnableCFOVEjb,
                            __ZN6H13ISP12H13ISPDevice10EnableHDRCEjb,
                            __ZN6H13ISP12H13ISPDevice10EnableMBNREj26eCIspNoiseReductionUseCase13eCIspMBNRModeb,
                            __ZN6H13ISP12H13ISPDevice10GetAPSModeEjP31eCIspAbsolutePositionSystemMode,
                            __ZN6H13ISP12H13ISPDevice10GetGainCapEjPt,
                            __ZN6H13ISP12H13ISPDevice10GetOISModeEjPj,
                            __ZN6H13ISP12H13ISPDevice10LTMModeSetEjt,
                            __ZN6H13ISP12H13ISPDevice10SetAPSBetaEjss,
                            __ZN6H13ISP12H13ISPDevice10SetAPSModeEj31eCIspAbsolutePositionSystemMode,
                            __ZN6H13ISP12H13ISPDevice10SetGainCapEjj,
                            __ZN6H13ISP12H13ISPDevice10SetOISModeEj27eCIspImageStabilizationMode,
                            __ZN6H13ISP12H13ISPDevice10SetProxOffEjj,
                            __ZN6H13ISP12H13ISPDevice10StopCameraEj,
                            __ZN6H13ISP12H13ISPDevice10SuspendVioEjb,
                            __ZN6H13ISP12H13ISPDevice10TNRSuspendEj,
                            __ZN6H13ISP12H13ISPDevice11ALSFastModeEjj,
                            __ZN6H13ISP12H13ISPDevice11EnableFocusEjtt,
                            __ZN6H13ISP12H13ISPDevice11EnableTorchEjt,
                            __ZN6H13ISP12H13ISPDevice11GetAEParamsEjPjS1_S1_S1_S1_Pd,
                            __ZN6H13ISP12H13ISPDevice11GetAEStableEjPh,
                            __ZN6H13ISP12H13ISPDevice11GetAETargetEjPj,
                            __ZN6H13ISP12H13ISPDevice11GetAFLimitsEjPtS1_,
                            __ZN6H13ISP12H13ISPDevice11GetCNRLevelEjPh,
                            __ZN6H13ISP12H13ISPDevice11GetDPCCountEjjPj,
                            __ZN6H13ISP12H13ISPDevice11GetPoolInfoEj29eCIspImageFlowDynamicPoolTypePjS2_,
                            __ZN6H13ISP12H13ISPDevice11LTMGammaSetEjj,
                            __ZN6H13ISP12H13ISPDevice11LTMStateSetEjjt,
                            __ZN6H13ISP12H13ISPDevice11SetAETargetEjj,
                            __ZN6H13ISP12H13ISPDevice11SetAEWindowEjtttt,
                            __ZN6H13ISP12H13ISPDevice11SetAFLimitsEjtt,
                            __ZN6H13ISP12H13ISPDevice11SetAFWindowEjjtttt,
                            __ZN6H13ISP12H13ISPDevice11SetCNRLevelEjh,
                            __ZN6H13ISP12H13ISPDevice11SetISPDGainEjt,
                            __ZN6H13ISP12H13ISPDevice11SetLedParmsEjtt,
                            __ZN6H13ISP12H13ISPDevice11StartCameraEj,
                            __ZN6H13ISP12H13ISPDevice12DisableTorchEj,
                            __ZN6H13ISP12H13ISPDevice12GetAWBSchemeEjPh,
                            __ZN6H13ISP12H13ISPDevice12GetAWBStableEjPh,
                            __ZN6H13ISP12H13ISPDevice12GetFocusModeEjPt,
                            __ZN6H13ISP12H13ISPDevice12GetMSAERatioEjPjPh,
                            __ZN6H13ISP12H13ISPDevice12GetNTCStatusEjPh,
                            __ZN6H13ISP12H13ISPDevice12GetOISStatusEjPiPsS2_S2_S2_S2_,
                            __ZN6H13ISP12H13ISPDevice12GetSNFParamsEjPh,
                            __ZN6H13ISP12H13ISPDevice12GetSharpnessEj21eCIspSharpnessUseCasePh,
                            __ZN6H13ISP12H13ISPDevice12IRModeSelectEjt,
                            __ZN6H13ISP12H13ISPDevice12ISP_ClockSetEh,
                            __ZN6H13ISP12H13ISPDevice12SetAWBSchemeEjh,
                            __ZN6H13ISP12H13ISPDevice12SetAWBWindowEjtttt,
                            __ZN6H13ISP12H13ISPDevice12SetFocusModeEjt,
                            __ZN6H13ISP12H13ISPDevice12SetManualCCTEjjjj,
                            __ZN6H13ISP12H13ISPDevice12SetOISParamsEjss,
                            __ZN6H13ISP12H13ISPDevice12SetSNFParamsEjh,
                            __ZN6H13ISP12H13ISPDevice12SetSharpnessEj21eCIspSharpnessUseCaseh,
                            __ZN6H13ISP12H13ISPDevice12SetVISParamsEjiiii,
                            __ZN6H13ISP12H13ISPDevice13GetCurrentCCTEjPj,
                            __ZN6H13ISP12H13ISPDevice13GetErrorCountEjtPj,
                            __ZN6H13ISP12H13ISPDevice13GetFrameCountEjPi,
                            __ZN6H13ISP12H13ISPDevice13ISP_EnableS2REb,
                            __ZN6H13ISP12H13ISPDevice13ISP_IsPoweredEv,
                            __ZN6H13ISP12H13ISPDevice13SetScalerCropEj9sCIspRect,
                            __ZN6H13ISP12H13ISPDevice13SetZoomFactorEjt,
                            __ZN6H13ISP12H13ISPDevice14AEUpdateResumeEj,
                            __ZN6H13ISP12H13ISPDevice14EnableAPSDeltaEjb,
                            __ZN6H13ISP12H13ISPDevice14EnableDACClampEjb,
                            __ZN6H13ISP12H13ISPDevice14EnableMultiBitEb,
                            __ZN6H13ISP12H13ISPDevice14GetAPSActuatorEjPs,
                            __ZN6H13ISP12H13ISPDevice14GetAPSDistanceEjPiS1_,
                            __ZN6H13ISP12H13ISPDevice14GetAPSPositionEjPiS1_PsS2_S1_S1_S1_S1_S1_S1_S1_S1_S1_S1_,
                            __ZN6H13ISP12H13ISPDevice14GetLCEStrengthEj22eCIspTuningKnobUseCasePh,
                            __ZN6H13ISP12H13ISPDevice14GetOISActuatorEjPsS1_,
                            __ZN6H13ISP12H13ISPDevice14GetOISPositionEjPiS1_PsS2_,
                            __ZN6H13ISP12H13ISPDevice14GetRNFStrengthEj26eCIspNoiseReductionUseCasePh,
                            __ZN6H13ISP12H13ISPDevice14ISP_GetVersionEP13H13ISPVersion,
                            __ZN6H13ISP12H13ISPDevice14ISP_OfflineDRCEP26H13ISPOfflineDRCArgsStruct,
                            __ZN6H13ISP12H13ISPDevice14LTMHWConfigSetEjj,
                            __ZN6H13ISP12H13ISPDevice14PrepareCommandEj23eCISPCMD_CommandPrepare,
                            __ZN6H13ISP12H13ISPDevice14ProcessRawStopEj,
                            __ZN6H13ISP12H13ISPDevice14ReloadNVMBytesEj,
                            __ZN6H13ISP12H13ISPDevice14SetAEStabilityEjh,
                            __ZN6H13ISP12H13ISPDevice14SetAPSActuatorEjs,
                            __ZN6H13ISP12H13ISPDevice14SetAPSDistanceEji,
                            __ZN6H13ISP12H13ISPDevice14SetAPSPositionEji,
                            __ZN6H13ISP12H13ISPDevice14SetBinningModeEjt,
                            __ZN6H13ISP12H13ISPDevice14SetFESCropRectEj9sCIspRect,
                            __ZN6H13ISP12H13ISPDevice14SetGDCStrengthEjff,
                            __ZN6H13ISP12H13ISPDevice14SetIrRgbStereoEj,
                            __ZN6H13ISP12H13ISPDevice14SetLCEStrengthEj22eCIspTuningKnobUseCaseh,
                            __ZN6H13ISP12H13ISPDevice14SetOISActuatorEjss,
                            __ZN6H13ISP12H13ISPDevice14SetOISPositionEjii,
                            __ZN6H13ISP12H13ISPDevice14SetProjectorOnEj,
                            __ZN6H13ISP12H13ISPDevice14SetRNFStrengthEj26eCIspNoiseReductionUseCaseh,
                            __ZN6H13ISP12H13ISPDevice14SetSensorDGainEjt,
                            __ZN6H13ISP12H13ISPDevice14SetStatsMasterEj20eCIspStatsMasterMode,
                            __ZN6H13ISP12H13ISPDevice14StopFaceDetectEj,
                            __ZN6H13ISP12H13ISPDevice15AEUpdateSuspendEj,
                            __ZN6H13ISP12H13ISPDevice15AWBUpdateResumeEj,
                            __ZN6H13ISP12H13ISPDevice15EnableAvEvMinusEjt,
                            __ZN6H13ISP12H13ISPDevice15EnableHDRFusionEjb,
                            __ZN6H13ISP12H13ISPDevice15EnableHistogramEjb,
                            __ZN6H13ISP12H13ISPDevice15EnableNTCStatusEjb,
                            __ZN6H13ISP12H13ISPDevice15EnablePDEOutputEjbb,
                            __ZN6H13ISP12H13ISPDevice15GetCameraConfigEjjP17sCIspCameraConfigP17sCIspCmdChInfoGet,
                            __ZN6H13ISP12H13ISPDevice15GetColorCalDataEjPtS1_S1_S1_,
                            __ZN6H13ISP12H13ISPDevice15GetExposureBiasEjPt,
                            __ZN6H13ISP12H13ISPDevice15GetOisBoostModeEjPj,
                            __ZN6H13ISP12H13ISPDevice15ISP_CopySetfileEPvjj,
                            __ZN6H13ISP12H13ISPDevice15ISP_DetectFacesEP27H13ISPDetectFacesArgsStruct,
                            __ZN6H13ISP12H13ISPDevice15ISP_SendBuffersEP26H13ISPSendBufferArgsStructjj,
                            __ZN6H13ISP12H13ISPDevice15ISP_SendCommandEPhjjj,
                            __ZN6H13ISP12H13ISPDevice15ISP_SpmiRegReadEjjPj,
                            __ZN6H13ISP12H13ISPDevice15LTMUpdateResumeEj,
                            __ZN6H13ISP12H13ISPDevice15LoadPersistFileEj21eCIspCmdChPersistFileP16sCIspPersistFile,
                            __ZN6H13ISP12H13ISPDevice15ProcessRawStartEj,
                            __ZN6H13ISP12H13ISPDevice15SavePersistFileEj21eCIspCmdChPersistFileP16sCIspPersistFilePb,
                            __ZN6H13ISP12H13ISPDevice15SetAPSRawOffsetEjsssssii,
                            __ZN6H13ISP12H13ISPDevice15SetAWBFlashGainEjttt,
                            __ZN6H13ISP12H13ISPDevice15SetCameraConfigEjjbjj9sCIspRect,
                            __ZN6H13ISP12H13ISPDevice15SetExposureBiasEjtj,
                            __ZN6H13ISP12H13ISPDevice15SetLuxTableModeEjtt,
                            __ZN6H13ISP12H13ISPDevice15SetOisBoostModeEjj,
                            __ZN6H13ISP12H13ISPDevice15SetPanoAELimitsEjtt,
                            __ZN6H13ISP12H13ISPDevice15SetProjectorOffEj,
                            __ZN6H13ISP12H13ISPDevice15SetTNRAlgorithmEjj,
                            __ZN6H13ISP12H13ISPDevice15StartFaceDetectEjjh,
                            __ZN6H13ISP12H13ISPDevice16AWBUpdateSuspendEj,
                            __ZN6H13ISP12H13ISPDevice16CacheNumChannelsEv,
                            __ZN6H13ISP12H13ISPDevice16CopyFileToBufferEPKcPPhPx,
                            __ZN6H13ISP12H13ISPDevice16EnableFullResLSCEj,
                            __ZN6H13ISP12H13ISPDevice16GetAEStageDetectEjPb,
                            __ZN6H13ISP12H13ISPDevice16GetFocusSlavePosEjPi,
                            __ZN6H13ISP12H13ISPDevice16GetIdealColorCalEjPtS1_S1_S1_Ph,
                            __ZN6H13ISP12H13ISPDevice16GetLPDPFrequencyEjjPy,
                            __ZN6H13ISP12H13ISPDevice16GetMIPIFrequencyEjjPj,
                            __ZN6H13ISP12H13ISPDevice16GetProjectorTempEjPiS1_S1_S1_S1_S1_S1_,
                            __ZN6H13ISP12H13ISPDevice16GetTorchCurrentsEjPtS1_,
                            __ZN6H13ISP12H13ISPDevice16H13ISPDeviceOpenEPFiPS0_jPvS2_ES2_,
                            __ZN6H13ISP12H13ISPDevice16ISP_LoadDataFileEjPKhjj,
                            __ZN6H13ISP12H13ISPDevice16ISP_LoadFirmwareEv,
                            __ZN6H13ISP12H13ISPDevice16ISP_SavageFusingEjPKhjj,
                            __ZN6H13ISP12H13ISPDevice16ISP_SpmiRegWriteEjjj,
                            __ZN6H13ISP12H13ISPDevice16ISP_UpdateMinionEPKvjj,
                            __ZN6H13ISP12H13ISPDevice16LTMUpdateSuspendEj,
                            __ZN6H13ISP12H13ISPDevice16SetAFSoftLandingEjttjj,
                            __ZN6H13ISP12H13ISPDevice16SetAWBManualGainEjjjjj,
                            __ZN6H13ISP12H13ISPDevice16SetCameraControlEjjj,
                            __ZN6H13ISP12H13ISPDevice16SetContextSwitchEjP26sCIspChContextSwitchConfig,
                            __ZN6H13ISP12H13ISPDevice16SetFESOutputSizeEjjj,
                            __ZN6H13ISP12H13ISPDevice16SetIdealColorCalEjtttt,
                            __ZN6H13ISP12H13ISPDevice16SetRPCEnableFlagEj,
                            __ZN6H13ISP12H13ISPDevice17DisableFullResLSCEj,
                            __ZN6H13ISP12H13ISPDevice17EnableFocusPixelsEjb,
                            __ZN6H13ISP12H13ISPDevice17GetDeviceNVMBytesEj19eCISPCMD_DEVICETYPEPhjPj,
                            __ZN6H13ISP12H13ISPDevice17GetDistortionDataEj15eIspDistCalTypeP27sCIspCmdChDistortionDataGet,
                            __ZN6H13ISP12H13ISPDevice17GetDistortionInfoEj15eIspDistCalTypeP24sCIspCmdChDistortionInfo,
                            __ZN6H13ISP12H13ISPDevice17GetGDCMaxStrengthEjPK24H13ISPOutputPresetStructPK17sCIspCameraConfigPf,
                            __ZN6H13ISP12H13ISPDevice17GetManualCCTRangeEjPjS1_,
                            __ZN6H13ISP12H13ISPDevice17GetMinimumGainCapEjPt,
                            __ZN6H13ISP12H13ISPDevice17GetOISTemperatureEjPs,
                            __ZN6H13ISP12H13ISPDevice17GetSensorNVMBytesEjPhjPj,
                            __ZN6H13ISP12H13ISPDevice17H13ISPDeviceCloseEv,
                            __ZN6H13ISP12H13ISPDevice17ISP_GetCameraTimeEP22H13ISPCameraTimeStruct,
                            __ZN6H13ISP12H13ISPDevice17ISP_PowerOnCameraEv,
                            __ZN6H13ISP12H13ISPDevice17ISP_SetHostPubKeyEjPhhy,
                            __ZN6H13ISP12H13ISPDevice17ISP_YonkersFusingEjPKhjj,
                            __ZN6H13ISP12H13ISPDevice17PackTorchSegmentsEhhhPKtPKyP15sIspCmdSegLED_t,
                            __ZN6H13ISP12H13ISPDevice17ReadPropertyValueEjjPjj,
                            __ZN6H13ISP12H13ISPDevice17SetAEMeteringModeEjh,
                            __ZN6H13ISP12H13ISPDevice17SetAPSFocusOffsetEjib,
                            __ZN6H13ISP12H13ISPDevice17SetAPSSearchRangeEjjj,
                            __ZN6H13ISP12H13ISPDevice17SetHDRRatioManualEjj,
                            __ZN6H13ISP12H13ISPDevice17SetMinimumGainCapEjt,
                            __ZN6H13ISP12H13ISPDevice17SetOISContactStopEji,
                            __ZN6H13ISP12H13ISPDevice17SetPreflashParamsEjhhhh,
                            __ZN6H13ISP12H13ISPDevice17SetTOFControlModeEjbbjb,
                            __ZN6H13ISP12H13ISPDevice17SetTorchColorModeEjtt,
                            __ZN6H13ISP12H13ISPDevice17TestPatternConfigEjtPKv,
                            __ZN6H13ISP12H13ISPDevice18CacheDeviceConfigsEv,
                            __ZN6H13ISP12H13ISPDevice18CreateSensorConfigEjhtttt,
                            __ZN6H13ISP12H13ISPDevice18EnableNewCBAFStatsEjb,
                            __ZN6H13ISP12H13ISPDevice18EnableReplaySifDMAEjb,
                            __ZN6H13ISP12H13ISPDevice18EnableScalerOutputEj17eCIspOutputSelectb,
                            __ZN6H13ISP12H13ISPDevice18EnableTileBasedGDCEjbbbb,
                            __ZN6H13ISP12H13ISPDevice18EnableYCCHistogramEjb,
                            __ZN6H13ISP12H13ISPDevice18GetAPSClampingModeEjPi,
                            __ZN6H13ISP12H13ISPDevice18GetAPSDeltaEnabledEjPb,
                            __ZN6H13ISP12H13ISPDevice18GetChannelSensorIDEj,
                            __ZN6H13ISP12H13ISPDevice18GetLSCCoefficientsEjjP31sCIspCmdChLSCPolynomialCoeffGet,
                            __ZN6H13ISP12H13ISPDevice18GetLensTemperatureEjPi,
                            __ZN6H13ISP12H13ISPDevice18GetRawBufferConfigEjPhPjS2_S1_S2_S2_,
                            __ZN6H13ISP12H13ISPDevice18ISP_ForgetFirmwareEv,
                            __ZN6H13ISP12H13ISPDevice18ISP_GeneralProcessEP30H13ISPGeneralProcessArgsStructj,
                            __ZN6H13ISP12H13ISPDevice18ISP_GetNumChannelsEPj,
                            __ZN6H13ISP12H13ISPDevice18ISP_GetSetfileSizeEjPj,
                            __ZN6H13ISP12H13ISPDevice18ISP_PowerOffCameraEv,
                            __ZN6H13ISP12H13ISPDevice18ISP_ReleaseChannelEj,
                            __ZN6H13ISP12H13ISPDevice18ISP_ReserveChannelEj,
                            __ZN6H13ISP12H13ISPDevice18ISP_SpmiDeviceReadEjjtPjh,
                            __ZN6H13ISP12H13ISPDevice18IsProjectorAllowedEj,
                            __ZN6H13ISP12H13ISPDevice18LoadFDRCalDataFileEv,
                            __ZN6H13ISP12H13ISPDevice18LoadFirmwareBinaryEv,
                            __ZN6H13ISP12H13ISPDevice18SetAFWindowWeightsEjPh,
                            __ZN6H13ISP12H13ISPDevice18SetAPSClampingModeEji,
                            __ZN6H13ISP12H13ISPDevice18SetAPSManualOffsetEjj,
                            __ZN6H13ISP12H13ISPDevice18SetFirmwareRunModeEt,
                            __ZN6H13ISP12H13ISPDevice18SetHistogramWindowEjtttt,
                            __ZN6H13ISP12H13ISPDevice18SetMasterSlaveSyncEj15eCIspMSSyncMode,
                            __ZN6H13ISP12H13ISPDevice18SetMaxCurrentTorchEjtt,
                            __ZN6H13ISP12H13ISPDevice18SetProjectorParamsEjhtttii,
                            __ZN6H13ISP12H13ISPDevice18SetRowColSumWindowEj19sCIspRectNormalized,
                            __ZN6H13ISP12H13ISPDevice18SuspendTimeMachineEjb,
                            __ZN6H13ISP12H13ISPDevice18TimeMachineCaptureEjtbytP32sCIspCmdChTimeMachineCaptureType,
                            __ZN6H13ISP12H13ISPDevice18WritePropertyValueEjjjj,
                            __ZN6H13ISP12H13ISPDevice19EnableAEStageDetectEjb,
                            __ZN6H13ISP12H13ISPDevice19EnableAPSModeSwitchEjb,
                            __ZN6H13ISP12H13ISPDevice19EnableDPMAssistedAEEjb,
                            __ZN6H13ISP12H13ISPDevice19EnableFESAutoAdjustEjb,
                            __ZN6H13ISP12H13ISPDevice19EnableHardwareBlockEjj,
                            __ZN6H13ISP12H13ISPDevice19EnableManualControlEj16eCIspControlType16eCIspControlMode,
                            __ZN6H13ISP12H13ISPDevice19EnableSensorBLCReadEjb,
                            __ZN6H13ISP12H13ISPDevice19EnableSlowSyncFlashEjb,
                            __ZN6H13ISP12H13ISPDevice19EnableSqrtToneCurveEjb,
                            __ZN6H13ISP12H13ISPDevice19EnableVisPipeOutputEj9sCIspRecthttj,
                            __ZN6H13ISP12H13ISPDevice19GetAFRingingControlEjPb,
                            __ZN6H13ISP12H13ISPDevice19GetAbsoluteColorCalEjPtS1_S1_S1_Ph,
                            __ZN6H13ISP12H13ISPDevice19GetMaximumFrameRateEjPt,
                            __ZN6H13ISP12H13ISPDevice19GetMinimumFrameRateEjPt,
                            __ZN6H13ISP12H13ISPDevice19GetMultiABSColorCalEjPtS1_S1_S1_Ph,
                            __ZN6H13ISP12H13ISPDevice19GetNumCameraConfigsEj,
                            __ZN6H13ISP12H13ISPDevice19GetPoolInfoExtendedEj29eCIspImageFlowDynamicPoolTypeP19sCIspBufferPoolInfo,
                            __ZN6H13ISP12H13ISPDevice19GetZoomFactorLimitsEjPtS1_,
                            __ZN6H13ISP12H13ISPDevice19ISP_EnableMOVReplayEjb,
                            __ZN6H13ISP12H13ISPDevice19ISP_GetCameraStatusEP24H13ISPCameraStatusStruct,
                            __ZN6H13ISP12H13ISPDevice19ISP_GetModuleParamsEjP24H13ISPModuleParamsStruct,
                            __ZN6H13ISP12H13ISPDevice19ISP_GetSavagePubKeyEjPhS1_,
                            __ZN6H13ISP12H13ISPDevice19ISP_SavagePreFusingEj,
                            __ZN6H13ISP12H13ISPDevice19ISP_SetDARTCacheTTLEj,
                            __ZN6H13ISP12H13ISPDevice19ISP_SetMemoryPoolIDEj,
                            __ZN6H13ISP12H13ISPDevice19ISP_SpmiDeviceWriteEjjtjh,
                            __ZN6H13ISP12H13ISPDevice19LSCModulationResumeEj,
                            __ZN6H13ISP12H13ISPDevice19LoadFDRFCClDataFileEv,
                            __ZN6H13ISP12H13ISPDevice19SetAEBracketingModeEjtj,
                            __ZN6H13ISP12H13ISPDevice19SetAFEarlyOutParamsEjhhhh,
                            __ZN6H13ISP12H13ISPDevice19SetAFWindowFDConfigEjtt,
                            __ZN6H13ISP12H13ISPDevice19SetAWB1stGainManualEjttttt,
                            __ZN6H13ISP12H13ISPDevice19SetAWBRGBColorspaceEjh,
                            __ZN6H13ISP12H13ISPDevice19SetCameraControlROIEjtttt,
                            __ZN6H13ISP12H13ISPDevice19SetChromaSupressionEjhhh,
                            __ZN6H13ISP12H13ISPDevice19SetCommonBufferPoolEjhtPhm,
                            __ZN6H13ISP12H13ISPDevice19SetDscStreamingModeEjt,
                            __ZN6H13ISP12H13ISPDevice19SetFlickerFrequencyE25photometer_flicker_result,
                            __ZN6H13ISP12H13ISPDevice19SetLumaHistogramROIEjb19sCIspRectNormalized,
                            __ZN6H13ISP12H13ISPDevice19SetMaximumFrameRateEjj,
                            __ZN6H13ISP12H13ISPDevice19SetMetadataRequiredEjt20eCIspMetaDataUseCaseb,
                            __ZN6H13ISP12H13ISPDevice19SetMinimumFrameRateEjj,
                            __ZN6H13ISP12H13ISPDevice19SetPearlControlModeEjbbb,
                            __ZN6H13ISP12H13ISPDevice19SetPrimaryBESConfigEj9sCIspRectttjjjj27eCIspVOutputColorRangeModesbPj,
                            __ZN6H13ISP12H13ISPDevice19SetRawPreviewConfigEjb,
                            __ZN6H13ISP12H13ISPDevice19SetScalerSharpeningEjh,
                            __ZN6H13ISP12H13ISPDevice19SetTimeMachineDepthEjjt,
                            __ZN6H13ISP12H13ISPDevice19SetTorchManualLevelEjt,
                            __ZN6H13ISP12H13ISPDevice20DisableHardwareBlockEjj,
                            __ZN6H13ISP12H13ISPDevice20EnableDeviceMessagesEv,
                            __ZN6H13ISP12H13ISPDevice20EnableFullResCaptureEjt,
                            __ZN6H13ISP12H13ISPDevice20EnableKnobManualModeEj16eCIspControlKnob,
                            __ZN6H13ISP12H13ISPDevice20EnableLocalHistogramEjb,
                            __ZN6H13ISP12H13ISPDevice20EnableRowColSumStatsEjh,
                            __ZN6H13ISP12H13ISPDevice20EnableSensorSidebandEjb,
                            __ZN6H13ISP12H13ISPDevice20GetClientPrivateDataEv,
                            __ZN6H13ISP12H13ISPDevice20GetCurrentZoomFactorEjPtS1_,
                            __ZN6H13ISP12H13ISPDevice20GetMBNRConfigurationEj26eCIspNoiseReductionUseCasejP13eCIspMBNRModePbPhS5_,
                            __ZN6H13ISP12H13ISPDevice20GetSensorTemperatureEjPiPs,
                            __ZN6H13ISP12H13ISPDevice20ISP_EnableFastMemoryEb,
                            __ZN6H13ISP12H13ISPDevice20ISP_EnablePhotometerEb,
                            __ZN6H13ISP12H13ISPDevice20ISP_IsFirmwareLoadedEv,
                            __ZN6H13ISP12H13ISPDevice20ISP_PreviewStreamSetEj21eCIspPreviewStreamSel,
                            __ZN6H13ISP12H13ISPDevice20ISP_SetFullStatsModeEj,
                            __ZN6H13ISP12H13ISPDevice20ISP_SetMaxOutputRateE29eCIspImageFlowDynamicPoolTypei,
                            __ZN6H13ISP12H13ISPDevice20ISP_YonkersPreFusingEj,
                            __ZN6H13ISP12H13ISPDevice20LSCModulationSuspendEj,
                            __ZN6H13ISP12H13ISPDevice20SetAEIntegrationTimeEjj,
                            __ZN6H13ISP12H13ISPDevice20SetAFSearchPositionsEjjPh,
                            __ZN6H13ISP12H13ISPDevice20SetClientPrivateDataEPv,
                            __ZN6H13ISP12H13ISPDevice20SetDeviceOrientationEji,
                            __ZN6H13ISP12H13ISPDevice20SetMBNRConfigurationEj26eCIspNoiseReductionUseCasejPbPhS3_,
                            __ZN6H13ISP12H13ISPDevice20SetProjectorSequenceEjtt,
                            __ZN6H13ISP12H13ISPDevice20StopLocalToneMappingEj,
                            __ZN6H13ISP12H13ISPDevice21AttachOldRawToPreviewEjb,
                            __ZN6H13ISP12H13ISPDevice21CLRProcGammaConfigSetEjj,
                            __ZN6H13ISP12H13ISPDevice21DisableDeviceMessagesEv,
                            __ZN6H13ISP12H13ISPDevice21DisableKnobManualModeEj16eCIspControlKnob,
                            __ZN6H13ISP12H13ISPDevice21EnableContinuousFocusEjbh,
                            __ZN6H13ISP12H13ISPDevice21EnableHighFrameRateAFEjb,
                            __ZN6H13ISP12H13ISPDevice21EnableMetadataSectionEjtb,
                            __ZN6H13ISP12H13ISPDevice21EnableNRSemanticVideoEjb,
                            __ZN6H13ISP12H13ISPDevice21EnableOutofBoundDepthEjb,
                            __ZN6H13ISP12H13ISPDevice21EnableStaticLUTForLTMEjb,
                            __ZN6H13ISP12H13ISPDevice21GetAFMatrixModeConfigEjPtS1_S1_S1_S1_,
                            __ZN6H13ISP12H13ISPDevice21GetFocusSlaveDistanceEjPi,
                            __ZN6H13ISP12H13ISPDevice21GetMaxIntegrationTimeEjPj,
                            __ZN6H13ISP12H13ISPDevice21GetMinIntegrationTimeEjPj,
                            __ZN6H13ISP12H13ISPDevice21GetRelativeZoomFactorEjPt,
                            __ZN6H13ISP12H13ISPDevice21ISP_EnableSensorPowerEjbb,
                            __ZN6H13ISP12H13ISPDevice21ISP_InstallFakeSensorEjj,
                            __ZN6H13ISP12H13ISPDevice21ISP_MemoryDiagnosticsEv,
                            __ZN6H13ISP12H13ISPDevice21ISP_PPMAdmissionCheckE25ApplePPMKernelClientIndexjjPj,
                            __ZN6H13ISP12H13ISPDevice21ISP_ProcessRawImageGoEj,
                            __ZN6H13ISP12H13ISPDevice21ISP_SetDriverPropertyEjj,
                            __ZN6H13ISP12H13ISPDevice21LoadIspAneNetworkFileEv,
                            __ZN6H13ISP12H13ISPDevice21OverrideFocusGravityZEjhs,
                            __ZN6H13ISP12H13ISPDevice21ReconfigureFaceDetectEjjj,
                            __ZN6H13ISP12H13ISPDevice21ResetMetadataSectionsEj,
                            __ZN6H13ISP12H13ISPDevice21SetAEConvergenceSpeedEjh,
                            __ZN6H13ISP12H13ISPDevice21SetAEOutlierClipCountEjj,
                            __ZN6H13ISP12H13ISPDevice21SetAFFocusPosOverrideEjt,
                            __ZN6H13ISP12H13ISPDevice21SetAFMatrixModeConfigEjttttt,
                            __ZN6H13ISP12H13ISPDevice21SetFrameSkippingRatioEjj,
                            __ZN6H13ISP12H13ISPDevice21SetMIPIFrequencyIndexEjj,
                            __ZN6H13ISP12H13ISPDevice21SetMaxCurrentPreFlashEjtt,
                            __ZN6H13ISP12H13ISPDevice21SetMaxIntegrationTimeEjj,
                            __ZN6H13ISP12H13ISPDevice21SetMultiCamSyncOffsetEj21eCIspMSSyncOffsetType,
                            __ZN6H13ISP12H13ISPDevice21SetMultiCamZoomFactorEjP21sCIspCameraZoomFactor,
                            __ZN6H13ISP12H13ISPDevice21SetSecondaryBESConfigEj9sCIspRectttjjjj27eCIspVOutputColorRangeModesPj,
                            __ZN6H13ISP12H13ISPDevice21StartLocalToneMappingEj,
                            __ZN6H13ISP12H13ISPDevice21StopHighlightRecoveryEj,
                            __ZN6H13ISP12H13ISPDevice22ConfigureManualControlEj16eCIspControlTypePhj,
                            __ZN6H13ISP12H13ISPDevice22EnableAEMatrixMetadataEjb,
                            __ZN6H13ISP12H13ISPDevice22EnableAFPeakPredictionEjb,
                            __ZN6H13ISP12H13ISPDevice22EnableAFRingingControlEjb,
                            __ZN6H13ISP12H13ISPDevice22EnableAWBSemanticVideoEjb,
                            __ZN6H13ISP12H13ISPDevice22EnableContextSwitchingEjj,
                            __ZN6H13ISP12H13ISPDevice22EnableFocusDACLimitingEjb,
                            __ZN6H13ISP12H13ISPDevice22EnableLTMHLGGammaCurveEjb,
                            __ZN6H13ISP12H13ISPDevice22EnableRawPDPCorrectionEjb,
                            __ZN6H13ISP12H13ISPDevice22GetAmbientViewingLevelEjPf,
                            __ZN6H13ISP12H13ISPDevice22GetCameraCurrentConfigEjPjP17sCIspCameraConfig,
                            __ZN6H13ISP12H13ISPDevice22GetISPCounterFrequencyEPjPd,
                            __ZN6H13ISP12H13ISPDevice22GetLuxAdaptiveSettingsEjtP21sCIspBELATableSetting,
                            __ZN6H13ISP12H13ISPDevice22GetNoiseReductionLevelEjPh,
                            __ZN6H13ISP12H13ISPDevice22GetTimeMachinePTSRangeEjPyS1_,
                            __ZN6H13ISP12H13ISPDevice22ISP_EnableFastISPClockEbb,
                            __ZN6H13ISP12H13ISPDevice22ISP_GeneralProcessStopEt,
                            __ZN6H13ISP12H13ISPDevice22ISP_GetPearlStatisticsEP21H13ISPPearlStatistics,
                            __ZN6H13ISP12H13ISPDevice22ISP_GetPowerStatisticsEP21H13ISPPowerStatistics,
                            __ZN6H13ISP12H13ISPDevice22ISP_PPMActivityStoppedE25ApplePPMKernelClientIndexjj,
                            __ZN6H13ISP12H13ISPDevice22ISP_SetFirmwareBootArgEjj,
                            __ZN6H13ISP12H13ISPDevice22InitDeviceConfigsCacheEv,
                            __ZN6H13ISP12H13ISPDevice22LoadSyscfgCalDataFilesEP14__CFDictionary,
                            __ZN6H13ISP12H13ISPDevice22ResumeAEHdrRatioUpdateEj,
                            __ZN6H13ISP12H13ISPDevice22ReturnAllBuffersInPoolEjj,
                            __ZN6H13ISP12H13ISPDevice22ReturnAllUnusedBuffersEj,
                            __ZN6H13ISP12H13ISPDevice22SendDataFileToFirmwareEPKcS2_jjb,
                            __ZN6H13ISP12H13ISPDevice22SetAFWindowFloatConfigEjt,
                            __ZN6H13ISP12H13ISPDevice22SetISPProcessingConfigEj16eCIspCamProcMode,
                            __ZN6H13ISP12H13ISPDevice22SetLuxAdaptiveSettingsEj17sCIspBELATableCfg,
                            __ZN6H13ISP12H13ISPDevice22SetManualFocusPositionEjhj,
                            __ZN6H13ISP12H13ISPDevice22SetMasterSlaveAPSFocusEjb,
                            __ZN6H13ISP12H13ISPDevice22SetMaxCurrentMainFlashEjtt,
                            __ZN6H13ISP12H13ISPDevice22SetNoiseReductionLevelEjh,
                            __ZN6H13ISP12H13ISPDevice22SetOscarToISPClockSyncEyy,
                            __ZN6H13ISP12H13ISPDevice22StartHighlightRecoveryEj,
                            __ZN6H13ISP12H13ISPDevice22ValidateProjectorTokenEv,
                            __ZN6H13ISP12H13ISPDevice23BinningCompensationStopEj,
                            __ZN6H13ISP12H13ISPDevice23EnableFirmwareFocusHintEjb,
                            __ZN6H13ISP12H13ISPDevice23EnableHighlightRecoveryEjb22eCIspTuningKnobUseCase,
                            __ZN6H13ISP12H13ISPDevice23EnableKeypointDetectionEjb,
                            __ZN6H13ISP12H13ISPDevice23GetAWBCalibrationMatrixEjP40sCIspCmdAppleChAWBCalibrationMatrixEntry,
                            __ZN6H13ISP12H13ISPDevice23GetCurrentFocusPositionEjPh,
                            __ZN6H13ISP12H13ISPDevice23GetSharedBufferPoolInfoEtttR28sCIspCmdGrpBufferPoolInfoGet,
                            __ZN6H13ISP12H13ISPDevice23GetSyncZoomFactorLimitsEjPtS1_,
                            __ZN6H13ISP12H13ISPDevice23GetUnitInfoPropertyDictEPP14__CFDictionary,
                            __ZN6H13ISP12H13ISPDevice23ISP_GeneralProcessStartE27H13ISPGeneralProcessingTypePt,
                            __ZN6H13ISP12H13ISPDevice23ISP_GetJasperClockParamEjjP21H13ISPJasperSACParams,
                            __ZN6H13ISP12H13ISPDevice23ISP_GetJasperStatisticsEP22H13ISPJasperStatistics,
                            __ZN6H13ISP12H13ISPDevice23ISP_GetSensorConfigInfoEjjP17sCIspCameraConfig,
                            __ZN6H13ISP12H13ISPDevice23ISP_PreMapClientSurfaceEj,
                            __ZN6H13ISP12H13ISPDevice23SetColorCalibrationDataEjtt,
                            __ZN6H13ISP12H13ISPDevice23SetFlickerFrequencyHintEjd,
                            __ZN6H13ISP12H13ISPDevice23SetHighSpeedOutputLevelEjt,
                            __ZN6H13ISP12H13ISPDevice23SetMaxCurrentFlashLightEjtt,
                            __ZN6H13ISP12H13ISPDevice23SetSensorCustomSettingsEjhPtPh,
                            __ZN6H13ISP12H13ISPDevice23SetSharedBufferPoolInfoEtttt18eCIspCompressTypestPv,
                            __ZN6H13ISP12H13ISPDevice23SetTOFPriRandomSwapModeEjbtt,
                            __ZN6H13ISP12H13ISPDevice23SuspendAEHdrRatioUpdateEj,
                            __ZN6H13ISP12H13ISPDevice23isSavageSensorSupportedEPj,
                            __ZN6H13ISP12H13ISPDevice24BinningCompensationStartEj,
                            __ZN6H13ISP12H13ISPDevice24EnableCNRForStillCaptureEjb,
                            __ZN6H13ISP12H13ISPDevice24EnableLocalRawBufferModeEjb,
                            __ZN6H13ISP12H13ISPDevice24EnableRawAverageMetadataEjb,
                            __ZN6H13ISP12H13ISPDevice24EnableTimeLapseSmoothingEjb,
                            __ZN6H13ISP12H13ISPDevice24GetFlickerDetectorHWTypeEP17FlickerDetectorHW,
                            __ZN6H13ISP12H13ISPDevice24GetKeypointConfigurationEjPtS1_S1_S1_,
                            __ZN6H13ISP12H13ISPDevice24GetMultiCamSessionStatusEP25sCIspCameraMultiCamChInfoPt,
                            __ZN6H13ISP12H13ISPDevice24GetSupportedTestPatternsEjP9__CFArray,
                            __ZN6H13ISP12H13ISPDevice24GetVioInputConfigurationEjPjS1_S1_S1_,
                            __ZN6H13ISP12H13ISPDevice24ISP_SavagePrePersonalizeEj,
                            __ZN6H13ISP12H13ISPDevice24LuxAdaptiveSettingResumeEjt,
                            __ZN6H13ISP12H13ISPDevice24OverrideAbsoluteColorCalEjtttth,
                            __ZN6H13ISP12H13ISPDevice24RegisterRemoteConnectionEPNS_20H13ISPServicesRemoteE,
                            __ZN6H13ISP12H13ISPDevice24RunOISEndStopCalibrationEjP26sCIspSphEndStopCalibration,
                            __ZN6H13ISP12H13ISPDevice24SetFocusMultiCamBehaviorEj26eCIspFocusMultiCamBehavior,
                            __ZN6H13ISP12H13ISPDevice24SetKeypointConfigurationEjtttt,
                            __ZN6H13ISP12H13ISPDevice24SetOISEndStopCalibrationEjP26sCIspSphEndStopCalibration,
                            __ZN6H13ISP12H13ISPDevice24SetSecondaryScalerSourceEj26eCIspSecondaryScalerSource,
                            __ZN6H13ISP12H13ISPDevice24SetSegmentTorchLEDLevelsEjhhhPKtPKy,
                            __ZN6H13ISP12H13ISPDevice24SetSlaveProcessingConfigEj21eCIspSlaveCamProcMode,
                            __ZN6H13ISP12H13ISPDevice24SetTimeLapseSamplingRateEjj,
                            __ZN6H13ISP12H13ISPDevice24UpdateChannelConfigCacheEj,
                            __ZN6H13ISP12H13ISPDevice24isYonkersSensorSupportedEPj,
                            __ZN6H13ISP12H13ISPDevice25EnableAPSOffsetCorrectionEjb,
                            __ZN6H13ISP12H13ISPDevice25EnableDolbyVisionMetadataEjb,
                            __ZN6H13ISP12H13ISPDevice25GetAEPanoMaxExpAdjustmentEjPj,
                            __ZN6H13ISP12H13ISPDevice25GetISOParamsForSensorModeEj25eCIspCameraConfigModeEnumP14sCIspISPParams,
                            __ZN6H13ISP12H13ISPDevice25GetPixClockFrequencyCountEjPj,
                            __ZN6H13ISP12H13ISPDevice25GetProjectorOverheatLimitEjPi,
                            __ZN6H13ISP12H13ISPDevice25ISP_GeneralProcessGenericEP37H13ISPGeneralProcessGenericArgsStructj,
                            __ZN6H13ISP12H13ISPDevice25ISP_GetDriverLoggingFlagsEPj,
                            __ZN6H13ISP12H13ISPDevice25ISP_GetJasperSACAnalyticsEbP24H13ISPJasperSACAnalytics,
                            __ZN6H13ISP12H13ISPDevice25ISP_PearlCamProjectorSafeEbyb,
                            __ZN6H13ISP12H13ISPDevice25ISP_SetDriverLoggingFlagsEj,
                            __ZN6H13ISP12H13ISPDevice25ISP_YonkersPrePersonalizeEj,
                            __ZN6H13ISP12H13ISPDevice25LuxAdaptiveSettingSuspendEjt,
                            __ZN6H13ISP12H13ISPDevice25SetAEConvergenceSpeed2WayEjhh,
                            __ZN6H13ISP12H13ISPDevice25SetAEPanoMaxExpAdjustmentEjj,
                            __ZN6H13ISP12H13ISPDevice25SetPixClockFrequencyIndexEjj,
                            __ZN6H13ISP12H13ISPDevice25SetProResSharpeningTuningEjb,
                            __ZN6H13ISP12H13ISPDevice25SetProjectorOverheatLimitEji,
                            __ZN6H13ISP12H13ISPDevice26AllExpectedSensorsDetectedEv,
                            __ZN6H13ISP12H13ISPDevice26EnableAPSOffsetCalculationEjb,
                            __ZN6H13ISP12H13ISPDevice26EnableMotionCaptureControlEb,
                            __ZN6H13ISP12H13ISPDevice26GetAEMaxFrameRateGainLimitEjPj,
                            __ZN6H13ISP12H13ISPDevice26GetAFMinimumObjectDistanceEjP14sCIspChLCAFMOD,
                            __ZN6H13ISP12H13ISPDevice26GetCurrentFocusDacPositionEjPt,
                            __ZN6H13ISP12H13ISPDevice26GetNumberOfMipiFrequenciesEjPj,
                            __ZN6H13ISP12H13ISPDevice26ISP_EnableFirmwareChannelsEj,
                            __ZN6H13ISP12H13ISPDevice26ISP_EnableFirmwareRecoveryEb,
                            __ZN6H13ISP12H13ISPDevice26ISP_ProcessRawImagePrepareEP26H13ISPProcessRawArgsStruct,
                            __ZN6H13ISP12H13ISPDevice26SetAEFDSceneMeteringConfigEjjjjjjjjjjjjj,
                            __ZN6H13ISP12H13ISPDevice26SetAEMaxFrameRateGainLimitEjj,
                            __ZN6H13ISP12H13ISPDevice26SetBufferPoolConfigurationEjtt18eCIspCompressTypestPv,
                            __ZN6H13ISP12H13ISPDevice26SetColorPostProcessingModeEj12eCIspCPPMode,
                            __ZN6H13ISP12H13ISPDevice26SetMaximumAllowedFrameRateEjj,
                            __ZN6H13ISP12H13ISPDevice26SetMultiCamSlavePropertiesEjj26sCIspMultiCamSlaveProperty,
                            __ZN6H13ISP12H13ISPDevice27CreateISPUnitInfoDictionaryEPP14__CFDictionaryb,
                            __ZN6H13ISP12H13ISPDevice27GetChargePumpFrequencyCountEjPj,
                            __ZN6H13ISP12H13ISPDevice27GetFaceDetectionWindowParamEjP19sCIspRectNormalized,
                            __ZN6H13ISP12H13ISPDevice27GetKeypointDetectionEnabledEjPb,
                            __ZN6H13ISP12H13ISPDevice27ISP_GetJasperClockNumParamsEjPj,
                            __ZN6H13ISP12H13ISPDevice27SetBinningGainLuxThresholdsEjjj,
                            __ZN6H13ISP12H13ISPDevice27SetChargePumpFrequencyIndexEjj,
                            __ZN6H13ISP12H13ISPDevice27SetFaceDetectionWindowParamEj19sCIspRectNormalized,
                            __ZN6H13ISP12H13ISPDevice27SetIndividualTorchLEDLevelsEjj,
                            __ZN6H13ISP12H13ISPDevice27SetMasterSlaveContrastFocusEjb,
                            __ZN6H13ISP12H13ISPDevice27SetScalerChromaSampleOffsetEjhh18eCIspBackEndOutput,
                            __ZN6H13ISP12H13ISPDevice28EnableTimeLapseConfigurationEjb,
                            __ZN6H13ISP12H13ISPDevice28GetCurrentMIPIFrequencyIndexEjPj,
                            __ZN6H13ISP12H13ISPDevice28GetPixClockFrequencyForIndexEjjPj,
                            __ZN6H13ISP12H13ISPDevice28ISP_CreateMultiCameraSessionEP30H13ISPMultiCameraSessionStruct,
                            __ZN6H13ISP12H13ISPDevice28ISP_GetGDCBesOutputValidRectEjPK24H13ISPOutputPresetStructPK17sCIspCameraConfigfP9sCIspRect,
                            __ZN6H13ISP12H13ISPDevice28ReturnAllSharedBuffersInPoolEttj,
                            __ZN6H13ISP12H13ISPDevice28SetAEIntegrationTimeAndGainsEjjtttjjjttt,
                            __ZN6H13ISP12H13ISPDevice28SetAPSOffsetCorrectionSchemeEjj,
                            __ZN6H13ISP12H13ISPDevice28SetMinimumFrameSkippingRatioEjj,
                            __ZN6H13ISP12H13ISPDevice29GetAEGainCapOffExposureUpdateEjPj,
                            __ZN6H13ISP12H13ISPDevice29GetStrobeLEDCalibrationValuesEjP26sCIspPerModuleLEDCalibData,
                            __ZN6H13ISP12H13ISPDevice29ISP_DestroyMultiCameraSessionEv,
                            __ZN6H13ISP12H13ISPDevice29ISP_FlushInactiveDARTMappingsEv,
                            __ZN6H13ISP12H13ISPDevice29ISP_IsSupportedFrontAutoFocusEv,
                            __ZN6H13ISP12H13ISPDevice29ISP_SetBestMIPIFrequencyIndexEjj,
                            __ZN6H13ISP12H13ISPDevice29OverrideTotalStrobeMaxCurrentEjjj,
                            __ZN6H13ISP12H13ISPDevice29SetAEGainCapOffExposureUpdateEjj,
                            __ZN6H13ISP12H13ISPDevice29SetSensorInterfacePixelFormatEjhhhh,
                            __ZN6H13ISP12H13ISPDevice30GetChargePumpFrequencyForIndexEjjPj,
                            __ZN6H13ISP12H13ISPDevice30ISP_CreateClientLoggingSessionEjb,
                            __ZN6H13ISP12H13ISPDevice30ISP_DriverInitiatedManualFocusEjj,
                            __ZN6H13ISP12H13ISPDevice30ISP_EnableMIPIClockAdjustmentsEb,
                            __ZN6H13ISP12H13ISPDevice30ISP_GetCurrentJasperClockBanksEjP27H13ISPJasperBankIndexConfig,
                            __ZN6H13ISP12H13ISPDevice30ISP_SetCurrentJasperClockBanksEjP27H13ISPJasperBankIndexConfig,
                            __ZN6H13ISP12H13ISPDevice30RunAFIdentificationCalibrationEjP23sCIspAfIdentCalibration,
                            __ZN6H13ISP12H13ISPDevice30SetAFIdentificationCalibrationEjP23sCIspAfIdentCalibration,
                            __ZN6H13ISP12H13ISPDevice30UpdateCurrentDisplayBrightnessEjf,
                            __ZN6H13ISP12H13ISPDevice31ISP_ShowSharedMemoryAllocationsEy,
                            __ZN6H13ISP12H13ISPDevice31RunAPSOISInteractionCalibrationEjP26sCIspApsSphIntrCalibration,
                            __ZN6H13ISP12H13ISPDevice31RunOISIdentificationCalibrationEjP24sCIspSphIdentCalibration,
                            __ZN6H13ISP12H13ISPDevice31SetAEStability_UnstableToStableEjh,
                            __ZN6H13ISP12H13ISPDevice31SetAPSOISInteractionCalibrationEjP26sCIspApsSphIntrCalibration,
                            __ZN6H13ISP12H13ISPDevice31SetHDRRatioClipScoreIIRStrengthEjj,
                            __ZN6H13ISP12H13ISPDevice31SetOISIdentificationCalibrationEjP24sCIspSphIdentCalibration,
                            __ZN6H13ISP12H13ISPDevice32GetCurrentPixClockFrequencyIndexEjPj,
                            __ZN6H13ISP12H13ISPDevice32GetSensorNoiseModelForSensorModeEj25eCIspCameraConfigModeEnumPjS2_S2_S2_,
                            __ZN6H13ISP12H13ISPDevice32ISP_GetFirmwareWorkProcessorItemEjP41H13ISPFirmwareWorkProcessorItemArgsStruct,
                            __ZN6H13ISP12H13ISPDevice32ISP_OverrideSensorClockFrequencyEjj,
                            __ZN6H13ISP12H13ISPDevice32ISP_SelectBestMIPIFrequencyIndexEjPj,
                            __ZN6H13ISP12H13ISPDevice32ISP_SetTimeOfFlightProjectorModeEj,
                            __ZN6H13ISP12H13ISPDevice32SetMultiCamTimeMachinePropertiesEjt,
                            __ZN6H13ISP12H13ISPDevice32SetSharedBufferPoolConfigurationEtttb,
                            __ZN6H13ISP12H13ISPDevice33EnableLocalThumbnailRawBufferModeEjb,
                            __ZN6H13ISP12H13ISPDevice33GetAEMaxGainCapWithExposureUpdateEjPj,
                            __ZN6H13ISP12H13ISPDevice33GetMaxResolutionSensorConfigIndexEjRt,
                            __ZN6H13ISP12H13ISPDevice33ISP_RegisterFirmwareWorkProcessorEP49H13ISPFirmwareWorkProcessorRegistrationArgsStruct,
                            __ZN6H13ISP12H13ISPDevice33ISP_ReleasePreMappedClientSurfaceEj,
                            __ZN6H13ISP12H13ISPDevice33ISP_SetBestPixClockFrequencyIndexEjj,
                            __ZN6H13ISP12H13ISPDevice33ISP_TerminateClientLoggingSessionEj,
                            __ZN6H13ISP12H13ISPDevice33SendAccelerometerSampleToFirmwareEyiii,
                            __ZN6H13ISP12H13ISPDevice33SendSysConfigCalibrationDataByKeyEPKNS0_21sSysCnfgCalDescriptorEP14__CFDictionary,
                            __ZN6H13ISP12H13ISPDevice33SetAEBracketingWaitForFocusParamsEjjj,
                            __ZN6H13ISP12H13ISPDevice33SetAEMaxGainCapWithExposureUpdateEjj,
                            __ZN6H13ISP12H13ISPDevice34GetCurrentChargePumpFrequencyIndexEjPj,
                            __ZN6H13ISP12H13ISPDevice35ISP_SetBestChargePumpFrequencyIndexEjj,
                            __ZN6H13ISP12H13ISPDevice35ISP_UnregisterFirmwareWorkProcessorEj,
                            __ZN6H13ISP12H13ISPDevice35SetMultiCamMasterSlaveConfigurationEjhh20eCIspStatsMasterModehP24sCIspMultiCamSlaveConfig,
                            __ZN6H13ISP12H13ISPDevice36EnableAEGainConvergenceNormalizationEjb,
                            __ZN6H13ISP12H13ISPDevice36ISP_SelectBestPixClockFrequencyIndexEjPj,
                            __ZN6H13ISP12H13ISPDevice37ConfigureStillImageIntermediateTapDMAEjj27eCIspVOutputColorRangeModes18eCIspOutputFormatsb,
                            __ZN6H13ISP12H13ISPDevice37ISP_CompleteFirmwareWorkProcessorItemEjP41H13ISPFirmwareWorkProcessorItemArgsStruct,
                            __ZN6H13ISP12H13ISPDevice37ISP_RunAlgoChooseJasperPriPairIndicesEjPjj,
                            __ZN6H13ISP12H13ISPDevice37RegisterDeviceMessageNotificationProcEPFiPS0_jPvS2_ES2_,
                            __ZN6H13ISP12H13ISPDevice38ISP_SelectBestChargePumpFrequencyIndexEjPj,
                            __ZN6H13ISP12H13ISPDevice39ISP_ReleaseFirmwareWorkProcessorBuffersEj,
                            __ZN6H13ISP12H13ISPDevice41ISP_SetFrontCameraOffsetFromDisplayCenterEv,
                            __ZN6H13ISP12H13ISPDevice42SetHDRRatioHightLightClipDetectSensitivityEjj,
                            __ZN6H13ISP12H13ISPDevice49SetTargetToHostFrameDeliveryCadenceInMicroSecondsEj,
                            __ZN6H13ISP12H13ISPDevice6GetLSCEjPhS1_S1_S1_PfS2_,
                            __ZN6H13ISP12H13ISPDevice7DPCStopEj,
                            __ZN6H13ISP12H13ISPDevice7FIDStopEj,
                            __ZN6H13ISP12H13ISPDevice7SNFStopEj,
                            __ZN6H13ISP12H13ISPDevice8DPCStartEj,
                            __ZN6H13ISP12H13ISPDevice8DRCStartEj,
                            __ZN6H13ISP12H13ISPDevice8EnableAEEjb,
                            __ZN6H13ISP12H13ISPDevice8FIDStartEjhj,
                            __ZN6H13ISP12H13ISPDevice8SNFStartEj,
                            __ZN6H13ISP12H13ISPDevice8SetAEAGCEjt,
                            __ZN6H13ISP12H13ISPDevice9ALSResumeEj,
                            __ZN6H13ISP12H13ISPDevice9BLCResumeEj,
                            __ZN6H13ISP12H13ISPDevice9DPCEnableEjb,
                            __ZN6H13ISP12H13ISPDevice9EnableALSEj14eCIspALSMethod,
                            __ZN6H13ISP12H13ISPDevice9EnableAWBEjb,
                            __ZN6H13ISP12H13ISPDevice9EnableBPCEjb,
                            __ZN6H13ISP12H13ISPDevice9EnableCAREjb,
                            __ZN6H13ISP12H13ISPDevice9EnableCNREjb,
                            __ZN6H13ISP12H13ISPDevice9EnableDPMEjb,
                            __ZN6H13ISP12H13ISPDevice9EnableFODEjb,
                            __ZN6H13ISP12H13ISPDevice9EnableSBSEjb,
                            __ZN6H13ISP12H13ISPDevice9EnableTNREjP21H13ISPTNRConfigStruct,
                            __ZN6H13ISP12H13ISPDevice9EnableVISEjbb,
                            __ZN6H13ISP12H13ISPDevice9GetAPSEFLEjPj,
                            __ZN6H13ISP12H13ISPDevice9SetAEModeEjt,
                            __ZN6H13ISP12H13ISPDevice9SetMasterEjj,
                            __ZN6H13ISP12H13ISPDevice9TNRResumeEj,
                            __ZN6H13ISP12H13ISPDeviceC1EPNS_22H13ISPDeviceControllerEj,
                            __ZN6H13ISP12H13ISPDeviceC2EPNS_22H13ISPDeviceControllerEj,
                            __ZN6H13ISP12H13ISPDeviceD1Ev,
                            __ZN6H13ISP12H13ISPDeviceD2Ev,
                            __ZN6H13ISP12LoadPDEFilesEPNS_12H13ISPDeviceE,
                            __ZN6H13ISP12readStreamIdE,
                            __ZN6H13ISP14getFrameFormatEj,
                            __ZN6H13ISP16H13ISPFusionNode12onDeactivateEv,
                            __ZN6H13ISP16H13ISPFusionNode13SetFusionModeEjb,
                            __ZN6H13ISP16H13ISPFusionNode13fuseDXBuffersEP10__CVBufferS2_S2_,
                            __ZN6H13ISP16H13ISPFusionNode16SetDumpSkipRatioEi,
                            __ZN6H13ISP16H13ISPFusionNode19SetFusionThresholdsEiiii,
                            __ZN6H13ISP16H13ISPFusionNode19onMessageProcessingEPNS_24H13ISPFilterGraphMessageE,
                            __ZN6H13ISP16H13ISPFusionNodeC1EPNS_12H13ISPDeviceEjj,
                            __ZN6H13ISP16H13ISPFusionNodeC2EPNS_12H13ISPDeviceEjj,
                            __ZN6H13ISP16H13ISPFusionNodeD0Ev,
                            __ZN6H13ISP16H13ISPFusionNodeD1Ev,
                            __ZN6H13ISP16H13ISPFusionNodeD2Ev,
                            __ZN6H13ISP16ProjectorManager12setFrameRateEf,
                            __ZN6H13ISP16ProjectorManager13setEntryFloodENS0_14ProjectorModesE,
                            __ZN6H13ISP16ProjectorManager14updateOnChangeEii,
                            __ZN6H13ISP16ProjectorManager15setEntryPatternENS0_14ProjectorModesE,
                            __ZN6H13ISP16ProjectorManager16getProjectorTypeEv,
                            __ZN6H13ISP16ProjectorManager16setProjectorTypeE22H13ISPIRProjectorTypes,
                            __ZN6H13ISP16ProjectorManager16setProjectorTypeEPK14__CFDictionary,
                            __ZN6H13ISP16ProjectorManager18initializeAEParamsEv,
                            __ZN6H13ISP16ProjectorManager19_projectorSequencesE,
                            __ZN6H13ISP16ProjectorManager19getProjectorVersionEPNS_12H13ISPDeviceEiPiS3_S3_,
                            __ZN6H13ISP16ProjectorManager20applyUserDefinedTypeEv,
                            __ZN6H13ISP16ProjectorManager22populateProjectorModesEv,
                            __ZN6H13ISP16ProjectorManager27setUserDefinedProjectorTypeEPK14__CFDictionary,
                            __ZN6H13ISP16ProjectorManager33getFloodProjectorCalibrationValueEPNS_12H13ISPDeviceEiPiS3_,
                            __ZN6H13ISP16ProjectorManager8setEntryEiiiiiiiiiii,
                            __ZN6H13ISP16ProjectorManager9setParamsEiii,
                            __ZN6H13ISP16ProjectorManagerC1EPNS_12H13ISPDeviceEi,
                            __ZN6H13ISP16ProjectorManagerC2EPNS_12H13ISPDeviceEi,
                            __ZN6H13ISP16ProjectorManagerD1Ev,
                            __ZN6H13ISP16ProjectorManagerD2Ev,
                            __ZN6H13ISP16gSharedProcessorE,
                            __ZN6H13ISP16getCVPixelFormatEtht,
                            __ZN6H13ISP16getOutputPresetsEjPj13H13ISPVersionNS_22JasperOutputsAvailableE,
                            __ZN6H13ISP17LoadSavageDATFileEPNS_12H13ISPDeviceE,
                            __ZN6H13ISP17createTypeFromXpcEPv,
                            __ZN6H13ISP17createXpcFromTypeEPKv,
                            __ZN6H13ISP17getSwitchableListEPK24H13ISPOutputPresetStructjjj,
                            __ZN6H13ISP18CalculateTotalCropEjjjjjjjjjjjjPjS0_S0_S0_,
                            __ZN6H13ISP18LoadYonkersDATFileEPNS_12H13ISPDeviceE,
                            __ZN6H13ISP18sensorTestPatternsE,
                            __ZN6H13ISP19AdaptiveLensShading10compensateEPKtmmmRNS_12H13ISPDeviceERKNS_19H13ISPFrameMetadataEPK27sCIspCmdAppleChLSCConfigure,
                            __ZN6H13ISP19AdaptiveLensShading10deactivateERNS_12H13ISPDeviceE,
                            __ZN6H13ISP19AdaptiveLensShading11analyze_ALSERfS1_S1_,
                            __ZN6H13ISP19AdaptiveLensShading13analyze_covarEPKtmmmRKNS_19H13ISPFrameMetadataERf,
                            __ZN6H13ISP19AdaptiveLensShading13analyze_covarEPKtmmmRKNS_19H13ISPFrameMetadataERfff,
                            __ZN6H13ISP19AdaptiveLensShading14analyze_HybridEPKtmmmRKNS_19H13ISPFrameMetadataE,
                            __ZN6H13ISP19AdaptiveLensShading16applyLensShadingERNS_12H13ISPDeviceE,
                            __ZN6H13ISP19AdaptiveLensShading16gatherStatisticsEPKtmmmRKNS_19H13ISPFrameMetadataE,
                            __ZN6H13ISP19AdaptiveLensShading16lsGridPropertiesERKNS_19H13ISPFrameMetadataERmS4_RiS5_S5_S5_,
                            __ZN6H13ISP19AdaptiveLensShading16shouldCompensateERNS_12H13ISPDeviceERKNS_19H13ISPFrameMetadataE,
                            __ZN6H13ISP19AdaptiveLensShading22deferredInitializationERNS_12H13ISPDeviceE,
                            __ZN6H13ISP19AdaptiveLensShading7analyzeEPKtmmmRKNS_19H13ISPFrameMetadataE,
                            __ZN6H13ISP19AdaptiveLensShading7analyzeEiRNS_12H13ISPDeviceEPKtmmmRKNS_19H13ISPFrameMetadataE,
                            __ZN6H13ISP19AdaptiveLensShading8activateERNS_12H13ISPDeviceE,
                            __ZN6H13ISP19AdaptiveLensShading8lsLookupEmmm,
                            __ZN6H13ISP19AdaptiveLensShading9nextStateERNS_12H13ISPDeviceERKNS_19H13ISPFrameMetadataE,
                            __ZN6H13ISP19AdaptiveLensShadingC1Ev,
                            __ZN6H13ISP19AdaptiveLensShadingC2Ev,
                            __ZN6H13ISP19H13ISPFrameMetadata8DeepCopyEPS0_,
                            __ZN6H13ISP19H13ISPFrameMetadata8DeepFreeEv,
                            __ZN6H13ISP19H13ISPFrameMetadataC1EP10__CVBuffery,
                            __ZN6H13ISP19H13ISPFrameMetadataC1EPS0_,
                            __ZN6H13ISP19H13ISPFrameMetadataC2EP10__CVBuffery,
                            __ZN6H13ISP19H13ISPFrameMetadataC2EPS0_,
                            __ZN6H13ISP19H13ISPFrameMetadataD1Ev,
                            __ZN6H13ISP19H13ISPFrameMetadataD2Ev,
                            __ZN6H13ISP19H13ISPFrameReceiver10GetChannelEv,
                            __ZN6H13ISP19H13ISPFrameReceiver11IsSuspendedEv,
                            __ZN6H13ISP19H13ISPFrameReceiver11setFuseModeEj,
                            __ZN6H13ISP19H13ISPFrameReceiver11stopReceiveEv,
                            __ZN6H13ISP19H13ISPFrameReceiver12StopChannelsEPNS_12H13ISPDeviceEPPS0_j,
                            __ZN6H13ISP19H13ISPFrameReceiver12setHwGdrModeEb,
                            __ZN6H13ISP19H13ISPFrameReceiver12setPCEPresetEj,
                            __ZN6H13ISP19H13ISPFrameReceiver12startReceiveEv,
                            __ZN6H13ISP19H13ISPFrameReceiver13HasSharedPoolENS_33H13ISPFrameReceiverBufferPoolTypeE,
                            __ZN6H13ISP19H13ISPFrameReceiver13NoDataTimeoutEP16__CFRunLoopTimerPv,
                            __ZN6H13ISP19H13ISPFrameReceiver13ResumeReceiveEv,
                            __ZN6H13ISP19H13ISPFrameReceiver13getBufferPoolENS_33H13ISPFrameReceiverBufferPoolTypeE,
                            __ZN6H13ISP19H13ISPFrameReceiver13getOutputSizeEPjS1_S1_S1_P17H13ISPFrameFormatPb,
                            __ZN6H13ISP19H13ISPFrameReceiver13setCinVidModeEb,
                            __ZN6H13ISP19H13ISPFrameReceiver14SuspendReceiveEv,
                            __ZN6H13ISP19H13ISPFrameReceiver15StartFaceDetectEv,
                            __ZN6H13ISP19H13ISPFrameReceiver15setBufferConfigEPNS_29H13ISPFrameReceiverBufferPoolEP10__CVBuffer,
                            __ZN6H13ISP19H13ISPFrameReceiver15stopNoDataTimerEv,
                            __ZN6H13ISP19H13ISPFrameReceiver16setNewOutputSizeEjjjjjj,
                            __ZN6H13ISP19H13ISPFrameReceiver16startNoDataTimerEv,
                            __ZN6H13ISP19H13ISPFrameReceiver17InsertTestPatternEPvmmmbb,
                            __ZN6H13ISP19H13ISPFrameReceiver17SendOneShotBufferENS_33H13ISPFrameReceiverBufferPoolTypeEP10__CVBuffer,
                            __ZN6H13ISP19H13ISPFrameReceiver17SetFDFeatureFlagsEj,
                            __ZN6H13ISP19H13ISPFrameReceiver17tickleNoDataTimerEv,
                            __ZN6H13ISP19H13ISPFrameReceiver18EnablePDEStreamingEijjbPNS_32H13ISPPDEClientBufferPoolsStructE,
                            __ZN6H13ISP19H13ISPFrameReceiver18PrepareStopReceiveEv,
                            __ZN6H13ISP19H13ISPFrameReceiver18SetMetaDataOptionsEPNS_27H13ISPMetaDataOptionsStructE,
                            __ZN6H13ISP19H13ISPFrameReceiver18setDiagnosticsModeEj,
                            __ZN6H13ISP19H13ISPFrameReceiver18setPCEOutputFormatEj,
                            __ZN6H13ISP19H13ISPFrameReceiver18setupFrameReceiverEv,
                            __ZN6H13ISP19H13ISPFrameReceiver19MessageHandlerEntryEP15__CFMessagePortiPK8__CFDataPS0_,
                            __ZN6H13ISP19H13ISPFrameReceiver19SetChannelStreamingEb,
                            __ZN6H13ISP19H13ISPFrameReceiver19getSharedBufferPoolENS_33H13ISPFrameReceiverBufferPoolTypeE,
                            __ZN6H13ISP19H13ISPFrameReceiver20EnableFrameDoneTimerEb,
                            __ZN6H13ISP19H13ISPFrameReceiver20FinalizePDEStreamingEv,
                            __ZN6H13ISP19H13ISPFrameReceiver20ProcessFrameMetadataEP10__CVBufferPyNS_33H13ISPFrameReceiverBufferPoolTypeEbPh,
                            __ZN6H13ISP19H13ISPFrameReceiver20SendFWInitialBuffersENS_33H13ISPFrameReceiverBufferPoolTypeE,
                            __ZN6H13ISP19H13ISPFrameReceiver21AddPreallocatedBufferENS_33H13ISPFrameReceiverBufferPoolTypeEP10__CVBuffer,
                            __ZN6H13ISP19H13ISPFrameReceiver21AllocateOneShotBufferENS_33H13ISPFrameReceiverBufferPoolTypeEPP10__CVBuffer,
                            __ZN6H13ISP19H13ISPFrameReceiver21ModifyPoolBufferCountENS_33H13ISPFrameReceiverBufferPoolTypeEi,
                            __ZN6H13ISP19H13ISPFrameReceiver21getFirmwarePrimeCountENS_33H13ISPFrameReceiverBufferPoolTypeE,
                            __ZN6H13ISP19H13ISPFrameReceiver22ConfigurePDEBufferPoolERK27sCIspCmdChBufferPoolInfoGet29eCIspImageFlowDynamicPoolType15eCPDEProcOutputNS_33H13ISPFrameReceiverBufferPoolTypeEjj17H13ISPFrameFormatiiiifPK10__CFStringP19__CVPixelBufferPoolj,
                            __ZN6H13ISP19H13ISPFrameReceiver22InitializePDEStreamingEv,
                            __ZN6H13ISP19H13ISPFrameReceiver22updateTrackingExternalEjjji,
                            __ZN6H13ISP19H13ISPFrameReceiver23GetFrameDropRequestInfoEPbPjS2_,
                            __ZN6H13ISP19H13ISPFrameReceiver23registerMessageCallbackEPFvjjjPvS1_S1_ES1_,
                            __ZN6H13ISP19H13ISPFrameReceiver24addIODispatcherToRunLoopEv,
                            __ZN6H13ISP19H13ISPFrameReceiver26ClearFaceDetectSavedBufferEv,
                            __ZN6H13ISP19H13ISPFrameReceiver26stopProjectorWatchdogTimerEv,
                            __ZN6H13ISP19H13ISPFrameReceiver27ModifySharedPoolBufferCountENS_33H13ISPFrameReceiverBufferPoolTypeEi,
                            __ZN6H13ISP19H13ISPFrameReceiver27SetFrameDoneTimeoutDurationEd,
                            __ZN6H13ISP19H13ISPFrameReceiver27startProjectorWatchdogTimerEv,
                            __ZN6H13ISP19H13ISPFrameReceiver28addBufferPoolToFrameReceiverENS_33H13ISPFrameReceiverBufferPoolTypeEjjjjj17H13ISPFrameFormatbjjjjjjjjfPK10__CFStringjP19__CVPixelBufferPoolPP10__CVBufferbj,
                            __ZN6H13ISP19H13ISPFrameReceiver28isNewOutputSizeChangePendingEv,
                            __ZN6H13ISP19H13ISPFrameReceiver28registerFrameReceiveCallbackEPFiPvyjjPNS_36H13ISPFrameReceiverImageBufferStructEES1_,
                            __ZN6H13ISP19H13ISPFrameReceiver28sendInitialBuffersToFirmwareEPNS_29H13ISPFrameReceiverBufferPoolE,
                            __ZN6H13ISP19H13ISPFrameReceiver28sendInitialBuffersToFirmwareEPNS_35H13ISPFrameReceiverSharedBufferPoolE,
                            __ZN6H13ISP19H13ISPFrameReceiver29AllocateAndSendOneShotBuffersENS_33H13ISPFrameReceiverBufferPoolTypeEm,
                            __ZN6H13ISP19H13ISPFrameReceiver29removeIODispatcherFromRunLoopEv,
                            __ZN6H13ISP19H13ISPFrameReceiver32InsertTestPattern_YCbCr_420_Y_UVEPvS1_mmmmbb,
                            __ZN6H13ISP19H13ISPFrameReceiver33removeBufferPoolFromFrameReceiverENS_33H13ISPFrameReceiverBufferPoolTypeE,
                            __ZN6H13ISP19H13ISPFrameReceiver34addSharedBufferPoolToFrameReceiverEPNS_35H13ISPFrameReceiverSharedBufferPoolEb,
                            __ZN6H13ISP19H13ISPFrameReceiver35registerFramePostProcessingCallbackEPFvPvPS0_yPNS_36H13ISPFrameReceiverImageBufferStructEPjES1_,
                            __ZN6H13ISP19H13ISPFrameReceiver37SendFWStartCmdBeforeDeliveringBuffersEb,
                            __ZN6H13ISP19H13ISPFrameReceiver48EnableMetaDataDictionaryCreationOnRealTimeThreadEb,
                            __ZN6H13ISP19H13ISPFrameReceiver7HasPoolENS_33H13ISPFrameReceiverBufferPoolTypeE,
                            __ZN6H13ISP19H13ISPFrameReceiver9FrameDoneEPviPyi,
                            __ZN6H13ISP19H13ISPFrameReceiver9SetFDModeEh,
                            __ZN6H13ISP19H13ISPFrameReceiverC1EPNS_12H13ISPDeviceEjP21H13ISPTNRConfigStructjj,
                            __ZN6H13ISP19H13ISPFrameReceiverC2EPNS_12H13ISPDeviceEjP21H13ISPTNRConfigStructjj,
                            __ZN6H13ISP19H13ISPFrameReceiverD1Ev,
                            __ZN6H13ISP19H13ISPFrameReceiverD2Ev,
                            __ZN6H13ISP19H13ISPGraphExitNode10onActivateEv,
                            __ZN6H13ISP19H13ISPGraphExitNode12onDeactivateEv,
                            __ZN6H13ISP19H13ISPGraphExitNode19onMessageProcessingEPNS_24H13ISPFilterGraphMessageE,
                            __ZN6H13ISP19H13ISPGraphExitNode41RegisterH13ISPFrameReceivedProcForChannelEjPFiPvyjjPNS_36H13ISPFrameReceiverImageBufferStructEE,
                            __ZN6H13ISP19H13ISPGraphExitNodeC1Ev,
                            __ZN6H13ISP19H13ISPGraphExitNodeC2Ev,
                            __ZN6H13ISP19H13ISPGraphExitNodeD0Ev,
                            __ZN6H13ISP19H13ISPGraphExitNodeD1Ev,
                            __ZN6H13ISP19H13ISPGraphExitNodeD2Ev,
                            __ZN6H13ISP19H13ISPGraphInfoNode10onActivateEv,
                            __ZN6H13ISP19H13ISPGraphInfoNode12onDeactivateEv,
                            __ZN6H13ISP19H13ISPGraphInfoNode19onMessageProcessingEPNS_24H13ISPFilterGraphMessageE,
                            __ZN6H13ISP19H13ISPGraphInfoNodeC1Ev,
                            __ZN6H13ISP19H13ISPGraphInfoNodeC2Ev,
                            __ZN6H13ISP19H13ISPGraphInfoNodeD0Ev,
                            __ZN6H13ISP19H13ISPGraphInfoNodeD1Ev,
                            __ZN6H13ISP19H13ISPGraphInfoNodeD2Ev,
                            __ZN6H13ISP19H13ISPGraphNullNode10DeactivateEv,
                            __ZN6H13ISP19H13ISPGraphNullNode14EnqueueMessageEPNS_24H13ISPFilterGraphMessageE,
                            __ZN6H13ISP19H13ISPGraphNullNode8ActivateEv,
                            __ZN6H13ISP19H13ISPMotionManager20GetOscarTimeSyncInfoEPNS_29H13ISPOscarTimeSyncInfoStructE,
                            __ZN6H13ISP19H13ISPMotionManagerC1EPNS_12H13ISPDeviceE,
                            __ZN6H13ISP19H13ISPMotionManagerC2EPNS_12H13ISPDeviceE,
                            __ZN6H13ISP19H13ISPMotionManagerD1Ev,
                            __ZN6H13ISP19H13ISPMotionManagerD2Ev,
                            __ZN6H13ISP19JasperConfigManager11RenderToYUVEjj,
                            __ZN6H13ISP19JasperConfigManager12getFrameModeEv,
                            __ZN6H13ISP19JasperConfigManager13dumpFrameModeEPNS_12H13ISPDeviceEjj,
                            __ZN6H13ISP19JasperConfigManager13getSequenceIdEv,
                            __ZN6H13ISP19JasperConfigManager14applyFrameModeEPNS_12H13ISPDeviceEjjPNS_20H13ISPServicesRemoteE,
                            __ZN6H13ISP19JasperConfigManager14isBurstAllowedEv,
                            __ZN6H13ISP19JasperConfigManager16describeSequenceEPiS1_,
                            __ZN6H13ISP19JasperConfigManager17setFrameFromArrayEPNS_12H13ISPDeviceEjPKv,
                            __ZN6H13ISP19JasperConfigManager18configureFrameModeEj,
                            __ZN6H13ISP19JasperConfigManager18getJasperBurstSizeEv,
                            __ZN6H13ISP19JasperConfigManager18replaceFrameConfigEPNS_12H13ISPDeviceEjiPK8__CFData,
                            __ZN6H13ISP19JasperConfigManager18setJasperBurstSizeEt,
                            __ZN6H13ISP19JasperConfigManager19startOffsetSequenceEPNS_12H13ISPDeviceEjjPKvib,
                            __ZN6H13ISP19JasperConfigManager20FrameModeDescriptionEPjS1_S1_,
                            __ZN6H13ISP19JasperConfigManager20overrideJasperConfigEPK14__CFDictionary,
                            __ZN6H13ISP19JasperConfigManager20setSequenceFromArrayEPNS_12H13ISPDeviceEjPKv,
                            __ZN6H13ISP19JasperConfigManager21preloadFrameFromArrayEPNS_12H13ISPDeviceEjPKv,
                            __ZN6H13ISP19JasperConfigManager22GetFrameSequenceNumberEP10__CVBuffer,
                            __ZN6H13ISP19JasperConfigManager22isValidSequenceAppliedEv,
                            __ZN6H13ISP19JasperConfigManager23aggregateJasperSpecDataEP10__CVBufferb,
                            __ZN6H13ISP19JasperConfigManager23aggregateJasperSpecDataEPvmb,
                            __ZN6H13ISP19JasperConfigManager23maxJasperCloudSizeBytesEv,
                            __ZN6H13ISP19JasperConfigManager23setFrameOffsetFromArrayEPNS_12H13ISPDeviceEjPKv,
                            __ZN6H13ISP19JasperConfigManager25overridePreferredDistanceEfd,
                            __ZN6H13ISP19JasperConfigManager26GetLastFrameSequenceNumberEv,
                            __ZN6H13ISP19JasperConfigManager26getAggregatedBufferPointerEPm,
                            __ZN6H13ISP19JasperConfigManager28updateCurrentSequenceAnchorsEPNS_12H13ISPDeviceEjPKv,
                            __ZN6H13ISP19JasperConfigManager29setJasperProjectorBanksStatusEPNS_12H13ISPDeviceEPKbj,
                            __ZN6H13ISP19JasperConfigManager30setFrameModeDictionaryLocationEPK10__CFString,
                            __ZN6H13ISP19isSwitchablePresetsEPK24H13ISPOutputPresetStructS2_,
                            __ZN6H13ISP20FindCommandInSetfileEPhxt,
                            __ZN6H13ISP20H13ISPCreateCVBufferEjjjj17H13ISPFrameFormatbjjjbjjfj,
                            __ZN6H13ISP20H13ISPFirmwareLogger31SetFirmwareLoggerThreadPriorityEj,
                            __ZN6H13ISP20H13ISPFirmwareLoggerC1EPNS_12H13ISPDeviceEPFvPvPKcES3_bjj,
                            __ZN6H13ISP20H13ISPFirmwareLoggerC2EPNS_12H13ISPDeviceEPFvPvPKcES3_bjj,
                            __ZN6H13ISP20H13ISPFirmwareLoggerD1Ev,
                            __ZN6H13ISP20H13ISPFirmwareLoggerD2Ev,
                            __ZN6H13ISP20H13ISPServicesRemote10DisconnectEv,
                            __ZN6H13ISP20H13ISPServicesRemote11GetPropertyEP31H13ISPServicesRemotePropertyGet,
                            __ZN6H13ISP20H13ISPServicesRemote11SetPropertyEP31H13ISPServicesRemotePropertySet,
                            __ZN6H13ISP20H13ISPServicesRemote14GetRgbIrReportEPP14__CFDictionary,
                            __ZN6H13ISP20H13ISPServicesRemote14ReadDictionaryEPK10__CFStringPPK14__CFDictionary,
                            __ZN6H13ISP20H13ISPServicesRemote15WriteDictionaryEPK10__CFStringPK14__CFDictionary,
                            __ZN6H13ISP20H13ISPServicesRemote15sendMessageSyncEPv,
                            __ZN6H13ISP20H13ISPServicesRemote16SetPropertyAsyncEP31H13ISPServicesRemotePropertySet,
                            __ZN6H13ISP20H13ISPServicesRemote16VerifyConnectionEv,
                            __ZN6H13ISP20H13ISPServicesRemote16sendMessageAsyncEPv28H13ISPServicesRemoteProperty,
                            __ZN6H13ISP20H13ISPServicesRemote19GetPropertyInternalEP31H13ISPServicesRemotePropertyGet,
                            __ZN6H13ISP20H13ISPServicesRemote19SaveJasperCalibDataEPK8__CFData,
                            __ZN6H13ISP20H13ISPServicesRemote19SetPropertyInternalEP31H13ISPServicesRemotePropertySetb,
                            __ZN6H13ISP20H13ISPServicesRemote19UpdateRgbIrPceCalibER26sCIspCmdChPearlCalibration,
                            __ZN6H13ISP20H13ISPServicesRemote21CreateJasperCalibDataEPPK8__CFData,
                            __ZN6H13ISP20H13ISPServicesRemote29UpdateFlickerIRSignalRateHintEf,
                            __ZN6H13ISP20H13ISPServicesRemote7ConnectEPFv25H13ISPServicesRemoteEventPvES2_,
                            __ZN6H13ISP20H13ISPServicesRemote7RunRgbjEP10__CVBufferPK14__CFDictionary23kFigJasperRgbBufferTypebjjtjbjjjj20kFigIsfStepDetection,
                            __ZN6H13ISP20H13ISPServicesRemote8ReadDataEPK10__CFStringPPK8__CFData,
                            __ZN6H13ISP20H13ISPServicesRemote8RunRgbIrEP10__CVBufferS2_S2_PK14__CFDictionaryS5_S5_btbibb20kFigIsfStepDetection,
                            __ZN6H13ISP20H13ISPServicesRemote9WriteDataEPK10__CFStringPK8__CFData,
                            __ZN6H13ISP20H13ISPServicesRemoteC1Ev,
                            __ZN6H13ISP20H13ISPServicesRemoteC2Ev,
                            __ZN6H13ISP20H13ISPServicesRemoteD1Ev,
                            __ZN6H13ISP20H13ISPServicesRemoteD2Ev,
                            __ZN6H13ISP21H13ISPFilterGraphNode10DeactivateEv,
                            __ZN6H13ISP21H13ISPFilterGraphNode11RemoveFrameERNS_34H13ISPFrameReceiverFrameInfoStructENS_33H13ISPFrameReceiverBufferPoolTypeE,
                            __ZN6H13ISP21H13ISPFilterGraphNode13AddOutputNodeEPS0_,
                            __ZN6H13ISP21H13ISPFilterGraphNode14EnqueueMessageEPNS_24H13ISPFilterGraphMessageE,
                            __ZN6H13ISP21H13ISPFilterGraphNode7GetTypeEv,
                            __ZN6H13ISP21H13ISPFilterGraphNode8ActivateEv,
                            __ZN6H13ISP21H13ISPFilterGraphNode8AddFrameERNS_34H13ISPFrameReceiverFrameInfoStructENS_33H13ISPFrameReceiverBufferPoolTypeEjP10__CVBuffer,
                            __ZN6H13ISP21H13ISPFilterGraphNodeC1E19H13ISPGraphNodeType,
                            __ZN6H13ISP21H13ISPFilterGraphNodeC2E19H13ISPGraphNodeType,
                            __ZN6H13ISP21H13ISPFilterGraphNodeD0Ev,
                            __ZN6H13ISP21H13ISPFilterGraphNodeD1Ev,
                            __ZN6H13ISP21H13ISPFilterGraphNodeD2Ev,
                            __ZN6H13ISP21H13ISPJasperColorNode14EnqueueMessageEPNS_24H13ISPFilterGraphMessageE,
                            __ZN6H13ISP21H13ISPJasperColorNode14setCalibrationEPNS_28H13ISPJasperColorCalibrationE,
                            __ZN6H13ISP21H13ISPJasperColorNodeC1Ev,
                            __ZN6H13ISP21H13ISPJasperColorNodeC2Ev,
                            __ZN6H13ISP21H13ISPJasperColorNodeD0Ev,
                            __ZN6H13ISP21H13ISPJasperColorNodeD1Ev,
                            __ZN6H13ISP21H13ISPJasperColorNodeD2Ev,
                            __ZN6H13ISP21H13ISPJasperDepthNode10onActivateEv,
                            __ZN6H13ISP21H13ISPJasperDepthNode12onDeactivateEv,
                            __ZN6H13ISP21H13ISPJasperDepthNode13processJasperEPNS_24H13ISPFilterGraphMessageE,
                            __ZN6H13ISP21H13ISPJasperDepthNode13setBufferPoolEP18__CVDataBufferPool,
                            __ZN6H13ISP21H13ISPJasperDepthNode13setJasperModeEi,
                            __ZN6H13ISP21H13ISPJasperDepthNode14setCalibrationEPNS_28H13ISPJasperColorCalibrationE,
                            __ZN6H13ISP21H13ISPJasperDepthNode15setGmoDebugModeEb,
                            __ZN6H13ISP21H13ISPJasperDepthNode17setProcessingModeE24kFigJasperProcessingMode,
                            __ZN6H13ISP21H13ISPJasperDepthNode18setFirmwareIsOwnerEb,
                            __ZN6H13ISP21H13ISPJasperDepthNode19onMessageProcessingEPNS_24H13ISPFilterGraphMessageE,
                            __ZN6H13ISP21H13ISPJasperDepthNode20generateFrameConfigsEPNS_12H13ISPDeviceEjjPK14__CFDictionaryRNSt3__16vectorINS0_15BankFrameConfigENS6_9allocatorIS8_EEEEjPNS_20H13ISPServicesRemoteE,
                            __ZN6H13ISP21H13ISPJasperDepthNode20updateJasperMetadataEP10__CVBufferP14__CFDictionary,
                            __ZN6H13ISP21H13ISPJasperDepthNode21setJasperFrameRateMaxEf,
                            __ZN6H13ISP21H13ISPJasperDepthNode21setJasperFrameRateMinEf,
                            __ZN6H13ISP21H13ISPJasperDepthNode22setAutoFocusAssistanceEbPNS_19H13ISPFrameReceiverEb,
                            __ZN6H13ISP21H13ISPJasperDepthNode23setComplianceTimeoutSecEj,
                            __ZN6H13ISP21H13ISPJasperDepthNode28setGmoShouldDropBeforeWakeupEb,
                            __ZN6H13ISP21H13ISPJasperDepthNodeC1EPNS_12H13ISPDeviceEjPNS_20H13ISPServicesRemoteE,
                            __ZN6H13ISP21H13ISPJasperDepthNodeC2EPNS_12H13ISPDeviceEjPNS_20H13ISPServicesRemoteE,
                            __ZN6H13ISP21H13ISPJasperDepthNodeD0Ev,
                            __ZN6H13ISP21H13ISPJasperDepthNodeD1Ev,
                            __ZN6H13ISP21H13ISPJasperDepthNodeD2Ev,
                            __ZN6H13ISP21H13ISPSetfileSelectorC1EtjjjjPhjjjtt,
                            __ZN6H13ISP21H13ISPSetfileSelectorC2EtjjjjPhjjjtt,
                            __ZN6H13ISP22CreateFormatedMetadataERK19sCIspMetaDataShared,
                            __ZN6H13ISP22H13ISPDeviceController21SetupDeviceControllerEv,
                            __ZN6H13ISP22H13ISPDeviceControllerC1EPFiPS0_PvPNS_12H13ISPDeviceEES2_,
                            __ZN6H13ISP22H13ISPDeviceControllerC2EPFiPS0_PvPNS_12H13ISPDeviceEES2_,
                            __ZN6H13ISP22H13ISPDeviceControllerD1Ev,
                            __ZN6H13ISP22H13ISPDeviceControllerD2Ev,
                            __ZN6H13ISP22ValidatePDECalibrationEPNS_12H13ISPDeviceEj,
                            __ZN6H13ISP22getCameraStrobeMaxLoadEv,
                            __ZN6H13ISP22getFrameFormatMetaInfoEjPNS_20_FrameFormatMetaInfoE,
                            __ZN6H13ISP23DepthRearConfigurations16getWidthOfPresetEj,
                            __ZN6H13ISP23DepthRearConfigurations17getHeightOfPresetEj,
                            __ZN6H13ISP23DepthRearConfigurations23getRegistrationOfPresetEj,
                            __ZN6H13ISP23DepthRearConfigurations5CountEv,
                            __ZN6H13ISP23DepthRearConfigurations8supportsEjPK24H13ISPPlatformInfoStruct,
                            __ZN6H13ISP23DepthRearConfigurations9getPresetEiib,
                            __ZN6H13ISP23H13ISPPhotometerManager17PhotometerCommandENS_24PhotometerManagerCommandE,
                            __ZN6H13ISP23H13ISPPhotometerManager19GetCorrectionFactorEPd,
                            __ZN6H13ISP23H13ISPPhotometerManager19SetIRSignalRateHintEf,
                            __ZN6H13ISP23H13ISPPhotometerManager26PhotometerAnalysisCallbackEP28H13ISPFlickerDetectorContextP25photometer_flicker_result,
                            __ZN6H13ISP23H13ISPPhotometerManager6SetLuxEj,
                            __ZN6H13ISP23H13ISPPhotometerManagerC1EPFiP28H13ISPFlickerDetectorContextPvP25photometer_flicker_resultES3_,
                            __ZN6H13ISP23H13ISPPhotometerManagerC2EPFiP28H13ISPFlickerDetectorContextPvP25photometer_flicker_resultES3_,
                            __ZN6H13ISP23H13ISPPhotometerManagerD1Ev,
                            __ZN6H13ISP23H13ISPPhotometerManagerD2Ev,
                            __ZN6H13ISP23H13ISPThreadReadySyncer15signalAndUnlockEv,
                            __ZN6H13ISP23H13ISPThreadReadySyncer4lockEv,
                            __ZN6H13ISP23H13ISPThreadReadySyncer4waitEv,
                            __ZN6H13ISP23H13ISPThreadReadySyncerC1Ev,
                            __ZN6H13ISP23H13ISPThreadReadySyncerC2Ev,
                            __ZN6H13ISP23H13ISPThreadReadySyncerD1Ev,
                            __ZN6H13ISP23H13ISPThreadReadySyncerD2Ev,
                            __ZN6H13ISP23g_ProjectorSettings_SMPE,
                            __ZN6H13ISP24DepthFrontConfigurations16getWidthOfPresetEj,
                            __ZN6H13ISP24DepthFrontConfigurations17getHeightOfPresetEj,
                            __ZN6H13ISP24DepthFrontConfigurations23getRegistrationOfPresetEj,
                            __ZN6H13ISP24DepthFrontConfigurations5CountEv,
                            __ZN6H13ISP24DepthFrontConfigurations9getPresetEiib,
                            __ZN6H13ISP24H13ISPCFLocalMessagePort16SetDispatchQueueEP16dispatch_queue_s,
                            __ZN6H13ISP24H13ISPCFLocalMessagePortC1EPK10__CFStringPFPK8__CFDataP15__CFMessagePortiS6_PvEPFvS8_S9_ES9_,
                            __ZN6H13ISP24H13ISPCFLocalMessagePortC2EPK10__CFStringPFPK8__CFDataP15__CFMessagePortiS6_PvEPFvS8_S9_ES9_,
                            __ZN6H13ISP24H13ISPCFLocalMessagePortD0Ev,
                            __ZN6H13ISP24H13ISPCFLocalMessagePortD1Ev,
                            __ZN6H13ISP24H13ISPCFLocalMessagePortD2Ev,
                            __ZN6H13ISP24H13ISPCreateCVBufferPoolEjjjj17H13ISPFrameFormatlbjjjbjjfPK10__CFStringjbj,
                            __ZN6H13ISP24H13ISPFilterGraphManager10DeactivateEv,
                            __ZN6H13ISP24H13ISPFilterGraphManager12AddEntryNodeEPNS_21H13ISPFilterGraphNodeE,
                            __ZN6H13ISP24H13ISPFilterGraphManager12ConnectNodesEPNS_21H13ISPFilterGraphNodeES2_,
                            __ZN6H13ISP24H13ISPFilterGraphManager14EnqueueMessageEPNS_24H13ISPFilterGraphMessageE,
                            __ZN6H13ISP24H13ISPFilterGraphManager7AddNodeEPNS_21H13ISPFilterGraphNodeE,
                            __ZN6H13ISP24H13ISPFilterGraphManager7GetNodeE19H13ISPGraphNodeTypePPNS_21H13ISPFilterGraphNodeE,
                            __ZN6H13ISP24H13ISPFilterGraphManager8ActivateEv,
                            __ZN6H13ISP24H13ISPFilterGraphManagerC1Ev,
                            __ZN6H13ISP24H13ISPFilterGraphManagerC2Ev,
                            __ZN6H13ISP24H13ISPFilterGraphManagerD0Ev,
                            __ZN6H13ISP24H13ISPFilterGraphManagerD1Ev,
                            __ZN6H13ISP24H13ISPFilterGraphManagerD2Ev,
                            __ZN6H13ISP24H13ISPGraphFrameSyncNode10onActivateEv,
                            __ZN6H13ISP24H13ISPGraphFrameSyncNode12onDeactivateEv,
                            __ZN6H13ISP24H13ISPGraphFrameSyncNode13EnableChannelEj,
                            __ZN6H13ISP24H13ISPGraphFrameSyncNode14DisableChannelEj,
                            __ZN6H13ISP24H13ISPGraphFrameSyncNode19onMessageProcessingEPNS_24H13ISPFilterGraphMessageE,
                            __ZN6H13ISP24H13ISPGraphFrameSyncNode21GetNumEnabledChannelsEv,
                            __ZN6H13ISP24H13ISPGraphFrameSyncNode23CheckForSynchronizationENS_18GraphFrameCategoryE,
                            __ZN6H13ISP24H13ISPGraphFrameSyncNode27AllocateAndSendGraphMessageEjPPNS_30H13ISPGraphFrameSyncInfoStructE,
                            __ZN6H13ISP24H13ISPGraphFrameSyncNodeC1EPNS_12H13ISPDeviceE,
                            __ZN6H13ISP24H13ISPGraphFrameSyncNodeC2EPNS_12H13ISPDeviceE,
                            __ZN6H13ISP24H13ISPGraphFrameSyncNodeD0Ev,
                            __ZN6H13ISP24H13ISPGraphFrameSyncNodeD1Ev,
                            __ZN6H13ISP24H13ISPGraphFrameSyncNodeD2Ev,
                            __ZN6H13ISP25CreateH13ISPFrameReceiverEPNS_39H13ISPFrameReceiverCreationParamsStructE,
                            __ZN6H13ISP25H13ISPCFRemoteMessagePort16SetDispatchQueueEP16dispatch_queue_s,
                            __ZN6H13ISP25H13ISPCFRemoteMessagePortC1EPK10__CFStringPFvP15__CFMessagePortPvE,
                            __ZN6H13ISP25H13ISPCFRemoteMessagePortC2EPK10__CFStringPFvP15__CFMessagePortPvE,
                            __ZN6H13ISP25H13ISPCFRemoteMessagePortD0Ev,
                            __ZN6H13ISP25H13ISPCFRemoteMessagePortD1Ev,
                            __ZN6H13ISP25H13ISPCFRemoteMessagePortD2Ev,
                            __ZN6H13ISP25g_ProjectorSettings_PearlE,
                            __ZN6H13ISP25getExternalStrobeAttachedEv,
                            __ZN6H13ISP25isVaderProjectorCompliantEv,
                            __ZN6H13ISP26DestroyH13ISPFrameReceiverEPNS_19H13ISPFrameReceiverE,
                            __ZN6H13ISP26H13ISPGetCFPreferenceArrayEPK10__CFStringS2_Pjj,
                            __ZN6H13ISP26H13ISPParallelDispatchNode10onActivateEv,
                            __ZN6H13ISP26H13ISPParallelDispatchNode12onDeactivateEv,
                            __ZN6H13ISP26H13ISPParallelDispatchNode16AddExecutionNodeEPNS_21H13ISPFilterGraphNodeE,
                            __ZN6H13ISP26H13ISPParallelDispatchNode19onMessageProcessingEPNS_24H13ISPFilterGraphMessageE,
                            __ZN6H13ISP26H13ISPParallelDispatchNodeC1Ev,
                            __ZN6H13ISP26H13ISPParallelDispatchNodeC2Ev,
                            __ZN6H13ISP26H13ISPParallelDispatchNodeD0Ev,
                            __ZN6H13ISP26H13ISPParallelDispatchNodeD1Ev,
                            __ZN6H13ISP26H13ISPParallelDispatchNodeD2Ev,
                            __ZN6H13ISP26H13ISPPearlCalibrationNode10onActivateEv,
                            __ZN6H13ISP26H13ISPPearlCalibrationNode11isSessionOKEP10__CVBufferPK14__CFDictionaryS5_,
                            __ZN6H13ISP26H13ISPPearlCalibrationNode12onDeactivateEv,
                            __ZN6H13ISP26H13ISPPearlCalibrationNode14dropPDEBuffersEPNS_24H13ISPFilterGraphMessageEt,
                            __ZN6H13ISP26H13ISPPearlCalibrationNode14updateMetadataEP14__CFDictionary,
                            __ZN6H13ISP26H13ISPPearlCalibrationNode16markCurrentFrameEP14__CFDictionary,
                            __ZN6H13ISP26H13ISPPearlCalibrationNode19onMessageProcessingEPNS_24H13ISPFilterGraphMessageE,
                            __ZN6H13ISP26H13ISPPearlCalibrationNode22algorithmPreconditionsEP10__CVBufferPK14__CFDictionaryS5_,
                            __ZN6H13ISP26H13ISPPearlCalibrationNode3runEP10__CVBufferP14__CFDictionaryS2_PKS3_S2_,
                            __ZN6H13ISP26H13ISPPearlCalibrationNode9isFrameOKEP10__CVBufferPK14__CFDictionaryS5_,
                            __ZN6H13ISP26H13ISPPearlCalibrationNodeC1EPNS_12H13ISPDeviceEPFvRN3Isf10IsfHistoryER38H13ISPAnalyticsIsfHistoricalThresholdsPvEPFvRKS4_RKS6_S8_EPFvR26sCIspCmdChPearlCalibrationS8_Ebb20kFigIsfStepDetectionPbP16RgbIrCalibrationS8_,
                            __ZN6H13ISP26H13ISPPearlCalibrationNodeC2EPNS_12H13ISPDeviceEPFvRN3Isf10IsfHistoryER38H13ISPAnalyticsIsfHistoricalThresholdsPvEPFvRKS4_RKS6_S8_EPFvR26sCIspCmdChPearlCalibrationS8_Ebb20kFigIsfStepDetectionPbP16RgbIrCalibrationS8_,
                            __ZN6H13ISP26H13ISPPearlCalibrationNodeD0Ev,
                            __ZN6H13ISP26H13ISPPearlCalibrationNodeD1Ev,
                            __ZN6H13ISP26H13ISPPearlCalibrationNodeD2Ev,
                            __ZN6H13ISP26H13ISPVerifyFirmwareDigestEPhmS0_,
                            __ZN6H13ISP26getPixelFormatFromMetaInfoE17H13ISPFrameFormatbPNS_20_FrameFormatMetaInfoE,
                            __ZN6H13ISP27H13ISPFirmwareWorkProcessor11stopReceiveEv,
                            __ZN6H13ISP27H13ISPFirmwareWorkProcessor12startReceiveEv,
                            __ZN6H13ISP27H13ISPFirmwareWorkProcessor13NoDataTimeoutEP16__CFRunLoopTimerPv,
                            __ZN6H13ISP27H13ISPFirmwareWorkProcessor15stopNoDataTimerEv,
                            __ZN6H13ISP27H13ISPFirmwareWorkProcessor16startNoDataTimerEv,
                            __ZN6H13ISP27H13ISPFirmwareWorkProcessor17FlushSurfaceCacheEv,
                            __ZN6H13ISP27H13ISPFirmwareWorkProcessor17tickleNoDataTimerEv,
                            __ZN6H13ISP27H13ISPFirmwareWorkProcessor18setupWorkProcessorEv,
                            __ZN6H13ISP27H13ISPFirmwareWorkProcessor24addIODispatcherToRunLoopEv,
                            __ZN6H13ISP27H13ISPFirmwareWorkProcessor27SetFrameDoneTimeoutDurationEd,
                            __ZN6H13ISP27H13ISPFirmwareWorkProcessor29removeIODispatcherFromRunLoopEv,
                            __ZN6H13ISP27H13ISPFirmwareWorkProcessor9WorkReadyEPviPyi,
                            __ZN6H13ISP27H13ISPFirmwareWorkProcessorC1EPNS_12H13ISPDeviceE,
                            __ZN6H13ISP27H13ISPFirmwareWorkProcessorC2EPNS_12H13ISPDeviceE,
                            __ZN6H13ISP27H13ISPFirmwareWorkProcessorD1Ev,
                            __ZN6H13ISP27H13ISPFirmwareWorkProcessorD2Ev,
                            __ZN6H13ISP27H13ISPGetCFPreferenceNumberEPK10__CFStringS2_i,
                            __ZN6H13ISP27H13ISPGetCFPreferenceStringEPK10__CFStringS2_S2_,
                            __ZN6H13ISP27H13ISPGetMachThreadPriorityEjPi,
                            __ZN6H13ISP27H13ISPGraphFaceTrackingNode10onActivateEv,
                            __ZN6H13ISP27H13ISPGraphFaceTrackingNode12onDeactivateEv,
                            __ZN6H13ISP27H13ISPGraphFaceTrackingNode19onMessageProcessingEPNS_24H13ISPFilterGraphMessageE,
                            __ZN6H13ISP27H13ISPGraphFaceTrackingNodeC1EP22OpaqueFigCaptureDevicePNS_12H13ISPDeviceEjNS_33H13ISPFrameReceiverBufferPoolTypeEi,
                            __ZN6H13ISP27H13ISPGraphFaceTrackingNodeC2EP22OpaqueFigCaptureDevicePNS_12H13ISPDeviceEjNS_33H13ISPFrameReceiverBufferPoolTypeEi,
                            __ZN6H13ISP27H13ISPGraphFaceTrackingNodeD0Ev,
                            __ZN6H13ISP27H13ISPGraphFaceTrackingNodeD1Ev,
                            __ZN6H13ISP27H13ISPGraphFaceTrackingNodeD2Ev,
                            __ZN6H13ISP27H13ISPGraphSegmentationNode10onActivateEv,
                            __ZN6H13ISP27H13ISPGraphSegmentationNode12onDeactivateEv,
                            __ZN6H13ISP27H13ISPGraphSegmentationNode19onMessageProcessingEPNS_24H13ISPFilterGraphMessageE,
                            __ZN6H13ISP27H13ISPGraphSegmentationNode22SetSegmentationNetworkE48FigCaptureStreamingForegroundSegmentationNetwork,
                            __ZN6H13ISP27H13ISPGraphSegmentationNodeC1EPNS_12H13ISPDeviceEjNS_33H13ISPFrameReceiverBufferPoolTypeEjjj,
                            __ZN6H13ISP27H13ISPGraphSegmentationNodeC2EPNS_12H13ISPDeviceEjNS_33H13ISPFrameReceiverBufferPoolTypeEjjj,
                            __ZN6H13ISP27H13ISPGraphSegmentationNodeD0Ev,
                            __ZN6H13ISP27H13ISPGraphSegmentationNodeD1Ev,
                            __ZN6H13ISP27H13ISPGraphSegmentationNodeD2Ev,
                            __ZN6H13ISP27H13ISPInflateFirmwareBufferEPhmPS0_Pm,
                            __ZN6H13ISP27H13ISPSetMachThreadPriorityEji,
                            __ZN6H13ISP27JasperConfigManagerInternal11RenderToYUVEjj,
                            __ZN6H13ISP27JasperConfigManagerInternal11setTofFrameEPNS_12H13ISPDeviceEjiP12NSDictionary,
                            __ZN6H13ISP27JasperConfigManagerInternal11setTofFrameEPNS_12H13ISPDeviceEjiiRK19sCIspTofFrameConfig,
                            __ZN6H13ISP27JasperConfigManagerInternal13dumpFrameModeEPNS_12H13ISPDeviceEjj,
                            __ZN6H13ISP27JasperConfigManagerInternal13getSequenceIdEv,
                            __ZN6H13ISP27JasperConfigManagerInternal15initJasperSpecsEv,
                            __ZN6H13ISP27JasperConfigManagerInternal15preloadTofFrameEPNS_12H13ISPDeviceEjiRK19sCIspTofFrameConfig,
                            __ZN6H13ISP27JasperConfigManagerInternal15setInitialBanksEPNS_12H13ISPDeviceEjP12NSDictionary,
                            __ZN6H13ISP27JasperConfigManagerInternal16describeSequenceEPiS1_,
                            __ZN6H13ISP27JasperConfigManagerInternal17setTofFrameOffsetEPNS_12H13ISPDeviceEjiP12NSDictionary,
                            __ZN6H13ISP27JasperConfigManagerInternal17setTofFrameOffsetEPNS_12H13ISPDeviceEjiiiib,
                            __ZN6H13ISP27JasperConfigManagerInternal18getJasperBurstSizeEv,
                            __ZN6H13ISP27JasperConfigManagerInternal18replaceFrameConfigEPNS_12H13ISPDeviceEjiPK8__CFData,
                            __ZN6H13ISP27JasperConfigManagerInternal18setJasperBurstSizeEt,
                            __ZN6H13ISP27JasperConfigManagerInternal19applyFromDictionaryEPNS_12H13ISPDeviceEj,
                            __ZN6H13ISP27JasperConfigManagerInternal19startOffsetSequenceEPNS_12H13ISPDeviceEjjPK12JDBankOffsetib,
                            __ZN6H13ISP27JasperConfigManagerInternal20generateFrameConfigsEPNS_12H13ISPDeviceEjjRNSt3__16vectorINS_21H13ISPJasperDepthNode15BankFrameConfigENS3_9allocatorIS6_EEEEjPNS_20H13ISPServicesRemoteE,
                            __ZN6H13ISP27JasperConfigManagerInternal22GetFrameSequenceNumberEP10__CVBuffer,
                            __ZN6H13ISP27JasperConfigManagerInternal22isValidSequenceAppliedEv,
                            __ZN6H13ISP27JasperConfigManagerInternal23aggregateJasperSpecDataEPvmb,
                            __ZN6H13ISP27JasperConfigManagerInternal23applyModeFromDictionaryEPNS_12H13ISPDeviceEjP12NSDictionary,
                            __ZN6H13ISP27JasperConfigManagerInternal26GetLastFrameSequenceNumberEv,
                            __ZN6H13ISP27JasperConfigManagerInternal28updateCurrentSequenceAnchorsEPNS_12H13ISPDeviceEjPK15JDJasperAnchors,
                            __ZN6H13ISP27JasperConfigManagerInternal29setJasperProjectorBanksStatusEPNS_12H13ISPDeviceEPKbj,
                            __ZN6H13ISP27JasperConfigManagerInternal30setFrameModeDictionaryLocationEP8NSString,
                            __ZN6H13ISP27JasperConfigManagerInternal5applyEPNS_12H13ISPDeviceEjjPNS_20H13ISPServicesRemoteE,
                            __ZN6H13ISP27JasperConfigManagerInternal7setModeEj,
                            __ZN6H13ISP27JasperConfigManagerInternal8describeEPjS1_S1_,
                            __ZN6H13ISP27JasperConfigManagerInternal9applyModeEPNS_12H13ISPDeviceEjRKNSt3__16vectorINS_21H13ISPJasperDepthNode15BankFrameConfigENS3_9allocatorIS6_EEEE,
                            __ZN6H13ISP27JasperConfigManagerInternalC1Ev,
                            __ZN6H13ISP27JasperConfigManagerInternalC2Ev,
                            __ZN6H13ISP27JasperConfigManagerInternalD1Ev,
                            __ZN6H13ISP27JasperConfigManagerInternalD2Ev,
                            __ZN6H13ISP27ModuleDescriptionToPortTypeE25camera_module_description,
                            __ZN6H13ISP27PortTypeToModuleDescriptionEPK10__CFString,
                            __ZN6H13ISP28CreateH13ISPDeviceControllerEPPNS_22H13ISPDeviceControllerEPFiS1_PvPNS_12H13ISPDeviceEES3_,
                            __ZN6H13ISP28GetOutputPresetForOutputSizeEjj13H13ISPVersionNS_22JasperOutputsAvailableE,
                            __ZN6H13ISP28H13ISPJasperColorCalibration10deactivateEv,
                            __ZN6H13ISP28H13ISPJasperColorCalibration11setRgbjModeE17kFigJasperRgbMode,
                            __ZN6H13ISP28H13ISPJasperColorCalibration15pushJasperCloudEP10__CVBufferPK14__CFDictionary,
                            __ZN6H13ISP28H13ISPJasperColorCalibration15setDilutionRateEj,
                            __ZN6H13ISP28H13ISPJasperColorCalibration16handleJasperDumpEP10__CVBufferPK14__CFDictionary,
                            __ZN6H13ISP28H13ISPJasperColorCalibration16pushColorMessageEPNS_24H13ISPFilterGraphMessageE,
                            __ZN6H13ISP28H13ISPJasperColorCalibration17processWideBufferEP10__CVBufferPK14__CFDictionary,
                            __ZN6H13ISP28H13ISPJasperColorCalibration17setCloudsPerImageEi,
                            __ZN6H13ISP28H13ISPJasperColorCalibration18getControllerStatsERiS1_,
                            __ZN6H13ISP28H13ISPJasperColorCalibration18processJasperCloudEPvPK14__CFDictionary,
                            __ZN6H13ISP28H13ISPJasperColorCalibration19setLowFrameIntervalEj,
                            __ZN6H13ISP28H13ISPJasperColorCalibration20setFeatureVectorSizeEj,
                            __ZN6H13ISP28H13ISPJasperColorCalibration20setHighFrameIntervalEj,
                            __ZN6H13ISP28H13ISPJasperColorCalibration20setWideConfigurationEPK14__CFDictionaryRK13simd_float4x3f,
                            __ZN6H13ISP28H13ISPJasperColorCalibration23setIsfStepDetectionModeE20kFigIsfStepDetection,
                            __ZN6H13ISP28H13ISPJasperColorCalibration25setDumpStillsJasperFramesEb,
                            __ZN6H13ISP28H13ISPJasperColorCalibration27setMinFrameNumAtLowIntervalEj,
                            __ZN6H13ISP28H13ISPJasperColorCalibration29setLowFrameIntervalThresholdXEj,
                            __ZN6H13ISP28H13ISPJasperColorCalibration29setLowFrameIntervalThresholdYEj,
                            __ZN6H13ISP28H13ISPJasperColorCalibration29setLowFrameIntervalThresholdZEj,
                            __ZN6H13ISP28H13ISPJasperColorCalibration8activateEPK8__CFDatajj,
                            __ZN6H13ISP28H13ISPJasperColorCalibrationC1EPNS_12H13ISPDeviceEPNS_20H13ISPServicesRemoteE,
                            __ZN6H13ISP28H13ISPJasperColorCalibrationC2EPNS_12H13ISPDeviceEPNS_20H13ISPServicesRemoteE,
                            __ZN6H13ISP28H13ISPJasperColorCalibrationD1Ev,
                            __ZN6H13ISP28H13ISPJasperColorCalibrationD2Ev,
                            __ZN6H13ISP28sensorIMX343TestPatternIndexE,
                            __ZN6H13ISP28sensorVD56G0TestPatternIndexE,
                            __ZN6H13ISP29DestroyH13ISPDeviceControllerEPNS_22H13ISPDeviceControllerE,
                            __ZN6H13ISP29H13ISPFrameReceiverBufferPool12activatePoolEb,
                            __ZN6H13ISP29H13ISPFrameReceiverBufferPool12dumpTrackingEj,
                            __ZN6H13ISP29H13ISPFrameReceiverBufferPool14allocateBufferEPP10__CVBufferb,
                            __ZN6H13ISP29H13ISPFrameReceiverBufferPool14deactivatePoolEv,
                            __ZN6H13ISP29H13ISPFrameReceiverBufferPool14updateTrackingEji,
                            __ZN6H13ISP29H13ISPFrameReceiverBufferPool17ModifyBufferCountEi,
                            __ZN6H13ISP29H13ISPFrameReceiverBufferPool19PreMapClientSurfaceEj,
                            __ZN6H13ISP29H13ISPFrameReceiverBufferPool21addPreallocatedBufferEP10__CVBuffer,
                            __ZN6H13ISP29H13ISPFrameReceiverBufferPoolC1EPNS_12H13ISPDeviceENS_33H13ISPFrameReceiverBufferPoolTypeEjjjjj17H13ISPFrameFormatbjjjjjjjPK10__CFStringP19__CVPixelBufferPoolj,
                            __ZN6H13ISP29H13ISPFrameReceiverBufferPoolC2EPNS_12H13ISPDeviceENS_33H13ISPFrameReceiverBufferPoolTypeEjjjjj17H13ISPFrameFormatbjjjjjjjPK10__CFStringP19__CVPixelBufferPoolj,
                            __ZN6H13ISP29H13ISPFrameReceiverBufferPoolD1Ev,
                            __ZN6H13ISP29H13ISPFrameReceiverBufferPoolD2Ev,
                            __ZN6H13ISP31H13ISPGraphVIOCameraControlNode10onActivateEv,
                            __ZN6H13ISP31H13ISPGraphVIOCameraControlNode12onDeactivateEv,
                            __ZN6H13ISP31H13ISPGraphVIOCameraControlNode16SetFrameReceiverEPNS_19H13ISPFrameReceiverE,
                            __ZN6H13ISP31H13ISPGraphVIOCameraControlNode16TriggerBurstModeEv,
                            __ZN6H13ISP31H13ISPGraphVIOCameraControlNode19onMessageProcessingEPNS_24H13ISPFilterGraphMessageE,
                            __ZN6H13ISP31H13ISPGraphVIOCameraControlNode21AdjustStreamFrameRateEf,
                            __ZN6H13ISP31H13ISPGraphVIOCameraControlNode23SetVIORunTimeParametersEjjjPj,
                            __ZN6H13ISP31H13ISPGraphVIOCameraControlNode32UpdateKeypointDetectionThresholdEj,
                            __ZN6H13ISP31H13ISPGraphVIOCameraControlNode6ResumeEv,
                            __ZN6H13ISP31H13ISPGraphVIOCameraControlNode7InitVIOEv,
                            __ZN6H13ISP31H13ISPGraphVIOCameraControlNode7SuspendEv,
                            __ZN6H13ISP31H13ISPGraphVIOCameraControlNode9DeInitVIOEv,
                            __ZN6H13ISP31H13ISPGraphVIOCameraControlNodeC1EPNS_12H13ISPDeviceEjP21H13ISPVIOParamsStruct,
                            __ZN6H13ISP31H13ISPGraphVIOCameraControlNodeC2EPNS_12H13ISPDeviceEjP21H13ISPVIOParamsStruct,
                            __ZN6H13ISP31H13ISPGraphVIOCameraControlNodeD0Ev,
                            __ZN6H13ISP31H13ISPGraphVIOCameraControlNodeD1Ev,
                            __ZN6H13ISP31H13ISPGraphVIOCameraControlNodeD2Ev,
                            __ZN6H13ISP33CreateH13ISPFirmwareWorkProcessorEPNS_47H13ISPFirmwareWorkProcessorCreationParamsStructE,
                            __ZN6H13ISP33H13ISPGeneralProcessFrameReceiver11stopReceiveEv,
                            __ZN6H13ISP33H13ISPGeneralProcessFrameReceiver12startReceiveEv,
                            __ZN6H13ISP33H13ISPGeneralProcessFrameReceiver13NoDataTimeoutEP16__CFRunLoopTimerPv,
                            __ZN6H13ISP33H13ISPGeneralProcessFrameReceiver14GeneralProcessENS_40H13ISPGeneralProcessFrameReceiverRequestEb,
                            __ZN6H13ISP33H13ISPGeneralProcessFrameReceiver15stopNoDataTimerEv,
                            __ZN6H13ISP33H13ISPGeneralProcessFrameReceiver16startNoDataTimerEv,
                            __ZN6H13ISP33H13ISPGeneralProcessFrameReceiver17tickleNoDataTimerEv,
                            __ZN6H13ISP33H13ISPGeneralProcessFrameReceiver18setupFrameReceiverEv,
                            __ZN6H13ISP33H13ISPGeneralProcessFrameReceiver19completeAllRequestsEv,
                            __ZN6H13ISP33H13ISPGeneralProcessFrameReceiver21GeneralProcessGenericENS_40H13ISPGeneralProcessFrameReceiverRequestEb,
                            __ZN6H13ISP33H13ISPGeneralProcessFrameReceiver23registerMessageCallbackEPFvjjjPvS1_S1_ES1_,
                            __ZN6H13ISP33H13ISPGeneralProcessFrameReceiver24addIODispatcherToRunLoopEv,
                            __ZN6H13ISP33H13ISPGeneralProcessFrameReceiver28registerFrameReceiveCallbackEPFvPvRNS_40H13ISPGeneralProcessFrameReceiverRequestEES1_,
                            __ZN6H13ISP33H13ISPGeneralProcessFrameReceiver29removeIODispatcherFromRunLoopEv,
                            __ZN6H13ISP33H13ISPGeneralProcessFrameReceiver9FrameDoneEPviPyi,
                            __ZN6H13ISP33H13ISPGeneralProcessFrameReceiverC1EPNS_12H13ISPDeviceE,
                            __ZN6H13ISP33H13ISPGeneralProcessFrameReceiverC2EPNS_12H13ISPDeviceE,
                            __ZN6H13ISP33H13ISPGeneralProcessFrameReceiverD1Ev,
                            __ZN6H13ISP33H13ISPGeneralProcessFrameReceiverD2Ev,
                            __ZN6H13ISP33H13ISPPearlCalibrationNode_Remote10onActivateEv,
                            __ZN6H13ISP33H13ISPPearlCalibrationNode_Remote12getDebugInfoEv,
                            __ZN6H13ISP33H13ISPPearlCalibrationNode_Remote12onDeactivateEv,
                            __ZN6H13ISP33H13ISPPearlCalibrationNode_Remote14dropPDEBuffersEPNS_24H13ISPFilterGraphMessageEt,
                            __ZN6H13ISP33H13ISPPearlCalibrationNode_Remote14updateMetadataEP14__CFDictionary,
                            __ZN6H13ISP33H13ISPPearlCalibrationNode_Remote16markCurrentFrameEP14__CFDictionary,
                            __ZN6H13ISP33H13ISPPearlCalibrationNode_Remote19onMessageProcessingEPNS_24H13ISPFilterGraphMessageE,
                            __ZN6H13ISP33H13ISPPearlCalibrationNode_Remote22algorithmPreconditionsEP10__CVBufferPK14__CFDictionaryS5_,
                            __ZN6H13ISP33H13ISPPearlCalibrationNode_RemoteC1EPNS_12H13ISPDeviceEPNS_20H13ISPServicesRemoteEbb20kFigIsfStepDetectionbb,
                            __ZN6H13ISP33H13ISPPearlCalibrationNode_RemoteC2EPNS_12H13ISPDeviceEPNS_20H13ISPServicesRemoteEbb20kFigIsfStepDetectionbb,
                            __ZN6H13ISP33H13ISPPearlCalibrationNode_RemoteD0Ev,
                            __ZN6H13ISP33H13ISPPearlCalibrationNode_RemoteD1Ev,
                            __ZN6H13ISP33H13ISPPearlCalibrationNode_RemoteD2Ev,
                            __ZN6H13ISP34DestroyH13ISPFirmwareWorkProcessorEPNS_27H13ISPFirmwareWorkProcessorE,
                            __ZN6H13ISP34H13ISPMetadataDictCreatorGraphNode10onActivateEv,
                            __ZN6H13ISP34H13ISPMetadataDictCreatorGraphNode12onDeactivateEv,
                            __ZN6H13ISP34H13ISPMetadataDictCreatorGraphNode18setMetaDataOptionsEjPNS_27H13ISPMetaDataOptionsStructE,
                            __ZN6H13ISP34H13ISPMetadataDictCreatorGraphNode19onMessageProcessingEPNS_24H13ISPFilterGraphMessageE,
                            __ZN6H13ISP34H13ISPMetadataDictCreatorGraphNodeC1EPNS_12H13ISPDeviceEj,
                            __ZN6H13ISP34H13ISPMetadataDictCreatorGraphNodeC2EPNS_12H13ISPDeviceEj,
                            __ZN6H13ISP34H13ISPMetadataDictCreatorGraphNodeD0Ev,
                            __ZN6H13ISP34H13ISPMetadataDictCreatorGraphNodeD1Ev,
                            __ZN6H13ISP34H13ISPMetadataDictCreatorGraphNodeD2Ev,
                            __ZN6H13ISP35H13ISPFrameReceiverSharedBufferPool10FindBufferEj,
                            __ZN6H13ISP35H13ISPFrameReceiverSharedBufferPool10SendBufferEP10__CVBuffer,
                            __ZN6H13ISP35H13ISPFrameReceiverSharedBufferPool13ReleaseBufferEP10__CVBuffer,
                            __ZN6H13ISP35H13ISPFrameReceiverSharedBufferPool15setBufferConfigEP10__CVBuffer,
                            __ZN6H13ISP35H13ISPFrameReceiverSharedBufferPool16InitiateShutdownEv,
                            __ZN6H13ISP35H13ISPFrameReceiverSharedBufferPool17ReleaseAllBuffersEv,
                            __ZN6H13ISP35H13ISPFrameReceiverSharedBufferPool22AllocateAndSendBuffersEj,
                            __ZN6H13ISP35H13ISPFrameReceiverSharedBufferPool22GetNumAllocatedBuffersEv,
                            __ZN6H13ISP35H13ISPFrameReceiverSharedBufferPool26RegisterCompletionCallbackEyyj,
                            __ZN6H13ISP35H13ISPFrameReceiverSharedBufferPool7GetPoolEv,
                            __ZN6H13ISP35H13ISPFrameReceiverSharedBufferPoolC1EPNS_12H13ISPDeviceEPNS_29H13ISPFrameReceiverBufferPoolEtt,
                            __ZN6H13ISP35H13ISPFrameReceiverSharedBufferPoolC2EPNS_12H13ISPDeviceEPNS_29H13ISPFrameReceiverBufferPoolEtt,
                            __ZN6H13ISP35H13ISPFrameReceiverSharedBufferPoolD1Ev,
                            __ZN6H13ISP35H13ISPFrameReceiverSharedBufferPoolD2Ev,
                            __ZN6H13ISP35InitSupportedMetadataPropertiesDictERP14__CFDictionary,
                            __ZN6H13ISP37CalculateAdditionalMetadataParametersEjjjjjbjtjtjddddtdtPdS0_S0_S0_,
                            __ZN6H13ISP38CreateFixedPrioritySerialDispatchQueueEPKcj,
                            __ZN6H13ISP38FlickerFrequencyHintForCurrentLocationEv,
                            __ZN6H13ISP39CreateH13ISPGeneralProcessFrameReceiverEPNS_53H13ISPGeneralProcessFrameReceiverCreationParamsStructE,
                            __ZN6H13ISP40DestroyH13ISPGeneralProcessFrameReceiverEPNS_33H13ISPGeneralProcessFrameReceiverE,
                            __ZN6H13ISP42H13ISPGetYUVSBufferParamsForDataBufferSizeEjPjS0_,
                            __ZN6H13ISP44GenerateAndAttachCoreMediaMetaDataDictionaryEP14__CFDictionaryP10__CVBufferPNSt3__15dequeIS3_NS4_9allocatorIS3_EEEEPNS_27H13ISPMetaDataOptionsStructEPK24H13ISPPlatformInfoStructdP22H13ISPCameraTimeStructPNS_29H13ISPOscarTimeSyncInfoStructE,
                            __ZN6H13ISP6readerE,
                            __ZN6H13ISP9MOVReader10isReadDoneEv,
                            __ZN6H13ISP9MOVReader10openStreamEv,
                            __ZN6H13ISP9MOVReader12getNextFrameEP10__CVBuffer,
                            __ZN6H13ISP9MOVReader15fileAccessCheckEPNSt3__112basic_stringIcNS1_11char_traitsIcEENS1_9allocatorIcEEEE,
                            __ZN6H13ISP9MOVReader17getFrameTimestampEP10__CVBuffer,
                            __ZN6H13ISP9MOVReader28storeFrameTimestampSurfaceIdEP10__CVBuffer,
                            __ZN6H13ISP9MOVReaderC1EPK10__CFString,
                            __ZN6H13ISP9MOVReaderC2EPK10__CFString,
                            __ZN6H13ISP9MOVReaderD1Ev, __ZN6H13ISP9MOVReaderD2Ev,
                            __ZN8GridArea11PrepareGridER20OneDimGridDescriptorS1_S1_j,
                            __ZN8GridArea13NormalizeGridEjbRKNS_14ConfidenceAreaE,
                            __ZN8GridArea14ExtendCostGridEjbj,
                            __ZN8GridArea16FitParabolaModelEPdS0_j,
                            __ZN8GridArea16SaveToDictionaryEP14__CFDictionarybPKcNSt3__112basic_stringIcNS4_11char_traitsIcEENS4_9allocatorIcEEEE,
                            __ZN8GridArea17CalcNewConfidenceEjbRNS_14ConfidenceAreaE,
                            __ZN8GridArea17isMinimumOnBorderEbPP9CostEntry,
                            __ZN8GridAreaC1ERKS_, __ZN8GridAreaC1ERKS_jj,
                            __ZN8GridAreaC2ERKS_, __ZN8GridAreaC2ERKS_jj,
                            __ZN8GridAreaD1Ev, __ZN8GridAreaD2Ev,
                            __ZN8MetalMgtC1Ev, __ZN8MetalMgtC2Ev,
                            __ZN8PearlIsf10RunFromGmcERN3Isf10IsfHistoryEdddRNS0_18IsfInnerStatisticsE,
                            __ZN8PearlIsf10RunFromLmvERN3Isf10IsfHistoryEdddRNS0_18IsfInnerStatisticsE,
                            __ZN8PearlIsf14updatePCECalibERKN3Isf10IsfHistoryER26sCIspCmdChPearlCalibration,
                            __ZN8PearlIsf17RunFromMiFullGridERN3Isf10IsfHistoryEddddRNS0_18IsfInnerStatisticsE,
                            __ZN8PearlIsfC1Ev, __ZN8PearlIsfC2Ev,
                            __ZN8PearlIsfD0Ev, __ZN8PearlIsfD1Ev,
                            __ZN8PearlIsfD2Ev,
                            __ZN9GeomUtils11homogDist2dE6MatrixIdERK11MatrixNxPtsILj3EdES5_dPS2_ILj1EjEPj,
                            __ZN9GeomUtils12ApproxPolyDPERK11MatrixNxPtsILj2EdEdbPS1_,
                            __ZN9GeomUtils12CalcRotTransERK9MatrixMxNILj3ELj3EdERKS0_ILj1ELj3EdES4_bPS1_PS4_,
                            __ZN9GeomUtils12homography2dERK11MatrixNxPtsILj3EdES3_,
                            __ZN9GeomUtils17ComputeHomographyERK11MatrixNxPtsILj2EdES3_P6MatrixIdE,
                            __ZN9GeomUtils17ComputeHomographyERK11MatrixNxPtsILj3EdES3_P6MatrixIdE,
                            __ZN9GeomUtils17DistortRadialLiteIdEEiRK6MatrixIdERKN8MathLibs10_CamParamsIT_EEP11MatrixNxPtsILj2EdEbb,
                            __ZN9GeomUtils17DistortRadialLiteIdEEiRK6MatrixIdERKN8MathLibs10_CamParamsIT_EEP11MatrixNxPtsILj2EdEdbb,
                            __ZN9GeomUtils18estimateBestRotMatERK6MatrixIdE,
                            __ZN9GeomUtils19ExtrinsicsToSimd4x3ERK9MatrixMxNILj3ELj3EdERKS0_ILj1ELj3EdE,
                            __ZN9GeomUtils21ExtrinsicsFromSimd4x3E13simd_float4x3R9MatrixMxNILj3ELj3EdERS1_ILj1ELj3EdE,
                            __ZN9GeomUtils21estimatePlanePositionE6MatrixIdE,
                            __ZN9GeomUtils23ransacComputeHomographyER11MatrixNxPtsILj3EdES2_dP6MatrixIdEPS0_ILj1EjEPjS8_,
                            __ZN9GeomUtils24check3of4SpotsOnSameLineE11MatrixNxPtsILj3EdES1_,
                            __ZN9GeomUtils25AlgebricCameraCalibrationERKNSt3__16vectorI11MatrixNxPtsILj2EdENS0_9allocatorIS3_EEEES8_PdS9_S9_PNS1_I6MatrixIdENS4_ISB_EEEE,
                            __ZN9GeomUtils25DistortRadialLiteInternalERK6MatrixIdERKN8MathLibs10_CamParamsIdEEP11MatrixNxPtsILj2EdEbdbb,
                            __ZN9GeomUtils6ToHomgERK11MatrixNxPtsILj2EdE,
                            __ZN9GeomUtils9FindSpotsERKN8MathLibs10_CamParamsIdEERKNS0_7_SFOptsE11MatrixNxPtsILj3EdES9_6MatrixIdEdS9_ddddjjPS8_ILj1EdESD_SD_SD_,
                            __ZN9GeomUtils9ToNonHomgERK11MatrixNxPtsILj3EdE,
                            __ZN9GeomUtils9ToNonHomgERK6MatrixIdE,
                            __ZNK10BayerArray19DefineSubBayerArrayExxmmRS_b,
                            __ZNK10BayerArray4DumpEi,
                            __ZNK10BayerArray7AverageE8EChannel,
                            __ZNK10BayerArray7AverageERfS0_S0_S0_,
                            __ZNK10NamedValue4ListEv, __ZNK10NamedValue4NameEv,
                            __ZNK10NamedValue5ValueEv,
                            __ZNK11DisjointSet15GetCompactedMapEPNSt3__16vectorIjNS0_9allocatorIjEEEE,
                            __ZNK11DisjointSet15GetCompactedMapEtPNSt3__16vectorIjNS0_9allocatorIjEEEE,
                            __ZNK11NamedValues4sizeEv,
                            __ZNK11NamedValues5clearEv,
                            __ZNK12SparseMatrix10MultATagxBERK11MatrixNxPtsILj1EdE,
                            __ZNK12SparseMatrix14GetMatrixWidthEv,
                            __ZNK12SparseMatrix15GetMatrixHeightEv,
                            __ZNK12SparseMatrix22GetColumnAsDenseVectorEi,
                            __ZNK12SparseMatrix23CopyColumnToDenseVectorEiPd,
                            __ZNK12SparseMatrixclEii,
                            __ZNK12SparseMatrixmlERK11MatrixNxPtsILj1EdE,
                            __ZNK12SparseVector10MultATagxBERKS_,
                            __ZNK12SparseVectormiERKS_,
                            __ZNK17H13ISPRgbIrRunner19isMarkedForDeletionEv,
                            __ZNK25ApplePhotonDetectorDevice11GetGainInfoEPhS0_,
                            __ZNK25ApplePhotonDetectorDevice13PowerOnDeviceEv,
                            __ZNK25ApplePhotonDetectorDevice14PowerOffDeviceEv,
                            __ZNK25ApplePhotonDetectorDevice19ReadCalibrationDataEPhS0_,
                            __ZNK25ApplePhotonDetectorDevice7ReadRegEhPhh,
                            __ZNK25ApplePhotonDetectorDevice8WriteRegEhPhh,
                            __ZNK36ApplePhotonDetectorServicesAssistant11CloseDeviceEv,
                            __ZNK36ApplePhotonDetectorServicesAssistant11GetGainInfoEPhS0_,
                            __ZNK36ApplePhotonDetectorServicesAssistant13PowerOnDeviceEv,
                            __ZNK36ApplePhotonDetectorServicesAssistant14PowerOffDeviceEv,
                            __ZNK36ApplePhotonDetectorServicesAssistant18GetCalibrationDataEPhS0_,
                            __ZNK36ApplePhotonDetectorServicesAssistant7ReadRegEhPhh,
                            __ZNK36ApplePhotonDetectorServicesAssistant8WriteRegEhPhh,
                            __ZNK6H13ISP12H13ISPDevice12isSensorTypeEj25camera_module_description,
                            __ZNK6H13ISP12H13ISPDevice13hasSensorTypeE25camera_module_description,
                            __ZNK6H13ISP12H13ISPDevice16getSensorChannelE25camera_module_description,
                            __ZNK6H13ISP23H13ISPPhotometerManager10GetLuxInfoEP7luxInfo,
                            __ZNK6H13ISP23H13ISPPhotometerManager11GetLuxCacheEP8luxCache,
                            __ZNK6H13ISP24H13ISPCFLocalMessagePort16GetRunLoopSourceEv,
                            __ZNK6H13ISP25H13ISPCFRemoteMessagePort16GetRunLoopSourceEv,
                            __ZNK6H13ISP27JasperConfigManagerInternal14isBurstAllowedEv,
                            __ZNK6H13ISP27JasperConfigManagerInternal7getModeEv,
                            __ZNK6H13ISP28H13ISPJasperColorCalibration7isValidEv,
                            __ZNK8GridArea22GetMinimalCostEntryIdxEb,
                            __ZTI10PearlIRIsf, __ZTI16CRandomGenerator,
                            __ZTI16PearlInternalIsf, __ZTI18PearlInternalIRIsf,
                            __ZTI20CNeonBlurMAccelerate, __ZTI8PearlIsf,
                            __ZTIN6H13ISP16H13ISPFusionNodeE,
                            __ZTIN6H13ISP19H13ISPGraphExitNodeE,
                            __ZTIN6H13ISP19H13ISPGraphInfoNodeE,
                            __ZTIN6H13ISP19H13ISPGraphNullNodeE,
                            __ZTIN6H13ISP21H13ISPFilterGraphNodeE,
                            __ZTIN6H13ISP21H13ISPJasperColorNodeE,
                            __ZTIN6H13ISP21H13ISPJasperDepthNodeE,
                            __ZTIN6H13ISP24H13ISPCFLocalMessagePortE,
                            __ZTIN6H13ISP24H13ISPFilterGraphManagerE,
                            __ZTIN6H13ISP24H13ISPGraphFrameSyncNodeE,
                            __ZTIN6H13ISP25H13ISPCFRemoteMessagePortE,
                            __ZTIN6H13ISP26H13ISPParallelDispatchNodeE,
                            __ZTIN6H13ISP26H13ISPPearlCalibrationNodeE,
                            __ZTIN6H13ISP27H13ISPGraphFaceTrackingNodeE,
                            __ZTIN6H13ISP27H13ISPGraphSegmentationNodeE,
                            __ZTIN6H13ISP31H13ISPGraphVIOCameraControlNodeE,
                            __ZTIN6H13ISP33H13ISPPearlCalibrationNode_RemoteE,
                            __ZTIN6H13ISP34H13ISPMetadataDictCreatorGraphNodeE,
                            __ZTS10PearlIRIsf, __ZTS16CRandomGenerator,
                            __ZTS16PearlInternalIsf, __ZTS18PearlInternalIRIsf,
                            __ZTS20CNeonBlurMAccelerate, __ZTS8PearlIsf,
                            __ZTSN6H13ISP16H13ISPFusionNodeE,
                            __ZTSN6H13ISP19H13ISPGraphExitNodeE,
                            __ZTSN6H13ISP19H13ISPGraphInfoNodeE,
                            __ZTSN6H13ISP19H13ISPGraphNullNodeE,
                            __ZTSN6H13ISP21H13ISPFilterGraphNodeE,
                            __ZTSN6H13ISP21H13ISPJasperColorNodeE,
                            __ZTSN6H13ISP21H13ISPJasperDepthNodeE,
                            __ZTSN6H13ISP24H13ISPCFLocalMessagePortE,
                            __ZTSN6H13ISP24H13ISPFilterGraphManagerE,
                            __ZTSN6H13ISP24H13ISPGraphFrameSyncNodeE,
                            __ZTSN6H13ISP25H13ISPCFRemoteMessagePortE,
                            __ZTSN6H13ISP26H13ISPParallelDispatchNodeE,
                            __ZTSN6H13ISP26H13ISPPearlCalibrationNodeE,
                            __ZTSN6H13ISP27H13ISPGraphFaceTrackingNodeE,
                            __ZTSN6H13ISP27H13ISPGraphSegmentationNodeE,
                            __ZTSN6H13ISP31H13ISPGraphVIOCameraControlNodeE,
                            __ZTSN6H13ISP33H13ISPPearlCalibrationNode_RemoteE,
                            __ZTSN6H13ISP34H13ISPMetadataDictCreatorGraphNodeE,
                            __ZTV10PearlIRIsf, __ZTV16CRandomGenerator,
                            __ZTV16PearlInternalIsf, __ZTV18PearlInternalIRIsf,
                            __ZTV20CNeonBlurMAccelerate, __ZTV8PearlIsf,
                            __ZTVN6H13ISP16H13ISPFusionNodeE,
                            __ZTVN6H13ISP19H13ISPGraphExitNodeE,
                            __ZTVN6H13ISP19H13ISPGraphInfoNodeE,
                            __ZTVN6H13ISP19H13ISPGraphNullNodeE,
                            __ZTVN6H13ISP21H13ISPFilterGraphNodeE,
                            __ZTVN6H13ISP21H13ISPJasperColorNodeE,
                            __ZTVN6H13ISP21H13ISPJasperDepthNodeE,
                            __ZTVN6H13ISP24H13ISPCFLocalMessagePortE,
                            __ZTVN6H13ISP24H13ISPFilterGraphManagerE,
                            __ZTVN6H13ISP24H13ISPGraphFrameSyncNodeE,
                            __ZTVN6H13ISP25H13ISPCFRemoteMessagePortE,
                            __ZTVN6H13ISP26H13ISPParallelDispatchNodeE,
                            __ZTVN6H13ISP26H13ISPPearlCalibrationNodeE,
                            __ZTVN6H13ISP27H13ISPGraphFaceTrackingNodeE,
                            __ZTVN6H13ISP27H13ISPGraphSegmentationNodeE,
                            __ZTVN6H13ISP31H13ISPGraphVIOCameraControlNodeE,
                            __ZTVN6H13ISP33H13ISPPearlCalibrationNode_RemoteE,
                            __ZTVN6H13ISP34H13ISPMetadataDictCreatorGraphNodeE,
                            __ZpLR11MatrixNxPtsILj1EdERK12SparseVector,
                            _deviceProperties, _gCurrFrameId, _gDbgLvl,
                            _gOutputDirName, _groupProperties,
                            _img4_verify_signature_with_chain,
                            _kAMSupportChainValidationKeySize3k,
                            _kAMSupportChainValidationKeySize4k,
                            _kAMSupportDigestInfoSha1,
                            _kAMSupportDigestInfoSha256,
                            _kAMSupportDigestInfoSha384,
                            _kAMSupportDigestInfoSha512,
                            _kImg4DecodeLocalPolicyEc384Sha384,
                            _kImg4DecodeLocalPolicyEc384Sha384Hacktivate,
                            _kImg4DecodeLocalPolicyEc384Sha384QA,
                            _kImg4DecodeLocalPolicyRsa4kSha384,
                            _kImg4DecodeLocalPolicyRsa4kSha384Hacktivate,
                            _kImg4DecodeSecureBootEc192Sha256,
                            _kImg4DecodeSecureBootEc256Sha256,
                            _kImg4DecodeSecureBootEc384Sha384,
                            _kImg4DecodeSecureBootEc521Sha512,
                            _kImg4DecodeSecureBootRsa1kSha1,
                            _kImg4DecodeSecureBootRsa3kSha384,
                            _kImg4DecodeSecureBootRsa4kSha384,
                            _kImg4DecodeSecureBootRsa4kSha384AWG1,
                            _kImg4DecodeSecureBootRsa4kSha384DDI,
                            _kImg4DecodeSecureBootRsa4kSha384DDIFake,
                            _kImg4DecodeSecureBootRsa4kSha384DDIFakeGlobal,
                            _kImg4DecodeSecureBootRsa4kSha384DDIGlobal,
                            _kImg4DecodeSecureBootRsa4kSha384X86, _kPixelFormat,
                            _kVideoTrackIndex, _md5_digest_info, _oidAdCAIssuer,
                            _oidAdOCSP, _oidAnsip384r1, _oidAnsip521r1,
                            _oidAnyExtendedKeyUsage, _oidAnyPolicy,
                            _oidAppleApplicationSigning,
                            _oidAppleCertExtAST2DiagnosticsServerAuthProd,
                            _oidAppleCertExtAST2DiagnosticsServerAuthProdQA,
                            _oidAppleCertExtATVAppSigningProd,
                            _oidAppleCertExtATVAppSigningProdQA,
                            _oidAppleCertExtATVVPNProfileSigning,
                            _oidAppleCertExtApplePPQSigningProd,
                            _oidAppleCertExtApplePPQSigningProdQA,
                            _oidAppleCertExtAppleSMPEncryption,
                            _oidAppleCertExtAppleServerAuthentication,
                            _oidAppleCertExtAppleServerAuthenticationAPNProd,
                            _oidAppleCertExtAppleServerAuthenticationAPNProdQA,
                            _oidAppleCertExtAppleServerAuthenticationGS,
                            _oidAppleCertExtAppleServerAuthenticationIDSProd,
                            _oidAppleCertExtAppleServerAuthenticationIDSProdQA,
                            _oidAppleCertExtAppleServerAuthenticationMMCSProd,
                            _oidAppleCertExtAppleServerAuthenticationMMCSProdQA,
                            _oidAppleCertExtAppleServerAuthenticationPPQProd,
                            _oidAppleCertExtAppleServerAuthenticationPPQProdQA,
                            _oidAppleCertExtAppleServerAuthenticationiCloudSetupProd,
                            _oidAppleCertExtAppleServerAuthenticationiCloudSetupProdQA,
                            _oidAppleCertExtCryptoServicesExtEncryption,
                            _oidAppleCertExtEscrowProxyServerAuthProd,
                            _oidAppleCertExtEscrowProxyServerAuthProdQA,
                            _oidAppleCertExtFMiPServerAuthProd,
                            _oidAppleCertExtFMiPServerAuthProdQA,
                            _oidAppleCertExtHomeKitServerAuth,
                            _oidAppleCertExtOSXProvisioningProfileSigning,
                            _oidAppleCertExtTrustCacheSigning,
                            _oidAppleCertExtTrustCacheSigningTest,
                            _oidAppleCertExtensionAppleIDRecordValidationSigning,
                            _oidAppleExtendedKeyUsageAppleID,
                            _oidAppleExtendedKeyUsageCodeSigning,
                            _oidAppleExtendedKeyUsageCodeSigningDev,
                            _oidAppleExtendedKeyUsagePassbook,
                            _oidAppleExtendedKeyUsageProfileSigning,
                            _oidAppleExtendedKeyUsageQAProfileSigning,
                            _oidAppleImg4ManifestCertSpec,
                            _oidAppleInstallerPackagingSigningExternal,
                            _oidAppleIntmMarkerAppleHomeKitServerCA,
                            _oidAppleIntmMarkerAppleID,
                            _oidAppleIntmMarkerAppleID2,
                            _oidAppleIntmMarkerAppleServerAuthentication,
                            _oidAppleIntmMarkerAppleSystemIntg2,
                            _oidAppleIntmMarkerAppleSystemIntgG3,
                            _oidAppleIntmMarkerAppleWWDR,
                            _oidApplePolicyEscrowService,
                            _oidApplePolicyMobileStore,
                            _oidApplePolicyMobileStoreProdQA,
                            _oidAppleProvisioningProfile,
                            _oidApplePushServiceClient,
                            _oidAppleSecureBootCertSpec,
                            _oidAppleSecureBootTicketCertSpec,
                            _oidAppleTVOSApplicationSigningProd,
                            _oidAppleTVOSApplicationSigningProdQA,
                            _oidAuthorityInfoAccess, _oidAuthorityKeyIdentifier,
                            _oidBasicConstraints, _oidCertificatePolicies,
                            _oidCollectiveOrganizationName,
                            _oidCollectiveOrganizationalUnitName,
                            _oidCollectiveStateOrProvinceName,
                            _oidCollectiveStreetAddress, _oidCommonName,
                            _oidContentType, _oidCountryName,
                            _oidCrlDistributionPoints, _oidDescription,
                            _oidEcPrime192v1, _oidEcPrime256v1, _oidEcPubKey,
                            _oidEmailAddress, _oidEntrustVersInfo,
                            _oidExtendedKeyUsage, _oidExtendedKeyUsageClientAuth,
                            _oidExtendedKeyUsageCodeSigning,
                            _oidExtendedKeyUsageEmailProtection,
                            _oidExtendedKeyUsageIPSec,
                            _oidExtendedKeyUsageMicrosoftSGC,
                            _oidExtendedKeyUsageNetscapeSGC,
                            _oidExtendedKeyUsageOCSPSigning,
                            _oidExtendedKeyUsageServerAuth,
                            _oidExtendedKeyUsageTimeStamping, _oidFee,
                            _oidFriendlyName,
                            _oidGoogleEmbeddedSignedCertificateTimestamp,
                            _oidGoogleOCSPSignedCertificateTimestamp,
                            _oidInhibitAnyPolicy, _oidIssuerAltName, _oidKeyUsage,
                            _oidLocalKeyId, _oidLocalityName,
                            _oidMSNTPrincipalName, _oidMd2, _oidMd2Rsa, _oidMd4,
                            _oidMd4Rsa, _oidMd5, _oidMd5Fee, _oidMd5Rsa,
                            _oidMessageDigest,
                            _oidMicrosoftSpcIndirectDataContext,
                            _oidMicrosoftSpcPEImageData,
                            _oidMicrosoftSpcSpOpusInfo, _oidNameConstraints,
                            _oidNetscapeCertType, _oidOCSPNoCheck,
                            _oidOrganizationName, _oidOrganizationalUnitName,
                            _oidPSSRsa, _oidPkcs7SignedData, _oidPolicyConstraints,
                            _oidPolicyMappings, _oidPrivateKeyUsagePeriod,
                            _oidQtCps, _oidQtUNotice, _oidRsa, _oidSha1, _oidSha1Dsa,
                            _oidSha1DsaCommonOIW, _oidSha1DsaOIW, _oidSha1Ecdsa,
                            _oidSha1Fee, _oidSha1Rsa, _oidSha1RsaOIW, _oidSha224,
                            _oidSha224Ecdsa, _oidSha224Rsa, _oidSha256,
                            _oidSha256Ecdsa, _oidSha256Rsa, _oidSha384,
                            _oidSha384Ecdsa, _oidSha384Rsa, _oidSha512,
                            _oidSha512Ecdsa, _oidSha512Rsa,
                            _oidStateOrProvinceName, _oidStreetAddress,
                            _oidSubjectAltName, _oidSubjectInfoAccess,
                            _oidSubjectKeyIdentifier, _oidUserId,
                            _processingSessionProperties, _sha1_digest,
                            _sha1_digest_info, _sha256_digest_info,
                            _sha384_digest_info, _sha512_digest_info,
                            _streamProperties, _supportedFormatMap,
                            _verify_chain_img4_ddi, _verify_chain_img4_ddi_fake,
                            _verify_chain_img4_ddi_fake_global,
                            _verify_chain_img4_ddi_global,
                            _verify_chain_img4_ec_v1,
                            _verify_chain_img4_ecdsa256,
                            _verify_chain_img4_ecdsa384,
                            _verify_chain_img4_ecdsa384_hacktivate,
                            _verify_chain_img4_ecdsa384_local_policy,
                            _verify_chain_img4_ecdsa384_qa,
                            _verify_chain_img4_tatsu_local_policy,
                            _verify_chain_img4_tatsu_local_policy_hacktivate,
                            _verify_chain_img4_v1, _verify_chain_img4_v2,
                            _verify_chain_img4_v2_AWG1,
                            _verify_chain_img4_v2_rsa3k, _verify_chain_img4_x86,
                            _verify_signature_ecdsa, _verify_signature_rsa,
                            _verify_signature_rsa3k ]
    objc-classes:         [ BasicMOVReader, FlickerResourceArbiterClientDelegate,
                            JasperDepthProvider ]
    objc-ivars:           [ BasicMOVReader._hasReachedEndOfStream,
                            BasicMOVReader._output, BasicMOVReader._reader,
                            FlickerResourceArbiterClientDelegate._arbiterClient,
                            FlickerResourceArbiterClientDelegate._flickerContext,
                            JasperDepthProvider._channel,
                            JasperDepthProvider._frameRateChanged,
                            JasperDepthProvider._gmoFlowBitmask,
                            JasperDepthProvider._maxFrameRate,
                            JasperDepthProvider._minFrameRate,
                            JasperDepthProvider._pDevice,
                            JasperDepthProvider._pRemote,
                            JasperDepthProvider._wakupDone ]
    weak-def-symbols:     [ __ZN10ImageUtils12ExtractPatchIdEEvRK6MatrixIT_EjjjjPS3_,
                            __ZN10ImageUtils13ConnectedCompI9MatrixMxNILj1ELj3EdEEEjRK6MatrixIT_EdhPS3_ItEPNSt3__16vectorINS_4BlobENSA_9allocatorISC_EEEE,
                            __ZN10ImageUtils13ConnectedCompIbEEjRK6MatrixIT_EdhPS1_ItEPNSt3__16vectorINS_4BlobENS8_9allocatorISA_EEEE,
                            __ZN10ImageUtils13IntegralImageIdEEvRK6MatrixIT_EPS1_IdE,
                            __ZN10ImageUtils17AdaptiveThresholdIdEEvRK6MatrixIT_EjdbPS1_IbE,
                            __ZN10ImageUtils5Conv2IdEEvRK6MatrixIT_ES5_PS3_,
                            __ZN10ImageUtils5Conv2IfEEvRK6MatrixIT_ES5_PS3_,
                            __ZN10ImageUtils5Rot90IbEEvRK6MatrixIT_EjPS3_,
                            __ZN10ImageUtils5Rot90IdEEvRK6MatrixIT_EjPS3_,
                            __ZN10ImageUtils5ScaleIbEEvRK6MatrixIT_EdPS1_IdE,
                            __ZN10ImageUtils5ScaleIdEEvRK6MatrixIT_EdPS1_IdE,
                            __ZN10ImageUtils5ScaleIdEEvRK6MatrixIT_EddbPS1_IdE,
                            __ZN10ImageUtils5ScaleIhEEvRK6MatrixIT_EdPS1_IdE,
                            __ZN10ImageUtils5ScaleItEEvRK6MatrixIT_EdPS1_IdE,
                            __ZN10ImageUtils6FliplrIdEEvRK6MatrixIT_EPS3_,
                            __ZN10ImageUtils6FlipudIdEEvRK6MatrixIT_EPS3_,
                            __ZN10ImageUtils8GradientIdEEvRK6MatrixIT_EPS3_S6_ ]
...
