---
archs:           [ armv7, armv7s, arm64 ]
platform:        ios
install-name:    /System/Library/PrivateFrameworks/SafariShared.framework/SafariShared
current-version: 0.0.0
compatibility-version: 0.0.0
exports:
  - archs:            [ armv7, armv7s, arm64 ]
    symbols:          [ _WBSABProxyPropertyFullName,
                        _WBSAutoFillGetSavedDataClasses, _WBSAutomaticReadingListAppExtensionsDidChangeNotification,
                        _WBSAutomaticReadingListOriginatorProfileImageKeyPath, _WBSAutomaticReadingListRequestStarted,
                        _WBSAutomaticReadingListWebFeedSubscriptionsDidChangeNotification, _WBSCloudHistoryConfigurationChangedNotification,
                        _WBSCloudHistoryConfigurationMultipleDeviceFetchChangesThrottlingPolicyStringKey, _WBSCloudHistoryConfigurationSingleDeviceFetchChangesThrottlingPolicyStringKey,
                        _WBSCloudHistoryItemsWereRemovedNotification, _WBSCloudHistoryPushNotificationReceivedNotificationName,
                        _WBSCloudHistoryStoreErrorDomain, _WBSCreditCardAutoFillAccessGroup,
                        _WBSCreditCardCardholderFieldLabels, _WBSCreditCardNumberFieldLabels,
                        _WBSCreditCardTypeFieldLabels, _WBSCreditCardTypeFromNumberAllowingPartialMatch,
                        _WBSCreditCardTypeSynonyms, _WBSExpirationDateWithDayMonthYear,
                        _WBSFeedFinderFeedURLKey, _WBSFeedFinderObjectName,
                        _WBSFieldLabelPatternMatcherArrayGetCount, _WBSFieldLabelPatternMatcherFindLongestMatch,
                        _WBSFormAnnotationCurrentPasswordKey, _WBSFormAnnotationUsernameKey,
                        _WBSFormMetadataAllowsAutocompleteKey, _WBSFormMetadataAutoFillFormTypeKey,
                        _WBSFormMetadataConfirmPasswordElementUniqueIDKey, _WBSFormMetadataControlClaimsToBeCurrentPasswordViaAutocompleteAttribute,
                        _WBSFormMetadataControlClaimsToBeUsernameViaAutocompleteAttribute, _WBSFormMetadataControlIsActiveElementKey,
                        _WBSFormMetadataControlIsDisabledKey, _WBSFormMetadataControlIsReadOnlyKey,
                        _WBSFormMetadataControlIsTextFieldKey, _WBSFormMetadataControlLooksLikeCreditCardCompositeExpirationDateFieldKey,
                        _WBSFormMetadataControlLooksLikeCreditCardSecurityCodeFieldKey, _WBSFormMetadataControlLooksLikeDayFieldKey,
                        _WBSFormMetadataControlLooksLikeMonthFieldKey, _WBSFormMetadataControlMaxLengthKey,
                        _WBSFormMetadataControlRectLeftKey, _WBSFormMetadataControlRectWidthKey,
                        _WBSFormMetadataControlTagNameKey, _WBSFormMetadataControlValueKey,
                        _WBSFormMetadataFormActionKey, _WBSFormMetadataFormIDKey,
                        _WBSFormMetadataFormIsBestForPageLevelAutoFill, _WBSFormMetadataFormUsesRelAsync,
                        _WBSFormMetadataPasswordElementUniqueIDKey, _WBSFormMetadataRequestTypeKey,
                        _WBSFormMetadataSelectionLengthKey, _WBSFormMetadataTextSampleKey,
                        _WBSFormMetadataUsesGeneratedPasswordKey, _WBSGetKeychainData,
                        _WBSHistoryCurrentDatabaseSchemaVersion, _WBSHistoryItemRedirectURLsKey,
                        _WBSHistoryItemUnvisitedTimeInterval, _WBSHistoryItemsKey,
                        _WBSHistoryItemsWereLoadedNotification, _WBSHistoryItemsWereRemovedNotification,
                        _WBSHistorySQLiteStoreURLHashKey, _WBSHistorySQLiteStoreURLSaltKey,
                        _WBSHistorySessionsDidChangeNotification, _WBSHistoryVisitWasAddedNotification,
                        _WBSHistoryWasLoadedNotification, _WBSKeychainItemExists,
                        _WBSNormalizedCreditCardNumber, _WBSOpenSearchSchemaFetcherDidCollectDescriptionNotificationName,
                        _WBSOpenSearchStartPageParameterName, _WBSParsecAuxiliaryInfoTextColorRed,
                        _WBSParsecDebugParametersKey, _WBSParsecDomainSafariBaiduCompletion,
                        _WBSParsecDomainSafariBingCompletion, _WBSParsecDomainSafariBookmark,
                        _WBSParsecDomainSafariDuckDuckGoSearch, _WBSParsecDomainSafariGoToSite,
                        _WBSParsecDomainSafariGoogleSearch, _WBSParsecDomainSafariHistorySearch,
                        _WBSParsecDomainSafariLastSearchFormat, _WBSParsecDomainSafariTopHit,
                        _WBSParsecDomainSafariYahooCompletion, _WBSParsecDomainServerApp,
                        _WBSParsecDomainServerMaps, _WBSParsecDomainServerNews,
                        _WBSParsecDomainServerStock, _WBSParsecDomainServerTwitter,
                        _WBSParsecDomainServerWeb, _WBSParsecEngagementActionArea,
                        _WBSParsecEngagementActionDestination, _WBSParsecEngagementActionType,
                        _WBSParsecITunesMediaKindArtist, _WBSParsecITunesMediaKindCourse,
                        _WBSParsecITunesMediaKindEPubBook, _WBSParsecITunesMediaKindMovie,
                        _WBSParsecITunesMediaKindPlaylist, _WBSParsecITunesMediaKindPodcastEpisode,
                        _WBSParsecITunesMediaKindSong, _WBSParsecITunesMediaKindTVSeason,
                        _WBSParsecImageAlignmentSchema, _WBSParsecRichTitleCardSectionErrorDomain,
                        _WBSParsecSearchCompletionResultSetErrorDomain, _WBSParsecSearchCompletionResultSetStatusDebug,
                        _WBSParsecSearchCompletionResultSetStatusNoCompletion, _WBSParsecSearchCompletionResultSetStatusOK,
                        _WBSParsecSearchMapsResultInCardAddressAction, _WBSParsecSearchMapsResultInCardBusinessPhotoAction,
                        _WBSParsecSearchMapsResultInCardBusinessReviewAction, _WBSParsecSearchMapsResultInCardDirectionsFromHereAction,
                        _WBSParsecSearchMapsResultInCardHomePageAction, _WBSParsecSearchResultErrorDomain,
                        _WBSParsecSportsScoreSummaryErrorDomain, _WBSParsecTrailerErrorDomain,
                        _WBSQuickWebsiteSearchControllerDidFinishLoadingNotification, _WBSQuickWebsiteSearchProviderWasAddedNotification,
                        _WBSRemoveKeychainPassword, _WBSSavedPasswordStoreDidChangeNotification,
                        _WBSSetKeychainData, _WBSSiteMetadataImageCacheWillPurgeUnneededImagesNotification,
                        _WBSTopSitesMinimumVisitCountThreshold, _WBSTopSitesScore,
                        _WBSTopSitesScoreWithCachedValues, _WBSTouchIconsCacheDidLoadIconNotification,
                        _WBSUnifiedFieldInputTypeForString, __WBSABAddressCityKey,
                        __WBSABAddressLabelHome, __WBSABAddressStateKey,
                        __WBSABAddressZIPKey, __WBSABEmailProperty,
                        __WBSABOrganizationProperty, __WBSABPhoneLabelMobile,
                        __WBSABPhoneLabeliPhone, __WBSChineseCharacterForCity,
                        __WBSLocalizedString, __WBSSocialResponseWebFeedFeedURLStringKey,
                        __WBSSocialResponseWebFeedTitleKey, __ZN12SafariShared11JSUtilities10toNSStringEPK15OpaqueJSContextPK13OpaqueJSValue19WBSNullStringPolicy,
                        __ZN12SafariShared11JSUtilities20functionObjectByNameEPK15OpaqueJSContextP13OpaqueJSValuePKc, __ZN12SafariShared11JSUtilities20logExceptionInternalEPK15OpaqueJSContextPK13OpaqueJSValue,
                        __ZN12SafariShared11JSUtilities20translateNSToJSValueEPK15OpaqueJSContextP11objc_object, __ZN12SafariShared11JSUtilities29registerJSObjectInGlobalSpaceEPK15OpaqueJSContextP13OpaqueJSClassPKcPv,
                        __ZN12SafariShared11JSUtilities8jsStringEPKc, __ZN12SafariShared11JSUtilities9toJSValueEPK15OpaqueJSContextP8NSString20WBSNullOrEmptyString,
                        __ZN12SafariShared12JSController12jsControllerEP13OpaqueJSValue, __ZN12SafariShared12JSController13createJSClassEv,
                        __ZN12SafariShared12JSController14controllerNameEv, __ZN12SafariShared12JSController16unprotectObjectsEv,
                        __ZN12SafariShared12JSController29addScriptObjectToGlobalObjectEPK15OpaqueJSContext, __ZN12SafariShared12JSControllerD0Ev,
                        __ZN12SafariShared12JSControllerD2Ev, __ZN12SafariShared13FrameMetadata13staticJSClassEv,
                        __ZN12SafariShared13FrameMetadataC1EPU31objcproto20WBSFormAutoFillFrame11objc_objectP25WBSFormMetadataController, __ZN12SafariShared18ReaderJSController13staticJSClassEv,
                        __ZN12SafariShared18ReaderJSController15staticFunctionsERN3WTF6VectorI16JSStaticFunctionLm0ENS1_15CrashOnOverflowELm16EEE, __ZN12SafariShared18ReaderJSController19stopLoadingNextPageEv,
                        __ZN12SafariShared18ReaderJSController21nextPageArticleFinderEv, __ZN12SafariShared18ReaderJSController26clearNextPageArticleFinderEv,
                        __ZN12SafariShared18ReaderJSController36getArticleScrollPositionAsDictionaryEv, __ZN12SafariShared19ReaderConfiguration19articleFinderScriptEPK15OpaqueJSContext,
                        __ZN12SafariShared19ReaderConfiguration6sharedEv, __ZN12SafariShared23computeURLMatchLocationEP8NSStringP31WBSURLCompletionUserTypedString,
                        __ZN12SafariShared24FieldLabelPatternMatcherC1ERKNS0_3DFAEPKtl, __ZN12SafariShared25ArticleFinderJSController12staticValuesERN3WTF6VectorI13JSStaticValueLm0ENS1_15CrashOnOverflowELm16EEE,
                        __ZN12SafariShared25ArticleFinderJSController15staticFunctionsERN3WTF6VectorI16JSStaticFunctionLm0ENS1_15CrashOnOverflowELm16EEE, __ZN12SafariShared25ArticleFinderJSController17readerIsAvailableEv,
                        __ZN12SafariShared25ArticleFinderJSController33collectReadingListItemInformationEv, __ZN12SafariShared25SuddenTerminationDisabler24disableSuddenTerminationEv,
                        __ZN12SafariShared25computeTitleMatchLocationEP8NSStringP31WBSURLCompletionUserTypedString, __ZN12SafariShared27CoalescedAsynchronousWriter12detachThreadEv,
                        __ZN12SafariShared27CoalescedAsynchronousWriter16threadTrampolineEPv, __ZN12SafariShared27CoalescedAsynchronousWriter22waitForWriteCompletionEv,
                        __ZN12SafariShared27CoalescedAsynchronousWriter26postWriteMainThreadCleanupEv, __ZN12SafariShared27CoalescedAsynchronousWriter33completePendingWriteSynchronouslyEv,
                        __ZN12SafariShared27CoalescedAsynchronousWriter36postWriteMainThreadCleanupTrampolineEPv, __ZN12SafariShared27CoalescedAsynchronousWriter61cancelPendingWriteSynchronouslyLeavingSuddenTerminationIntactEv,
                        __ZN12SafariShared27CoalescedAsynchronousWriter7getDataEv, __ZN12SafariShared27CoalescedAsynchronousWriterC1EP8NSStringP5NSURLU13block_pointerFvP6NSDataEU13block_pointerFS6_vE,
                        __ZN12SafariShared27CoalescedAsynchronousWriterC2EP8NSStringP5NSURLU13block_pointerFP6NSDatavE, __ZN12SafariShared27CoalescedAsynchronousWriterC2EP8NSStringU13block_pointerFvP6NSDataEU13block_pointerFS4_vE,
                        __ZN12SafariShared27CoalescedAsynchronousWriterD2Ev, __ZN12SafariShared28ReaderAvailabilityController19detectionTimerFiredEP16__CFRunLoopTimerPv,
                        __ZN12SafariShared28ReaderAvailabilityController21detectAvailabilityNowEv, __ZN12SafariShared28ReaderAvailabilityController21doneWithArticleFinderEv,
                        __ZN12SafariShared28ReaderAvailabilityController24invalidateDetectionTimerEv, __ZN12SafariShared28ReaderAvailabilityController27cancelAvailabilityDetectionEv,
                        __ZN12SafariShared28ReaderAvailabilityController28detectAvailabilityAfterDelayEdNS_34LoadEventTriggeringReaderDetectionE, __ZN12SafariShared28ReaderAvailabilityController37sameDocumentNavigationDetectionDelaysEv,
                        __ZN12SafariShared28ReaderAvailabilityController45detectAvailabilityAfterSameDocumentNavigationEv, __ZN12SafariShared28ReaderAvailabilityControllerD0Ev,
                        __ZN12SafariShared28ReaderAvailabilityControllerD2Ev, __ZN12SafariShared33BookmarkAndHistoryCompletionMatch20computeMatchLocationEP8NSStringS2_P31WBSURLCompletionUserTypedString,
                        __ZN12SafariShared33BookmarkAndHistoryCompletionMatch23computeURLMatchLocationEPU36objcproto25WBSURLCompletionMatchData11objc_objectP31WBSURLCompletionUserTypedStringRm, __ZN12SafariShared33BookmarkAndHistoryCompletionMatchC1EPU36objcproto25WBSURLCompletionMatchData11objc_objectmd29WBSURLCompletionMatchLocationm,
                        __ZN12SafariShared34AddressBookAutoCompleteMappingData13fieldLabelMapE, __ZN12SafariShared34AddressBookAutoCompleteMappingData30emailFieldLabelPatternMatchersE,
                        __ZN12SafariShared34AddressBookAutoCompleteMappingData8synonymsE, __ZNK12SafariShared13FrameMetadata15metadataForFormEP13OpaqueJSValue26WBSFormMetadataRequestType,
                        __ZNK12SafariShared13FrameMetadata19getFormsAndMetadataE26WBSFormMetadataRequestTypeRP13OpaqueJSValueRPKS2_, __ZNK12SafariShared13FrameMetadata19metadataForAllFormsE26WBSFormMetadataRequestType,
                        __ZNK12SafariShared13FrameMetadata22currentMetadataForFormEP13OpaqueJSValue26WBSFormMetadataRequestType, __ZNK12SafariShared18ReaderJSController16userVisibleWidthEv,
                        __ZNK12SafariShared18ReaderJSController21cachedTopScrollOffsetEv, __ZNK12SafariShared18ReaderJSController29maxDistanceForLoadingNextPageEv,
                        __ZNK12SafariShared18ReaderJSController36defaultTextSizeIndexJavaScriptStringEv, __ZNK12SafariShared24FieldLabelPatternMatcher10isEndStateERKNS0_3DFA5StateEPKt,
                        __ZNK12SafariShared24FieldLabelPatternMatcher13checkForMatchEPKtS2_, __ZNK12SafariShared24FieldLabelPatternMatcher14isWordBoundaryEPKt,
                        __ZNK12SafariShared24FieldLabelPatternMatcher6searchEPKtS2_, __ZNK12SafariShared25ArticleFinderJSController13mainImageNodeEv,
                        __ZNK12SafariShared28ReaderAvailabilityController33originalArticleFinderJSControllerEv, __ZNK12SafariShared33BookmarkAndHistoryCompletionMatch20userVisibleURLStringEv,
                        __ZNK12SafariShared33BookmarkAndHistoryCompletionMatch4dataEv, __ZNK12SafariShared33BookmarkAndHistoryCompletionMatch7compareEPS0_,
                        __ZTVN12SafariShared13FrameMetadataE, __ZTVN12SafariShared25ArticleFinderJSControllerE,
                        __ZTVN12SafariShared28ReaderAvailabilityControllerE, _WBSAllowedCreditCardNumberSeparatorCharacters,
                        _WBSAutomaticReadingListItemsChangedNotification, _WBSAutomaticReadingListSocialAccountDidChangeNotification,
                        _WBSCloudHistoryConfigurationMaximumRequestLimitCharacterCountKey, _WBSCloudHistoryConfigurationSingleDeviceSaveChangesThrottlingPolicyStringKey,
                        _WBSCloudHistorySaveChangesAttemptDidCompleteNotification, _WBSCreditCardAutoFillKeychainService,
                        _WBSCreditCardSecurityCodeFieldLabels, _WBSCreditCardTypeLocalizedName,
                        _WBSFeedFinderFeedTitleKey, _WBSFieldLabelPatternMatcherArrayFree,
                        _WBSFieldLabelPatternMatcherSearchReverse, _WBSFormMetadataAddressBookLabelKey,
                        _WBSFormMetadataAutocompleteTokensKey, _WBSFormMetadataControlClaimsToBeNewPasswordViaAutocompleteAttribute,
                        _WBSFormMetadataControlIsAutoFilledTextFieldKey, _WBSFormMetadataControlIsSecureTextFieldKey,
                        _WBSFormMetadataControlLooksLikeCreditCardNumberFieldKey, _WBSFormMetadataControlLooksLikeIgnoredDataTypeFieldKey,
                        _WBSFormMetadataControlRectHeightKey, _WBSFormMetadataControlSizeKey,
                        _WBSFormMetadataFirstCreditCardCardholderFieldOrCreditCardNumberFieldUniqueIDKey, _WBSFormMetadataFormIsBestForCredentialPreFill,
                        _WBSFormMetadataOldPasswordElementUniqueIDKey, _WBSFormMetadataSelectElementInfoKey,
                        _WBSFormMetadataUsernameElementUniqueIDKey, _WBSGetKeychainPassword,
                        _WBSHistoryItemSynchronizationQueue, _WBSHistoryItemsWereAddedNotification,
                        _WBSHistorySHA512, _WBSHistoryServiceMain,
                        _WBSHistoryWasClearedNotification, _WBSNonCreditCardCardNumberFieldLabels,
                        _WBSOpenSearchSearchTermsParameterName, _WBSParsecCardSectionErrorDomain,
                        _WBSParsecDomainSafariBaiduSearch, _WBSParsecDomainSafariDuckDuckGoCompletion,
                        _WBSParsecDomainSafariGoogleCompletion, _WBSParsecDomainSafariICloudTab,
                        _WBSParsecDomainSafariURL, _WBSParsecDomainServerITunes,
                        _WBSParsecDomainServerSport, _WBSParsecDomainServerWeather,
                        _WBSParsecEngagementActionCardType, _WBSParsecITunesMediaKindAlbum,
                        _WBSParsecITunesMediaKindDesktopApp, _WBSParsecITunesMediaKindMusicVideo,
                        _WBSParsecITunesMediaKindShortFilm, _WBSParsecImageAlignmentFromString,
                        _WBSParsecRowCardSectionErrorDomain, _WBSParsecSearchCompletionResultSetStatusError,
                        _WBSParsecSearchCompletionResultSetStatusRemote, _WBSParsecSearchMapsResultInCardBusinessReportAProblemAction,
                        _WBSParsecSearchMapsResultInCardDirectionsToHereAction, _WBSParsecSportsImageErrorDomain,
                        _WBSParsecTrailersCardSectionErrorDomain, _WBSRectCenteredWithinRect,
                        _WBSSetIsStringForUserTypedDomainExpansionInHistoryFunction, _WBSTopSitesCachedScoreIsStale,
                        _WBSTopSitesScoreForCaching, _WBSTouchIconsCacheLoadedIconHostUserInfoKey,
                        __WBSABAddressCountryKey, __WBSABAddressStreetKey,
                        __WBSABInstantMessageProperty, __WBSABPhoneLabelWork,
                        __WBSChineseCharacterForProvince, __WBSSocialResponseWebFeedHomepageURLKey,
                        __ZN12SafariShared11JSUtilities11arrayLengthEPK15OpaqueJSContextP13OpaqueJSValuePPKS4_, __ZN12SafariShared11JSUtilities20translateJSValueToNSEPK15OpaqueJSContextPK13OpaqueJSValue,
                        __ZN12SafariShared11JSUtilities8jsStringEP8NSString, __ZN12SafariShared12JSController10setContextEP15OpaqueJSContext,
                        __ZN12SafariShared12JSController13protectObjectEP13OpaqueJSValue, __ZN12SafariShared12JSController17scriptObjectReadyEPK15OpaqueJSContext,
                        __ZN12SafariShared12JSControllerD1Ev, __ZN12SafariShared13FrameMetadata15staticFunctionsERN3WTF6VectorI16JSStaticFunctionLm0ENS1_15CrashOnOverflowELm16EEE,
                        __ZN12SafariShared18ReaderJSController14loadNewArticleEv, __ZN12SafariShared18ReaderJSController21activateWithAnimationEb,
                        __ZN12SafariShared18ReaderJSController29resetForPotentialReactivationEv, __ZN12SafariShared19ReaderConfiguration19readerHTMLSourceURLEv,
                        __ZN12SafariShared24FieldLabelPatternMatcher15isWordCharacterEt, __ZN12SafariShared25ArticleFinderJSController13staticJSClassEv,
                        __ZN12SafariShared25ArticleFinderJSController27prepareToTransitionToReaderEv, __ZN12SafariShared25TranslatedFileURLProtocol16registerProtocolEPKNS0_12ProtocolInfoE,
                        __ZN12SafariShared27CoalescedAsynchronousWriter13scheduleWriteEv, __ZN12SafariShared27CoalescedAsynchronousWriter23writeDataAsynchronouslyEv,
                        __ZN12SafariShared27CoalescedAsynchronousWriter34performScheduledWriteSynchronouslyEv, __ZN12SafariShared27CoalescedAsynchronousWriter6threadEv,
                        __ZN12SafariShared27CoalescedAsynchronousWriterC1EP8NSStringU13block_pointerFvP6NSDataEU13block_pointerFS4_vE, __ZN12SafariShared27CoalescedAsynchronousWriterD1Ev,
                        __ZN12SafariShared28ReaderAvailabilityController20prepareArticleFinderEv, __ZN12SafariShared28ReaderAvailabilityController22scheduleDetectionTimerEd,
                        __ZN12SafariShared28ReaderAvailabilityController27prepareToTransitionToReaderEv, __ZN12SafariShared28ReaderAvailabilityController39scheduleSameDocumentNavigationDetectionEv,
                        __ZN12SafariShared28ReaderAvailabilityControllerD1Ev, __ZN12SafariShared33BookmarkAndHistoryCompletionMatch20computeMatchLocationEPU36objcproto25WBSURLCompletionMatchData11objc_objectP31WBSURLCompletionUserTypedStringRj,
                        __ZN12SafariShared33BookmarkAndHistoryCompletionMatch25computeTitleMatchLocationEPU36objcproto25WBSURLCompletionMatchData11objc_objectP31WBSURLCompletionUserTypedStringRj, __ZN12SafariShared33BookmarkAndHistoryCompletionMatchC2EPU36objcproto25WBSURLCompletionMatchData11objc_objectmd29WBSURLCompletionMatchLocationj,
                        __ZN12SafariShared34AddressBookAutoCompleteMappingData36addressBookFieldLabelPatternMatchersE, __ZNK12SafariShared13FrameMetadata17jsMetadataForFormEP13OpaqueJSValue26WBSFormMetadataRequestType,
                        __ZNK12SafariShared13FrameMetadata21lockedMetadataForFormEP13OpaqueJSValue, __ZNK12SafariShared18ReaderJSController18canLoadFromNetworkEv,
                        __ZNK12SafariShared18ReaderJSController29printingMailingFrameElementIdEv, __ZNK12SafariShared24FieldLabelPatternMatcher12longestMatchEv,
                        __ZNK12SafariShared24FieldLabelPatternMatcher23findNextStateAndAdvanceERKNS0_3DFA5StateERPKt, __ZNK12SafariShared28ReaderAvailabilityController21originalArticleFinderEv,
                        __ZNK12SafariShared33BookmarkAndHistoryCompletionMatch24placeholderForEmptyTitleEv, __ZTVN12SafariShared12JSControllerE,
                        __ZTVN12SafariShared18ReaderJSControllerE ]
    objc-classes:     [ _WBSAddressBookMatch,
                        _WBSAddressBookValueSpecifier, _WBSAutomaticReadingListAppExtensionItem,
                        _WBSAutomaticReadingListItem, _WBSAutomaticReadingListSinaWeiboItem,
                        _WBSAutomaticReadingListSocialSource, _WBSAutomaticReadingListTwitterItem,
                        _WBSAutomaticReadingListWebFeedItem, _WBSBookmarkAndHistoryCompletionMatch,
                        _WBSCleanupHandler, _WBSCloudHistoryConfiguration,
                        _WBSCloudHistoryMergeOperation, _WBSCloudHistoryPushAgentProxy,
                        _WBSCloudHistoryThrottler, _WBSCloudHistoryVisitIdentifier,
                        _WBSCloudTabCloseRequest, _WBSCloudTabStore,
                        _WBSCredentialMatch, _WBSCreditCardDataController,
                        _WBSDuetSession, _WBSFeedElement,
                        _WBSFeedFinderController, _WBSFeedParser,
                        _WBSFluidProgressAnimation, _WBSFluidProgressState,
                        _WBSFormDataController, _WBSFormToABBinder,
                        _WBSFrequentlyVisitedSitesBannedURLStore, _WBSGeneratedTouchIcon,
                        _WBSHistoryAgeAndItemCountLimitEnforcementPlan, _WBSHistoryConnectionProxy,
                        _WBSHistoryDatabaseSchemaMigrator, _WBSHistoryItem,
                        _WBSHistoryPropertyListLoader, _WBSHistoryService,
                        _WBSHistorySessionController, _WBSHistoryTombstone,
                        _WBSHistoryURLCompletionMatchData, _WBSHistoryVisit,
                        _WBSImageUtilities, _WBSJavaScriptDialogManager,
                        _WBSMultiRoundAutoFillManager, _WBSOpenSearchSchemaFetcher,
                        _WBSOpenSearchURLTemplateParameter, _WBSParsecAuxiliaryInfo,
                        _WBSParsecCardSection, _WBSParsecFormattedText,
                        _WBSParsecImageRepresentation, _WBSParsecModel,
                        _WBSParsecMovieCardSection, _WBSParsecResultSetPattern,
                        _WBSParsecRichTitleCardSection, _WBSParsecSchema,
                        _WBSParsecSearchCompletionResultSet, _WBSParsecSearchMapsResult,
                        _WBSParsecSearchMescalSession, _WBSParsecSearchNewsResult,
                        _WBSParsecSearchResult, _WBSParsecSearchSession,
                        _WBSParsecSearchSportsAttributionExtraCompletionItem, _WBSParsecSearchTwitterResult,
                        _WBSParsecSportsImage, _WBSParsecSportsScoreSummaryCardSection,
                        _WBSParsecSubscriptionManager, _WBSParsecTableRowCardSection,
                        _WBSParsecTrailer, _WBSPasswordGeneration,
                        _WBSQuickWebsiteSearchController, _WBSReaderFont,
                        _WBSReaderLocalizedFonts, _WBSRecentWebSearchesController,
                        _WBSRemoteHistorySession, _WBSSQLiteRow,
                        _WBSSQLiteStatement, _WBSSavedPasswordStore,
                        _WBSSearchProvider, _WBSSiteMetadataFetchOperation,
                        _WBSSiteMetadataManager, _WBSSiteMetadataRequest,
                        _WBSTemplateIconMonogramConfiguration, _WBSTopHitCompletionMatch,
                        _WBSTouchIconFetchOperation, _WBSTouchIconRequest,
                        _WBSTouchIconWebProcessPlugInPageController, _WBSURLCompletionHistorySnapshot,
                        _WBSURLCompletionMatchSnapshot, _WBSURLCompletionUserTypedString,
                        _WBSUserTypedFormString, _WBSWebProcessPlugInPageController,
                        __WBSParsecArraySchema, __WBSSiteMetadataRequestInfo,
                        __WBSSiteMetadataToken, _WBSAddressBookMatchMarker,
                        _WBSAutomaticReadingListAppExtensionSource, _WBSAutomaticReadingListSinaWeiboSource,
                        _WBSAutomaticReadingListTwitterSource, _WBSClass,
                        _WBSCloudHistoryFetchResult, _WBSCloudHistoryStore,
                        _WBSCloudTab, _WBSCompletionQuery,
                        _WBSCreditCardFormatter, _WBSFeedEntry,
                        _WBSFeedSource, _WBSFormAutoFillItem,
                        _WBSFrequentlyVisitedSiteCandidate, _WBSHistory,
                        _WBSHistoryDatabaseAccessBroker, _WBSHistoryNotification,
                        _WBSHistorySession, _WBSHistoryURLCompletionDataStore,
                        _WBSImageFetchingURLSessionTaskManager, _WBSMetadataExtractor,
                        _WBSOpenSearchURLTemplate, _WBSParsecBuyButton,
                        _WBSParsecHiddenResultInfo, _WBSParsecMovieCardDetailSection,
                        _WBSParsecRichText, _WBSParsecSearchClient,
                        _WBSParsecSearchMapsResultExtraCompletionItem, _WBSParsecSearchResponse,
                        _WBSParsecSearchSimpleResult, _WBSParsecSearchUtilities,
                        _WBSParsecSubscriptionInfo, _WBSParsecTitleCardSection,
                        _WBSPeriodicActivityScheduler, _WBSReaderFontManager,
                        _WBSRemoteHistoryItem, _WBSSQLiteRowEnumerator,
                        _WBSSearchHelperConnectionManager, _WBSSiteMetadataImageCache,
                        _WBSSiteMetadataResponse, _WBSTouchIconCache,
                        _WBSTouchIconResponse, _WBSURLCompletionMatch,
                        _WBSURLSuffixChecker, __WBSFieldLabelPatternMatcherFactory,
                        __WBSParsecDictionarySchema ]
    objc-ivars:       [ _WBSFrequentlyVisitedSitesController._bannedURLStore,
                        _WBSHistory._entriesByURLStringAccessQueue, _WBSHistory._stringsForUserTypedDomainExpansion,
                        _WBSHistoryItem._urlString, _WBSHistoryItem._visitsPendingWriteToDataStore,
                        _WBSHistory._entriesByURLString, _WBSHistoryItem._lastVisit ]
...
