---
archs:           [ armv7, armv7s, arm64 ]
platform:        ios
install-name:    /System/Library/PrivateFrameworks/PhysicsKit.framework/PhysicsKit
exports:         
  - archs:           [ armv7, armv7s, arm64 ]
    symbols:         [ _PKArrayFromB2ChainShape, '+[BoxedPhysicsShape boxPhysicsShape:]', 
                       '+[NSValue(PKPath) valueWithCGPoint:]', '+[PKPhysicsBody bodyWithBodies:]', 
                       '+[PKPhysicsBody bodyWithCircleOfRadius:]', '+[PKPhysicsBody bodyWithCircleOfRadius:center:]', 
                       '+[PKPhysicsBody bodyWithEdgeChainFromPath:]', '+[PKPhysicsBody bodyWithEdgeFromPoint:toPoint:]', 
                       '+[PKPhysicsBody bodyWithEdgeLoopFromPath:]', '+[PKPhysicsBody bodyWithOutline:offset:]', 
                       '+[PKPhysicsBody bodyWithPolygonFromPath:]', '+[PKPhysicsBody bodyWithRectangleOfSize:]', 
                       '+[PKPhysicsBody bodyWithRectangleOfSize:center:]', 
                       '+[PKPhysicsBody bodyWithRectangleOfSize:center:edgeRadius:]', 
                       '+[PKPhysicsBody bodyWithRectangleOfSize:edgeRadius:]', 
                       '+[PKPhysicsBody initWithMarchingCubes:pixelFrame:]', 
                       '+[PKPhysicsBody initWithQuadTree:]', '+[PKPhysicsFieldCustomBlock fieldWithCustomBatchBlock:]', 
                       '+[PKPhysicsFieldCustomBlock fieldWithCustomBlock:]', 
                       '+[PKPhysicsFieldDrag field]', '+[PKPhysicsFieldElectric field]', 
                       '+[PKPhysicsFieldLinearGravity field]', '+[PKPhysicsFieldMagnetic field]', 
                       '+[PKPhysicsFieldNoise field]', '+[PKPhysicsFieldRadialGravity field]', 
                       '+[PKPhysicsFieldSpring field]', '+[PKPhysicsFieldTurbulence field]', 
                       '+[PKPhysicsFieldVelocity fieldWithGrid:]', '+[PKPhysicsFieldVortex field]', 
                       '+[PKPhysicsGrid gridFromOccupancyArray:bytePitch:width:height:]', 
                       '+[PKPhysicsGrid gridFromRGBAU8PixelData:imageWidth:imageHeight:alphaThreshold:accuracy:]', 
                       '+[PKPhysicsGrid vectorGridFromRGBAU8PixelData:imageWidth:imageHeight:accuracy:]', 
                       '+[PKPhysicsJointDistance jointWithBodyA:bodyB:anchorA:anchorB:]', 
                       '+[PKPhysicsJointDistance jointWithBodyA:bodyB:localAnchorA:localAnchorB:]', 
                       '+[PKPhysicsJointPrismatic jointWithBodyA:bodyB:anchor:axis:]', 
                       '+[PKPhysicsJointRevolute jointWithBodyA:bodyB:anchor:]', 
                       '+[PKPhysicsJointRope jointWithBodyA:bodyB:anchorA:anchorB:]', 
                       '+[PKPhysicsJointWeld jointWithBodyA:bodyB:anchor:]', 
                       '+[PKPhysicsWorld(Private) world]', '+[PKRegion infiniteRegion]', 
                       '-[BoxedPhysicsShape .cxx_destruct]', '-[BoxedPhysicsShape unboxShape]', 
                       '-[NSCoder(PKPath) decodeCGPointForKey:]', '-[NSCoder(PKPath) decodeCGSizeForKey:]', 
                       '-[NSCoder(PKPath) decodeCGVectorForKey:]', '-[NSCoder(PKPath) encodeCGPoint:forKey:]', 
                       '-[NSCoder(PKPath) encodeCGSize:forKey:]', '-[NSCoder(PKPath) encodeCGVector:forKey:]', 
                       '-[NSValue(PKPath) CGPointValue]', '-[PKPhysicsBody .cxx_construct]', 
                       '-[PKPhysicsBody .cxx_destruct]', '-[PKPhysicsBody _allowSleep]', 
                       '-[PKPhysicsBody _descriptionClassName]', '-[PKPhysicsBody _descriptionFormat]', 
                       '-[PKPhysicsBody affectedByGravity]', '-[PKPhysicsBody allContactedBodies]', 
                       '-[PKPhysicsBody allowsRotation]', '-[PKPhysicsBody angularDamping]', 
                       '-[PKPhysicsBody angularVelocity]', '-[PKPhysicsBody applyAngularImpulse:]', 
                       '-[PKPhysicsBody applyForce:]', '-[PKPhysicsBody applyForce:atPoint:]', 
                       '-[PKPhysicsBody applyImpulse:]', '-[PKPhysicsBody applyImpulse:atPoint:]', 
                       '-[PKPhysicsBody applyTorque:]', '-[PKPhysicsBody applyUnscaledForce:]', 
                       '-[PKPhysicsBody applyUnscaledForce:atPoint:]', 
                       '-[PKPhysicsBody applyUnscaledImpulse:]', '-[PKPhysicsBody applyUnscaledImpulse:atPoint:]', 
                       '-[PKPhysicsBody area]', '-[PKPhysicsBody categoryBitMask]', 
                       '-[PKPhysicsBody charge]', '-[PKPhysicsBody clearBox2DData]', 
                       '-[PKPhysicsBody collisionBitMask]', '-[PKPhysicsBody contactTestBitMask]', 
                       '-[PKPhysicsBody copyWithZone:]', '-[PKPhysicsBody dealloc]', 
                       '-[PKPhysicsBody density]', '-[PKPhysicsBody description]', 
                       '-[PKPhysicsBody encodeWithCoder:]', '-[PKPhysicsBody fieldBitMask]', 
                       '-[PKPhysicsBody friction]', '-[PKPhysicsBody initWithBodies:]', 
                       '-[PKPhysicsBody initWithCircleOfRadius:]', '-[PKPhysicsBody initWithCircleOfRadius:center:]', 
                       '-[PKPhysicsBody initWithCoder:]', '-[PKPhysicsBody initWithEdgeChainFromPath:]', 
                       '-[PKPhysicsBody initWithEdgeFromPoint:toPoint:]', 
                       '-[PKPhysicsBody initWithEdgeLoopFromPath:]', '-[PKPhysicsBody initWithPolygonFromPath:]', 
                       '-[PKPhysicsBody initWithRectangleOfSize:]', '-[PKPhysicsBody initWithRectangleOfSize:center:]', 
                       '-[PKPhysicsBody initWithRectangleOfSize:center:edgeRadius:]', 
                       '-[PKPhysicsBody init]', '-[PKPhysicsBody isDynamic]', 
                       '-[PKPhysicsBody isResting]', '-[PKPhysicsBody joints]', 
                       '-[PKPhysicsBody linearDamping]', '-[PKPhysicsBody mass]', 
                       '-[PKPhysicsBody outline]', '-[PKPhysicsBody pinned]', 
                       '-[PKPhysicsBody position]', '-[PKPhysicsBody postStepBlock]', 
                       '-[PKPhysicsBody radius]', '-[PKPhysicsBody reapplyScale:yScale:]', 
                       '-[PKPhysicsBody representedObject]', '-[PKPhysicsBody restitution]', 
                       '-[PKPhysicsBody rotation]', '-[PKPhysicsBody setAffectedByGravity:]', 
                       '-[PKPhysicsBody setAllowsRotation:]', '-[PKPhysicsBody setAngularDamping:]', 
                       '-[PKPhysicsBody setAngularVelocity:]', '-[PKPhysicsBody setCategoryBitMask:]', 
                       '-[PKPhysicsBody setCharge:]', '-[PKPhysicsBody setCollisionBitMask:]', 
                       '-[PKPhysicsBody setContactTestBitMask:]', '-[PKPhysicsBody setDensity:]', 
                       '-[PKPhysicsBody setDynamic:]', '-[PKPhysicsBody setFieldBitMask:]', 
                       '-[PKPhysicsBody setFriction:]', '-[PKPhysicsBody setLinearDamping:]', 
                       '-[PKPhysicsBody setMass:]', '-[PKPhysicsBody setOutline:]', 
                       '-[PKPhysicsBody setPinned:]', '-[PKPhysicsBody setPosition:]', 
                       '-[PKPhysicsBody setPostStepBlock:]', '-[PKPhysicsBody setRadius:]', 
                       '-[PKPhysicsBody setRepresentedObject:]', '-[PKPhysicsBody setResting:]', 
                       '-[PKPhysicsBody setRestitution:]', '-[PKPhysicsBody setRotation:]', 
                       '-[PKPhysicsBody setUsesPreciseCollisionDetection:]', 
                       '-[PKPhysicsBody setVelocity:]', '-[PKPhysicsBody set_allowSleep:]', 
                       '-[PKPhysicsBody usesPreciseCollisionDetection]', 
                       '-[PKPhysicsBody velocity]', '-[PKPhysicsBody volume]', 
                       '-[PKPhysicsBody(Internal) _bodyDef]', '-[PKPhysicsBody(Internal) _body]', 
                       '-[PKPhysicsBody(Internal) _inUse]', '-[PKPhysicsBody(Internal) _joints]', 
                       '-[PKPhysicsBody(Internal) _quadTree]', '-[PKPhysicsBody(Internal) _shapes]', 
                       '-[PKPhysicsBody(Internal) _world]', '-[PKPhysicsBody(Internal) active]', 
                       '-[PKPhysicsBody(Internal) setActive:]', '-[PKPhysicsBody(Internal) set_body:]', 
                       '-[PKPhysicsBody(Internal) set_bodyDef:]', '-[PKPhysicsBody(Internal) set_inUse:]', 
                       '-[PKPhysicsBody(Internal) set_joints:]', '-[PKPhysicsBody(Internal) set_world:]', 
                       '-[PKPhysicsContact .cxx_destruct]', '-[PKPhysicsContact bodyA]', 
                       '-[PKPhysicsContact bodyB]', '-[PKPhysicsContact collisionImpulse]', 
                       '-[PKPhysicsContact contactNormal]', '-[PKPhysicsContact contactPoint]', 
                       '-[PKPhysicsContact(Internal) didBegin]', '-[PKPhysicsContact(Internal) didEnd]', 
                       '-[PKPhysicsContact(Internal) init]', '-[PKPhysicsContact(Internal) setBodyA:]', 
                       '-[PKPhysicsContact(Internal) setBodyB:]', '-[PKPhysicsContact(Internal) setCollisionImpulse:]', 
                       '-[PKPhysicsContact(Internal) setContactNormal:]', 
                       '-[PKPhysicsContact(Internal) setContactPoint:]', 
                       '-[PKPhysicsContact(Internal) setDidBegin:]', '-[PKPhysicsContact(Internal) setDidEnd:]', 
                       '-[PKPhysicsField .cxx_construct]', '-[PKPhysicsField .cxx_destruct]', 
                       '-[PKPhysicsField _field]', '-[PKPhysicsField categoryBitMask]', 
                       '-[PKPhysicsField dealloc]', '-[PKPhysicsField direction]', 
                       '-[PKPhysicsField falloff]', '-[PKPhysicsField init]', 
                       '-[PKPhysicsField isActive]', '-[PKPhysicsField isEnabled]', 
                       '-[PKPhysicsField isOverride]', '-[PKPhysicsField minimumRadius]', 
                       '-[PKPhysicsField override]', '-[PKPhysicsField position]', 
                       '-[PKPhysicsField region]', '-[PKPhysicsField representedObject]', 
                       '-[PKPhysicsField rotation]', '-[PKPhysicsField scale]', 
                       '-[PKPhysicsField setActive:]', '-[PKPhysicsField setCategoryBitMask:]', 
                       '-[PKPhysicsField setDirection:]', '-[PKPhysicsField setEnabled:]', 
                       '-[PKPhysicsField setFalloff:]', '-[PKPhysicsField setIsOverride:]', 
                       '-[PKPhysicsField setMinimumRadius:]', '-[PKPhysicsField setOverride:]', 
                       '-[PKPhysicsField setPosition:]', '-[PKPhysicsField setRegion:]', 
                       '-[PKPhysicsField setRepresentedObject:]', '-[PKPhysicsField setRotation:]', 
                       '-[PKPhysicsField setScale:]', '-[PKPhysicsField setStrength:]', 
                       '-[PKPhysicsField set_field:]', '-[PKPhysicsField strength]', 
                       '-[PKPhysicsFieldCustomBlock .cxx_destruct]', '-[PKPhysicsFieldCustomBlock initWithCustomBatchBlock:]', 
                       '-[PKPhysicsFieldCustomBlock initWithCustomBlock:]', 
                       '-[PKPhysicsFieldDrag init]', '-[PKPhysicsFieldElectric init]', 
                       '-[PKPhysicsFieldLinearGravity direction]', '-[PKPhysicsFieldLinearGravity init]', 
                       '-[PKPhysicsFieldLinearGravity setDirection:]', 
                       '-[PKPhysicsFieldMagnetic init]', '-[PKPhysicsFieldNoise animationSpeed]', 
                       '-[PKPhysicsFieldNoise initWithField:]', '-[PKPhysicsFieldNoise init]', 
                       '-[PKPhysicsFieldNoise setAnimationSpeed:]', '-[PKPhysicsFieldNoise setSmoothness:]', 
                       '-[PKPhysicsFieldNoise smoothness]', '-[PKPhysicsFieldRadialGravity init]', 
                       '-[PKPhysicsFieldSpring init]', '-[PKPhysicsFieldTurbulence init]', 
                       '-[PKPhysicsFieldVelocity initWithGrid:]', '-[PKPhysicsFieldVelocity setGrid:]', 
                       '-[PKPhysicsFieldVortex init]', '-[PKPhysicsGrid .cxx_construct]', 
                       '-[PKPhysicsGrid .cxx_destruct]', '-[PKPhysicsGrid gridDataAtX:y:z:]', 
                       '-[PKPhysicsGrid gridPtr]', '-[PKPhysicsGrid height]', 
                       '-[PKPhysicsGrid isGridRegionOccupied:y:width:height:]', 
                       '-[PKPhysicsGrid pathFromOutlineWithSmoothingThreshold:bounds:]', 
                       '-[PKPhysicsGrid physicsBodyFromLVS0:]', '-[PKPhysicsGrid physicsBodyFromSmoothedOutline:size:]', 
                       '-[PKPhysicsGrid setGridPtr:]', '-[PKPhysicsGrid width]', 
                       '-[PKPhysicsJoint .cxx_destruct]', '-[PKPhysicsJoint bodyA]', 
                       '-[PKPhysicsJoint bodyB]', '-[PKPhysicsJoint encodeWithCoder:]', 
                       '-[PKPhysicsJoint initWithCoder:]', '-[PKPhysicsJoint init]', 
                       '-[PKPhysicsJoint reactionForce]', '-[PKPhysicsJoint reactionTorque]', 
                       '-[PKPhysicsJoint setBodyA:]', '-[PKPhysicsJoint setBodyB:]', 
                       '-[PKPhysicsJoint(Internal) _implicit]', '-[PKPhysicsJoint(Internal) _inUse]', 
                       '-[PKPhysicsJoint(Internal) _jointDef]', '-[PKPhysicsJoint(Internal) _joint]', 
                       '-[PKPhysicsJoint(Internal) create]', '-[PKPhysicsJoint(Internal) set_implicit:]', 
                       '-[PKPhysicsJoint(Internal) set_inUse:]', '-[PKPhysicsJoint(Internal) set_joint:]', 
                       '-[PKPhysicsJointDistance .cxx_construct]', '-[PKPhysicsJointDistance _jointDef]', 
                       '-[PKPhysicsJointDistance _joint]', '-[PKPhysicsJointDistance collideConnected]', 
                       '-[PKPhysicsJointDistance create]', '-[PKPhysicsJointDistance damping]', 
                       '-[PKPhysicsJointDistance encodeWithCoder:]', '-[PKPhysicsJointDistance frequency]', 
                       '-[PKPhysicsJointDistance initWithBodyA:bodyB:anchorA:anchorB:]', 
                       '-[PKPhysicsJointDistance initWithBodyA:bodyB:localAnchorA:localAnchorB:]', 
                       '-[PKPhysicsJointDistance initWithCoder:]', '-[PKPhysicsJointDistance length]', 
                       '-[PKPhysicsJointDistance setCollideConnected:]', 
                       '-[PKPhysicsJointDistance setDamping:]', '-[PKPhysicsJointDistance setFrequency:]', 
                       '-[PKPhysicsJointDistance setLength:]', '-[PKPhysicsJointDistance set_joint:]', 
                       '-[PKPhysicsJointPrismatic .cxx_construct]', '-[PKPhysicsJointPrismatic _jointDef]', 
                       '-[PKPhysicsJointPrismatic _joint]', '-[PKPhysicsJointPrismatic create]', 
                       '-[PKPhysicsJointPrismatic encodeWithCoder:]', '-[PKPhysicsJointPrismatic initWithBodyA:bodyB:anchor:axis:]', 
                       '-[PKPhysicsJointPrismatic initWithCoder:]', '-[PKPhysicsJointPrismatic lowerDistanceLimit]', 
                       '-[PKPhysicsJointPrismatic setLowerDistanceLimit:]', 
                       '-[PKPhysicsJointPrismatic setShouldEnableLimits:]', 
                       '-[PKPhysicsJointPrismatic setUpperDistanceLimit:]', 
                       '-[PKPhysicsJointPrismatic set_joint:]', '-[PKPhysicsJointPrismatic shouldEnableLimits]', 
                       '-[PKPhysicsJointPrismatic upperDistanceLimit]', 
                       '-[PKPhysicsJointRevolute .cxx_construct]', '-[PKPhysicsJointRevolute _jointDef]', 
                       '-[PKPhysicsJointRevolute _joint]', '-[PKPhysicsJointRevolute anchor]', 
                       '-[PKPhysicsJointRevolute create]', '-[PKPhysicsJointRevolute encodeWithCoder:]', 
                       '-[PKPhysicsJointRevolute frictionTorque]', '-[PKPhysicsJointRevolute initWithBodyA:bodyB:anchor:]', 
                       '-[PKPhysicsJointRevolute initWithCoder:]', '-[PKPhysicsJointRevolute lowerAngleLimit]', 
                       '-[PKPhysicsJointRevolute rotationSpeed]', '-[PKPhysicsJointRevolute setFrictionTorque:]', 
                       '-[PKPhysicsJointRevolute setLowerAngleLimit:]', 
                       '-[PKPhysicsJointRevolute setRotationSpeed:]', '-[PKPhysicsJointRevolute setShouldEnableLimits:]', 
                       '-[PKPhysicsJointRevolute setUpperAngleLimit:]', 
                       '-[PKPhysicsJointRevolute set_joint:]', '-[PKPhysicsJointRevolute shouldEnableLimits]', 
                       '-[PKPhysicsJointRevolute upperAngleLimit]', '-[PKPhysicsJointRope .cxx_construct]', 
                       '-[PKPhysicsJointRope _jointDef]', '-[PKPhysicsJointRope _joint]', 
                       '-[PKPhysicsJointRope create]', '-[PKPhysicsJointRope encodeWithCoder:]', 
                       '-[PKPhysicsJointRope initWithBodyA:bodyB:anchorA:anchorB:]', 
                       '-[PKPhysicsJointRope initWithCoder:]', '-[PKPhysicsJointRope maxLength]', 
                       '-[PKPhysicsJointRope setMaxLength:]', '-[PKPhysicsJointRope set_joint:]', 
                       '-[PKPhysicsJointWeld .cxx_construct]', '-[PKPhysicsJointWeld _jointDef]', 
                       '-[PKPhysicsJointWeld _joint]', '-[PKPhysicsJointWeld create]', 
                       '-[PKPhysicsJointWeld encodeWithCoder:]', '-[PKPhysicsJointWeld initWithBodyA:bodyB:anchor:]', 
                       '-[PKPhysicsJointWeld initWithCoder:]', '-[PKPhysicsJointWeld set_joint:]', 
                       '-[PKPhysicsWorld .cxx_construct]', '-[PKPhysicsWorld .cxx_destruct]', 
                       '-[PKPhysicsWorld __init__]', '-[PKPhysicsWorld addBody:]', 
                       '-[PKPhysicsWorld addField:]', '-[PKPhysicsWorld addJoint:]', 
                       '-[PKPhysicsWorld aether]', '-[PKPhysicsWorld bodies]', 
                       '-[PKPhysicsWorld bodyAlongRayStart:end:]', '-[PKPhysicsWorld bodyAtPoint:]', 
                       '-[PKPhysicsWorld bodyInRect:]', '-[PKPhysicsWorld collisionDelegate]', 
                       '-[PKPhysicsWorld contactDelegate]', '-[PKPhysicsWorld copyWithZone:]', 
                       '-[PKPhysicsWorld copy]', '-[PKPhysicsWorld dealloc]', 
                       '-[PKPhysicsWorld encodeWithCoder:]', '-[PKPhysicsWorld enumerateBodiesAlongRayStart:end:usingBlock:]', 
                       '-[PKPhysicsWorld enumerateBodiesAtPoint:usingBlock:]', 
                       '-[PKPhysicsWorld enumerateBodiesInRect:usingBlock:]', 
                       '-[PKPhysicsWorld evalForce:point:]', '-[PKPhysicsWorld gravity]', 
                       '-[PKPhysicsWorld hasBodies]', '-[PKPhysicsWorld hasFields]', 
                       '-[PKPhysicsWorld initWithCoder:]', '-[PKPhysicsWorld init]', 
                       '-[PKPhysicsWorld joints]', '-[PKPhysicsWorld removeAllBodies]', 
                       '-[PKPhysicsWorld removeAllFields]', '-[PKPhysicsWorld removeAllJoints]', 
                       '-[PKPhysicsWorld removeBody:]', '-[PKPhysicsWorld removeField:]', 
                       '-[PKPhysicsWorld removeJoint:]', '-[PKPhysicsWorld sampleFields:]', 
                       '-[PKPhysicsWorld sampleFields:categories:dataSize:]', 
                       '-[PKPhysicsWorld sampleFieldsAt:]', '-[PKPhysicsWorld setCollisionDelegate:]', 
                       '-[PKPhysicsWorld setContactDelegate:]', '-[PKPhysicsWorld setGravity:]', 
                       '-[PKPhysicsWorld setSpeed:]', '-[PKPhysicsWorld setVelocityThreshold:]', 
                       '-[PKPhysicsWorld speed]', '-[PKPhysicsWorld stepWithTime:velocityIterations:positionIterations:]', 
                       '-[PKPhysicsWorld velocityThreshold]', '-[PKPhysicsWorld(Debug) debugDraw:matrix:showsPhysics:showsOutlineInterior:showsFields:]', 
                       '-[PKPhysicsWorld(Debug) debugDrawPacket]', '-[PKPhysicsWorld(Internal) _gravity]', 
                       '-[PKPhysicsWorld(Internal) _world]', '-[PKPhysicsWorld(Internal) set_gravity:]', 
                       '-[PKPhysicsWorld(Private) _bodies]', '-[PKPhysicsWorld(Private) _doSleep]', 
                       '-[PKPhysicsWorld(Private) _runBlockOutsideOfTimeStep:]', 
                       '-[PKPhysicsWorld(Private) set_bodies:]', '-[PKPhysicsWorld(Private) set_doSleep:]', 
                       '-[PKQuadTree .cxx_construct]', '-[PKQuadTree .cxx_destruct]', 
                       '-[PKRegion .cxx_construct]', '-[PKRegion .cxx_destruct]', 
                       '-[PKRegion containsPoint:]', '-[PKRegion containsPoints:locationStride:results:resultsStride:count:]', 
                       '-[PKRegion copyWithZone:]', '-[PKRegion encodeWithCoder:]', 
                       '-[PKRegion initWithCoder:]', '-[PKRegion initWithPath:]', 
                       '-[PKRegion initWithRadius:]', '-[PKRegion initWithSize:]', 
                       '-[PKRegion inverseRegion]', '-[PKRegion isEmpty]', 
                       '-[PKRegion isInfinite]', '-[PKRegion path]', '-[PKRegion regionByDifferenceFromRegion:]', 
                       '-[PKRegion regionByIntersectionWithRegion:]', '-[PKRegion regionByUnionWithRegion:]', 
                       GCC_except_table0, GCC_except_table0, GCC_except_table0, 
                       GCC_except_table0, GCC_except_table0, GCC_except_table0, 
                       GCC_except_table0, GCC_except_table0, GCC_except_table0, 
                       GCC_except_table0, GCC_except_table0, GCC_except_table0, 
                       GCC_except_table0, GCC_except_table0, GCC_except_table0, 
                       GCC_except_table0, GCC_except_table1, GCC_except_table1, 
                       GCC_except_table10, GCC_except_table10, GCC_except_table10, 
                       GCC_except_table100, GCC_except_table104, GCC_except_table106, 
                       GCC_except_table108, GCC_except_table109, GCC_except_table109, 
                       GCC_except_table11, GCC_except_table11, GCC_except_table11, 
                       GCC_except_table11, GCC_except_table11, GCC_except_table111, 
                       GCC_except_table112, GCC_except_table113, GCC_except_table114, 
                       GCC_except_table116, GCC_except_table119, GCC_except_table12, 
                       GCC_except_table12, GCC_except_table12, GCC_except_table12, 
                       GCC_except_table12, GCC_except_table120, GCC_except_table120, 
                       GCC_except_table121, GCC_except_table122, GCC_except_table13, 
                       GCC_except_table13, GCC_except_table13, GCC_except_table13, 
                       GCC_except_table13, GCC_except_table137, GCC_except_table14, 
                       GCC_except_table14, GCC_except_table14, GCC_except_table14, 
                       GCC_except_table14, GCC_except_table14, GCC_except_table15, 
                       GCC_except_table15, GCC_except_table15, GCC_except_table15, 
                       GCC_except_table15, GCC_except_table15, GCC_except_table156, 
                       GCC_except_table16, GCC_except_table16, GCC_except_table16, 
                       GCC_except_table16, GCC_except_table161, GCC_except_table162, 
                       GCC_except_table163, GCC_except_table17, GCC_except_table17, 
                       GCC_except_table17, GCC_except_table18, GCC_except_table18, 
                       GCC_except_table18, GCC_except_table18, GCC_except_table18, 
                       GCC_except_table18, GCC_except_table18, GCC_except_table19, 
                       GCC_except_table19, GCC_except_table2, GCC_except_table2, 
                       GCC_except_table2, GCC_except_table2, GCC_except_table2, 
                       GCC_except_table2, GCC_except_table2, GCC_except_table2, 
                       GCC_except_table20, GCC_except_table20, GCC_except_table20, 
                       GCC_except_table20, GCC_except_table20, GCC_except_table21, 
                       GCC_except_table21, GCC_except_table21, GCC_except_table22, 
                       GCC_except_table22, GCC_except_table22, GCC_except_table23, 
                       GCC_except_table23, GCC_except_table23, GCC_except_table24, 
                       GCC_except_table24, GCC_except_table24, GCC_except_table25, 
                       GCC_except_table25, GCC_except_table26, GCC_except_table26, 
                       GCC_except_table27, GCC_except_table27, GCC_except_table27, 
                       GCC_except_table28, GCC_except_table28, GCC_except_table29, 
                       GCC_except_table29, GCC_except_table3, GCC_except_table30, 
                       GCC_except_table31, GCC_except_table32, GCC_except_table33, 
                       GCC_except_table33, GCC_except_table33, GCC_except_table34, 
                       GCC_except_table34, GCC_except_table35, GCC_except_table35, 
                       GCC_except_table36, GCC_except_table36, GCC_except_table37, 
                       GCC_except_table37, GCC_except_table38, GCC_except_table38, 
                       GCC_except_table39, GCC_except_table39, GCC_except_table4, 
                       GCC_except_table4, GCC_except_table4, GCC_except_table4, 
                       GCC_except_table40, GCC_except_table41, GCC_except_table42, 
                       GCC_except_table42, GCC_except_table42, GCC_except_table43, 
                       GCC_except_table44, GCC_except_table45, GCC_except_table45, 
                       GCC_except_table45, GCC_except_table46, GCC_except_table46, 
                       GCC_except_table47, GCC_except_table47, GCC_except_table47, 
                       GCC_except_table5, GCC_except_table5, GCC_except_table5, 
                       GCC_except_table5, GCC_except_table5, GCC_except_table50, 
                       GCC_except_table51, GCC_except_table51, GCC_except_table52, 
                       GCC_except_table53, GCC_except_table54, GCC_except_table55, 
                       GCC_except_table57, GCC_except_table58, GCC_except_table59, 
                       GCC_except_table59, GCC_except_table6, GCC_except_table6, 
                       GCC_except_table6, GCC_except_table6, GCC_except_table6, 
                       GCC_except_table6, GCC_except_table6, GCC_except_table60, 
                       GCC_except_table60, GCC_except_table60, GCC_except_table61, 
                       GCC_except_table63, GCC_except_table63, GCC_except_table64, 
                       GCC_except_table65, GCC_except_table66, GCC_except_table66, 
                       GCC_except_table67, GCC_except_table67, GCC_except_table67, 
                       GCC_except_table67, GCC_except_table68, GCC_except_table69, 
                       GCC_except_table69, GCC_except_table7, GCC_except_table7, 
                       GCC_except_table71, GCC_except_table72, GCC_except_table74, 
                       GCC_except_table75, GCC_except_table77, GCC_except_table79, 
                       GCC_except_table79, GCC_except_table79, GCC_except_table8, 
                       GCC_except_table8, GCC_except_table8, GCC_except_table8, 
                       GCC_except_table80, GCC_except_table81, GCC_except_table81, 
                       GCC_except_table82, GCC_except_table83, GCC_except_table84, 
                       GCC_except_table84, GCC_except_table85, GCC_except_table89, 
                       GCC_except_table9, GCC_except_table9, GCC_except_table9, 
                       GCC_except_table92, GCC_except_table94, GCC_except_table94, 
                       GCC_except_table99, _AddSamples, _PKArrayFromB2PolygonShape, 
                       _PKArrayFromCGPath, _PKArrayFromPKPath, _PKCGPathCreateFromArray, 
                       _PKGet_INV_PTM_RATIO, _PKGet_PTM_RATIO, _PKPathCreateFromCGPath, 
                       _PKPathCreateFromCGPathWithOptions, _PKPathCreateFromSimplifiedCGPath, 
                       _PKPhysicsFieldUserInvokeBatchBlockWith, _PKPhysicsFieldUserInvokeBlockWith, 
                       _PKSet_PTM_Ratio, _Poisson_count, _Worley, __Z10b2DistanceP16b2DistanceOutputP14b2SimplexCachePK15b2DistanceInput, 
                       __Z13b2TestOverlapPK7b2ShapeiS1_iRK11b2TransformS4_, 
                       __Z14b2TimeOfImpactP11b2TOIOutputPK10b2TOIInput, 
                       __Z14normalizeAnglef, __Z16b2CollideCirclesP10b2ManifoldPK13b2CircleShapeRK11b2TransformS3_S6_, 
                       __Z16b2GetPointStatesP12b2PointStateS0_PK10b2ManifoldS3_, 
                       __Z16trisFromCCWFacesRNSt3__16vectorIDv2_fNS_9allocatorIS1_EEEES5_RNS0_IiNS2_IiEEEE, 
                       __Z16valueWithCGPoint7CGPoint, __Z17PKPathApplyCGPathPvPK13CGPathElement, 
                       __Z17b2CollidePolygonsP10b2ManifoldPK14b2PolygonShapeRK11b2TransformS3_S6_, 
                       __Z18addPolygonFromPathP13PKPhysicsBodyNSt3__110shared_ptrI6PKPathEE, 
                       __Z18validConvexPolygoniiRKNSt3__16vectorIDv2_fNS_9allocatorIS1_EEEES6_, 
                       __Z19PKCGPointFromStringP8NSString, __Z19b2ClipSegmentToLineP12b2ClipVertexPKS_RK6b2Vec2fi, 
                       __Z20mooreNeighborTracingPhiiRNSt3__16vectorI7CGPointNS0_9allocatorIS2_EEEE, 
                       __Z21PKSplitBracesAndCommaPK10__CFStringPS1_S2_, 
                       __Z21get_line_intersectionffffffffPfS_, __Z22PKArrayFromCGPathApplyPvPK13CGPathElement, 
                       __Z22b2CollideEdgeAndCircleP10b2ManifoldPK11b2EdgeShapeRK11b2TransformPK13b2CircleShapeS6_, 
                       __Z23b2CollideEdgeAndPolygonP10b2ManifoldPK11b2EdgeShapeRK11b2TransformPK14b2PolygonShapeS6_, 
                       __Z25b2CollidePolygonAndCircleP10b2ManifoldPK14b2PolygonShapeRK11b2TransformPK13b2CircleShapeS6_, 
                       __Z30PKPhysicsReapplyScaleOnFixtureR12b2FixtureDefR9b2Fixtureff, 
                       __Z33triangleDoesNotContainOtherPointsDv2_fS_S_RKNSt3__16vectorIS_NS0_9allocatorIS_EEEE, 
                       __Z6b2FreePv, __Z7b2Alloci, __Z9rdpReduceRKNSt3__16vectorI7CGPointNS_9allocatorIS1_EEEEf, 
                       __Z9rdpReduceRKNSt3__16vectorI7PKPointNS_9allocatorIS1_EEEEf, 
                       __ZGVZN15b2DistanceProxy3SetEPK7b2ShapeiE5dummy, 
                       __ZL10fieldCount, __ZL10fieldCount, __ZL11addEdgeLoopP13PKPhysicsBodyNSt3__110shared_ptrI6PKPathEE, 
                       __ZL11pointOnPath7PKPointPK13CGPathElementf, __ZL12addEdgeChainP13PKPhysicsBodyNSt3__110shared_ptrI6PKPathEE, 
                       __ZL12addRectangleP13PKPhysicsBodyRK6CGSizeRK7CGPointf, 
                       __ZL12drawQuadtreeRK11b2TransformP6b2DrawP8QuadTreeP12QuadTreeNode, 
                       __ZL13_PK_PTM_RATIO, __ZL13addCircleBodyP13PKPhysicsBodyfRK7CGPoint, 
                       __ZL13shapeToString11RegionShape, __ZL13stringToShapeP8NSString, 
                       __ZL16b2EdgeSeparationPK14b2PolygonShapeRK11b2TransformiS1_S4_, 
                       __ZL19b2FindMaxSeparationPiPK14b2PolygonShapeRK11b2TransformS2_S5_, 
                       __ZL20erasePointsInclusiveiiRNSt3__16vectorIDv2_fNS_9allocatorIS1_EEEE, 
                       __ZL20sharedInfiniteRegion, __ZL23PKRayCastItemSortInline13PKRayCastItemS_, 
                       __ZL23_PK_PKGet_INV_PTM_RATIO, __ZL23emitConvexBodyInclusiveiiRKNSt3__16vectorIDv2_fNS_9allocatorIS1_EEEERS4_RNS0_IiNS2_IiEEEE, 
                       __ZL7addEdgeP13PKPhysicsBodyRK7CGPointS3_, __ZN11b2EdgeShape3SetERK6b2Vec2S2_, 
                       __ZN11b2GearJoint23InitVelocityConstraintsERK12b2SolverData, 
                       __ZN11b2GearJoint24SolvePositionConstraintsERK12b2SolverData, 
                       __ZN11b2GearJoint24SolveVelocityConstraintsERK12b2SolverData, 
                       __ZN11b2GearJoint8SetRatioEf, __ZN11b2GearJointC1EPK14b2GearJointDef, 
                       __ZN11b2GearJointC2EPK14b2GearJointDef, __ZN11b2RopeJoint23InitVelocityConstraintsERK12b2SolverData, 
                       __ZN11b2RopeJoint24SolvePositionConstraintsERK12b2SolverData, 
                       __ZN11b2RopeJoint24SolveVelocityConstraintsERK12b2SolverData, 
                       __ZN11b2RopeJointC1EPK14b2RopeJointDef, __ZN11b2RopeJointC2EPK14b2RopeJointDef, 
                       __ZN11b2WeldJoint23InitVelocityConstraintsERK12b2SolverData, 
                       __ZN11b2WeldJoint24SolvePositionConstraintsERK12b2SolverData, 
                       __ZN11b2WeldJoint24SolveVelocityConstraintsERK12b2SolverData, 
                       __ZN11b2WeldJointC1EPK14b2WeldJointDef, __ZN11b2WeldJointC2EPK14b2WeldJointDef, 
                       __ZN12PKCFieldDragC1Ev, __ZN12PKCFieldDragC2Ev, 
                       __ZN12PKCFieldUserC1EPv, __ZN12PKCFieldUserC2EPv, 
                       __ZN12PKCMechanics11addQuadTreeEP8QuadTree, __ZN12PKCMechanics5SolveER10b2TimeStep, 
                       __ZN12QuadTreeNode11visitLeavesENSt3__18functionIFvffiEEE, 
                       __ZN12QuadTreeNode12intersectBoxEffffRNSt3__16vectorIPS_NS0_9allocatorIS2_EEEE, 
                       __ZN12QuadTreeNode15intersectVectorEffffRNSt3__16vectorIPS_NS0_9allocatorIS2_EEEE, 
                       __ZN12QuadTreeNode3addEffa, __ZN12QuadTreeNode4findEffRPS_, 
                       __ZN12QuadTreeNode7addLineEffffa, __ZN12QuadTreeNodeC1Efffff, 
                       __ZN12QuadTreeNodeC2Efffff, __ZN12QuadTreeNodeD1Ev, 
                       __ZN12QuadTreeNodeD2Ev, __ZN12b2ChainShape10CreateLoopEPK6b2Vec2i, 
                       __ZN12b2ChainShape11CreateChainEPK6b2Vec2i, __ZN12b2ChainShape13SetNextVertexERK6b2Vec2, 
                       __ZN12b2ChainShape13SetPrevVertexERK6b2Vec2, __ZN12b2ChainShapeD0Ev, 
                       __ZN12b2ChainShapeD1Ev, __ZN12b2ChainShapeD2Ev, 
                       __ZN12b2EPCollider21ComputeEdgeSeparationEv, __ZN12b2EPCollider24ComputePolygonSeparationEv, 
                       __ZN12b2EPCollider7CollideEP10b2ManifoldPK11b2EdgeShapeRK11b2TransformPK14b2PolygonShapeS7_, 
                       __ZN12b2MouseJoint11SetMaxForceEf, __ZN12b2MouseJoint12SetFrequencyEf, 
                       __ZN12b2MouseJoint15SetDampingRatioEf, __ZN12b2MouseJoint23InitVelocityConstraintsERK12b2SolverData, 
                       __ZN12b2MouseJoint24SolvePositionConstraintsERK12b2SolverData, 
                       __ZN12b2MouseJoint24SolveVelocityConstraintsERK12b2SolverData, 
                       __ZN12b2MouseJoint9SetTargetERK6b2Vec2, __ZN12b2MouseJointC1EPK15b2MouseJointDef, 
                       __ZN12b2MouseJointC2EPK15b2MouseJointDef, __ZN12b2WheelJoint11EnableMotorEb, 
                       __ZN12b2WheelJoint13SetMotorSpeedEf, __ZN12b2WheelJoint17SetMaxMotorTorqueEf, 
                       __ZN12b2WheelJoint23InitVelocityConstraintsERK12b2SolverData, 
                       __ZN12b2WheelJoint24SolvePositionConstraintsERK12b2SolverData, 
                       __ZN12b2WheelJoint24SolveVelocityConstraintsERK12b2SolverData, 
                       __ZN12b2WheelJointC1EPK15b2WheelJointDef, __ZN12b2WheelJointC2EPK15b2WheelJointDef, 
                       __ZN13PKCFieldNoiseC1Ev, __ZN13PKCFieldNoiseC2Ev, 
                       __ZN13b2CircleShape12isValidShapeEv, __ZN13b2DynamicTree10InsertLeafEi, 
                       __ZN13b2DynamicTree10RemoveLeafEi, __ZN13b2DynamicTree12AllocateNodeEv, 
                       __ZN13b2DynamicTree12DestroyProxyEi, __ZN13b2DynamicTree13CreateProxyIdEP14b2FixtureProxy, 
                       __ZN13b2DynamicTree15RebuildBottomUpEv, __ZN13b2DynamicTree7BalanceEi, 
                       __ZN13b2DynamicTree8FreeNodeEi, __ZN13b2DynamicTree9MoveProxyEiRK6b2AABBRK6b2Vec2, 
                       __ZN13b2DynamicTreeC1Ev, __ZN13b2DynamicTreeC2Ev, 
                       __ZN13b2DynamicTreeD1Ev, __ZN13b2DynamicTreeD2Ev, 
                       __ZN13b2PulleyJoint23InitVelocityConstraintsERK12b2SolverData, 
                       __ZN13b2PulleyJoint24SolvePositionConstraintsERK12b2SolverData, 
                       __ZN13b2PulleyJoint24SolveVelocityConstraintsERK12b2SolverData, 
                       __ZN13b2PulleyJointC1EPK16b2PulleyJointDef, __ZN13b2PulleyJointC2EPK16b2PulleyJointDef, 
                       __ZN14PKCFieldSpringC1Ev, __ZN14PKCFieldSpringC2Ev, 
                       __ZN14PKCFieldVortexC1Ev, __ZN14PKCFieldVortexC2Ev, 
                       __ZN14PKPhysicsShape14createAsCircleEfRK7CGPoint, 
                       __ZN14b2PolygonShape12isValidShapeEv, __ZN14b2PolygonShape3SetEPK6b2Vec2i, 
                       __ZN14b2PolygonShape8SetAsBoxEff, __ZN14b2PolygonShape8SetAsBoxEffRK6b2Vec2f, 
                       __ZN14b2WeldJointDef10InitializeEP6b2BodyS1_RK6b2Vec2, 
                       __ZN15b2CircleContact6CreateEP9b2FixtureiS1_i, __ZN15b2CircleContact7DestroyEP9b2Contact, 
                       __ZN15b2CircleContact8EvaluateEP10b2ManifoldRK11b2TransformS4_, 
                       __ZN15b2CircleContactC1EP9b2FixtureS1_, __ZN15b2CircleContactC2EP9b2FixtureS1_, 
                       __ZN15b2ContactSolver13StoreImpulsesEv, __ZN15b2ContactSolver24SolvePositionConstraintsEv, 
                       __ZN15b2ContactSolver24SolveVelocityConstraintsEv, 
                       __ZN15b2ContactSolver27SolveTOIPositionConstraintsEii, 
                       __ZN15b2ContactSolver29InitializeVelocityConstraintsEv, 
                       __ZN15b2ContactSolver9WarmStartEv, __ZN15b2ContactSolverC1EP18b2ContactSolverDefRKNSt3__16vectorIP6b2BodyNS2_9allocatorIS5_EEEERKNS3_IP9b2ContactNS6_ISC_EEEE, 
                       __ZN15b2ContactSolverC2EP18b2ContactSolverDefRKNSt3__16vectorIP6b2BodyNS2_9allocatorIS5_EEEERKNS3_IP9b2ContactNS6_ISC_EEEE, 
                       __ZN15b2ContactSolverD1Ev, __ZN15b2ContactSolverD2Ev, 
                       __ZN15b2DistanceJoint23InitVelocityConstraintsERK12b2SolverData, 
                       __ZN15b2DistanceJoint24SolvePositionConstraintsERK12b2SolverData, 
                       __ZN15b2DistanceJoint24SolveVelocityConstraintsERK12b2SolverData, 
                       __ZN15b2DistanceJointC1EPK18b2DistanceJointDef, 
                       __ZN15b2DistanceJointC2EPK18b2DistanceJointDef, 
                       __ZN15b2DistanceProxy3SetEPK7b2Shapei, __ZN15b2FrictionJoint11SetMaxForceEf, 
                       __ZN15b2FrictionJoint12SetMaxTorqueEf, __ZN15b2FrictionJoint23InitVelocityConstraintsERK12b2SolverData, 
                       __ZN15b2FrictionJoint24SolvePositionConstraintsERK12b2SolverData, 
                       __ZN15b2FrictionJoint24SolveVelocityConstraintsERK12b2SolverData, 
                       __ZN15b2FrictionJointC1EPK18b2FrictionJointDef, 
                       __ZN15b2FrictionJointC2EPK18b2FrictionJointDef, 
                       __ZN15b2RevoluteJoint11EnableLimitEb, __ZN15b2RevoluteJoint11EnableMotorEb, 
                       __ZN15b2RevoluteJoint13SetMotorSpeedEf, __ZN15b2RevoluteJoint17SetMaxMotorTorqueEf, 
                       __ZN15b2RevoluteJoint23InitVelocityConstraintsERK12b2SolverData, 
                       __ZN15b2RevoluteJoint24SolvePositionConstraintsERK12b2SolverData, 
                       __ZN15b2RevoluteJoint24SolveVelocityConstraintsERK12b2SolverData, 
                       __ZN15b2RevoluteJoint9SetLimitsEff, __ZN15b2RevoluteJointC1EPK18b2RevoluteJointDef, 
                       __ZN15b2RevoluteJointC2EPK18b2RevoluteJointDef, 
                       __ZN15b2WheelJointDef10InitializeEP6b2BodyS1_RK6b2Vec2S4_, 
                       __ZN15b2WorldManifold10InitializeEPK10b2ManifoldRK11b2TransformfS5_f, 
                       __ZN16PKCFieldElectricC1Ev, __ZN16PKCFieldElectricC2Ev, 
                       __ZN16PKCFieldMagneticC1Ev, __ZN16PKCFieldMagneticC2Ev, 
                       __ZN16PKCFieldVelocity7setGridENSt3__110shared_ptrI7PKCGridEE, 
                       __ZN16PKCFieldVelocityC1Ev, __ZN16PKCFieldVelocityC2Ev, 
                       __ZN16b2ContactManager10TouchProxyEi, __ZN16b2ContactManager12DestroyProxyEi, 
                       __ZN16b2ContactManager12UnBufferMoveEi, __ZN16b2ContactManager13CreateProxyIdEP14b2FixtureProxy, 
                       __ZN16b2ContactManager13QueryCallbackEi, __ZN16b2ContactManager14DestroyContactEP9b2Contact, 
                       __ZN16b2ContactManager14FindMinimumTOIERP9b2ContactRf, 
                       __ZN16b2ContactManager15FindNewContactsEv, __ZN16b2ContactManager18InvalidateContactsEv, 
                       __ZN16b2ContactManager23ClearContactIslandFlagsEv, 
                       __ZN16b2ContactManager7AddPairEP14b2FixtureProxyS1_, 
                       __ZN16b2ContactManager7CollideEv, __ZN16b2ContactManager9MoveProxyEiRK6b2AABBRK6b2Vec2, 
                       __ZN16b2ContactManagerC1Ev, __ZN16b2ContactManagerC2Ev, 
                       __ZN16b2ContactManagerD1Ev, __ZN16b2ContactManagerD2Ev, 
                       __ZN16b2PolygonContact6CreateEP9b2FixtureiS1_i, 
                       __ZN16b2PolygonContact7DestroyEP9b2Contact, __ZN16b2PolygonContact8EvaluateEP10b2ManifoldRK11b2TransformS4_, 
                       __ZN16b2PolygonContactC1EP9b2FixtureS1_, __ZN16b2PolygonContactC2EP9b2FixtureS1_, 
                       __ZN16b2PrismaticJoint11EnableLimitEb, __ZN16b2PrismaticJoint11EnableMotorEb, 
                       __ZN16b2PrismaticJoint13SetMotorSpeedEf, __ZN16b2PrismaticJoint16SetMaxMotorForceEf, 
                       __ZN16b2PrismaticJoint23InitVelocityConstraintsERK12b2SolverData, 
                       __ZN16b2PrismaticJoint24SolvePositionConstraintsERK12b2SolverData, 
                       __ZN16b2PrismaticJoint24SolveVelocityConstraintsERK12b2SolverData, 
                       __ZN16b2PrismaticJoint9SetLimitsEff, __ZN16b2PrismaticJointC1EPK19b2PrismaticJointDef, 
                       __ZN16b2PrismaticJointC2EPK19b2PrismaticJointDef, 
                       __ZN16b2PulleyJointDef10InitializeEP6b2BodyS1_RK6b2Vec2S4_S4_S4_f, 
                       __ZN16b2StackAllocator4FreeEPv, __ZN16b2StackAllocator8AllocateEi, 
                       __ZN16b2StackAllocatorC1Ev, __ZN16b2StackAllocatorC2Ev, 
                       __ZN16b2StackAllocatorD1Ev, __ZN16b2StackAllocatorD2Ev, 
                       __ZN17PKDebugDrawPacket5clearEv, __ZN18PKCFieldTurbulenceC1Ev, 
                       __ZN18PKCFieldTurbulenceC2Ev, __ZN18b2DistanceJointDef10InitializeEP6b2BodyS1_RK6b2Vec2S4_, 
                       __ZN18b2FrictionJointDef10InitializeEP6b2BodyS1_RK6b2Vec2, 
                       __ZN18b2RevoluteJointDef10InitializeEP6b2BodyS1_RK6b2Vec2, 
                       __ZN19b2PrismaticJointDef10InitializeEP6b2BodyS1_RK6b2Vec2S4_, 
                       __ZN21PKCFieldLinearGravity10setGravityERKDv3_f, 
                       __ZN21PKCFieldLinearGravityC1Ev, __ZN21PKCFieldLinearGravityC2Ev, 
                       __ZN21PKCFieldRadialGravityC1Ev, __ZN21PKCFieldRadialGravityC2Ev, 
                       __ZN22b2EdgeAndCircleContact6CreateEP9b2FixtureiS1_i, 
                       __ZN22b2EdgeAndCircleContact7DestroyEP9b2Contact, 
                       __ZN22b2EdgeAndCircleContact8EvaluateEP10b2ManifoldRK11b2TransformS4_, 
                       __ZN22b2EdgeAndCircleContactC1EP9b2FixtureS1_, __ZN22b2EdgeAndCircleContactC2EP9b2FixtureS1_, 
                       __ZN23b2ChainAndCircleContact6CreateEP9b2FixtureiS1_i, 
                       __ZN23b2ChainAndCircleContact7DestroyEP9b2Contact, 
                       __ZN23b2ChainAndCircleContact8EvaluateEP10b2ManifoldRK11b2TransformS4_, 
                       __ZN23b2ChainAndCircleContactC1EP9b2FixtureiS1_i, 
                       __ZN23b2ChainAndCircleContactC2EP9b2FixtureiS1_i, 
                       __ZN23b2EdgeAndPolygonContact6CreateEP9b2FixtureiS1_i, 
                       __ZN23b2EdgeAndPolygonContact7DestroyEP9b2Contact, 
                       __ZN23b2EdgeAndPolygonContact8EvaluateEP10b2ManifoldRK11b2TransformS4_, 
                       __ZN23b2EdgeAndPolygonContactC1EP9b2FixtureS1_, 
                       __ZN23b2EdgeAndPolygonContactC2EP9b2FixtureS1_, 
                       __ZN24b2ChainAndPolygonContact6CreateEP9b2FixtureiS1_i, 
                       __ZN24b2ChainAndPolygonContact7DestroyEP9b2Contact, 
                       __ZN24b2ChainAndPolygonContact8EvaluateEP10b2ManifoldRK11b2TransformS4_, 
                       __ZN24b2ChainAndPolygonContactC1EP9b2FixtureiS1_i, 
                       __ZN24b2ChainAndPolygonContactC2EP9b2FixtureiS1_i, 
                       __ZN24b2QuadtreeAndEdgeContact6CreateEP9b2FixtureiS1_i, 
                       __ZN24b2QuadtreeAndEdgeContact7DestroyEP9b2Contact, 
                       __ZN24b2QuadtreeAndEdgeContact8EvaluateEP10b2ManifoldRK11b2TransformS4_, 
                       __ZN24b2QuadtreeAndEdgeContactC1EP9b2FixtureiS1_i, 
                       __ZN24b2QuadtreeAndEdgeContactC2EP9b2FixtureiS1_i, 
                       __ZN25b2PolygonAndCircleContact6CreateEP9b2FixtureiS1_i, 
                       __ZN25b2PolygonAndCircleContact7DestroyEP9b2Contact, 
                       __ZN25b2PolygonAndCircleContact8EvaluateEP10b2ManifoldRK11b2TransformS4_, 
                       __ZN25b2PolygonAndCircleContactC1EP9b2FixtureS1_, 
                       __ZN25b2PolygonAndCircleContactC2EP9b2FixtureS1_, 
                       __ZN25b2QuadtreeAndChainContact6CreateEP9b2FixtureiS1_i, 
                       __ZN25b2QuadtreeAndChainContact7DestroyEP9b2Contact, 
                       __ZN25b2QuadtreeAndChainContact8EvaluateEP10b2ManifoldRK11b2TransformS4_, 
                       __ZN25b2QuadtreeAndChainContactC1EP9b2FixtureiS1_i, 
                       __ZN25b2QuadtreeAndChainContactC2EP9b2FixtureiS1_i, 
                       __ZN26b2QuadtreeAndCircleContact6CreateEP9b2FixtureiS1_i, 
                       __ZN26b2QuadtreeAndCircleContact7DestroyEP9b2Contact, 
                       __ZN26b2QuadtreeAndCircleContact8EvaluateEP10b2ManifoldRK11b2TransformS4_, 
                       __ZN26b2QuadtreeAndCircleContactC1EP9b2FixtureiS1_i, 
                       __ZN26b2QuadtreeAndCircleContactC2EP9b2FixtureiS1_i, 
                       __ZN27b2QuadtreeAndPolygonContact6CreateEP9b2FixtureiS1_i, 
                       __ZN27b2QuadtreeAndPolygonContact7DestroyEP9b2Contact, 
                       __ZN27b2QuadtreeAndPolygonContact8EvaluateEP10b2ManifoldRK11b2TransformS4_, 
                       __ZN27b2QuadtreeAndPolygonContactC1EP9b2FixtureiS1_i, 
                       __ZN27b2QuadtreeAndPolygonContactC2EP9b2FixtureiS1_i, 
                       __ZN28b2QuadtreeAndQuadtreeContact6CreateEP9b2FixtureiS1_i, 
                       __ZN28b2QuadtreeAndQuadtreeContact7DestroyEP9b2Contact, 
                       __ZN28b2QuadtreeAndQuadtreeContact8EvaluateEP10b2ManifoldRK11b2TransformS4_, 
                       __ZN28b2QuadtreeAndQuadtreeContactC1EP9b2FixtureiS1_i, 
                       __ZN28b2QuadtreeAndQuadtreeContactC2EP9b2FixtureiS1_i, 
                       __ZN4math6invertERKNS_4mat4E, __ZN4math9transposeERKNS_4mat4E, 
                       __ZN6PKPath10createPathEv, __ZN6PKPath13computeLengthEv, 
                       __ZN6PKPathC1EPK6CGPath, __ZN6PKPathC2EPK6CGPath, 
                       __ZN6b2Body11SetMassDataEPK10b2MassData, __ZN6b2Body12SetTransformERK6b2Vec2f, 
                       __ZN6b2Body13CreateFixtureEPK12b2FixtureDef, __ZN6b2Body13CreateFixtureEPK7b2Shapef, 
                       __ZN6b2Body13ResetMassDataEv, __ZN6b2Body14DestroyFixtureEP9b2Fixture, 
                       __ZN6b2Body16SetFixedRotationEb, __ZN6b2Body18SetCategoryBitMaskEj, 
                       __ZN6b2Body18SetSleepingAllowedEb, __ZN6b2Body19SetCollisionBitMaskEj, 
                       __ZN6b2Body19SynchronizeFixturesEv, __ZN6b2Body30SetIntersectionCallbackBitMaskEj, 
                       __ZN6b2Body7SetTypeE10b2BodyType, __ZN6b2Body8SetAwakeEb, 
                       __ZN6b2Body9SetActiveEb, __ZN6b2Body9SetBulletEb, 
                       __ZN6b2Body9SetChargeEf, __ZN6b2BodyC1EPK9b2BodyDefP7b2World, 
                       __ZN6b2BodyC2EPK9b2BodyDefP7b2World, __ZN6b2BodyD1Ev, 
                       __ZN6b2BodyD2Ev, __ZN6b2Draw10ClearFlagsEj, __ZN6b2Draw11AppendFlagsEj, 
                       __ZN6b2Draw8SetFlagsEj, __ZN6b2DrawC2Ev, __ZN6b2Rope10InitializeEPK9b2RopeDef, 
                       __ZN6b2Rope4StepEfi, __ZN6b2Rope7SolveC2Ev, __ZN6b2Rope7SolveC3Ev, 
                       __ZN6b2Rope8SetAngleEf, __ZN6b2RopeC1Ev, __ZN6b2RopeC2Ev, 
                       __ZN6b2RopeD1Ev, __ZN6b2RopeD2Ev, __ZN7PKCGrid11setGridSizeEiii, 
                       __ZN7PKCGrid12calcLevelSetEi, __ZN7PKCGrid12calcQuadTreeERK6CGRect, 
                       __ZN7PKCGrid12tagPixelDataEfPKhii, __ZN7PKCGrid12traceOutlineEfRNSt3__16vectorI7CGPointNS0_9allocatorIS2_EEEE, 
                       __ZN7PKCGrid13setVectorDataEPKhii, __ZN7PKCGrid20isGridRegionOccupiedEffff, 
                       __ZN7PKCGrid28physicsBodyFromMarchingCubesERK6CGRect, 
                       __ZN7PKCGrid30physicsBodyFromSmoothedOutlineEfRK6CGSize, 
                       __ZN7PKCGrid37pathFromOutlineWithSmoothingThresholdEfffff, 
                       __ZN7PKCGrid7setDataEPKhij, __ZN7PKCGrid8traverseERiS0_i, 
                       __ZN7PKCGrid9labelGridEv, __ZN7PKCGrid9printGridEv, 
                       __ZN7PKCGridC1Ev, __ZN7PKCGridC2Ev, __ZN7b2Joint19SetCollideConnectedEb, 
                       __ZN7b2Joint6CreateEPK10b2JointDef, __ZN7b2Joint7DestroyEPS_, 
                       __ZN7b2JointC2EPK10b2JointDef, __ZN7b2Timer5ResetEv, 
                       __ZN7b2TimerC1Ev, __ZN7b2TimerC2Ev, __ZN7b2World10CreateBodyEPK9b2BodyDef, 
                       __ZN7b2World10SetGravityERK6b2Vec2, __ZN7b2World11ClearForcesEv, 
                       __ZN7b2World11CreateJointEPK10b2JointDef, __ZN7b2World11DestroyBodyEP6b2Body, 
                       __ZN7b2World12DestroyJointEP7b2Joint, __ZN7b2World12SetDebugDrawEP6b2Draw, 
                       __ZN7b2World13DrawDebugDataEv, __ZN7b2World18SetContactListenerEP17b2ContactListener, 
                       __ZN7b2World20SetVelocityThresholdEf, __ZN7b2World22SetDestructionListenerEP21b2DestructionListener, 
                       __ZN7b2World4StepEfii, __ZN7b2World5SolveERK10b2TimeStep, 
                       __ZN7b2World8SolveTOIERK10b2TimeStep, __ZN7b2World9DrawJointEP7b2Joint, 
                       __ZN7b2World9DrawShapeEP9b2FixtureRK11b2TransformRK7b2Color, 
                       __ZN7b2WorldC1ERK6b2Vec2b, __ZN7b2WorldC2ERK6b2Vec2b, 
                       __ZN7b2WorldD1Ev, __ZN7b2WorldD2Ev, __ZN8PKCField12setTransformERKDv3_fS2_S2_, 
                       __ZN8PKCFieldC2ERKS_, __ZN8PKCFieldC2Ev, __ZN8PKCFieldD0Ev, 
                       __ZN8PKCFieldD1Ev, __ZN8PKCFieldD2Ev, __ZN8QuadTree12intersectBoxEffffRNSt3__16vectorIP12QuadTreeNodeNS0_9allocatorIS3_EEEE, 
                       __ZN8QuadTree12intersectRayEffffRP12QuadTreeNode, 
                       __ZN8QuadTree14intersectPointEffRP12QuadTreeNode, 
                       __ZN8QuadTree15intersectVectorEffffRP12QuadTreeNode, 
                       __ZN8QuadTree3addEffa, __ZN8QuadTree4findEffRP12QuadTreeNode, 
                       __ZN8QuadTree6boundsERfS0_S0_S0_, __ZN8QuadTree7addLineEffffa, 
                       __ZN8QuadTreeC1Efffff, __ZN8QuadTreeC2Efffff, __ZN8QuadTreeD1Ev, 
                       __ZN8QuadTreeD2Ev, __ZN8b2Island16ClearIslandFlagsEv, 
                       __ZN8b2Island28SynchronizeBodiesAndContactsEv, __ZN8b2Island5SolveEdP9b2ProfileRK10b2TimeStepRK9PKCAetherbf, 
                       __ZN8b2Island6ReportEPK27b2ContactVelocityConstraint, 
                       __ZN8b2Island8SolveTOIERK10b2TimeStepiif, __ZN8b2IslandC1EiiiP16b2StackAllocatorP17b2ContactListener, 
                       __ZN8b2IslandC2EiiiP16b2StackAllocatorP17b2ContactListener, 
                       __ZN8b2IslandD1Ev, __ZN8b2IslandD2Ev, __ZN9PKCAether11removeFieldENSt3__18weak_ptrI8PKCFieldEE, 
                       __ZN9PKCAether15removeAllFieldsEv, __ZN9PKCAether8addFieldENSt3__18weak_ptrI8PKCFieldEE, 
                       __ZN9PKCAether9EvaluatorC1EPKS_, __ZN9PKCAether9EvaluatorC2EPKS_, 
                       __ZN9PKCAetherC1Ev, __ZN9PKCAetherC2Ev, __ZN9PKCAetherD1Ev, 
                       __ZN9PKCAetherD2Ev, __ZN9b2BodyDefC1Ev, __ZN9b2BodyDefC2Ev, 
                       __ZN9b2Contact11s_registersE, __ZN9b2Contact13s_initializedE, 
                       __ZN9b2Contact19InitializeRegistersEv, __ZN9b2Contact6CreateEP9b2FixtureiS1_i, 
                       __ZN9b2Contact6UpdateEP17b2ContactListener, __ZN9b2Contact7AddTypeEPFPS_P9b2FixtureiS2_iEN7b2Shape4TypeES6_, 
                       __ZN9b2Contact7DestroyEPS_, __ZN9b2ContactC2EP9b2FixtureiS1_i, 
                       __ZN9b2Fixture11SynchronizeEP16b2ContactManagerRK11b2TransformS4_, 
                       __ZN9b2Fixture13CreateProxiesEP16b2ContactManagerRK11b2Transform, 
                       __ZN9b2Fixture14DestroyProxiesEP16b2ContactManager, 
                       __ZN9b2Fixture6CreateEP6b2BodyPK12b2FixtureDef, 
                       __ZN9b2Fixture8RefilterEv, __ZN9b2FixtureC1Ev, __ZN9b2FixtureC2Ev, 
                       __ZN9b2FixtureD0Ev, __ZN9b2FixtureD1Ev, __ZN9b2FixtureD2Ev, 
                       __ZN9b2Simplex6Solve2Ev, __ZN9b2Simplex6Solve3Ev, 
                       __ZNK11b2EdgeShape11ComputeAABBEP6b2AABBRK11b2Transformi, 
                       __ZNK11b2EdgeShape11ComputeMassEP10b2MassDataf, 
                       __ZNK11b2EdgeShape13GetChildCountEv, __ZNK11b2EdgeShape15ComputeDistanceERK11b2TransformRK6b2Vec2PfPS3_i, 
                       __ZNK11b2EdgeShape5CloneEv, __ZNK11b2EdgeShape7RayCastEP15b2RayCastOutputRK14b2RayCastInputRK11b2Transformi, 
                       __ZNK11b2EdgeShape9TestPointERK11b2TransformRK6b2Vec2, 
                       __ZNK11b2GearJoint10GetAnchorAEv, __ZNK11b2GearJoint10GetAnchorBEv, 
                       __ZNK11b2GearJoint16GetReactionForceEf, __ZNK11b2GearJoint17GetReactionTorqueEf, 
                       __ZNK11b2GearJoint8GetRatioEv, __ZNK11b2RopeJoint10GetAnchorAEv, 
                       __ZNK11b2RopeJoint10GetAnchorBEv, __ZNK11b2RopeJoint12GetMaxLengthEv, 
                       __ZNK11b2RopeJoint13GetLimitStateEv, __ZNK11b2RopeJoint16GetReactionForceEf, 
                       __ZNK11b2RopeJoint17GetReactionTorqueEf, __ZNK11b2WeldJoint10GetAnchorAEv, 
                       __ZNK11b2WeldJoint10GetAnchorBEv, __ZNK11b2WeldJoint16GetReactionForceEf, 
                       __ZNK11b2WeldJoint17GetReactionTorqueEf, __ZNK12PKCFieldDrag9evalForceEDv3_fS0_ffd, 
                       __ZNK12PKCFieldUser9evalForceEDv3_fS0_ffd, __ZNK12PKCMechanics7RayCastEP17b2RayCastCallbackRK6b2Vec2S4_, 
                       __ZNK12PKCMechanics9QueryAABBEP15b2QueryCallbackRK6b2AABB, 
                       __ZNK12QuadTreeNode19intersectVectorSelfEffff, __ZNK12QuadTreeNode9leafCountEv, 
                       __ZNK12b2ChainShape11ComputeAABBEP6b2AABBRK11b2Transformi, 
                       __ZNK12b2ChainShape11ComputeMassEP10b2MassDataf, 
                       __ZNK12b2ChainShape12GetChildEdgeEP11b2EdgeShapei, 
                       __ZNK12b2ChainShape13GetChildCountEv, __ZNK12b2ChainShape15ComputeDistanceERK11b2TransformRK6b2Vec2PfPS3_i, 
                       __ZNK12b2ChainShape5CloneEv, __ZNK12b2ChainShape7RayCastEP15b2RayCastOutputRK14b2RayCastInputRK11b2Transformi, 
                       __ZNK12b2ChainShape9TestPointERK11b2TransformRK6b2Vec2, 
                       __ZNK12b2MouseJoint10GetAnchorAEv, __ZNK12b2MouseJoint10GetAnchorBEv, 
                       __ZNK12b2MouseJoint11GetMaxForceEv, __ZNK12b2MouseJoint12GetFrequencyEv, 
                       __ZNK12b2MouseJoint15GetDampingRatioEv, __ZNK12b2MouseJoint16GetReactionForceEf, 
                       __ZNK12b2MouseJoint17GetReactionTorqueEf, __ZNK12b2MouseJoint9GetTargetEv, 
                       __ZNK12b2WheelJoint10GetAnchorAEv, __ZNK12b2WheelJoint10GetAnchorBEv, 
                       __ZNK12b2WheelJoint13GetJointSpeedEv, __ZNK12b2WheelJoint14GetMotorTorqueEf, 
                       __ZNK12b2WheelJoint14IsMotorEnabledEv, __ZNK12b2WheelJoint16GetReactionForceEf, 
                       __ZNK12b2WheelJoint17GetReactionTorqueEf, __ZNK12b2WheelJoint19GetJointTranslationEv, 
                       __ZNK13PKCFieldNoise13evalForceVec2EP17PKFieldSampleVec2i, 
                       __ZNK13PKCFieldNoise13evalForceVec2EP17PKFieldSampleVec2ibb, 
                       __ZNK13PKCFieldNoise9evalForceEDv3_fS0_ffd, __ZNK13b2CircleShape11ComputeAABBEP6b2AABBRK11b2Transformi, 
                       __ZNK13b2CircleShape11ComputeMassEP10b2MassDataf, 
                       __ZNK13b2CircleShape13GetChildCountEv, __ZNK13b2CircleShape15ComputeDistanceERK11b2TransformRK6b2Vec2PfPS3_i, 
                       __ZNK13b2CircleShape5CloneEv, __ZNK13b2CircleShape7RayCastEP15b2RayCastOutputRK14b2RayCastInputRK11b2Transformi, 
                       __ZNK13b2CircleShape9TestPointERK11b2TransformRK6b2Vec2, 
                       __ZNK13b2DynamicTree12GetAreaRatioEv, __ZNK13b2DynamicTree13ComputeHeightEi, 
                       __ZNK13b2DynamicTree13ComputeHeightEv, __ZNK13b2DynamicTree13GetMaxBalanceEv, 
                       __ZNK13b2DynamicTree15ValidateMetricsEi, __ZNK13b2DynamicTree17ValidateStructureEi, 
                       __ZNK13b2DynamicTree8ValidateEv, __ZNK13b2DynamicTree9GetHeightEv, 
                       __ZNK13b2PulleyJoint10GetAnchorAEv, __ZNK13b2PulleyJoint10GetAnchorBEv, 
                       __ZNK13b2PulleyJoint10GetLengthAEv, __ZNK13b2PulleyJoint10GetLengthBEv, 
                       __ZNK13b2PulleyJoint16GetGroundAnchorAEv, __ZNK13b2PulleyJoint16GetGroundAnchorBEv, 
                       __ZNK13b2PulleyJoint16GetReactionForceEf, __ZNK13b2PulleyJoint17GetReactionTorqueEf, 
                       __ZNK13b2PulleyJoint8GetRatioEv, __ZNK14PKCFieldSpring9evalForceEDv3_fS0_ffd, 
                       __ZNK14PKCFieldVortex9evalForceEDv3_fS0_ffd, __ZNK14b2PolygonShape11ComputeAABBEP6b2AABBRK11b2Transformi, 
                       __ZNK14b2PolygonShape11ComputeMassEP10b2MassDataf, 
                       __ZNK14b2PolygonShape13GetChildCountEv, __ZNK14b2PolygonShape15ComputeDistanceERK11b2TransformRK6b2Vec2PfPS3_i, 
                       __ZNK14b2PolygonShape5CloneEv, __ZNK14b2PolygonShape7RayCastEP15b2RayCastOutputRK14b2RayCastInputRK11b2Transformi, 
                       __ZNK14b2PolygonShape9TestPointERK11b2TransformRK6b2Vec2, 
                       __ZNK15b2DistanceJoint10GetAnchorAEv, __ZNK15b2DistanceJoint10GetAnchorBEv, 
                       __ZNK15b2DistanceJoint16GetReactionForceEf, __ZNK15b2DistanceJoint17GetReactionTorqueEf, 
                       __ZNK15b2FrictionJoint10GetAnchorAEv, __ZNK15b2FrictionJoint10GetAnchorBEv, 
                       __ZNK15b2FrictionJoint11GetMaxForceEv, __ZNK15b2FrictionJoint12GetMaxTorqueEv, 
                       __ZNK15b2FrictionJoint16GetReactionForceEf, __ZNK15b2FrictionJoint17GetReactionTorqueEf, 
                       __ZNK15b2QuadtreeShape11ComputeAABBEP6b2AABBRK11b2Transformi, 
                       __ZNK15b2QuadtreeShape11ComputeMassEP10b2MassDataf, 
                       __ZNK15b2QuadtreeShape13GetChildCountEv, __ZNK15b2QuadtreeShape15ComputeDistanceERK11b2TransformRK6b2Vec2PfPS3_i, 
                       __ZNK15b2QuadtreeShape5CloneEv, __ZNK15b2QuadtreeShape7RayCastEP15b2RayCastOutputRK14b2RayCastInputRK11b2Transformi, 
                       __ZNK15b2QuadtreeShape9TestPointERK11b2TransformRK6b2Vec2, 
                       __ZNK15b2RevoluteJoint10GetAnchorAEv, __ZNK15b2RevoluteJoint10GetAnchorBEv, 
                       __ZNK15b2RevoluteJoint13GetJointAngleEv, __ZNK15b2RevoluteJoint13GetJointSpeedEv, 
                       __ZNK15b2RevoluteJoint13GetLowerLimitEv, __ZNK15b2RevoluteJoint13GetUpperLimitEv, 
                       __ZNK15b2RevoluteJoint14GetMotorTorqueEf, __ZNK15b2RevoluteJoint14IsLimitEnabledEv, 
                       __ZNK15b2RevoluteJoint14IsMotorEnabledEv, __ZNK15b2RevoluteJoint16GetReactionForceEf, 
                       __ZNK15b2RevoluteJoint17GetReactionTorqueEf, __ZNK16PKCFieldElectric9evalForceEDv3_fS0_ffd, 
                       __ZNK16PKCFieldMagnetic9evalForceEDv3_fS0_ffd, __ZNK16PKCFieldVelocity12evalVelocityEDv3_fS0_ffd, 
                       __ZNK16PKCFieldVelocity16evalVelocityVec2EP17PKFieldSampleVec2ibb, 
                       __ZNK16PKCFieldVelocity9evalForceEDv3_fS0_ffd, __ZNK16b2PrismaticJoint10GetAnchorAEv, 
                       __ZNK16b2PrismaticJoint10GetAnchorBEv, __ZNK16b2PrismaticJoint13GetJointSpeedEv, 
                       __ZNK16b2PrismaticJoint13GetLowerLimitEv, __ZNK16b2PrismaticJoint13GetMotorForceEf, 
                       __ZNK16b2PrismaticJoint13GetUpperLimitEv, __ZNK16b2PrismaticJoint14IsLimitEnabledEv, 
                       __ZNK16b2PrismaticJoint14IsMotorEnabledEv, __ZNK16b2PrismaticJoint16GetReactionForceEf, 
                       __ZNK16b2PrismaticJoint17GetReactionTorqueEf, __ZNK16b2PrismaticJoint19GetJointTranslationEv, 
                       __ZNK16b2StackAllocator16GetMaxAllocationEv, __ZNK18PKCFieldTurbulence9evalForceEDv3_fS0_ffd, 
                       __ZNK21PKCFieldLinearGravity9evalForceEDv3_fS0_ffd, 
                       __ZNK21PKCFieldRadialGravity9evalForceEDv3_fS0_ffd, 
                       __ZNK6b2AABB7RayCastEP15b2RayCastOutputRK14b2RayCastInput, 
                       __ZNK6b2Body13ShouldCollideEPKS_, __ZNK6b2Body15IsFixedRotationEv, 
                       __ZNK6b2Body17IsSleepingAllowedEv, __ZNK6b2Body7IsAwakeEv, 
                       __ZNK6b2Body8IsActiveEv, __ZNK6b2Body8IsBulletEv, 
                       __ZNK6b2Body9GetChargeEv, __ZNK6b2Draw8GetFlagsEv, 
                       __ZNK6b2Rope4DrawEP6b2Draw, __ZNK7b2Joint8IsActiveEv, 
                       __ZNK7b2Mat3312GetInverse22EPS_, __ZNK7b2Mat3315GetSymInverse33EPS_, 
                       __ZNK7b2Mat337Solve22ERK6b2Vec2, __ZNK7b2Mat337Solve33ERK6b2Vec3, 
                       __ZNK7b2Timer15GetMillisecondsEv, __ZNK7b2World10GetGravityEv, 
                       __ZNK7b2World20GetVelocityThresholdEv, __ZNK7b2World7RayCastEP17b2RayCastCallbackRK6b2Vec2S4_, 
                       __ZNK7b2World9QueryAABBEP15b2QueryCallbackRK6b2AABB, 
                       __ZNK8PKCField13evalForceVec2EP17PKFieldSampleVec2i, 
                       __ZNK8PKCField13evalForceVec2EP17PKFieldSampleVec2ibb, 
                       __ZNK8PKCField14hasEmptyRegionEv, __ZNK8PKCField15hasFiniteRegionEv, 
                       __ZNK8PKCField17calculatedFalloffEDv3_f, __ZNK8PKCField22calculatedLocalFalloffEDv3_f, 
                       __ZNK8PKCField8containsERKDv3_f, __ZNK8QuadTree9leafCountEv, 
                       __ZNK9PKCAether10fieldCountEv, __ZNK9PKCAether9Evaluator12evalVelocityEjDv3_fS1_ffd, 
                       __ZNK9PKCAether9Evaluator14evalFieldsVec2EP17PKFieldSampleVec2i, 
                       __ZNK9PKCAether9Evaluator9evalForceEjfDv3_fS1_ffd, 
                       '__ZNKSt3__110__function6__funcIZ37+[BoxedPhysicsShape boxPhysicsShape:]E3$_0NS_9allocatorIS2_EEFvffiEE11target_typeEv', 
                       '__ZNKSt3__110__function6__funcIZ37+[BoxedPhysicsShape boxPhysicsShape:]E3$_0NS_9allocatorIS2_EEFvffiEE6targetERKSt9type_info', 
                       '__ZNKSt3__110__function6__funcIZ37+[BoxedPhysicsShape boxPhysicsShape:]E3$_0NS_9allocatorIS2_EEFvffiEE7__cloneEPNS0_6__baseIS5_EE', 
                       '__ZNKSt3__110__function6__funcIZ37+[BoxedPhysicsShape boxPhysicsShape:]E3$_0NS_9allocatorIS2_EEFvffiEE7__cloneEv', 
                       '__ZNSt3__110__function6__funcIZ37+[BoxedPhysicsShape boxPhysicsShape:]E3$_0NS_9allocatorIS2_EEFvffiEE18destroy_deallocateEv', 
                       '__ZNSt3__110__function6__funcIZ37+[BoxedPhysicsShape boxPhysicsShape:]E3$_0NS_9allocatorIS2_EEFvffiEE7destroyEv', 
                       '__ZNSt3__110__function6__funcIZ37+[BoxedPhysicsShape boxPhysicsShape:]E3$_0NS_9allocatorIS2_EEFvffiEED0Ev', 
                       '__ZNSt3__110__function6__funcIZ37+[BoxedPhysicsShape boxPhysicsShape:]E3$_0NS_9allocatorIS2_EEFvffiEED1Ev', 
                       '__ZNSt3__110__function6__funcIZ37+[BoxedPhysicsShape boxPhysicsShape:]E3$_0NS_9allocatorIS2_EEFvffiEEclEOfS7_Oi', 
                       __ZTI11b2EdgeShape, __ZTI11b2GearJoint, __ZTI11b2RopeJoint, 
                       __ZTI11b2WeldJoint, __ZTI12PKCFieldDrag, __ZTI12PKCFieldUser, 
                       __ZTI12b2ChainShape, __ZTI12b2MouseJoint, __ZTI12b2WheelJoint, 
                       __ZTI13PKCFieldNoise, __ZTI13b2CircleShape, __ZTI13b2PulleyJoint, 
                       __ZTI14PKCFieldSpring, __ZTI14PKCFieldVortex, __ZTI14b2PolygonShape, 
                       __ZTI15b2CircleContact, __ZTI15b2DistanceJoint, 
                       __ZTI15b2FrictionJoint, __ZTI15b2QuadtreeShape, 
                       __ZTI15b2RevoluteJoint, __ZTI16PKCFieldElectric, 
                       __ZTI16PKCFieldMagnetic, __ZTI16PKCFieldVelocity, 
                       __ZTI16b2PolygonContact, __ZTI16b2PrismaticJoint, 
                       __ZTI18PKCFieldTurbulence, __ZTI21PKCFieldLinearGravity, 
                       __ZTI21PKCFieldRadialGravity, __ZTI22b2EdgeAndCircleContact, 
                       __ZTI23b2ChainAndCircleContact, __ZTI23b2EdgeAndPolygonContact, 
                       __ZTI24b2ChainAndPolygonContact, __ZTI24b2QuadtreeAndEdgeContact, 
                       __ZTI25b2PolygonAndCircleContact, __ZTI25b2QuadtreeAndChainContact, 
                       __ZTI26b2QuadtreeAndCircleContact, __ZTI27b2QuadtreeAndPolygonContact, 
                       __ZTI28b2QuadtreeAndQuadtreeContact, __ZTI8PKCField, 
                       __ZTI9b2Fixture, '__ZTINSt3__110__function6__funcIZ37+[BoxedPhysicsShape boxPhysicsShape:]E3$_0NS_9allocatorIS2_EEFvffiEEE', 
                       '__ZTIZ37+[BoxedPhysicsShape boxPhysicsShape:]E3$_0', 
                       __ZTS11b2EdgeShape, __ZTS11b2GearJoint, __ZTS11b2RopeJoint, 
                       __ZTS11b2WeldJoint, __ZTS12PKCFieldDrag, __ZTS12PKCFieldUser, 
                       __ZTS12b2ChainShape, __ZTS12b2MouseJoint, __ZTS12b2WheelJoint, 
                       __ZTS13PKCFieldNoise, __ZTS13b2CircleShape, __ZTS13b2PulleyJoint, 
                       __ZTS14PKCFieldSpring, __ZTS14PKCFieldVortex, __ZTS14b2PolygonShape, 
                       __ZTS15b2CircleContact, __ZTS15b2DistanceJoint, 
                       __ZTS15b2FrictionJoint, __ZTS15b2QuadtreeShape, 
                       __ZTS15b2RevoluteJoint, __ZTS16PKCFieldElectric, 
                       __ZTS16PKCFieldMagnetic, __ZTS16PKCFieldVelocity, 
                       __ZTS16b2PolygonContact, __ZTS16b2PrismaticJoint, 
                       __ZTS18PKCFieldTurbulence, __ZTS21PKCFieldLinearGravity, 
                       __ZTS21PKCFieldRadialGravity, __ZTS22b2EdgeAndCircleContact, 
                       __ZTS23b2ChainAndCircleContact, __ZTS23b2EdgeAndPolygonContact, 
                       __ZTS24b2ChainAndPolygonContact, __ZTS24b2QuadtreeAndEdgeContact, 
                       __ZTS25b2PolygonAndCircleContact, __ZTS25b2QuadtreeAndChainContact, 
                       __ZTS26b2QuadtreeAndCircleContact, __ZTS27b2QuadtreeAndPolygonContact, 
                       __ZTS28b2QuadtreeAndQuadtreeContact, __ZTS8PKCField, 
                       __ZTS9b2Fixture, '__ZTSNSt3__110__function6__funcIZ37+[BoxedPhysicsShape boxPhysicsShape:]E3$_0NS_9allocatorIS2_EEFvffiEEE', 
                       '__ZTSZ37+[BoxedPhysicsShape boxPhysicsShape:]E3$_0', 
                       __ZTV11b2EdgeShape, __ZTV11b2GearJoint, __ZTV11b2RopeJoint, 
                       __ZTV11b2WeldJoint, __ZTV12PKCFieldDrag, __ZTV12PKCFieldUser, 
                       __ZTV12b2ChainShape, __ZTV12b2MouseJoint, __ZTV12b2WheelJoint, 
                       __ZTV13PKCFieldNoise, __ZTV13b2CircleShape, __ZTV13b2PulleyJoint, 
                       __ZTV14PKCFieldSpring, __ZTV14PKCFieldVortex, __ZTV14b2PolygonShape, 
                       __ZTV15b2CircleContact, __ZTV15b2DistanceJoint, 
                       __ZTV15b2FrictionJoint, __ZTV15b2QuadtreeShape, 
                       __ZTV15b2RevoluteJoint, __ZTV16PKCFieldElectric, 
                       __ZTV16PKCFieldMagnetic, __ZTV16PKCFieldVelocity, 
                       __ZTV16b2PolygonContact, __ZTV16b2PrismaticJoint, 
                       __ZTV18PKCFieldTurbulence, __ZTV21PKCFieldLinearGravity, 
                       __ZTV21PKCFieldRadialGravity, __ZTV22b2EdgeAndCircleContact, 
                       __ZTV23b2ChainAndCircleContact, __ZTV23b2EdgeAndPolygonContact, 
                       __ZTV24b2ChainAndPolygonContact, __ZTV24b2QuadtreeAndEdgeContact, 
                       __ZTV25b2PolygonAndCircleContact, __ZTV25b2QuadtreeAndChainContact, 
                       __ZTV26b2QuadtreeAndCircleContact, __ZTV27b2QuadtreeAndPolygonContact, 
                       __ZTV28b2QuadtreeAndQuadtreeContact, __ZTV8PKCField, 
                       __ZTV9b2Fixture, '__ZTVNSt3__110__function6__funcIZ37+[BoxedPhysicsShape boxPhysicsShape:]E3$_0NS_9allocatorIS2_EEFvffiEEE', 
                       __ZZL20ParseBracesAndCommasPK10__CFStringPlS2_S2_S2_E17__braceCharacters, 
                       __ZZN15b2DistanceProxy3SetEPK7b2ShapeiE5dummy, '___26-[PKPhysicsWorld addBody:]_block_invoke', 
                       '___27-[PKPhysicsWorld addField:]_block_invoke', 
                       '___27-[PKPhysicsWorld addJoint:]_block_invoke', 
                       '___29-[PKPhysicsWorld bodyInRect:]_block_invoke', 
                       '___29-[PKPhysicsWorld removeBody:]_block_invoke', 
                       '___29-[PKPhysicsWorld setGravity:]_block_invoke', 
                       '___30-[PKPhysicsWorld bodyAtPoint:]_block_invoke', 
                       '___30-[PKPhysicsWorld removeJoint:]_block_invoke', 
                       '___33-[PKPhysicsWorld removeAllBodies]_block_invoke', 
                       '___33-[PKPhysicsWorld removeAllJoints]_block_invoke', 
                       '___37-[PKPhysicsBody(Internal) setActive:]_block_invoke', 
                       '___40-[PKPhysicsWorld bodyAlongRayStart:end:]_block_invoke', 
                       ___Block_byref_object_copy_, ___Block_byref_object_dispose_, 
                       ___block_descriptor_tmp, ___block_descriptor_tmp, 
                       ___block_descriptor_tmp.112, ___block_descriptor_tmp.121, 
                       ___block_descriptor_tmp.126, ___block_descriptor_tmp.147, 
                       ___block_descriptor_tmp.150, ___block_descriptor_tmp.153, 
                       ___block_descriptor_tmp.158, ___block_descriptor_tmp.3, 
                       ___block_descriptor_tmp.82, ___block_descriptor_tmp.9, 
                       ___copy_helper_block_, ___copy_helper_block_, ___copy_helper_block_.1, 
                       ___copy_helper_block_.110, ___copy_helper_block_.119, 
                       ___copy_helper_block_.124, ___copy_helper_block_.145, 
                       ___copy_helper_block_.148, ___copy_helper_block_.151, 
                       ___copy_helper_block_.156, ___copy_helper_block_.6, 
                       ___copy_helper_block_.79, ___destroy_helper_block_, 
                       ___destroy_helper_block_, ___destroy_helper_block_.111, 
                       ___destroy_helper_block_.120, ___destroy_helper_block_.125, 
                       ___destroy_helper_block_.146, ___destroy_helper_block_.149, 
                       ___destroy_helper_block_.152, ___destroy_helper_block_.157, 
                       ___destroy_helper_block_.2, ___destroy_helper_block_.7, 
                       ___destroy_helper_block_.80, _b2Vec2_zero, _b2_defaultListener, 
                       _b2_gjkCalls, _b2_gjkIters, _b2_gjkMaxIters, _b2_toiCalls, 
                       _b2_toiIters, _b2_toiMaxIters, _b2_toiMaxRootIters, 
                       _b2_toiRootIters, _b2_version, _fieldRepresentedObject, 
                       _getRegionOnField, _grad2, _grad3u, _grad3u_vector, 
                       _grad3v, _grad3v_vector, _graddotp2, _graddotp3, 
                       _gradrot2, _gradrot3, _noise1, _noise2, _noise3, 
                       _noise4, _perm, _perm, _perm, _pnoise1, _pnoise2, 
                       _pnoise3, _pnoise4, _setRegionOnField, _setRepresentedObjectOnField, 
                       _snoise1, _snoise2, _snoise3, _snoise4, _srdnoise2, 
                       _srdnoise2_sincos, _srdnoise3, _srdnoise3_sincos, 
                       _srdnoise3_sincos_vector ]
    weak-def-symbols: [ __ZN8QuadTree11visitLeavesENSt3__18functionIFvffiEEE, 
                        __Z11createVertsPK7PKPointiP6b2Vec2Pi, __ZN11PKDebugDraw10DrawCircleERK6b2Vec2fRK7b2Color, 
                        __ZN11PKDebugDraw11DrawPolygonEPK6b2Vec2iRK7b2Color, 
                        __ZN11PKDebugDraw11DrawSegmentERK6b2Vec2S2_RK7b2Color, 
                        __ZN11PKDebugDraw11FieldRegionER6b2Vec2S1_Ri, __ZN11PKDebugDraw13DrawTransformERK11b2Transform, 
                        __ZN11PKDebugDraw15DrawFieldSampleERK6b2Vec2S2_RK7b2Color, 
                        __ZN11PKDebugDraw15DrawSolidCircleERK6b2Vec2fS2_RK7b2Color, 
                        __ZN11PKDebugDraw16DrawSolidPolygonEPK6b2Vec2iRK7b2Color, 
                        __ZN11PKDebugDrawC2ER17PKDebugDrawPacketbb, __ZN11PKDebugDrawD0Ev, 
                        __ZN11PKDebugDrawD1Ev, __ZN11b2EdgeShapeD0Ev, __ZN11b2EdgeShapeD1Ev, 
                        __ZN11b2GearJointD0Ev, __ZN11b2GearJointD1Ev, __ZN11b2RopeJointD0Ev, 
                        __ZN11b2RopeJointD1Ev, __ZN11b2WeldJointD0Ev, __ZN11b2WeldJointD1Ev, 
                        __ZN12PKCFieldDragD0Ev, __ZN12PKCFieldDragD1Ev, 
                        __ZN12PKCFieldUserD0Ev, __ZN12PKCFieldUserD1Ev, 
                        __ZN12b2MouseJointD0Ev, __ZN12b2MouseJointD1Ev, 
                        __ZN12b2WheelJointD0Ev, __ZN12b2WheelJointD1Ev, 
                        __ZN13PKCFieldNoiseD0Ev, __ZN13PKCFieldNoiseD1Ev, 
                        __ZN13PKCPathHolderD2Ev, __ZN13b2CircleShapeD0Ev, 
                        __ZN13b2CircleShapeD1Ev, __ZN13b2PulleyJointD0Ev, 
                        __ZN13b2PulleyJointD1Ev, __ZN14PKCFieldSpringD0Ev, 
                        __ZN14PKCFieldSpringD1Ev, __ZN14PKCFieldVortexD0Ev, 
                        __ZN14PKCFieldVortexD1Ev, __ZN14PKQueryHandler13ReportFixtureEP9b2Fixture, 
                        __ZN14PKQueryHandlerD0Ev, __ZN14PKQueryHandlerD1Ev, 
                        __ZN14b2PolygonShapeD0Ev, __ZN14b2PolygonShapeD1Ev, 
                        __ZN15b2CircleContactD0Ev, __ZN15b2CircleContactD1Ev, 
                        __ZN15b2DistanceJointD0Ev, __ZN15b2DistanceJointD1Ev, 
                        __ZN15b2FrictionJointD0Ev, __ZN15b2FrictionJointD1Ev, 
                        __ZN15b2GrowableStackIiLi256EED2Ev, __ZN15b2QuadtreeShapeD0Ev, 
                        __ZN15b2QuadtreeShapeD1Ev, __ZN15b2QuadtreeShapeaSERKS_, 
                        __ZN15b2RevoluteJointD0Ev, __ZN15b2RevoluteJointD1Ev, 
                        __ZN16PKCFieldElectricD0Ev, __ZN16PKCFieldElectricD1Ev, 
                        __ZN16PKCFieldMagneticD0Ev, __ZN16PKCFieldMagneticD1Ev, 
                        __ZN16PKCFieldVelocityD0Ev, __ZN16PKCFieldVelocityD1Ev, 
                        __ZN16PKRayCastHandler13ReportFixtureEP9b2FixtureRK6b2Vec2S4_f, 
                        __ZN16PKRayCastHandler14issueCallbacksEv, __ZN16PKRayCastHandlerD0Ev, 
                        __ZN16PKRayCastHandlerD1Ev, __ZN16b2PolygonContactD0Ev, 
                        __ZN16b2PolygonContactD1Ev, __ZN16b2PrismaticJointD0Ev, 
                        __ZN16b2PrismaticJointD1Ev, __ZN17PKContactListener10EndContactEP9b2Contact, 
                        __ZN17PKContactListener12BeginContactEP9b2Contact, 
                        __ZN17PKContactListener13flushContactsEv, __ZN17PKContactListener13reportContactEP9b2ContactPK16b2ContactImpulse, 
                        __ZN17PKContactListener15ContinueContactEP9b2Contact, 
                        __ZN17PKContactListener8PreSolveEP9b2ContactPK10b2Manifold, 
                        __ZN17PKContactListener9PostSolveEP9b2ContactPK16b2ContactImpulse, 
                        __ZN17PKContactListenerC2Ev, __ZN17PKContactListenerD0Ev, 
                        __ZN17PKContactListenerD1Ev, __ZN17PKContactListenerD2Ev, 
                        __ZN17b2ContactListener10EndContactEP9b2Contact, 
                        __ZN17b2ContactListener12BeginContactEP9b2Contact, 
                        __ZN17b2ContactListener13flushContactsEv, __ZN17b2ContactListener15ContinueContactEP9b2Contact, 
                        __ZN17b2ContactListener8PreSolveEP9b2ContactPK10b2Manifold, 
                        __ZN17b2ContactListener9PostSolveEP9b2ContactPK16b2ContactImpulse, 
                        __ZN17b2ContactListenerD0Ev, __ZN17b2ContactListenerD1Ev, 
                        __ZN18PKCFieldTurbulenceD0Ev, __ZN18PKCFieldTurbulenceD1Ev, 
                        __ZN20b2SeparationFunction10InitializeEPK14b2SimplexCachePK15b2DistanceProxyRK7b2SweepS5_S8_f, 
                        __ZN21PKCFieldLinearGravityD0Ev, __ZN21PKCFieldLinearGravityD1Ev, 
                        __ZN21PKCFieldRadialGravityD0Ev, __ZN21PKCFieldRadialGravityD1Ev, 
                        __ZN21b2WorldRayCastWrapper15RayCastCallbackERK14b2RayCastInputi, 
                        __ZN22b2EdgeAndCircleContactD0Ev, __ZN22b2EdgeAndCircleContactD1Ev, 
                        __ZN23b2ChainAndCircleContactD0Ev, __ZN23b2ChainAndCircleContactD1Ev, 
                        __ZN23b2EdgeAndPolygonContactD0Ev, __ZN23b2EdgeAndPolygonContactD1Ev, 
                        __ZN24b2ChainAndPolygonContactD0Ev, __ZN24b2ChainAndPolygonContactD1Ev, 
                        __ZN24b2PositionSolverManifold10InitializeEP27b2ContactPositionConstraintRK11b2TransformS4_i, 
                        __ZN24b2QuadtreeAndEdgeContactD0Ev, __ZN24b2QuadtreeAndEdgeContactD1Ev, 
                        __ZN25b2PolygonAndCircleContactD0Ev, __ZN25b2PolygonAndCircleContactD1Ev, 
                        __ZN25b2QuadtreeAndChainContactD0Ev, __ZN25b2QuadtreeAndChainContactD1Ev, 
                        __ZN26MechanicsCollisionCallback13ReportFixtureEP9b2Fixture, 
                        __ZN26MechanicsCollisionCallbackD0Ev, __ZN26MechanicsCollisionCallbackD1Ev, 
                        __ZN26b2QuadtreeAndCircleContactD0Ev, __ZN26b2QuadtreeAndCircleContactD1Ev, 
                        __ZN27b2QuadtreeAndPolygonContactD0Ev, __ZN27b2QuadtreeAndPolygonContactD1Ev, 
                        __ZN28b2QuadtreeAndQuadtreeContactD0Ev, __ZN28b2QuadtreeAndQuadtreeContactD1Ev, 
                        __ZN6PKPathD2Ev, __ZN6b2DrawD0Ev, __ZN6b2DrawD1Ev, 
                        __ZN7PKCGridD2Ev, __ZN7b2JointD0Ev, __ZN7b2JointD1Ev, 
                        __ZN8b2Island5ClearEv, __ZN9b2ContactD0Ev, __ZN9b2ContactD1Ev, 
                        __ZN9b2Simplex9ReadCacheEPK14b2SimplexCachePK15b2DistanceProxyRK11b2TransformS5_S8_, 
                        __ZNK12PKCFieldDrag4typeEv, __ZNK12PKCFieldUser4typeEv, 
                        __ZNK13PKCFieldNoise4typeEv, __ZNK13b2DynamicTree5QueryI16b2ContactManagerEEvPT_RK6b2AABB, 
                        __ZNK13b2DynamicTree5QueryI19b2WorldQueryWrapperEEvPT_RK6b2AABB, 
                        __ZNK13b2DynamicTree7RayCastI21b2WorldRayCastWrapperEEvPT_RK14b2RayCastInput, 
                        __ZNK14PKCFieldSpring4typeEv, __ZNK14PKCFieldVortex4typeEv, 
                        __ZNK16PKCFieldElectric4typeEv, __ZNK16PKCFieldMagnetic4typeEv, 
                        __ZNK16PKCFieldVelocity10isVelocityEv, __ZNK16PKCFieldVelocity4typeEv, 
                        __ZNK18PKCFieldTurbulence4typeEv, __ZNK20b2SeparationFunction17FindMinSeparationEPiS0_f, 
                        __ZNK20b2SeparationFunction8EvaluateEiif, __ZNK21PKCFieldLinearGravity4typeEv, 
                        __ZNK21PKCFieldRadialGravity4typeEv, __ZNK8PKCField10isVelocityEv, 
                        __ZNK8PKCField12evalVelocityEDv3_fS0_ffd, __ZNK8PKCField16evalVelocityVec2EP17PKFieldSampleVec2ibb, 
                        __ZNK9b2Simplex10WriteCacheEP14b2SimplexCache, 
                        __ZNK9b2Simplex15GetClosestPointEv, __ZNK9b2Simplex16GetWitnessPointsEP6b2Vec2S1_, 
                        __ZNK9b2Simplex18GetSearchDirectionEv, __ZNK9b2Simplex9GetMetricEv, 
                        __ZNKSt3__120__shared_ptr_pointerIP6PKPathNS_14default_deleteIS1_EENS_9allocatorIS1_EEE13__get_deleterERKSt9type_info, 
                        __ZNKSt3__18functionIFvffiEEclEffi, __ZNSt3__110__list_impI13PKRayCastItemNS_9allocatorIS1_EEE5clearEv, 
                        __ZNSt3__110shared_ptrI12PKCFieldDragE11make_sharedIJEEES2_DpOT_, 
                        __ZNSt3__110shared_ptrI12PKCFieldUserE11make_sharedIJPvEEES2_DpOT_, 
                        __ZNSt3__110shared_ptrI13PKCFieldNoiseE11make_sharedIJEEES2_DpOT_, 
                        __ZNSt3__110shared_ptrI14PKCFieldSpringE11make_sharedIJEEES2_DpOT_, 
                        __ZNSt3__110shared_ptrI14PKCFieldVortexE11make_sharedIJEEES2_DpOT_, 
                        __ZNSt3__110shared_ptrI16PKCFieldElectricE11make_sharedIJEEES2_DpOT_, 
                        __ZNSt3__110shared_ptrI16PKCFieldMagneticE11make_sharedIJEEES2_DpOT_, 
                        __ZNSt3__110shared_ptrI16PKCFieldVelocityE11make_sharedIJEEES2_DpOT_, 
                        __ZNSt3__110shared_ptrI18PKCFieldTurbulenceE11make_sharedIJEEES2_DpOT_, 
                        __ZNSt3__110shared_ptrI21PKCFieldLinearGravityE11make_sharedIJEEES2_DpOT_, 
                        __ZNSt3__110shared_ptrI21PKCFieldRadialGravityE11make_sharedIJEEES2_DpOT_, 
                        __ZNSt3__110shared_ptrI6PKPathE11make_sharedIJRS1_EEES2_DpOT_, 
                        __ZNSt3__110shared_ptrI6PKPathEC2IS1_EEPT_NS_9enable_ifIXsr14is_convertibleIS5_PS1_EE5valueENS2_5__natEE4typeE, 
                        __ZNSt3__110shared_ptrI7PKCGridE11make_sharedIJEEES2_DpOT_, 
                        __ZNSt3__110shared_ptrI8QuadTreeE11make_sharedIJfffffEEES2_DpOT_, 
                        __ZNSt3__112__hash_tableIP9b2ContactNS_4hashIS2_EENS_8equal_toIS2_EENS_9allocatorIS2_EEE4findIS2_EENS_15__hash_iteratorIPNS_11__hash_nodeIS2_PvEEEERKT_, 
                        __ZNSt3__112__hash_tableIP9b2ContactNS_4hashIS2_EENS_8equal_toIS2_EENS_9allocatorIS2_EEE5eraseENS_21__hash_const_iteratorIPNS_11__hash_nodeIS2_PvEEEE, 
                        __ZNSt3__112__hash_tableIP9b2ContactNS_4hashIS2_EENS_8equal_toIS2_EENS_9allocatorIS2_EEE6rehashEm, 
                        __ZNSt3__112__hash_tableIP9b2ContactNS_4hashIS2_EENS_8equal_toIS2_EENS_9allocatorIS2_EEE6removeENS_21__hash_const_iteratorIPNS_11__hash_nodeIS2_PvEEEE, 
                        __ZNSt3__112__hash_tableIP9b2ContactNS_4hashIS2_EENS_8equal_toIS2_EENS_9allocatorIS2_EEE8__rehashEm, 
                        __ZNSt3__112__hash_tableIP9b2ContactNS_4hashIS2_EENS_8equal_toIS2_EENS_9allocatorIS2_EEED2Ev, 
                        __ZNSt3__112__hash_tableIPvNS_4hashIS1_EENS_8equal_toIS1_EENS_9allocatorIS1_EEE4findIS1_EENS_15__hash_iteratorIPNS_11__hash_nodeIS1_S1_EEEERKT_, 
                        __ZNSt3__112__hash_tableIPvNS_4hashIS1_EENS_8equal_toIS1_EENS_9allocatorIS1_EEE6rehashEm, 
                        __ZNSt3__112__hash_tableIPvNS_4hashIS1_EENS_8equal_toIS1_EENS_9allocatorIS1_EEE8__rehashEm, 
                        __ZNSt3__112__hash_tableIPvNS_4hashIS1_EENS_8equal_toIS1_EENS_9allocatorIS1_EEED2Ev, 
                        __ZNSt3__112__hash_tableIiNS_4hashIiEENS_8equal_toIiEENS_9allocatorIiEEE4findIiEENS_15__hash_iteratorIPNS_11__hash_nodeIiPvEEEERKT_, 
                        __ZNSt3__112__hash_tableIiNS_4hashIiEENS_8equal_toIiEENS_9allocatorIiEEE5clearEv, 
                        __ZNSt3__112__hash_tableIiNS_4hashIiEENS_8equal_toIiEENS_9allocatorIiEEE5eraseENS_21__hash_const_iteratorIPNS_11__hash_nodeIiPvEEEE, 
                        __ZNSt3__112__hash_tableIiNS_4hashIiEENS_8equal_toIiEENS_9allocatorIiEEE6rehashEm, 
                        __ZNSt3__112__hash_tableIiNS_4hashIiEENS_8equal_toIiEENS_9allocatorIiEEE6removeENS_21__hash_const_iteratorIPNS_11__hash_nodeIiPvEEEE, 
                        __ZNSt3__112__hash_tableIiNS_4hashIiEENS_8equal_toIiEENS_9allocatorIiEEE8__rehashEm, 
                        __ZNSt3__112__hash_tableIiNS_4hashIiEENS_8equal_toIiEENS_9allocatorIiEEED2Ev, 
                        __ZNSt3__112__hash_tableIyNS_4hashIyEENS_8equal_toIyEENS_9allocatorIyEEE5clearEv, 
                        __ZNSt3__112__hash_tableIyNS_4hashIyEENS_8equal_toIyEENS_9allocatorIyEEE6rehashEm, 
                        __ZNSt3__112__hash_tableIyNS_4hashIyEENS_8equal_toIyEENS_9allocatorIyEEE8__rehashEm, 
                        __ZNSt3__112__hash_tableIyNS_4hashIyEENS_8equal_toIyEENS_9allocatorIyEEED2Ev, 
                        __ZNSt3__113__vector_baseI14b2FixtureProxyNS_9allocatorIS1_EEED2Ev, 
                        __ZNSt3__113__vector_baseI6b2Vec2NS_9allocatorIS1_EEED2Ev, 
                        __ZNSt3__113__vector_baseI7CGPointNS_9allocatorIS1_EEED2Ev, 
                        __ZNSt3__113__vector_baseI7PKPointNS_9allocatorIS1_EEED2Ev, 
                        __ZNSt3__113__vector_baseIDv2_fNS_9allocatorIS1_EEED2Ev, 
                        __ZNSt3__113__vector_baseIDv4_fNS_9allocatorIS1_EEED2Ev, 
                        __ZNSt3__113__vector_baseIN17PKDebugDrawPacket6color4ENS_9allocatorIS2_EEED2Ev, 
                        __ZNSt3__113__vector_baseINS_10shared_ptrI8PKCFieldEENS_9allocatorIS3_EEED2Ev, 
                        __ZNSt3__113__vector_baseINS_8weak_ptrI8PKCFieldEENS_9allocatorIS3_EEED2Ev, 
                        __ZNSt3__113__vector_baseIP14PKPhysicsShapeNS_9allocatorIS2_EEED2Ev, 
                        __ZNSt3__113__vector_baseIP6b2BodyNS_9allocatorIS2_EEED2Ev, 
                        __ZNSt3__113__vector_baseIP7b2JointNS_9allocatorIS2_EEED2Ev, 
                        __ZNSt3__113__vector_baseIP8PKCFieldNS_9allocatorIS2_EEED2Ev, 
                        __ZNSt3__113__vector_baseIP8QuadTreeNS_9allocatorIS2_EEED2Ev, 
                        __ZNSt3__113__vector_baseIP9b2ContactNS_9allocatorIS2_EEED2Ev, 
                        __ZNSt3__113__vector_baseIiNS_9allocatorIiEEED2Ev, 
                        __ZNSt3__114__split_bufferINS_10shared_ptrI8PKCFieldEERNS_9allocatorIS3_EEED2Ev, 
                        __ZNSt3__114__split_bufferINS_8weak_ptrI8PKCFieldEERNS_9allocatorIS3_EEED2Ev, 
                        __ZNSt3__117bad_function_callD0Ev, __ZNSt3__117bad_function_callD1Ev, 
                        __ZNSt3__120__shared_ptr_emplaceI12PKCFieldDragNS_9allocatorIS1_EEE16__on_zero_sharedEv, 
                        __ZNSt3__120__shared_ptr_emplaceI12PKCFieldDragNS_9allocatorIS1_EEE21__on_zero_shared_weakEv, 
                        __ZNSt3__120__shared_ptr_emplaceI12PKCFieldDragNS_9allocatorIS1_EEED0Ev, 
                        __ZNSt3__120__shared_ptr_emplaceI12PKCFieldDragNS_9allocatorIS1_EEED1Ev, 
                        __ZNSt3__120__shared_ptr_emplaceI12PKCFieldUserNS_9allocatorIS1_EEE16__on_zero_sharedEv, 
                        __ZNSt3__120__shared_ptr_emplaceI12PKCFieldUserNS_9allocatorIS1_EEE21__on_zero_shared_weakEv, 
                        __ZNSt3__120__shared_ptr_emplaceI12PKCFieldUserNS_9allocatorIS1_EEED0Ev, 
                        __ZNSt3__120__shared_ptr_emplaceI12PKCFieldUserNS_9allocatorIS1_EEED1Ev, 
                        __ZNSt3__120__shared_ptr_emplaceI13PKCFieldNoiseNS_9allocatorIS1_EEE16__on_zero_sharedEv, 
                        __ZNSt3__120__shared_ptr_emplaceI13PKCFieldNoiseNS_9allocatorIS1_EEE21__on_zero_shared_weakEv, 
                        __ZNSt3__120__shared_ptr_emplaceI13PKCFieldNoiseNS_9allocatorIS1_EEED0Ev, 
                        __ZNSt3__120__shared_ptr_emplaceI13PKCFieldNoiseNS_9allocatorIS1_EEED1Ev, 
                        __ZNSt3__120__shared_ptr_emplaceI13PKCPathHolderNS_9allocatorIS1_EEE16__on_zero_sharedEv, 
                        __ZNSt3__120__shared_ptr_emplaceI13PKCPathHolderNS_9allocatorIS1_EEE21__on_zero_shared_weakEv, 
                        __ZNSt3__120__shared_ptr_emplaceI13PKCPathHolderNS_9allocatorIS1_EEED0Ev, 
                        __ZNSt3__120__shared_ptr_emplaceI13PKCPathHolderNS_9allocatorIS1_EEED1Ev, 
                        __ZNSt3__120__shared_ptr_emplaceI14PKCFieldSpringNS_9allocatorIS1_EEE16__on_zero_sharedEv, 
                        __ZNSt3__120__shared_ptr_emplaceI14PKCFieldSpringNS_9allocatorIS1_EEE21__on_zero_shared_weakEv, 
                        __ZNSt3__120__shared_ptr_emplaceI14PKCFieldSpringNS_9allocatorIS1_EEED0Ev, 
                        __ZNSt3__120__shared_ptr_emplaceI14PKCFieldSpringNS_9allocatorIS1_EEED1Ev, 
                        __ZNSt3__120__shared_ptr_emplaceI14PKCFieldVortexNS_9allocatorIS1_EEE16__on_zero_sharedEv, 
                        __ZNSt3__120__shared_ptr_emplaceI14PKCFieldVortexNS_9allocatorIS1_EEE21__on_zero_shared_weakEv, 
                        __ZNSt3__120__shared_ptr_emplaceI14PKCFieldVortexNS_9allocatorIS1_EEED0Ev, 
                        __ZNSt3__120__shared_ptr_emplaceI14PKCFieldVortexNS_9allocatorIS1_EEED1Ev, 
                        __ZNSt3__120__shared_ptr_emplaceI16PKCFieldElectricNS_9allocatorIS1_EEE16__on_zero_sharedEv, 
                        __ZNSt3__120__shared_ptr_emplaceI16PKCFieldElectricNS_9allocatorIS1_EEE21__on_zero_shared_weakEv, 
                        __ZNSt3__120__shared_ptr_emplaceI16PKCFieldElectricNS_9allocatorIS1_EEED0Ev, 
                        __ZNSt3__120__shared_ptr_emplaceI16PKCFieldElectricNS_9allocatorIS1_EEED1Ev, 
                        __ZNSt3__120__shared_ptr_emplaceI16PKCFieldMagneticNS_9allocatorIS1_EEE16__on_zero_sharedEv, 
                        __ZNSt3__120__shared_ptr_emplaceI16PKCFieldMagneticNS_9allocatorIS1_EEE21__on_zero_shared_weakEv, 
                        __ZNSt3__120__shared_ptr_emplaceI16PKCFieldMagneticNS_9allocatorIS1_EEED0Ev, 
                        __ZNSt3__120__shared_ptr_emplaceI16PKCFieldMagneticNS_9allocatorIS1_EEED1Ev, 
                        __ZNSt3__120__shared_ptr_emplaceI16PKCFieldVelocityNS_9allocatorIS1_EEE16__on_zero_sharedEv, 
                        __ZNSt3__120__shared_ptr_emplaceI16PKCFieldVelocityNS_9allocatorIS1_EEE21__on_zero_shared_weakEv, 
                        __ZNSt3__120__shared_ptr_emplaceI16PKCFieldVelocityNS_9allocatorIS1_EEED0Ev, 
                        __ZNSt3__120__shared_ptr_emplaceI16PKCFieldVelocityNS_9allocatorIS1_EEED1Ev, 
                        __ZNSt3__120__shared_ptr_emplaceI18PKCFieldTurbulenceNS_9allocatorIS1_EEE16__on_zero_sharedEv, 
                        __ZNSt3__120__shared_ptr_emplaceI18PKCFieldTurbulenceNS_9allocatorIS1_EEE21__on_zero_shared_weakEv, 
                        __ZNSt3__120__shared_ptr_emplaceI18PKCFieldTurbulenceNS_9allocatorIS1_EEED0Ev, 
                        __ZNSt3__120__shared_ptr_emplaceI18PKCFieldTurbulenceNS_9allocatorIS1_EEED1Ev, 
                        __ZNSt3__120__shared_ptr_emplaceI21PKCFieldLinearGravityNS_9allocatorIS1_EEE16__on_zero_sharedEv, 
                        __ZNSt3__120__shared_ptr_emplaceI21PKCFieldLinearGravityNS_9allocatorIS1_EEE21__on_zero_shared_weakEv, 
                        __ZNSt3__120__shared_ptr_emplaceI21PKCFieldLinearGravityNS_9allocatorIS1_EEED0Ev, 
                        __ZNSt3__120__shared_ptr_emplaceI21PKCFieldLinearGravityNS_9allocatorIS1_EEED1Ev, 
                        __ZNSt3__120__shared_ptr_emplaceI21PKCFieldRadialGravityNS_9allocatorIS1_EEE16__on_zero_sharedEv, 
                        __ZNSt3__120__shared_ptr_emplaceI21PKCFieldRadialGravityNS_9allocatorIS1_EEE21__on_zero_shared_weakEv, 
                        __ZNSt3__120__shared_ptr_emplaceI21PKCFieldRadialGravityNS_9allocatorIS1_EEED0Ev, 
                        __ZNSt3__120__shared_ptr_emplaceI21PKCFieldRadialGravityNS_9allocatorIS1_EEED1Ev, 
                        __ZNSt3__120__shared_ptr_emplaceI6PKPathNS_9allocatorIS1_EEE16__on_zero_sharedEv, 
                        __ZNSt3__120__shared_ptr_emplaceI6PKPathNS_9allocatorIS1_EEE21__on_zero_shared_weakEv, 
                        __ZNSt3__120__shared_ptr_emplaceI6PKPathNS_9allocatorIS1_EEED0Ev, 
                        __ZNSt3__120__shared_ptr_emplaceI6PKPathNS_9allocatorIS1_EEED1Ev, 
                        __ZNSt3__120__shared_ptr_emplaceI7PKCGridNS_9allocatorIS1_EEE16__on_zero_sharedEv, 
                        __ZNSt3__120__shared_ptr_emplaceI7PKCGridNS_9allocatorIS1_EEE21__on_zero_shared_weakEv, 
                        __ZNSt3__120__shared_ptr_emplaceI7PKCGridNS_9allocatorIS1_EEED0Ev, 
                        __ZNSt3__120__shared_ptr_emplaceI7PKCGridNS_9allocatorIS1_EEED1Ev, 
                        __ZNSt3__120__shared_ptr_emplaceI8QuadTreeNS_9allocatorIS1_EEE16__on_zero_sharedEv, 
                        __ZNSt3__120__shared_ptr_emplaceI8QuadTreeNS_9allocatorIS1_EEE21__on_zero_shared_weakEv, 
                        __ZNSt3__120__shared_ptr_emplaceI8QuadTreeNS_9allocatorIS1_EEED0Ev, 
                        __ZNSt3__120__shared_ptr_emplaceI8QuadTreeNS_9allocatorIS1_EEED1Ev, 
                        __ZNSt3__120__shared_ptr_pointerIP6PKPathNS_14default_deleteIS1_EENS_9allocatorIS1_EEE16__on_zero_sharedEv, 
                        __ZNSt3__120__shared_ptr_pointerIP6PKPathNS_14default_deleteIS1_EENS_9allocatorIS1_EEE21__on_zero_shared_weakEv, 
                        __ZNSt3__120__shared_ptr_pointerIP6PKPathNS_14default_deleteIS1_EENS_9allocatorIS1_EEED0Ev, 
                        __ZNSt3__120__shared_ptr_pointerIP6PKPathNS_14default_deleteIS1_EENS_9allocatorIS1_EEED1Ev, 
                        __ZNSt3__14listI13PKRayCastItemNS_9allocatorIS1_EEE6__sortIPFbS1_S1_EEENS_15__list_iteratorIS1_PvEESA_SA_mRT_, 
                        __ZNSt3__16vectorI14b2FixtureProxyNS_9allocatorIS1_EEE26__swap_out_circular_bufferERNS_14__split_bufferIS1_RS3_EE, 
                        __ZNSt3__16vectorI14b2FixtureProxyNS_9allocatorIS1_EEE6resizeEm, 
                        __ZNSt3__16vectorI14b2FixtureProxyNS_9allocatorIS1_EEE8__appendEm, 
                        __ZNSt3__16vectorI6b2Vec2NS_9allocatorIS1_EEE10deallocateEv, 
                        __ZNSt3__16vectorI6b2Vec2NS_9allocatorIS1_EEE26__swap_out_circular_bufferERNS_14__split_bufferIS1_RS3_EE, 
                        __ZNSt3__16vectorI6b2Vec2NS_9allocatorIS1_EEE6assignIPS1_EENS_9enable_ifIXaasr21__is_forward_iteratorIT_EE5valuesr16is_constructibleIS1_NS_15iterator_traitsIS8_E9referenceEEE5valueEvE4typeES8_S8_, 
                        __ZNSt3__16vectorI6b2Vec2NS_9allocatorIS1_EEE6resizeEm, 
                        __ZNSt3__16vectorI6b2Vec2NS_9allocatorIS1_EEE8__appendEm, 
                        __ZNSt3__16vectorI6b2Vec2NS_9allocatorIS1_EEE8allocateEm, 
                        __ZNSt3__16vectorI6b2Vec2NS_9allocatorIS1_EEEC2Em, 
                        __ZNSt3__16vectorI7CGPointNS_9allocatorIS1_EEE21__push_back_slow_pathIRKS1_EEvOT_, 
                        __ZNSt3__16vectorI7CGPointNS_9allocatorIS1_EEE26__swap_out_circular_bufferERNS_14__split_bufferIS1_RS3_EE, 
                        __ZNSt3__16vectorI7CGPointNS_9allocatorIS1_EEE26__swap_out_circular_bufferERNS_14__split_bufferIS1_RS3_EEPS1_, 
                        __ZNSt3__16vectorI7CGPointNS_9allocatorIS1_EEE6insertINS_11__wrap_iterIPKS1_EEEENS_9enable_ifIXaasr21__is_forward_iteratorIT_EE5valuesr16is_constructibleIS1_NS_15iterator_traitsISB_E9referenceEEE5valueENS6_IPS1_EEE4typeES9_SB_SB_, 
                        __ZNSt3__16vectorI7CGPointNS_9allocatorIS1_EEE6insertINS_11__wrap_iterIPS1_EEEENS_9enable_ifIXaasr21__is_forward_iteratorIT_EE5valuesr16is_constructibleIS1_NS_15iterator_traitsISA_E9referenceEEE5valueES8_E4typeENS6_IPKS1_EESA_SA_, 
                        __ZNSt3__16vectorI7CGPointNS_9allocatorIS1_EEE8allocateEm, 
                        __ZNSt3__16vectorI7CGPointNS_9allocatorIS1_EEEC2ERKS4_, 
                        __ZNSt3__16vectorI7PKPointNS_9allocatorIS1_EEE10deallocateEv, 
                        __ZNSt3__16vectorI7PKPointNS_9allocatorIS1_EEE21__push_back_slow_pathIRKS1_EEvOT_, 
                        __ZNSt3__16vectorI7PKPointNS_9allocatorIS1_EEE21__push_back_slow_pathIS1_EEvOT_, 
                        __ZNSt3__16vectorI7PKPointNS_9allocatorIS1_EEE26__swap_out_circular_bufferERNS_14__split_bufferIS1_RS3_EE, 
                        __ZNSt3__16vectorI7PKPointNS_9allocatorIS1_EEE26__swap_out_circular_bufferERNS_14__split_bufferIS1_RS3_EEPS1_, 
                        __ZNSt3__16vectorI7PKPointNS_9allocatorIS1_EEE6assignIPS1_EENS_9enable_ifIXaasr21__is_forward_iteratorIT_EE5valuesr16is_constructibleIS1_NS_15iterator_traitsIS8_E9referenceEEE5valueEvE4typeES8_S8_, 
                        __ZNSt3__16vectorI7PKPointNS_9allocatorIS1_EEE6insertINS_11__wrap_iterIPKS1_EEEENS_9enable_ifIXaasr21__is_forward_iteratorIT_EE5valuesr16is_constructibleIS1_NS_15iterator_traitsISB_E9referenceEEE5valueENS6_IPS1_EEE4typeES9_SB_SB_, 
                        __ZNSt3__16vectorI7PKPointNS_9allocatorIS1_EEE6insertINS_11__wrap_iterIPS1_EEEENS_9enable_ifIXaasr21__is_forward_iteratorIT_EE5valuesr16is_constructibleIS1_NS_15iterator_traitsISA_E9referenceEEE5valueES8_E4typeENS6_IPKS1_EESA_SA_, 
                        __ZNSt3__16vectorI7PKPointNS_9allocatorIS1_EEE7reserveEm, 
                        __ZNSt3__16vectorI7PKPointNS_9allocatorIS1_EEE8allocateEm, 
                        __ZNSt3__16vectorI7PKPointNS_9allocatorIS1_EEEC2ERKS4_, 
                        __ZNSt3__16vectorI7PKPointNS_9allocatorIS1_EEEC2Em, 
                        __ZNSt3__16vectorI7PKPointNS_9allocatorIS1_EEED1Ev, 
                        __ZNSt3__16vectorIDv2_fNS_9allocatorIS1_EEE21__push_back_slow_pathIRKS1_EEvOT_, 
                        __ZNSt3__16vectorIDv2_fNS_9allocatorIS1_EEE26__swap_out_circular_bufferERNS_14__split_bufferIS1_RS3_EE, 
                        __ZNSt3__16vectorIDv2_fNS_9allocatorIS1_EEE5eraseENS_11__wrap_iterIPKS1_EES8_, 
                        __ZNSt3__16vectorIDv2_fNS_9allocatorIS1_EEE8allocateEm, 
                        __ZNSt3__16vectorIDv2_fNS_9allocatorIS1_EEEC2ERKS4_, 
                        __ZNSt3__16vectorIDv4_fNS_9allocatorIS1_EEE26__swap_out_circular_bufferERNS_14__split_bufferIS1_RS3_EE, 
                        __ZNSt3__16vectorIDv4_fNS_9allocatorIS1_EEE6resizeEm, 
                        __ZNSt3__16vectorIDv4_fNS_9allocatorIS1_EEE8__appendEm, 
                        __ZNSt3__16vectorIN17PKDebugDrawPacket6color4ENS_9allocatorIS2_EEE21__push_back_slow_pathIRKS2_EEvOT_, 
                        __ZNSt3__16vectorIN17PKDebugDrawPacket6color4ENS_9allocatorIS2_EEE26__swap_out_circular_bufferERNS_14__split_bufferIS2_RS4_EE, 
                        __ZNSt3__16vectorIN17PKDebugDrawPacket6color4ENS_9allocatorIS2_EEE7reserveEm, 
                        __ZNSt3__16vectorINS_10shared_ptrI8PKCFieldEENS_9allocatorIS3_EEE21__push_back_slow_pathIRKS3_EEvOT_, 
                        __ZNSt3__16vectorINS_10shared_ptrI8PKCFieldEENS_9allocatorIS3_EEE26__swap_out_circular_bufferERNS_14__split_bufferIS3_RS5_EE, 
                        __ZNSt3__16vectorINS_8weak_ptrI8PKCFieldEENS_9allocatorIS3_EEE21__push_back_slow_pathIRKS3_EEvOT_, 
                        __ZNSt3__16vectorINS_8weak_ptrI8PKCFieldEENS_9allocatorIS3_EEE26__swap_out_circular_bufferERNS_14__split_bufferIS3_RS5_EE, 
                        __ZNSt3__16vectorIP12QuadTreeNodeNS_9allocatorIS2_EEE21__push_back_slow_pathIS2_EEvOT_, 
                        __ZNSt3__16vectorIP12QuadTreeNodeNS_9allocatorIS2_EEE26__swap_out_circular_bufferERNS_14__split_bufferIS2_RS4_EE, 
                        __ZNSt3__16vectorIP14PKPhysicsShapeNS_9allocatorIS2_EEE21__push_back_slow_pathIRKS2_EEvOT_, 
                        __ZNSt3__16vectorIP14PKPhysicsShapeNS_9allocatorIS2_EEE21__push_back_slow_pathIS2_EEvOT_, 
                        __ZNSt3__16vectorIP14PKPhysicsShapeNS_9allocatorIS2_EEE26__swap_out_circular_bufferERNS_14__split_bufferIS2_RS4_EE, 
                        __ZNSt3__16vectorIP6b2BodyNS_9allocatorIS2_EEE21__push_back_slow_pathIRKS2_EEvOT_, 
                        __ZNSt3__16vectorIP6b2BodyNS_9allocatorIS2_EEE26__swap_out_circular_bufferERNS_14__split_bufferIS2_RS4_EE, 
                        __ZNSt3__16vectorIP6b2BodyNS_9allocatorIS2_EEE7reserveEm, 
                        __ZNSt3__16vectorIP6b2BodyNS_9allocatorIS2_EEED1Ev, 
                        __ZNSt3__16vectorIP7b2JointNS_9allocatorIS2_EEE21__push_back_slow_pathIRKS2_EEvOT_, 
                        __ZNSt3__16vectorIP7b2JointNS_9allocatorIS2_EEE26__swap_out_circular_bufferERNS_14__split_bufferIS2_RS4_EE, 
                        __ZNSt3__16vectorIP7b2JointNS_9allocatorIS2_EEE7reserveEm, 
                        __ZNSt3__16vectorIP7b2JointNS_9allocatorIS2_EEED1Ev, 
                        __ZNSt3__16vectorIP8PKCFieldNS_9allocatorIS2_EEE21__push_back_slow_pathIRKS2_EEvOT_, 
                        __ZNSt3__16vectorIP8PKCFieldNS_9allocatorIS2_EEE21__push_back_slow_pathIS2_EEvOT_, 
                        __ZNSt3__16vectorIP8PKCFieldNS_9allocatorIS2_EEE26__swap_out_circular_bufferERNS_14__split_bufferIS2_RS4_EE, 
                        __ZNSt3__16vectorIP8PKCFieldNS_9allocatorIS2_EEE7reserveEm, 
                        __ZNSt3__16vectorIP8QuadTreeNS_9allocatorIS2_EEE21__push_back_slow_pathIRKS2_EEvOT_, 
                        __ZNSt3__16vectorIP8QuadTreeNS_9allocatorIS2_EEE26__swap_out_circular_bufferERNS_14__split_bufferIS2_RS4_EE, 
                        __ZNSt3__16vectorIP9b2ContactNS_9allocatorIS2_EEE21__push_back_slow_pathIRKS2_EEvOT_, 
                        __ZNSt3__16vectorIP9b2ContactNS_9allocatorIS2_EEE26__swap_out_circular_bufferERNS_14__split_bufferIS2_RS4_EE, 
                        __ZNSt3__16vectorIP9b2ContactNS_9allocatorIS2_EEE7reserveEm, 
                        __ZNSt3__16vectorIP9b2ContactNS_9allocatorIS2_EEED1Ev, 
                        __ZNSt3__16vectorIaNS_9allocatorIaEEE6resizeEm, 
                        __ZNSt3__16vectorIaNS_9allocatorIaEEE8__appendEm, 
                        __ZNSt3__16vectorIhNS_9allocatorIhEEE6resizeEm, 
                        __ZNSt3__16vectorIhNS_9allocatorIhEEE6resizeEmRKh, 
                        __ZNSt3__16vectorIhNS_9allocatorIhEEE8__appendEm, 
                        __ZNSt3__16vectorIhNS_9allocatorIhEEE8__appendEmRKh, 
                        __ZNSt3__16vectorIiNS_9allocatorIiEEE21__push_back_slow_pathIRKiEEvOT_, 
                        __ZNSt3__16vectorIiNS_9allocatorIiEEE21__push_back_slow_pathIiEEvOT_, 
                        __ZNSt3__16vectorIiNS_9allocatorIiEEE26__swap_out_circular_bufferERNS_14__split_bufferIiRS2_EE, 
                        __ZNSt3__18functionIFvffiEEC2ERKS2_, __ZTI11PKDebugDraw, 
                        __ZTI14PKQueryHandler, __ZTI15b2QueryCallback, 
                        __ZTI16PKRayCastHandler, __ZTI17PKContactListener, 
                        __ZTI17b2ContactListener, __ZTI17b2RayCastCallback, 
                        __ZTI26MechanicsCollisionCallback, __ZTI6b2Draw, 
                        __ZTI7b2Joint, __ZTI7b2Shape, __ZTI9b2Contact, 
                        __ZTINSt3__110__function6__baseIFvffiEEE, __ZTINSt3__117bad_function_callE, 
                        __ZTINSt3__120__shared_ptr_emplaceI12PKCFieldDragNS_9allocatorIS1_EEEE, 
                        __ZTINSt3__120__shared_ptr_emplaceI12PKCFieldUserNS_9allocatorIS1_EEEE, 
                        __ZTINSt3__120__shared_ptr_emplaceI13PKCFieldNoiseNS_9allocatorIS1_EEEE, 
                        __ZTINSt3__120__shared_ptr_emplaceI13PKCPathHolderNS_9allocatorIS1_EEEE, 
                        __ZTINSt3__120__shared_ptr_emplaceI14PKCFieldSpringNS_9allocatorIS1_EEEE, 
                        __ZTINSt3__120__shared_ptr_emplaceI14PKCFieldVortexNS_9allocatorIS1_EEEE, 
                        __ZTINSt3__120__shared_ptr_emplaceI16PKCFieldElectricNS_9allocatorIS1_EEEE, 
                        __ZTINSt3__120__shared_ptr_emplaceI16PKCFieldMagneticNS_9allocatorIS1_EEEE, 
                        __ZTINSt3__120__shared_ptr_emplaceI16PKCFieldVelocityNS_9allocatorIS1_EEEE, 
                        __ZTINSt3__120__shared_ptr_emplaceI18PKCFieldTurbulenceNS_9allocatorIS1_EEEE, 
                        __ZTINSt3__120__shared_ptr_emplaceI21PKCFieldLinearGravityNS_9allocatorIS1_EEEE, 
                        __ZTINSt3__120__shared_ptr_emplaceI21PKCFieldRadialGravityNS_9allocatorIS1_EEEE, 
                        __ZTINSt3__120__shared_ptr_emplaceI6PKPathNS_9allocatorIS1_EEEE, 
                        __ZTINSt3__120__shared_ptr_emplaceI7PKCGridNS_9allocatorIS1_EEEE, 
                        __ZTINSt3__120__shared_ptr_emplaceI8QuadTreeNS_9allocatorIS1_EEEE, 
                        __ZTINSt3__120__shared_ptr_pointerIP6PKPathNS_14default_deleteIS1_EENS_9allocatorIS1_EEEE, 
                        __ZTS11PKDebugDraw, __ZTS14PKQueryHandler, __ZTS15b2QueryCallback, 
                        __ZTS16PKRayCastHandler, __ZTS17PKContactListener, 
                        __ZTS17b2ContactListener, __ZTS17b2RayCastCallback, 
                        __ZTS26MechanicsCollisionCallback, __ZTS6b2Draw, 
                        __ZTS7b2Joint, __ZTS7b2Shape, __ZTS9b2Contact, 
                        __ZTSNSt3__110__function6__baseIFvffiEEE, __ZTSNSt3__114default_deleteI6PKPathEE, 
                        __ZTSNSt3__117bad_function_callE, __ZTSNSt3__120__shared_ptr_emplaceI12PKCFieldDragNS_9allocatorIS1_EEEE, 
                        __ZTSNSt3__120__shared_ptr_emplaceI12PKCFieldUserNS_9allocatorIS1_EEEE, 
                        __ZTSNSt3__120__shared_ptr_emplaceI13PKCFieldNoiseNS_9allocatorIS1_EEEE, 
                        __ZTSNSt3__120__shared_ptr_emplaceI13PKCPathHolderNS_9allocatorIS1_EEEE, 
                        __ZTSNSt3__120__shared_ptr_emplaceI14PKCFieldSpringNS_9allocatorIS1_EEEE, 
                        __ZTSNSt3__120__shared_ptr_emplaceI14PKCFieldVortexNS_9allocatorIS1_EEEE, 
                        __ZTSNSt3__120__shared_ptr_emplaceI16PKCFieldElectricNS_9allocatorIS1_EEEE, 
                        __ZTSNSt3__120__shared_ptr_emplaceI16PKCFieldMagneticNS_9allocatorIS1_EEEE, 
                        __ZTSNSt3__120__shared_ptr_emplaceI16PKCFieldVelocityNS_9allocatorIS1_EEEE, 
                        __ZTSNSt3__120__shared_ptr_emplaceI18PKCFieldTurbulenceNS_9allocatorIS1_EEEE, 
                        __ZTSNSt3__120__shared_ptr_emplaceI21PKCFieldLinearGravityNS_9allocatorIS1_EEEE, 
                        __ZTSNSt3__120__shared_ptr_emplaceI21PKCFieldRadialGravityNS_9allocatorIS1_EEEE, 
                        __ZTSNSt3__120__shared_ptr_emplaceI6PKPathNS_9allocatorIS1_EEEE, 
                        __ZTSNSt3__120__shared_ptr_emplaceI7PKCGridNS_9allocatorIS1_EEEE, 
                        __ZTSNSt3__120__shared_ptr_emplaceI8QuadTreeNS_9allocatorIS1_EEEE, 
                        __ZTSNSt3__120__shared_ptr_pointerIP6PKPathNS_14default_deleteIS1_EENS_9allocatorIS1_EEEE, 
                        __ZTV11PKDebugDraw, __ZTV14PKQueryHandler, __ZTV16PKRayCastHandler, 
                        __ZTV17PKContactListener, __ZTV17b2ContactListener, 
                        __ZTV26MechanicsCollisionCallback, __ZTV6b2Draw, 
                        __ZTV7b2Joint, __ZTV9b2Contact, __ZTVNSt3__117bad_function_callE, 
                        __ZTVNSt3__120__shared_ptr_emplaceI12PKCFieldDragNS_9allocatorIS1_EEEE, 
                        __ZTVNSt3__120__shared_ptr_emplaceI12PKCFieldUserNS_9allocatorIS1_EEEE, 
                        __ZTVNSt3__120__shared_ptr_emplaceI13PKCFieldNoiseNS_9allocatorIS1_EEEE, 
                        __ZTVNSt3__120__shared_ptr_emplaceI13PKCPathHolderNS_9allocatorIS1_EEEE, 
                        __ZTVNSt3__120__shared_ptr_emplaceI14PKCFieldSpringNS_9allocatorIS1_EEEE, 
                        __ZTVNSt3__120__shared_ptr_emplaceI14PKCFieldVortexNS_9allocatorIS1_EEEE, 
                        __ZTVNSt3__120__shared_ptr_emplaceI16PKCFieldElectricNS_9allocatorIS1_EEEE, 
                        __ZTVNSt3__120__shared_ptr_emplaceI16PKCFieldMagneticNS_9allocatorIS1_EEEE, 
                        __ZTVNSt3__120__shared_ptr_emplaceI16PKCFieldVelocityNS_9allocatorIS1_EEEE, 
                        __ZTVNSt3__120__shared_ptr_emplaceI18PKCFieldTurbulenceNS_9allocatorIS1_EEEE, 
                        __ZTVNSt3__120__shared_ptr_emplaceI21PKCFieldLinearGravityNS_9allocatorIS1_EEEE, 
                        __ZTVNSt3__120__shared_ptr_emplaceI21PKCFieldRadialGravityNS_9allocatorIS1_EEEE, 
                        __ZTVNSt3__120__shared_ptr_emplaceI6PKPathNS_9allocatorIS1_EEEE, 
                        __ZTVNSt3__120__shared_ptr_emplaceI7PKCGridNS_9allocatorIS1_EEEE, 
                        __ZTVNSt3__120__shared_ptr_emplaceI8QuadTreeNS_9allocatorIS1_EEEE, 
                        __ZTVNSt3__120__shared_ptr_pointerIP6PKPathNS_14default_deleteIS1_EENS_9allocatorIS1_EEEE, 
                        ___clang_call_terminate ]
    objc-classes:    [ _PKPhysicsBody, _BoxedPhysicsShape, _PKPhysicsContact, 
                       _PKPhysicsField, _PKPhysicsFieldCustomBlock, _PKPhysicsFieldDrag, 
                       _PKPhysicsFieldElectric, _PKPhysicsFieldLinearGravity, 
                       _PKPhysicsFieldMagnetic, _PKPhysicsFieldNoise, _PKPhysicsFieldRadialGravity, 
                       _PKPhysicsFieldSpring, _PKPhysicsFieldTurbulence, 
                       _PKPhysicsFieldVelocity, _PKPhysicsFieldVortex, 
                       _PKPhysicsGrid, _PKPhysicsJoint, _PKPhysicsJointDistance, 
                       _PKPhysicsJointPrismatic, _PKPhysicsJointRevolute, 
                       _PKPhysicsJointRope, _PKPhysicsJointWeld, _PKPhysicsWorld, 
                       _PKQuadTree, _PKRegion ]
    objc-ivars:      [ _PKPhysicsBody._edgeRadius, _BoxedPhysicsShape.points, 
                       _BoxedPhysicsShape.shapeType, _PKPhysicsBody._allowsRotation, 
                       _PKPhysicsBody._body, _PKPhysicsBody._bodyDef, _PKPhysicsBody._dynamicType, 
                       _PKPhysicsBody._field, _PKPhysicsBody._inUse, _PKPhysicsBody._isPinned, 
                       _PKPhysicsBody._joints, _PKPhysicsBody._mask, _PKPhysicsBody._outline, 
                       _PKPhysicsBody._p0, _PKPhysicsBody._p1, _PKPhysicsBody._pathPtr, 
                       _PKPhysicsBody._postStepBlock, _PKPhysicsBody._quadTree, 
                       _PKPhysicsBody._radius, _PKPhysicsBody._representedObject, 
                       _PKPhysicsBody._shapeType, _PKPhysicsBody._shapes, 
                       _PKPhysicsBody._size, _PKPhysicsBody._world, _PKPhysicsContact._bodyA, 
                       _PKPhysicsContact._bodyB, _PKPhysicsContact._contactNormal, 
                       _PKPhysicsContact._contactPoint, _PKPhysicsContact._didBegin, 
                       _PKPhysicsContact._didEnd, _PKPhysicsContact._impulse, 
                       _PKPhysicsField._field, _PKPhysicsField._override, 
                       _PKPhysicsField._position, _PKPhysicsField._region, 
                       _PKPhysicsField._rotation, _PKPhysicsField._scale, 
                       _PKPhysicsFieldCustomBlock._batchBlock, _PKPhysicsFieldCustomBlock._block, 
                       _PKPhysicsGrid.grid, _PKPhysicsGrid.quadTree, _PKPhysicsJoint._baseJoint, 
                       _PKPhysicsJoint._bodyA, _PKPhysicsJoint._bodyB, 
                       _PKPhysicsJoint._implicit, _PKPhysicsJoint._inUse, 
                       _PKPhysicsJointDistance._anchorA, _PKPhysicsJointDistance._anchorB, 
                       _PKPhysicsJointDistance._joint, _PKPhysicsJointDistance._jointDef, 
                       _PKPhysicsJointPrismatic._anchor, _PKPhysicsJointPrismatic._axis, 
                       _PKPhysicsJointPrismatic._joint, _PKPhysicsJointPrismatic._jointDef, 
                       _PKPhysicsJointRevolute._anchor, _PKPhysicsJointRevolute._joint, 
                       _PKPhysicsJointRevolute._jointDef, _PKPhysicsJointRope._anchorA, 
                       _PKPhysicsJointRope._anchorB, _PKPhysicsJointRope._joint, 
                       _PKPhysicsJointRope._jointDef, _PKPhysicsJointWeld._anchor, 
                       _PKPhysicsJointWeld._joint, _PKPhysicsJointWeld._jointDef, 
                       _PKPhysicsWorld._accumulatedDt, _PKPhysicsWorld._bodies, 
                       _PKPhysicsWorld._contactListener, _PKPhysicsWorld._doSleep, 
                       _PKPhysicsWorld._gravity, _PKPhysicsWorld._joints, 
                       _PKPhysicsWorld._postStepBlocks, _PKPhysicsWorld._speed, 
                       _PKPhysicsWorld._world, _PKPhysicsWorld.drawPacket, 
                       _PKQuadTree.quadTree, _PKRegion._halfExtent, _PKRegion._halfExtent2, 
                       _PKRegion._isExclusive, _PKRegion._path, _PKRegion._path2, 
                       _PKRegion._regionOp, _PKRegion._shape, _PKRegion._shape2 ]
...
