---
archs:           [ armv7, armv7s, arm64 ]
platform:        ios
install-name:    /System/Library/PrivateFrameworks/SafariSafeBrowsing.framework/SafariSafeBrowsing
current-version: 0.0
compatibility-version: 0.0
exports:         
  - archs:           [ armv7, armv7s, arm64 ]
    symbols:         [ _SSBLookupContextDatabasesDidUpdateNotification, 
                       '+[SSBLookupContext sharedLookupContext]', '+[SSBLookupResult supportsSecureCoding]', 
                       '-[NSURL(SSBExtras) ssb_hasUserInfo]', '-[NSURL(SSBExtras) ssb_isSafeURL]', 
                       '-[SSBLookupContext .cxx_construct]', '-[SSBLookupContext .cxx_destruct]', 
                       '-[SSBLookupContext dealloc]', '-[SSBLookupContext getLastDatabaseUpdateTimeWithCompletionHandler:]', 
                       '-[SSBLookupContext init]', '-[SSBLookupContext lookUpURL:completionHandler:]', 
                       '-[SSBLookupContext(SSBPrivate) _forceDatabaseUpdateWithCompletionHandler:]', 
                       '-[SSBLookupContext(SSBPrivate) _getDatabaseStatusWithCompletionHandler:]', 
                       '-[SSBLookupContext(SSBPrivate) _getServiceStatusWithCompletionHandler:]', 
                       '-[SSBLookupResult .cxx_construct]', '-[SSBLookupResult URLContainsUserInfo]', 
                       '-[SSBLookupResult _initWithLookupResult:]', '-[SSBLookupResult copyWithZone:]', 
                       '-[SSBLookupResult encodeWithCoder:]', '-[SSBLookupResult initWithCoder:]', 
                       '-[SSBLookupResult isKnownToBeUnsafe]', '-[SSBLookupResult isMalware]', 
                       '-[SSBLookupResult isPhishing]', '-[SSBLookupResult isUnwantedSoftware]', 
                       '-[_SSBDatabaseStatus .cxx_construct]', '-[_SSBDatabaseStatus .cxx_destruct]', 
                       '-[_SSBDatabaseStatus databaseCount]', '-[_SSBDatabaseStatus hashCountOfDatabaseAtIndex:]', 
                       '-[_SSBDatabaseStatus initWithDatabaseStatus:]', 
                       '-[_SSBDatabaseStatus lastUpdateTimeOfDatabaseAtIndex:]', 
                       '-[_SSBDatabaseStatus nameOfDatabaseAtIndex:]', 
                       '-[_SSBDatabaseStatus nextPollingTimeOfDatabaseAtIndex:]', 
                       '-[_SSBDatabaseStatus sizeOfDatabaseAtIndex:]', 
                       '-[_SSBSafeHashCache .cxx_construct]', '-[_SSBSafeHashCache .cxx_destruct]', 
                       '-[_SSBSafeHashCache addHashesForURL:]', '-[_SSBSafeHashCache clear]', 
                       '-[_SSBSafeHashCache containsHashesForURL:]', '-[_SSBSafeHashCache init]', 
                       '-[_SSBServiceStatus .cxx_construct]', '-[_SSBServiceStatus .cxx_destruct]', 
                       '-[_SSBServiceStatus activeTransactions]', '-[_SSBServiceStatus bundleIdentifierForConnectionAtIndex:]', 
                       '-[_SSBServiceStatus connectionCount]', '-[_SSBServiceStatus databaseUpdaterState]', 
                       '-[_SSBServiceStatus initWithServiceStatus:]', '-[_SSBServiceStatus name]', 
                       '-[_SSBServiceStatus processIdentifierForConnectionAtIndex:]', 
                       '-[_SSBServiceStatus processIdentifier]', GCC_except_table0, 
                       GCC_except_table0, GCC_except_table0, GCC_except_table0, 
                       GCC_except_table0, GCC_except_table0, GCC_except_table0, 
                       GCC_except_table0, GCC_except_table0, GCC_except_table0, 
                       GCC_except_table0, GCC_except_table0, GCC_except_table0, 
                       GCC_except_table0, GCC_except_table1, GCC_except_table1, 
                       GCC_except_table1, GCC_except_table1, GCC_except_table1, 
                       GCC_except_table1, GCC_except_table1, GCC_except_table10, 
                       GCC_except_table10, GCC_except_table101, GCC_except_table106, 
                       GCC_except_table107, GCC_except_table11, GCC_except_table11, 
                       GCC_except_table11, GCC_except_table11, GCC_except_table110, 
                       GCC_except_table111, GCC_except_table114, GCC_except_table115, 
                       GCC_except_table12, GCC_except_table12, GCC_except_table12, 
                       GCC_except_table12, GCC_except_table12, GCC_except_table122, 
                       GCC_except_table122, GCC_except_table123, GCC_except_table128, 
                       GCC_except_table13, GCC_except_table13, GCC_except_table13, 
                       GCC_except_table13, GCC_except_table13, GCC_except_table13, 
                       GCC_except_table14, GCC_except_table14, GCC_except_table14, 
                       GCC_except_table14, GCC_except_table14, GCC_except_table14, 
                       GCC_except_table15, GCC_except_table15, GCC_except_table15, 
                       GCC_except_table15, GCC_except_table16, GCC_except_table16, 
                       GCC_except_table17, GCC_except_table17, GCC_except_table17, 
                       GCC_except_table17, GCC_except_table18, GCC_except_table18, 
                       GCC_except_table18, GCC_except_table18, GCC_except_table19, 
                       GCC_except_table19, GCC_except_table19, GCC_except_table2, 
                       GCC_except_table2, GCC_except_table2, GCC_except_table2, 
                       GCC_except_table2, GCC_except_table20, GCC_except_table21, 
                       GCC_except_table21, GCC_except_table21, GCC_except_table21, 
                       GCC_except_table21, GCC_except_table22, GCC_except_table22, 
                       GCC_except_table22, GCC_except_table24, GCC_except_table24, 
                       GCC_except_table25, GCC_except_table25, GCC_except_table25, 
                       GCC_except_table25, GCC_except_table26, GCC_except_table26, 
                       GCC_except_table26, GCC_except_table26, GCC_except_table27, 
                       GCC_except_table27, GCC_except_table28, GCC_except_table28, 
                       GCC_except_table29, GCC_except_table29, GCC_except_table3, 
                       GCC_except_table3, GCC_except_table30, GCC_except_table31, 
                       GCC_except_table31, GCC_except_table32, GCC_except_table32, 
                       GCC_except_table33, GCC_except_table33, GCC_except_table33, 
                       GCC_except_table34, GCC_except_table34, GCC_except_table35, 
                       GCC_except_table35, GCC_except_table35, GCC_except_table35, 
                       GCC_except_table36, GCC_except_table36, GCC_except_table37, 
                       GCC_except_table37, GCC_except_table38, GCC_except_table38, 
                       GCC_except_table38, GCC_except_table39, GCC_except_table4, 
                       GCC_except_table4, GCC_except_table4, GCC_except_table4, 
                       GCC_except_table4, GCC_except_table4, GCC_except_table4, 
                       GCC_except_table4, GCC_except_table41, GCC_except_table41, 
                       GCC_except_table41, GCC_except_table42, GCC_except_table43, 
                       GCC_except_table43, GCC_except_table43, GCC_except_table44, 
                       GCC_except_table47, GCC_except_table48, GCC_except_table5, 
                       GCC_except_table5, GCC_except_table5, GCC_except_table5, 
                       GCC_except_table5, GCC_except_table5, GCC_except_table5, 
                       GCC_except_table5, GCC_except_table5, GCC_except_table5, 
                       GCC_except_table5, GCC_except_table50, GCC_except_table50, 
                       GCC_except_table51, GCC_except_table52, GCC_except_table52, 
                       GCC_except_table53, GCC_except_table54, GCC_except_table54, 
                       GCC_except_table55, GCC_except_table57, GCC_except_table57, 
                       GCC_except_table6, GCC_except_table6, GCC_except_table6, 
                       GCC_except_table6, GCC_except_table6, GCC_except_table6, 
                       GCC_except_table6, GCC_except_table6, GCC_except_table6, 
                       GCC_except_table6, GCC_except_table65, GCC_except_table65, 
                       GCC_except_table7, GCC_except_table7, GCC_except_table7, 
                       GCC_except_table7, GCC_except_table7, GCC_except_table7, 
                       GCC_except_table7, GCC_except_table70, GCC_except_table71, 
                       GCC_except_table71, GCC_except_table73, GCC_except_table74, 
                       GCC_except_table77, GCC_except_table78, GCC_except_table8, 
                       GCC_except_table8, GCC_except_table8, GCC_except_table8, 
                       GCC_except_table80, GCC_except_table85, GCC_except_table9, 
                       GCC_except_table9, GCC_except_table9, GCC_except_table93, 
                       GCC_except_table97, GCC_except_table98, __ZGVZN12SafeBrowsing7Service6sharedEvE7service, 
                       __ZGVZN8Platform16xpcErrorCategoryEvE16xpcErrorCategory, 
                       __ZGVZN8PlatformL18activeTransactionsEvE18activeTransactions, 
                       __ZL25nsErrorFromReplyErrorCodeNSt3__110error_codeE, 
                       __ZN10EnumTraits11isValidEnumIN7Backend6Google10ThreatTypeEEEbT_, 
                       __ZN10EnumTraits11isValidEnumIN7Backend6Google12PlatformTypeEEEbT_, 
                       __ZN10EnumTraits11isValidEnumIN7Backend6Google12ResponseTypeEEEbT_, 
                       __ZN10EnumTraits11isValidEnumIN7Backend6Google15CompressionTypeEEEbT_, 
                       __ZN10EnumTraits11isValidEnumIN7Backend6Google15ThreatEntryTypeEEEbT_, 
                       __ZN12SafeBrowsing13LookupContext12lookupHashesEP5NSURL, 
                       __ZN12SafeBrowsing13LookupContext14databaseStatusEv, 
                       __ZN12SafeBrowsing13LookupContext15checkFullHashesEP5NSURLNSt3__16vectorIN7Backend6Google15FullHashRequestENS3_9allocatorIS7_EEEENS3_8functionIFvNS5_12LookupResultENS3_10error_codeEEEE, 
                       __ZN12SafeBrowsing13LookupContext16ensureConnectionEv, 
                       __ZN12SafeBrowsing13LookupContext16getServiceStatusENSt3__18functionIFvNS_13ServiceStatusENS1_10error_codeEEEE, 
                       __ZN12SafeBrowsing13LookupContext16performURLLookupEP5NSURLNSt3__18functionIFvN7Backend12LookupResultENS3_10error_codeEEEE, 
                       __ZN12SafeBrowsing13LookupContext17getDatabaseStatusENSt3__18functionIFvNS_14DatabaseStatusENS1_10error_codeEEEE, 
                       __ZN12SafeBrowsing13LookupContext19forceDatabaseUpdateENSt3__18functionIFvNS1_10error_codeEEEE, 
                       __ZN12SafeBrowsing13LookupContext21handleConnectionErrorEPU24objcproto13OS_xpc_object8NSObject, 
                       __ZN12SafeBrowsing13LookupContext21handleConnectionEventEPU24objcproto13OS_xpc_object8NSObject, 
                       __ZN12SafeBrowsing13LookupContext23handleGetDatabasesReplyEPU24objcproto13OS_xpc_object8NSObject, 
                       __ZN12SafeBrowsing13LookupContext25addDatabaseUpdateObserverENSt3__18functionIFvvEEE, 
                       __ZN12SafeBrowsing13LookupContext25getLastDatabaseUpdateTimeENSt3__18functionIFvNS1_6chrono10time_pointINS3_12system_clockENS3_8durationIxNS1_5ratioILl1ELl1000000EEEEEEENS1_10error_codeEEEE, 
                       __ZN12SafeBrowsing13LookupContext26handleCheckFullHashesReplyEP5NSURLPU24objcproto13OS_xpc_object8NSObjectNSt3__18functionIFvN7Backend12LookupResultENS6_10error_codeEEEE, 
                       __ZN12SafeBrowsing13LookupContext27handleGetServiceStatusReplyEPU24objcproto13OS_xpc_object8NSObjectNSt3__18functionIFvNS_13ServiceStatusENS4_10error_codeEEEE, 
                       __ZN12SafeBrowsing13LookupContext28removeDatabaseUpdateObserverEj, 
                       __ZN12SafeBrowsing13LookupContext30registerForUpdateNotificationsEv, 
                       __ZN12SafeBrowsing13LookupContext30serviceDidFinishDatabaseUpdateEv, 
                       __ZN12SafeBrowsing13LookupContext33dispatchWhenDatabasesAreAvailableENSt3__18functionIFvNS1_10error_codeEEEE, 
                       __ZN12SafeBrowsing13LookupContext9lookUpURLEP5NSURLNSt3__18functionIFvN7Backend12LookupResultENS3_10error_codeEEEE, 
                       __ZN12SafeBrowsing13LookupContextC1Ev, __ZN12SafeBrowsing13LookupContextC2Ev, 
                       __ZN12SafeBrowsing13LookupContextD1Ev, __ZN12SafeBrowsing13LookupContextD2Ev, 
                       __ZN12SafeBrowsing13SafeHashCache11addUnlockedERKNSt3__15arrayIhLm32EEE, 
                       __ZN12SafeBrowsing13SafeHashCache3addERKNSt3__15arrayIhLm32EEE, 
                       __ZN12SafeBrowsing13SafeHashCache3addERKNSt3__16vectorINS1_5arrayIhLm32EEENS1_9allocatorIS4_EEEE, 
                       __ZN12SafeBrowsing13SafeHashCache5emptyEv, __ZN12SafeBrowsing13SafeHashCacheC1Em, 
                       __ZN12SafeBrowsing13SafeHashCacheC2Em, __ZN12SafeBrowsing13SafeHashCacheD1Ev, 
                       __ZN12SafeBrowsing13SafeHashCacheD2Ev, __ZN12SafeBrowsing7Service10initializeEv, 
                       __ZN12SafeBrowsing7Service13didFailUpdateERN7Backend6Google15DatabaseUpdaterENSt3__16chrono10time_pointINS6_12system_clockENS6_8durationIxNS5_5ratioILl1ELl1000000EEEEEEE, 
                       __ZN12SafeBrowsing7Service14didBeginUpdateERN7Backend6Google15DatabaseUpdaterE, 
                       __ZN12SafeBrowsing7Service15didFinishUpdateERN7Backend6Google15DatabaseUpdaterENSt3__16vectorINS2_12DatabaseInfoENS5_9allocatorIS7_EEEENS5_6chrono10time_pointINSB_12system_clockENSB_8durationIxNS5_5ratioILl1ELl1000000EEEEEEE, 
                       __ZN12SafeBrowsing7Service16didLoadDatabasesERN7Backend6Google15DatabaseUpdaterENSt3__16vectorINS2_12DatabaseInfoENS5_9allocatorIS7_EEEENS5_6chrono10time_pointINSB_12system_clockENSB_8durationIxNS5_5ratioILl1ELl1000000EEEEEEE, 
                       __ZN12SafeBrowsing7Service18handleGetDatabasesEPU24objcproto13OS_xpc_object8NSObject, 
                       __ZN12SafeBrowsing7Service19handleNewConnectionEPU24objcproto13OS_xpc_object8NSObject, 
                       __ZN12SafeBrowsing7Service21handleCheckFullHashesEPU24objcproto13OS_xpc_object8NSObject, 
                       __ZN12SafeBrowsing7Service21handleConnectionErrorEPU24objcproto13OS_xpc_object8NSObjectS3_, 
                       __ZN12SafeBrowsing7Service21handleConnectionEventEPU24objcproto13OS_xpc_object8NSObjectS3_, 
                       __ZN12SafeBrowsing7Service21sendGetDatabasesReplyEPU24objcproto13OS_xpc_object8NSObject, 
                       __ZN12SafeBrowsing7Service22handleGetServiceStatusEPU24objcproto13OS_xpc_object8NSObject, 
                       __ZN12SafeBrowsing7Service22registerUpdateActivityENSt3__16chrono10time_pointINS2_12system_clockENS2_8durationIxNS1_5ratioILl1ELl1000000EEEEEEE, 
                       __ZN12SafeBrowsing7Service23handleConnectionMessageEPU24objcproto13OS_xpc_object8NSObject, 
                       __ZN12SafeBrowsing7Service25handleForceDatabaseUpdateEPU24objcproto13OS_xpc_object8NSObject, 
                       __ZN12SafeBrowsing7Service31checkInOrRegisterUpdateActivityENSt3__16chrono10time_pointINS2_12system_clockENS2_8durationIxNS1_5ratioILl1ELl1000000EEEEEEE, 
                       __ZN12SafeBrowsing7Service4mainEv, __ZN12SafeBrowsing7Service6sharedEv, 
                       __ZN12SafeBrowsing7ServiceC1Ev, __ZN12SafeBrowsing7ServiceC2Ev, 
                       __ZN12SafeBrowsingL13createMessageENS_14ServiceMessageE, 
                       __ZN12SafeBrowsingL22createActivityCriteriaENSt3__16chrono8durationIxNS0_5ratioILl1ELl1000000EEEEE, 
                       __ZN7Backend6Google10ClientInfoC1ENSt3__112basic_stringIcNS2_11char_traitsIcEENS2_9allocatorIcEEEES8_, 
                       __ZN7Backend6Google10ClientInfoC2ENSt3__112basic_stringIcNS2_11char_traitsIcEENS2_9allocatorIcEEEES8_, 
                       __ZN7Backend6Google10ClientInfoD1Ev, __ZN7Backend6Google10ClientInfoD2Ev, 
                       __ZN7Backend6Google12CanonicalURL15canonicalizeURLENSt3__16vectorIhNS2_9allocatorIhEEEE, 
                       __ZN7Backend6Google12CanonicalURL15canonicalizeURLEPK7__CFURL, 
                       __ZN7Backend6Google12DatabaseInfoC1ERKNS0_20ThreatListDescriptorE, 
                       __ZN7Backend6Google12DatabaseInfoC2ERKNS0_20ThreatListDescriptorE, 
                       __ZN7Backend6Google12DatabaseInfoD1Ev, __ZN7Backend6Google12DatabaseInfoD2Ev, 
                       __ZN7Backend6Google12_GLOBAL__N_125RiceDeltaEncodingIterator7nextBitEv, 
                       __ZN7Backend6Google12_GLOBAL__N_125RiceDeltaEncodingIteratorppEv, 
                       __ZN7Backend6Google12_GLOBAL__N_1neERKNS1_25RiceDeltaEncodingIteratorES4_, 
                       __ZN7Backend6Google13ConfigurationC1ENSt3__112basic_stringIcNS2_11char_traitsIcEENS2_9allocatorIcEEEES8_S8_, 
                       __ZN7Backend6Google13ConfigurationC2ENSt3__112basic_stringIcNS2_11char_traitsIcEENS2_9allocatorIcEEEES8_S8_, 
                       __ZN7Backend6Google13ConfigurationD1Ev, __ZN7Backend6Google13ConfigurationD2Ev, 
                       __ZN7Backend6Google13FullHashCache13addSafePrefixERKNS0_20ThreatListDescriptorERKNS0_4HashENSt3__16chrono10time_pointINS9_12system_clockENS9_8durationIxNS8_5ratioILl1ELl1000000EEEEEEE, 
                       __ZN7Backend6Google13FullHashCache17addUnsafeFullHashERKNS0_20ThreatListDescriptorERKNSt3__15arrayIhLm32EEEhNS5_6chrono10time_pointINSA_12system_clockENSA_8durationIxNS5_5ratioILl1ELl1000000EEEEEEENSt12experimental15fundamentals_v18optionalISH_EE, 
                       __ZN7Backend6Google13FullHashCache20expirationTimerFiredEv, 
                       __ZN7Backend6Google13FullHashCache21updateExpirationTimerEv, 
                       __ZN7Backend6Google13FullHashCacheC1EPU28objcproto17OS_dispatch_queue8NSObject, 
                       __ZN7Backend6Google13FullHashCacheC2EPU28objcproto17OS_dispatch_queue8NSObject, 
                       __ZN7Backend6Google13FullHashCacheD1Ev, __ZN7Backend6Google13FullHashCacheD2Ev, 
                       __ZN7Backend6Google13percentEscapeERNSt3__16vectorIhNS1_9allocatorIhEEEE, 
                       __ZN7Backend6Google15DatabaseUpdater10initializeEv, 
                       __ZN7Backend6Google15DatabaseUpdater12findDatabaseERKNS0_20ThreatListDescriptorE, 
                       __ZN7Backend6Google15DatabaseUpdater13didFailUpdateEv, 
                       __ZN7Backend6Google15DatabaseUpdater14deleteDatabaseERNS0_12DatabaseInfoE, 
                       __ZN7Backend6Google15DatabaseUpdater19fetchEncodedUpdatesEv, 
                       __ZN7Backend6Google15DatabaseUpdater20writeUpdatedDatabaseERNS0_12DatabaseInfoERKNS0_18ListUpdateResponseENSt3__16chrono10time_pointINS8_12system_clockENS8_8durationIxNS7_5ratioILl1ELl1000000EEEEEEE, 
                       __ZN7Backend6Google15DatabaseUpdater21mapDatabaseIntoMemoryERNS0_12DatabaseInfoEN8Platform14FileDescriptorE, 
                       __ZN7Backend6Google15DatabaseUpdater22didFetchEncodedUpdatesEP6NSDataP17NSHTTPURLResponseP7NSError, 
                       __ZN7Backend6Google15DatabaseUpdater22verifyDatabaseChecksumERKNS0_12DatabaseInfoERKNSt3__15arrayIhLm32EEE, 
                       __ZN7Backend6Google15DatabaseUpdater23unmapDatabaseFromMemoryERNS0_12DatabaseInfoE, 
                       __ZN7Backend6Google15DatabaseUpdater6updateEv, __ZN7Backend6Google15DatabaseUpdaterC1ERNS1_6ClientEPU28objcproto17OS_dispatch_queue8NSObjectNSt3__110shared_ptrIN8Platform6LoggerEEENS0_13ConfigurationENS7_12basic_stringIcNS7_11char_traitsIcEENS7_9allocatorIcEEEERKNS7_6vectorINS0_20ThreatListDescriptorENSG_ISK_EEEE, 
                       __ZN7Backend6Google15DatabaseUpdaterC2ERNS1_6ClientEPU28objcproto17OS_dispatch_queue8NSObjectNSt3__110shared_ptrIN8Platform6LoggerEEENS0_13ConfigurationENS7_12basic_stringIcNS7_11char_traitsIcEENS7_9allocatorIcEEEERKNS7_6vectorINS0_20ThreatListDescriptorENSG_ISK_EEEE, 
                       __ZN7Backend6Google15DatabaseUpdaterD1Ev, __ZN7Backend6Google15DatabaseUpdaterD2Ev, 
                       __ZN7Backend6Google15FullHashChecker11checkHashesENSt3__110shared_ptrINS1_5CheckEEE, 
                       __ZN7Backend6Google15FullHashChecker11checkHashesENSt3__16vectorINS0_15FullHashRequestENS2_9allocatorIS4_EEEEPU28objcproto17OS_dispatch_queue8NSObjectNS2_8functionIFvNS3_INS0_20ThreatListDescriptorENS5_ISC_EEEEEEE, 
                       __ZN7Backend6Google15FullHashChecker17handleFetchResultERKNS1_12FetchRequestERKNS0_28FindFullHashesResponseParser6ResultE, 
                       __ZN7Backend6Google15FullHashChecker18handleFetchFailureERKNS1_12FetchRequestE, 
                       __ZN7Backend6Google15FullHashCheckerC1ERKNS0_13ConfigurationE, 
                       __ZN7Backend6Google15FullHashCheckerC2ERKNS0_13ConfigurationE, 
                       __ZN7Backend6Google15FullHashCheckerD1Ev, __ZN7Backend6Google15FullHashCheckerD2Ev, 
                       __ZN7Backend6Google15FullHashFetcher11fetchHashesENSt3__16vectorINS0_15FullHashRequestENS2_9allocatorIS4_EEEEPU28objcproto17OS_dispatch_queue8NSObjectNS2_8functionIFvNSt12experimental15fundamentals_v18optionalINS0_28FindFullHashesResponseParser6ResultEEEEEE, 
                       __ZN7Backend6Google15FullHashFetcher14waitTimerFiredEv, 
                       __ZN7Backend6Google15FullHashFetcher18didFetchFullHashesEP6NSDataP17NSHTTPURLResponseP7NSErrorPU28objcproto17OS_dispatch_queue8NSObjectNSt3__18functionIFvNSt12experimental15fundamentals_v18optionalINS0_28FindFullHashesResponseParser6ResultEEEEEE, 
                       __ZN7Backend6Google15FullHashFetcher22setMinimumWaitDurationENSt3__16chrono8durationIxNS2_5ratioILl1ELl1EEEEE, 
                       __ZN7Backend6Google15FullHashFetcherC1ERKNS0_13ConfigurationE, 
                       __ZN7Backend6Google15FullHashFetcherC2ERKNS0_13ConfigurationE, 
                       __ZN7Backend6Google15FullHashFetcherD1Ev, __ZN7Backend6Google15FullHashFetcherD2Ev, 
                       __ZN7Backend6Google15FullHashRequest7fromXPCEPU24objcproto13OS_xpc_object8NSObject, 
                       __ZN7Backend6Google15FullHashRequestC1ERKNSt3__15arrayIhLm32EEEhRKNS0_20ThreatListDescriptorEN8Platform9ArrayViewIhEE, 
                       __ZN7Backend6Google15FullHashRequestC1ERKS1_, __ZN7Backend6Google15FullHashRequestC2ERKNSt3__15arrayIhLm32EEEhRKNS0_20ThreatListDescriptorEN8Platform9ArrayViewIhEE, 
                       __ZN7Backend6Google15FullHashRequestC2ERKS1_, __ZN7Backend6Google15FullHashRequestD1Ev, 
                       __ZN7Backend6Google15FullHashRequestD2Ev, __ZN7Backend6Google15ProtocolBuffers8wireTypeENS1_9FieldTypeE, 
                       __ZN7Backend6Google16canonicalizePathERNSt3__16vectorIhNS1_9allocatorIhEEEE, 
                       __ZN7Backend6Google16computePathPartsENSt3__111__wrap_iterIPKhEES5_S5_S5_, 
                       __ZN7Backend6Google20DatabaseUpdateWriter11writeHeaderENSt3__16chrono10time_pointINS3_12system_clockENS3_8durationIxNS2_5ratioILl1ELl1000000EEEEEEE, 
                       __ZN7Backend6Google20DatabaseUpdateWriter15writeUpdateHashENS0_8HashViewE, 
                       __ZN7Backend6Google20DatabaseUpdateWriter16writeClientStateEv, 
                       __ZN7Backend6Google20DatabaseUpdateWriter17writeDatabaseHashENS0_8HashViewERNS0_12HashIteratorES3_, 
                       __ZN7Backend6Google20DatabaseUpdateWriter19writeHashSizeBucketEhNS0_12HashIteratorES2_S2_S2_, 
                       __ZN7Backend6Google20DatabaseUpdateWriter20writeHashSizeBucketsEv, 
                       __ZN7Backend6Google20DatabaseUpdateWriter8finalizeENSt3__16chrono10time_pointINS3_12system_clockENS3_8durationIxNS2_5ratioILl1ELl1000000EEEEEEE, 
                       __ZN7Backend6Google20DatabaseUpdateWriter9writeDataERN8Platform12OutputStreamE, 
                       __ZN7Backend6Google20DatabaseUpdateWriter9writeDataEv, 
                       __ZN7Backend6Google20DatabaseUpdateWriterC1ENSt3__110shared_ptrIN8Platform6LoggerEEERKNS0_8DatabaseENS2_6chrono10time_pointINSA_12system_clockENSA_8durationIxNS2_5ratioILl1ELl1000000EEEEEEERKNS0_18ListUpdateResponseE, 
                       __ZN7Backend6Google20DatabaseUpdateWriterC2ENSt3__110shared_ptrIN8Platform6LoggerEEERKNS0_8DatabaseENS2_6chrono10time_pointINSA_12system_clockENSA_8durationIxNS2_5ratioILl1ELl1000000EEEEEEERKNS0_18ListUpdateResponseE, 
                       __ZN7Backend6Google20DatabaseUpdateWriterD1Ev, __ZN7Backend6Google20DatabaseUpdateWriterD2Ev, 
                       __ZN7Backend6Google20ThreatListDescriptor7fromXPCEPU24objcproto13OS_xpc_object8NSObject, 
                       __ZN7Backend6Google20canonicalizeHostNameERNSt3__16vectorIhNS1_9allocatorIhEEEERb, 
                       __ZN7Backend6Google20computeHostNamePartsENSt3__111__wrap_iterIPKhEES5_b, 
                       __ZN7Backend6Google21ProtocolMessageReader10readStringEv, 
                       __ZN7Backend6Google21ProtocolMessageReader10readVarintERj, 
                       __ZN7Backend6Google21ProtocolMessageReader10readVarintERy, 
                       __ZN7Backend6Google21ProtocolMessageReader13readFieldTypeERNS1_9FieldTypeE, 
                       __ZN7Backend6Google21ProtocolMessageReader14read32BitFieldERj, 
                       __ZN7Backend6Google21ProtocolMessageReader14read64BitFieldERy, 
                       __ZN7Backend6Google21ProtocolMessageReader14skip32BitFieldEv, 
                       __ZN7Backend6Google21ProtocolMessageReader14skip64BitFieldEv, 
                       __ZN7Backend6Google21ProtocolMessageReader15readVarintFieldERj, 
                       __ZN7Backend6Google21ProtocolMessageReader15readVarintFieldERy, 
                       __ZN7Backend6Google21ProtocolMessageReader15skipVarintFieldEv, 
                       __ZN7Backend6Google21ProtocolMessageReader23readRepeatedPackedInt32Ev, 
                       __ZN7Backend6Google21ProtocolMessageReader24readLengthDelimitedFieldERPKhS4_, 
                       __ZN7Backend6Google21ProtocolMessageReader24skipLengthDelimitedFieldEv, 
                       __ZN7Backend6Google21ProtocolMessageReader9nextFieldERj, 
                       __ZN7Backend6Google21ProtocolMessageReader9readBytesERPKhS4_, 
                       __ZN7Backend6Google21ProtocolMessageReader9readBytesEv, 
                       __ZN7Backend6Google21ProtocolMessageReader9readInt32ERi, 
                       __ZN7Backend6Google21ProtocolMessageReader9skipFieldENS1_9FieldTypeE, 
                       __ZN7Backend6Google21ProtocolMessageReader9skipFieldEv, 
                       __ZN7Backend6Google21ProtocolMessageReader9skipGroupEv, 
                       __ZN7Backend6Google21ProtocolMessageReaderC1EPKhS3_, 
                       __ZN7Backend6Google21ProtocolMessageReaderC2EPKhS3_, 
                       __ZN7Backend6Google21ProtocolMessageWriter10writeBytesEjPKhS3_, 
                       __ZN7Backend6Google21ProtocolMessageWriter11writeVarintEj, 
                       __ZN7Backend6Google21ProtocolMessageWriter11writeVarintEy, 
                       __ZN7Backend6Google21ProtocolMessageWriter16writeStringFieldEjRKNSt3__112basic_stringIcNS2_11char_traitsIcEENS2_9allocatorIcEEEE, 
                       __ZN7Backend6Google21ProtocolMessageWriter16writeUInt32FieldEjj, 
                       __ZN7Backend6Google21ProtocolMessageWriter25writeEmbeddedMessageFieldEjRKNSt3__18functionIFvRS1_EEE, 
                       __ZN7Backend6Google21ProtocolMessageWriter6finishEv, 
                       __ZN7Backend6Google21ProtocolMessageWriter8writeTagEjNS0_15ProtocolBuffers9FieldTypeE, 
                       __ZN7Backend6Google21ProtocolMessageWriterC1Ev, 
                       __ZN7Backend6Google21ProtocolMessageWriterC2Ev, 
                       __ZN7Backend6Google21ProtocolMessageWriterD1Ev, 
                       __ZN7Backend6Google21ProtocolMessageWriterD2Ev, 
                       __ZN7Backend6Google21canonicalizeIPAddressERNSt3__16vectorIhNS1_9allocatorIhEEEE, 
                       __ZN7Backend6Google22unescapePercentEscapesERNSt3__16vectorIhNS1_9allocatorIhEEEE, 
                       __ZN7Backend6Google28FindFullHashesResponseParser13parseDurationERNS0_21ProtocolMessageReaderE, 
                       __ZN7Backend6Google28FindFullHashesResponseParser16parseThreatEntryERNS0_21ProtocolMessageReaderE, 
                       __ZN7Backend6Google28FindFullHashesResponseParser16parseThreatMatchERNS0_21ProtocolMessageReaderE, 
                       __ZN7Backend6Google28FindFullHashesResponseParser24parseThreatEntryMetadataERNS0_21ProtocolMessageReaderE, 
                       __ZN7Backend6Google28FindFullHashesResponseParser27parseFindFullHashesResponseERNS0_21ProtocolMessageReaderE, 
                       __ZN7Backend6Google28FindFullHashesResponseParser29parseThreatEntryMetadataEntryERNS0_21ProtocolMessageReaderE, 
                       __ZN7Backend6Google28FindFullHashesResponseParser6finishEv, 
                       __ZN7Backend6Google28FindFullHashesResponseParserC1EPKhm, 
                       __ZN7Backend6Google28FindFullHashesResponseParserC2EPKhm, 
                       __ZN7Backend6Google28FindFullHashesResponseParserD1Ev, 
                       __ZN7Backend6Google28FindFullHashesResponseParserD2Ev, 
                       __ZN7Backend6Google31FindFullHashesRequestSerializer13addHashPrefixERKNS0_8HashViewERKNS0_20ThreatListDescriptorEN8Platform9ArrayViewIhEE, 
                       __ZN7Backend6Google31FindFullHashesRequestSerializerC1ERKNS0_10ClientInfoE, 
                       __ZN7Backend6Google31FindFullHashesRequestSerializerC2ERKNS0_10ClientInfoE, 
                       __ZN7Backend6Google31FindFullHashesRequestSerializerD1Ev, 
                       __ZN7Backend6Google31FindFullHashesRequestSerializerD2Ev, 
                       __ZN7Backend6Google32repeatedlyUnescapePercentEscapesERNSt3__16vectorIhNS1_9allocatorIhEEEE, 
                       __ZN7Backend6Google36FetchThreatListUpdatesResponseParser12parseRemovalERNS0_21ProtocolMessageReaderE, 
                       __ZN7Backend6Google36FetchThreatListUpdatesResponseParser13parseAdditionERNS0_21ProtocolMessageReaderE, 
                       __ZN7Backend6Google36FetchThreatListUpdatesResponseParser13parseChecksumERNS0_21ProtocolMessageReaderE, 
                       __ZN7Backend6Google36FetchThreatListUpdatesResponseParser13parseDurationERNS0_21ProtocolMessageReaderE, 
                       __ZN7Backend6Google36FetchThreatListUpdatesResponseParser14parseRawHashesERNS0_21ProtocolMessageReaderE, 
                       __ZN7Backend6Google36FetchThreatListUpdatesResponseParser15parseRawIndicesERNS0_21ProtocolMessageReaderE, 
                       __ZN7Backend6Google36FetchThreatListUpdatesResponseParser22parseRiceDeltaEncodingERNS0_21ProtocolMessageReaderE, 
                       __ZN7Backend6Google36FetchThreatListUpdatesResponseParser23parseListUpdateResponseERNS0_21ProtocolMessageReaderE, 
                       __ZN7Backend6Google36FetchThreatListUpdatesResponseParser35parseFetchThreatListUpdatesResponseERNS0_21ProtocolMessageReaderE, 
                       __ZN7Backend6Google36FetchThreatListUpdatesResponseParser6finishEv, 
                       __ZN7Backend6Google36FetchThreatListUpdatesResponseParserC1EPKhm, 
                       __ZN7Backend6Google36FetchThreatListUpdatesResponseParserC2EPKhm, 
                       __ZN7Backend6Google36FetchThreatListUpdatesResponseParserD1Ev, 
                       __ZN7Backend6Google36FetchThreatListUpdatesResponseParserD2Ev, 
                       __ZN7Backend6Google38LexicographicallyOrderedHashEnumerator4nextEv, 
                       __ZN7Backend6Google38LexicographicallyOrderedHashEnumeratorC1ERKNS0_8DatabaseE, 
                       __ZN7Backend6Google38LexicographicallyOrderedHashEnumeratorC2ERKNS0_8DatabaseE, 
                       __ZN7Backend6Google38LexicographicallyOrderedHashEnumeratorD1Ev, 
                       __ZN7Backend6Google38LexicographicallyOrderedHashEnumeratorD2Ev, 
                       __ZN7Backend6Google39FetchThreatListUpdatesRequestSerializer10addRequestENS1_17ListUpdateRequestE, 
                       __ZN7Backend6Google39FetchThreatListUpdatesRequestSerializerC1ERKNS0_10ClientInfoE, 
                       __ZN7Backend6Google39FetchThreatListUpdatesRequestSerializerC2ERKNS0_10ClientInfoE, 
                       __ZN7Backend6Google39FetchThreatListUpdatesRequestSerializerD1Ev, 
                       __ZN7Backend6Google39FetchThreatListUpdatesRequestSerializerD2Ev, 
                       __ZN7Backend6Google8Database10initializeEN8Platform9ArrayViewIhEE, 
                       __ZN7Backend6Google8Database15readClientStateEPKh, 
                       __ZN7Backend6Google8Database15readSizeBucketsEPKh, 
                       __ZN7Backend6Google8Database4readEv, __ZN7Backend6Google8DatabaseC1Ev, 
                       __ZN7Backend6Google8DatabaseC2Ev, __ZN7Backend6Google8DatabaseD1Ev, 
                       __ZN7Backend6Google8DatabaseD2Ev, __ZN7Backend6GoogleL10readVarintERPKhS2_Ry, 
                       __ZN7Backend6GoogleL11makeRequestEP5NSURL, __ZN7Backend6GoogleeqERKNS0_20ThreatListDescriptorES3_, 
                       __ZN7Backend6GoogleltERKNS0_20ThreatListDescriptorES3_, 
                       __ZN7Backend6GoogleneERKNS0_20ThreatListDescriptorES3_, 
                       __ZN8Platform11Transaction29activeTransactionDescriptionsEv, 
                       __ZN8Platform11TransactionC1ENSt3__112basic_stringIcNS1_11char_traitsIcEENS1_9allocatorIcEEEE, 
                       __ZN8Platform11TransactionC2ENSt3__112basic_stringIcNS1_11char_traitsIcEENS1_9allocatorIcEEEE, 
                       __ZN8Platform11TransactionD1Ev, __ZN8Platform11TransactionD2Ev, 
                       __ZN8Platform12OutputStream10writeUInt8Eh, __ZN8Platform12OutputStream11getOffset32ERj, 
                       __ZN8Platform12OutputStream11writeUInt32Ej, __ZN8Platform12OutputStream11writeUInt64Ey, 
                       __ZN8Platform12SharedMemory17createFileMappingENS_14FileDescriptorERNS_6LoggerE, 
                       __ZN8Platform12SharedMemoryC1EPvm, __ZN8Platform12SharedMemoryC2EPvm, 
                       __ZN8Platform12SharedMemoryD1Ev, __ZN8Platform12SharedMemoryD2Ev, 
                       __ZN8Platform12decodeBase64EPKcS1_, __ZN8Platform12encodeBase64EPKhS1_, 
                       __ZN8Platform12xpcErrorCodeEPU24objcproto13OS_xpc_object8NSObject, 
                       __ZN8Platform13URLConnection5startEv, __ZN8Platform13URLConnection6cancelEv, 
                       __ZN8Platform13URLConnectionC1ERNS0_6ClientEPU28objcproto17OS_dispatch_queue8NSObjectP12NSURLRequest, 
                       __ZN8Platform13URLConnectionC2ERNS0_6ClientEPU28objcproto17OS_dispatch_queue8NSObjectP12NSURLRequest, 
                       __ZN8Platform13URLConnectionD1Ev, __ZN8Platform13URLConnectionD2Ev, 
                       __ZN8Platform13computeSHA256ERKNSt3__112basic_stringIcNS0_11char_traitsIcEENS0_9allocatorIcEEEE, 
                       __ZN8Platform13urlWithStringERKNSt3__112basic_stringIcNS0_11char_traitsIcEENS0_9allocatorIcEEEE, 
                       __ZN8Platform15mapSharedMemoryEPU24objcproto13OS_xpc_object8NSObject, 
                       __ZN8Platform16FileOutputStream10writeBytesEPKhm, 
                       __ZN8Platform16FileOutputStream4openEv, __ZN8Platform16FileOutputStream4seekEm, 
                       __ZN8Platform16FileOutputStream5closeEv, __ZN8Platform16FileOutputStreamC1ENSt3__112basic_stringIcNS1_11char_traitsIcEENS1_9allocatorIcEEEE, 
                       __ZN8Platform16FileOutputStreamC2ENSt3__112basic_stringIcNS1_11char_traitsIcEENS1_9allocatorIcEEEE, 
                       __ZN8Platform16FileOutputStreamD0Ev, __ZN8Platform16FileOutputStreamD1Ev, 
                       __ZN8Platform16FileOutputStreamD2Ev, __ZN8Platform16xpcErrorCategoryEv, 
                       __ZN8Platform19decodeURLSafeBase64EPKcS1_RNSt3__16vectorIhNS2_9allocatorIhEEEE, 
                       __ZN8Platform19encodeURLSafeBase64EPKhS1_, __ZN8Platform21getUserCacheDirectoryERNSt3__112basic_stringIcNS0_11char_traitsIcEENS0_9allocatorIcEEEE, 
                       __ZN8Platform24mutableURLRequestWithURLERKNS_9RetainPtrIPK7__CFURLFPKvS5_EXadL_Z8CFRetainEEFvS5_EXadL_Z9CFReleaseEEEE, 
                       __ZN8Platform30stringByAppendingPathComponentERKNSt3__112basic_stringIcNS0_11char_traitsIcEENS0_9allocatorIcEEEES8_, 
                       __ZN8Platform42createDirectoryWithIntermediateDirectoriesERKNSt3__112basic_stringIcNS0_11char_traitsIcEENS0_9allocatorIcEEEE, 
                       __ZN8Platform8toStringERKNS_9RetainPtrIPK7__CFURLFPKvS5_EXadL_Z8CFRetainEEFvS5_EXadL_Z9CFReleaseEEEE, 
                       __ZN8Platform9ASLLogger3logENS_6Logger5EntryE, __ZN8Platform9ASLLoggerC1Ev, 
                       __ZN8Platform9ASLLoggerC2Ev, __ZNK12SafeBrowsing13SafeHashCache11containsAllERKNSt3__16vectorINS1_5arrayIhLm32EEENS1_9allocatorIS4_EEEE, 
                       __ZNK12SafeBrowsing13SafeHashCache16containsUnlockedERKNSt3__15arrayIhLm32EEE, 
                       __ZNK12SafeBrowsing13SafeHashCache8containsERKNSt3__15arrayIhLm32EEE, 
                       __ZNK7Backend6Google12CanonicalURL13computeHashesEv, 
                       __ZNK7Backend6Google13Configuration34getEncodedUpdatesRequestURLRequestERKNS0_39FetchThreatListUpdatesRequestSerializerE, 
                       __ZNK7Backend6Google13Configuration37getEncodedFullHashesRequestURLRequestERKNS0_31FindFullHashesRequestSerializerE, 
                       __ZNK7Backend6Google13FullHashCache23nextCacheExpirationTimeEv, 
                       __ZNK7Backend6Google13FullHashCache6lookupERKNS0_20ThreatListDescriptorERKNSt3__15arrayIhLm32EEEh, 
                       __ZNK7Backend6Google15DatabaseUpdater12databasePathERKNS0_12DatabaseInfoE, 
                       __ZNK7Backend6Google15DatabaseUpdater12openDatabaseERKNS0_12DatabaseInfoE, 
                       __ZNK7Backend6Google15DatabaseUpdater14newestDatabaseEv, 
                       __ZNK7Backend6Google15FullHashRequest5toXPCEv, __ZNK7Backend6Google20ThreatListDescriptor5toXPCEv, 
                       __ZNK7Backend6Google20ThreatListDescriptor8toStringEv, 
                       __ZNK7Backend6Google31FindFullHashesRequestSerializer14serializedDataEv, 
                       __ZNK7Backend6Google39FetchThreatListUpdatesRequestSerializer14serializedDataEv, 
                       __ZNK7Backend6Google8Database10readOffsetERPKhRj, 
                       __ZNK7Backend6Google8Database10readOffsetERPKhS4_, 
                       __ZNK7Backend6Google8Database10readUInt32ERPKhRj, 
                       __ZNK7Backend6Google8Database10readUInt64ERPKhRy, 
                       __ZNK7Backend6Google8Database13isValidOffsetEj, 
                       __ZNK7Backend6Google8Database14isValidPointerEPKhm, 
                       __ZNK8Platform16FileOutputStream9getOffsetERm, '__ZNKSt3__110__function6__funcIZ24-[SSBLookupContext init]E3$_0NS_9allocatorIS2_EEFvvEE7__cloneEPNS0_6__baseIS5_EE', 
                       '__ZNKSt3__110__function6__funcIZ24-[SSBLookupContext init]E3$_0NS_9allocatorIS2_EEFvvEE7__cloneEv', 
                       '__ZNKSt3__110__function6__funcIZ48-[SSBLookupContext lookUpURL:completionHandler:]E3$_1NS_9allocatorIS2_EEFvN7Backend12LookupResultENS_10error_codeEEE7__cloneEPNS0_6__baseIS8_EE', 
                       '__ZNKSt3__110__function6__funcIZ48-[SSBLookupContext lookUpURL:completionHandler:]E3$_1NS_9allocatorIS2_EEFvN7Backend12LookupResultENS_10error_codeEEE7__cloneEv', 
                       '__ZNKSt3__110__function6__funcIZ67-[SSBLookupContext getLastDatabaseUpdateTimeWithCompletionHandler:]E3$_2NS_9allocatorIS2_EEFvNS_6chrono10time_pointINS5_12system_clockENS5_8durationIxNS_5ratioILl1ELl1000000EEEEEEENS_10error_codeEEE7__cloneEPNS0_6__baseISE_EE', 
                       '__ZNKSt3__110__function6__funcIZ67-[SSBLookupContext getLastDatabaseUpdateTimeWithCompletionHandler:]E3$_2NS_9allocatorIS2_EEFvNS_6chrono10time_pointINS5_12system_clockENS5_8durationIxNS_5ratioILl1ELl1000000EEEEEEENS_10error_codeEEE7__cloneEv', 
                       '__ZNKSt3__110__function6__funcIZ71-[SSBLookupContext(SSBPrivate) _getServiceStatusWithCompletionHandler:]E3$_6NS_9allocatorIS2_EEFvN12SafeBrowsing13ServiceStatusENS_10error_codeEEE7__cloneEPNS0_6__baseIS8_EE', 
                       '__ZNKSt3__110__function6__funcIZ71-[SSBLookupContext(SSBPrivate) _getServiceStatusWithCompletionHandler:]E3$_6NS_9allocatorIS2_EEFvN12SafeBrowsing13ServiceStatusENS_10error_codeEEE7__cloneEv', 
                       '__ZNKSt3__110__function6__funcIZ72-[SSBLookupContext(SSBPrivate) _getDatabaseStatusWithCompletionHandler:]E3$_5NS_9allocatorIS2_EEFvN12SafeBrowsing14DatabaseStatusENS_10error_codeEEE7__cloneEPNS0_6__baseIS8_EE', 
                       '__ZNKSt3__110__function6__funcIZ72-[SSBLookupContext(SSBPrivate) _getDatabaseStatusWithCompletionHandler:]E3$_5NS_9allocatorIS2_EEFvN12SafeBrowsing14DatabaseStatusENS_10error_codeEEE7__cloneEv', 
                       '__ZNKSt3__110__function6__funcIZ74-[SSBLookupContext(SSBPrivate) _forceDatabaseUpdateWithCompletionHandler:]E3$_4NS_9allocatorIS2_EEFvNS_10error_codeEEE7__cloneEPNS0_6__baseIS6_EE', 
                       '__ZNKSt3__110__function6__funcIZ74-[SSBLookupContext(SSBPrivate) _forceDatabaseUpdateWithCompletionHandler:]E3$_4NS_9allocatorIS2_EEFvNS_10error_codeEEE7__cloneEv', 
                       '__ZNKSt3__110__function6__funcIZN12SafeBrowsing13LookupContext17getDatabaseStatusENS_8functionIFvNS2_14DatabaseStatusENS_10error_codeEEEEE3$_0NS_9allocatorIS9_EEFvS6_EE7__cloneEPNS0_6__baseISC_EE', 
                       '__ZNKSt3__110__function6__funcIZN12SafeBrowsing13LookupContext17getDatabaseStatusENS_8functionIFvNS2_14DatabaseStatusENS_10error_codeEEEEE3$_0NS_9allocatorIS9_EEFvS6_EE7__cloneEv', 
                       '__ZNKSt3__110__function6__funcIZN12SafeBrowsing13LookupContext25getLastDatabaseUpdateTimeENS_8functionIFvNS_6chrono10time_pointINS5_12system_clockENS5_8durationIxNS_5ratioILl1ELl1000000EEEEEEENS_10error_codeEEEEE3$_2NS_9allocatorISG_EEFvSD_EE7__cloneEPNS0_6__baseISJ_EE', 
                       '__ZNKSt3__110__function6__funcIZN12SafeBrowsing13LookupContext25getLastDatabaseUpdateTimeENS_8functionIFvNS_6chrono10time_pointINS5_12system_clockENS5_8durationIxNS_5ratioILl1ELl1000000EEEEEEENS_10error_codeEEEEE3$_2NS_9allocatorISG_EEFvSD_EE7__cloneEv', 
                       '__ZNKSt3__110__function6__funcIZN12SafeBrowsing13LookupContext9lookUpURLEP5NSURLNS_8functionIFvN7Backend12LookupResultENS_10error_codeEEEEE3$_1NS_9allocatorISC_EEFvS9_EE7__cloneEPNS0_6__baseISF_EE', 
                       '__ZNKSt3__110__function6__funcIZN12SafeBrowsing13LookupContext9lookUpURLEP5NSURLNS_8functionIFvN7Backend12LookupResultENS_10error_codeEEEEE3$_1NS_9allocatorISC_EEFvS9_EE7__cloneEv', 
                       '__ZNKSt3__110__function6__funcIZN12SafeBrowsing7Service21handleCheckFullHashesEPU24objcproto13OS_xpc_object8NSObjectE3$_0NS_9allocatorIS7_EEFvNS_6vectorIN7Backend6Google20ThreatListDescriptorENS8_ISD_EEEEEE7__cloneEPNS0_6__baseISG_EE', 
                       '__ZNKSt3__110__function6__funcIZN12SafeBrowsing7Service21handleCheckFullHashesEPU24objcproto13OS_xpc_object8NSObjectE3$_0NS_9allocatorIS7_EEFvNS_6vectorIN7Backend6Google20ThreatListDescriptorENS8_ISD_EEEEEE7__cloneEv', 
                       '__ZNKSt3__110__function6__funcIZN7Backend6Google15FullHashChecker11checkHashesENS_10shared_ptrINS4_5CheckEEEE3$_0NS_9allocatorIS8_EEFvNSt12experimental15fundamentals_v18optionalINS3_28FindFullHashesResponseParser6ResultEEEEE7__cloneEPNS0_6__baseISH_EE', 
                       '__ZNKSt3__110__function6__funcIZN7Backend6Google15FullHashChecker11checkHashesENS_10shared_ptrINS4_5CheckEEEE3$_0NS_9allocatorIS8_EEFvNSt12experimental15fundamentals_v18optionalINS3_28FindFullHashesResponseParser6ResultEEEEE7__cloneEv', 
                       '__ZNKSt3__110__function6__funcIZN7Backend6GoogleL15writeClientInfoERNS3_21ProtocolMessageWriterEjRKNS3_10ClientInfoEE3$_0NS_9allocatorIS9_EEFvS5_EE7__cloneEPNS0_6__baseISC_EE', 
                       '__ZNKSt3__110__function6__funcIZN7Backend6GoogleL15writeClientInfoERNS3_21ProtocolMessageWriterEjRKNS3_10ClientInfoEE3$_0NS_9allocatorIS9_EEFvS5_EE7__cloneEPNS0_6__baseISC_EE', 
                       '__ZNKSt3__110__function6__funcIZN7Backend6GoogleL15writeClientInfoERNS3_21ProtocolMessageWriterEjRKNS3_10ClientInfoEE3$_0NS_9allocatorIS9_EEFvS5_EE7__cloneEv', 
                       '__ZNKSt3__110__function6__funcIZN7Backend6GoogleL15writeClientInfoERNS3_21ProtocolMessageWriterEjRKNS3_10ClientInfoEE3$_0NS_9allocatorIS9_EEFvS5_EE7__cloneEv', 
                       '__ZNKSt3__110__function6__funcIZN7Backend6GoogleL15writeThreatInfoERNS3_21ProtocolMessageWriterEjRKNS_3setINS3_10ThreatTypeENS_4lessIS7_EENS_9allocatorIS7_EEEERKNS6_INS3_12PlatformTypeENS8_ISF_EENSA_ISF_EEEERKNS6_INS3_15ThreatEntryTypeENS8_ISL_EENSA_ISL_EEEERKNS6_INS3_8HashViewENS8_ISR_EENSA_ISR_EEEEE3$_2NSA_ISX_EEFvS5_EE7__cloneEPNS0_6__baseISZ_EE', 
                       '__ZNKSt3__110__function6__funcIZN7Backend6GoogleL15writeThreatInfoERNS3_21ProtocolMessageWriterEjRKNS_3setINS3_10ThreatTypeENS_4lessIS7_EENS_9allocatorIS7_EEEERKNS6_INS3_12PlatformTypeENS8_ISF_EENSA_ISF_EEEERKNS6_INS3_15ThreatEntryTypeENS8_ISL_EENSA_ISL_EEEERKNS6_INS3_8HashViewENS8_ISR_EENSA_ISR_EEEEE3$_2NSA_ISX_EEFvS5_EE7__cloneEv', 
                       '__ZNKSt3__110__function6__funcIZN7Backend6GoogleL16writeConstraintsERNS3_21ProtocolMessageWriterEjRKNS3_39FetchThreatListUpdatesRequestSerializer17ListUpdateRequest11ConstraintsEE3$_1NS_9allocatorISB_EEFvS5_EE7__cloneEPNS0_6__baseISE_EE', 
                       '__ZNKSt3__110__function6__funcIZN7Backend6GoogleL16writeConstraintsERNS3_21ProtocolMessageWriterEjRKNS3_39FetchThreatListUpdatesRequestSerializer17ListUpdateRequest11ConstraintsEE3$_1NS_9allocatorISB_EEFvS5_EE7__cloneEv', 
                       '__ZNKSt3__110__function6__funcIZN7Backend6GoogleL16writeThreatEntryERNS3_21ProtocolMessageWriterEjNS3_8HashViewEE3$_1NS_9allocatorIS7_EEFvS5_EE7__cloneEPNS0_6__baseISA_EE', 
                       '__ZNKSt3__110__function6__funcIZN7Backend6GoogleL16writeThreatEntryERNS3_21ProtocolMessageWriterEjNS3_8HashViewEE3$_1NS_9allocatorIS7_EEFvS5_EE7__cloneEv', 
                       '__ZNKSt3__110__function6__funcIZN7Backend6GoogleL22writeListUpdateRequestERNS3_21ProtocolMessageWriterEjRKNS3_39FetchThreatListUpdatesRequestSerializer17ListUpdateRequestEE3$_2NS_9allocatorISA_EEFvS5_EE7__cloneEPNS0_6__baseISD_EE', 
                       '__ZNKSt3__110__function6__funcIZN7Backend6GoogleL22writeListUpdateRequestERNS3_21ProtocolMessageWriterEjRKNS3_39FetchThreatListUpdatesRequestSerializer17ListUpdateRequestEE3$_2NS_9allocatorISA_EEFvS5_EE7__cloneEv', 
                       '__ZNSt3__110__function6__funcIZ24-[SSBLookupContext init]E3$_0NS_9allocatorIS2_EEFvvEE18destroy_deallocateEv', 
                       '__ZNSt3__110__function6__funcIZ24-[SSBLookupContext init]E3$_0NS_9allocatorIS2_EEFvvEE7destroyEv', 
                       '__ZNSt3__110__function6__funcIZ24-[SSBLookupContext init]E3$_0NS_9allocatorIS2_EEFvvEED0Ev', 
                       '__ZNSt3__110__function6__funcIZ24-[SSBLookupContext init]E3$_0NS_9allocatorIS2_EEFvvEED1Ev', 
                       '__ZNSt3__110__function6__funcIZ24-[SSBLookupContext init]E3$_0NS_9allocatorIS2_EEFvvEEclEv', 
                       '__ZNSt3__110__function6__funcIZ48-[SSBLookupContext lookUpURL:completionHandler:]E3$_1NS_9allocatorIS2_EEFvN7Backend12LookupResultENS_10error_codeEEE18destroy_deallocateEv', 
                       '__ZNSt3__110__function6__funcIZ48-[SSBLookupContext lookUpURL:completionHandler:]E3$_1NS_9allocatorIS2_EEFvN7Backend12LookupResultENS_10error_codeEEE7destroyEv', 
                       '__ZNSt3__110__function6__funcIZ48-[SSBLookupContext lookUpURL:completionHandler:]E3$_1NS_9allocatorIS2_EEFvN7Backend12LookupResultENS_10error_codeEEED0Ev', 
                       '__ZNSt3__110__function6__funcIZ48-[SSBLookupContext lookUpURL:completionHandler:]E3$_1NS_9allocatorIS2_EEFvN7Backend12LookupResultENS_10error_codeEEED1Ev', 
                       '__ZNSt3__110__function6__funcIZ48-[SSBLookupContext lookUpURL:completionHandler:]E3$_1NS_9allocatorIS2_EEFvN7Backend12LookupResultENS_10error_codeEEEclEOS6_OS7_', 
                       '__ZNSt3__110__function6__funcIZ67-[SSBLookupContext getLastDatabaseUpdateTimeWithCompletionHandler:]E3$_2NS_9allocatorIS2_EEFvNS_6chrono10time_pointINS5_12system_clockENS5_8durationIxNS_5ratioILl1ELl1000000EEEEEEENS_10error_codeEEE18destroy_deallocateEv', 
                       '__ZNSt3__110__function6__funcIZ67-[SSBLookupContext getLastDatabaseUpdateTimeWithCompletionHandler:]E3$_2NS_9allocatorIS2_EEFvNS_6chrono10time_pointINS5_12system_clockENS5_8durationIxNS_5ratioILl1ELl1000000EEEEEEENS_10error_codeEEE7destroyEv', 
                       '__ZNSt3__110__function6__funcIZ67-[SSBLookupContext getLastDatabaseUpdateTimeWithCompletionHandler:]E3$_2NS_9allocatorIS2_EEFvNS_6chrono10time_pointINS5_12system_clockENS5_8durationIxNS_5ratioILl1ELl1000000EEEEEEENS_10error_codeEEED0Ev', 
                       '__ZNSt3__110__function6__funcIZ67-[SSBLookupContext getLastDatabaseUpdateTimeWithCompletionHandler:]E3$_2NS_9allocatorIS2_EEFvNS_6chrono10time_pointINS5_12system_clockENS5_8durationIxNS_5ratioILl1ELl1000000EEEEEEENS_10error_codeEEED1Ev', 
                       '__ZNSt3__110__function6__funcIZ67-[SSBLookupContext getLastDatabaseUpdateTimeWithCompletionHandler:]E3$_2NS_9allocatorIS2_EEFvNS_6chrono10time_pointINS5_12system_clockENS5_8durationIxNS_5ratioILl1ELl1000000EEEEEEENS_10error_codeEEEclEOSC_OSD_', 
                       '__ZNSt3__110__function6__funcIZ71-[SSBLookupContext(SSBPrivate) _getServiceStatusWithCompletionHandler:]E3$_6NS_9allocatorIS2_EEFvN12SafeBrowsing13ServiceStatusENS_10error_codeEEE18destroy_deallocateEv', 
                       '__ZNSt3__110__function6__funcIZ71-[SSBLookupContext(SSBPrivate) _getServiceStatusWithCompletionHandler:]E3$_6NS_9allocatorIS2_EEFvN12SafeBrowsing13ServiceStatusENS_10error_codeEEE7destroyEv', 
                       '__ZNSt3__110__function6__funcIZ71-[SSBLookupContext(SSBPrivate) _getServiceStatusWithCompletionHandler:]E3$_6NS_9allocatorIS2_EEFvN12SafeBrowsing13ServiceStatusENS_10error_codeEEED0Ev', 
                       '__ZNSt3__110__function6__funcIZ71-[SSBLookupContext(SSBPrivate) _getServiceStatusWithCompletionHandler:]E3$_6NS_9allocatorIS2_EEFvN12SafeBrowsing13ServiceStatusENS_10error_codeEEED1Ev', 
                       '__ZNSt3__110__function6__funcIZ71-[SSBLookupContext(SSBPrivate) _getServiceStatusWithCompletionHandler:]E3$_6NS_9allocatorIS2_EEFvN12SafeBrowsing13ServiceStatusENS_10error_codeEEEclEOS6_OS7_', 
                       '__ZNSt3__110__function6__funcIZ72-[SSBLookupContext(SSBPrivate) _getDatabaseStatusWithCompletionHandler:]E3$_5NS_9allocatorIS2_EEFvN12SafeBrowsing14DatabaseStatusENS_10error_codeEEE18destroy_deallocateEv', 
                       '__ZNSt3__110__function6__funcIZ72-[SSBLookupContext(SSBPrivate) _getDatabaseStatusWithCompletionHandler:]E3$_5NS_9allocatorIS2_EEFvN12SafeBrowsing14DatabaseStatusENS_10error_codeEEE7destroyEv', 
                       '__ZNSt3__110__function6__funcIZ72-[SSBLookupContext(SSBPrivate) _getDatabaseStatusWithCompletionHandler:]E3$_5NS_9allocatorIS2_EEFvN12SafeBrowsing14DatabaseStatusENS_10error_codeEEED0Ev', 
                       '__ZNSt3__110__function6__funcIZ72-[SSBLookupContext(SSBPrivate) _getDatabaseStatusWithCompletionHandler:]E3$_5NS_9allocatorIS2_EEFvN12SafeBrowsing14DatabaseStatusENS_10error_codeEEED1Ev', 
                       '__ZNSt3__110__function6__funcIZ72-[SSBLookupContext(SSBPrivate) _getDatabaseStatusWithCompletionHandler:]E3$_5NS_9allocatorIS2_EEFvN12SafeBrowsing14DatabaseStatusENS_10error_codeEEEclEOS6_OS7_', 
                       '__ZNSt3__110__function6__funcIZ74-[SSBLookupContext(SSBPrivate) _forceDatabaseUpdateWithCompletionHandler:]E3$_4NS_9allocatorIS2_EEFvNS_10error_codeEEE18destroy_deallocateEv', 
                       '__ZNSt3__110__function6__funcIZ74-[SSBLookupContext(SSBPrivate) _forceDatabaseUpdateWithCompletionHandler:]E3$_4NS_9allocatorIS2_EEFvNS_10error_codeEEE7destroyEv', 
                       '__ZNSt3__110__function6__funcIZ74-[SSBLookupContext(SSBPrivate) _forceDatabaseUpdateWithCompletionHandler:]E3$_4NS_9allocatorIS2_EEFvNS_10error_codeEEED0Ev', 
                       '__ZNSt3__110__function6__funcIZ74-[SSBLookupContext(SSBPrivate) _forceDatabaseUpdateWithCompletionHandler:]E3$_4NS_9allocatorIS2_EEFvNS_10error_codeEEED1Ev', 
                       '__ZNSt3__110__function6__funcIZ74-[SSBLookupContext(SSBPrivate) _forceDatabaseUpdateWithCompletionHandler:]E3$_4NS_9allocatorIS2_EEFvNS_10error_codeEEEclEOS5_', 
                       '__ZNSt3__110__function6__funcIZN12SafeBrowsing13LookupContext17getDatabaseStatusENS_8functionIFvNS2_14DatabaseStatusENS_10error_codeEEEEE3$_0NS_9allocatorIS9_EEFvS6_EE18destroy_deallocateEv', 
                       '__ZNSt3__110__function6__funcIZN12SafeBrowsing13LookupContext17getDatabaseStatusENS_8functionIFvNS2_14DatabaseStatusENS_10error_codeEEEEE3$_0NS_9allocatorIS9_EEFvS6_EE7destroyEv', 
                       '__ZNSt3__110__function6__funcIZN12SafeBrowsing13LookupContext17getDatabaseStatusENS_8functionIFvNS2_14DatabaseStatusENS_10error_codeEEEEE3$_0NS_9allocatorIS9_EEFvS6_EED0Ev', 
                       '__ZNSt3__110__function6__funcIZN12SafeBrowsing13LookupContext17getDatabaseStatusENS_8functionIFvNS2_14DatabaseStatusENS_10error_codeEEEEE3$_0NS_9allocatorIS9_EEFvS6_EED1Ev', 
                       '__ZNSt3__110__function6__funcIZN12SafeBrowsing13LookupContext17getDatabaseStatusENS_8functionIFvNS2_14DatabaseStatusENS_10error_codeEEEEE3$_0NS_9allocatorIS9_EEFvS6_EEclEOS6_', 
                       '__ZNSt3__110__function6__funcIZN12SafeBrowsing13LookupContext25getLastDatabaseUpdateTimeENS_8functionIFvNS_6chrono10time_pointINS5_12system_clockENS5_8durationIxNS_5ratioILl1ELl1000000EEEEEEENS_10error_codeEEEEE3$_2NS_9allocatorISG_EEFvSD_EE18destroy_deallocateEv', 
                       '__ZNSt3__110__function6__funcIZN12SafeBrowsing13LookupContext25getLastDatabaseUpdateTimeENS_8functionIFvNS_6chrono10time_pointINS5_12system_clockENS5_8durationIxNS_5ratioILl1ELl1000000EEEEEEENS_10error_codeEEEEE3$_2NS_9allocatorISG_EEFvSD_EE7destroyEv', 
                       '__ZNSt3__110__function6__funcIZN12SafeBrowsing13LookupContext25getLastDatabaseUpdateTimeENS_8functionIFvNS_6chrono10time_pointINS5_12system_clockENS5_8durationIxNS_5ratioILl1ELl1000000EEEEEEENS_10error_codeEEEEE3$_2NS_9allocatorISG_EEFvSD_EED0Ev', 
                       '__ZNSt3__110__function6__funcIZN12SafeBrowsing13LookupContext25getLastDatabaseUpdateTimeENS_8functionIFvNS_6chrono10time_pointINS5_12system_clockENS5_8durationIxNS_5ratioILl1ELl1000000EEEEEEENS_10error_codeEEEEE3$_2NS_9allocatorISG_EEFvSD_EED1Ev', 
                       '__ZNSt3__110__function6__funcIZN12SafeBrowsing13LookupContext25getLastDatabaseUpdateTimeENS_8functionIFvNS_6chrono10time_pointINS5_12system_clockENS5_8durationIxNS_5ratioILl1ELl1000000EEEEEEENS_10error_codeEEEEE3$_2NS_9allocatorISG_EEFvSD_EEclEOSD_', 
                       '__ZNSt3__110__function6__funcIZN12SafeBrowsing13LookupContext9lookUpURLEP5NSURLNS_8functionIFvN7Backend12LookupResultENS_10error_codeEEEEE3$_1NS_9allocatorISC_EEFvS9_EE18destroy_deallocateEv', 
                       '__ZNSt3__110__function6__funcIZN12SafeBrowsing13LookupContext9lookUpURLEP5NSURLNS_8functionIFvN7Backend12LookupResultENS_10error_codeEEEEE3$_1NS_9allocatorISC_EEFvS9_EE7destroyEv', 
                       '__ZNSt3__110__function6__funcIZN12SafeBrowsing13LookupContext9lookUpURLEP5NSURLNS_8functionIFvN7Backend12LookupResultENS_10error_codeEEEEE3$_1NS_9allocatorISC_EEFvS9_EED0Ev', 
                       '__ZNSt3__110__function6__funcIZN12SafeBrowsing13LookupContext9lookUpURLEP5NSURLNS_8functionIFvN7Backend12LookupResultENS_10error_codeEEEEE3$_1NS_9allocatorISC_EEFvS9_EED1Ev', 
                       '__ZNSt3__110__function6__funcIZN12SafeBrowsing13LookupContext9lookUpURLEP5NSURLNS_8functionIFvN7Backend12LookupResultENS_10error_codeEEEEE3$_1NS_9allocatorISC_EEFvS9_EEclEOS9_', 
                       '__ZNSt3__110__function6__funcIZN12SafeBrowsing7Service21handleCheckFullHashesEPU24objcproto13OS_xpc_object8NSObjectE3$_0NS_9allocatorIS7_EEFvNS_6vectorIN7Backend6Google20ThreatListDescriptorENS8_ISD_EEEEEE18destroy_deallocateEv', 
                       '__ZNSt3__110__function6__funcIZN12SafeBrowsing7Service21handleCheckFullHashesEPU24objcproto13OS_xpc_object8NSObjectE3$_0NS_9allocatorIS7_EEFvNS_6vectorIN7Backend6Google20ThreatListDescriptorENS8_ISD_EEEEEE7destroyEv', 
                       '__ZNSt3__110__function6__funcIZN12SafeBrowsing7Service21handleCheckFullHashesEPU24objcproto13OS_xpc_object8NSObjectE3$_0NS_9allocatorIS7_EEFvNS_6vectorIN7Backend6Google20ThreatListDescriptorENS8_ISD_EEEEEED0Ev', 
                       '__ZNSt3__110__function6__funcIZN12SafeBrowsing7Service21handleCheckFullHashesEPU24objcproto13OS_xpc_object8NSObjectE3$_0NS_9allocatorIS7_EEFvNS_6vectorIN7Backend6Google20ThreatListDescriptorENS8_ISD_EEEEEED1Ev', 
                       '__ZNSt3__110__function6__funcIZN12SafeBrowsing7Service21handleCheckFullHashesEPU24objcproto13OS_xpc_object8NSObjectE3$_0NS_9allocatorIS7_EEFvNS_6vectorIN7Backend6Google20ThreatListDescriptorENS8_ISD_EEEEEEclEOSF_', 
                       '__ZNSt3__110__function6__funcIZN7Backend6Google15FullHashChecker11checkHashesENS_10shared_ptrINS4_5CheckEEEE3$_0NS_9allocatorIS8_EEFvNSt12experimental15fundamentals_v18optionalINS3_28FindFullHashesResponseParser6ResultEEEEE18destroy_deallocateEv', 
                       '__ZNSt3__110__function6__funcIZN7Backend6Google15FullHashChecker11checkHashesENS_10shared_ptrINS4_5CheckEEEE3$_0NS_9allocatorIS8_EEFvNSt12experimental15fundamentals_v18optionalINS3_28FindFullHashesResponseParser6ResultEEEEE7destroyEv', 
                       '__ZNSt3__110__function6__funcIZN7Backend6Google15FullHashChecker11checkHashesENS_10shared_ptrINS4_5CheckEEEE3$_0NS_9allocatorIS8_EEFvNSt12experimental15fundamentals_v18optionalINS3_28FindFullHashesResponseParser6ResultEEEEED0Ev', 
                       '__ZNSt3__110__function6__funcIZN7Backend6Google15FullHashChecker11checkHashesENS_10shared_ptrINS4_5CheckEEEE3$_0NS_9allocatorIS8_EEFvNSt12experimental15fundamentals_v18optionalINS3_28FindFullHashesResponseParser6ResultEEEEED1Ev', 
                       '__ZNSt3__110__function6__funcIZN7Backend6Google15FullHashChecker11checkHashesENS_10shared_ptrINS4_5CheckEEEE3$_0NS_9allocatorIS8_EEFvNSt12experimental15fundamentals_v18optionalINS3_28FindFullHashesResponseParser6ResultEEEEEclEOSG_', 
                       '__ZNSt3__110__function6__funcIZN7Backend6GoogleL15writeClientInfoERNS3_21ProtocolMessageWriterEjRKNS3_10ClientInfoEE3$_0NS_9allocatorIS9_EEFvS5_EE18destroy_deallocateEv', 
                       '__ZNSt3__110__function6__funcIZN7Backend6GoogleL15writeClientInfoERNS3_21ProtocolMessageWriterEjRKNS3_10ClientInfoEE3$_0NS_9allocatorIS9_EEFvS5_EE18destroy_deallocateEv', 
                       '__ZNSt3__110__function6__funcIZN7Backend6GoogleL15writeClientInfoERNS3_21ProtocolMessageWriterEjRKNS3_10ClientInfoEE3$_0NS_9allocatorIS9_EEFvS5_EE7destroyEv', 
                       '__ZNSt3__110__function6__funcIZN7Backend6GoogleL15writeClientInfoERNS3_21ProtocolMessageWriterEjRKNS3_10ClientInfoEE3$_0NS_9allocatorIS9_EEFvS5_EE7destroyEv', 
                       '__ZNSt3__110__function6__funcIZN7Backend6GoogleL15writeClientInfoERNS3_21ProtocolMessageWriterEjRKNS3_10ClientInfoEE3$_0NS_9allocatorIS9_EEFvS5_EED0Ev', 
                       '__ZNSt3__110__function6__funcIZN7Backend6GoogleL15writeClientInfoERNS3_21ProtocolMessageWriterEjRKNS3_10ClientInfoEE3$_0NS_9allocatorIS9_EEFvS5_EED0Ev', 
                       '__ZNSt3__110__function6__funcIZN7Backend6GoogleL15writeClientInfoERNS3_21ProtocolMessageWriterEjRKNS3_10ClientInfoEE3$_0NS_9allocatorIS9_EEFvS5_EED1Ev', 
                       '__ZNSt3__110__function6__funcIZN7Backend6GoogleL15writeClientInfoERNS3_21ProtocolMessageWriterEjRKNS3_10ClientInfoEE3$_0NS_9allocatorIS9_EEFvS5_EED1Ev', 
                       '__ZNSt3__110__function6__funcIZN7Backend6GoogleL15writeClientInfoERNS3_21ProtocolMessageWriterEjRKNS3_10ClientInfoEE3$_0NS_9allocatorIS9_EEFvS5_EEclES5_', 
                       '__ZNSt3__110__function6__funcIZN7Backend6GoogleL15writeClientInfoERNS3_21ProtocolMessageWriterEjRKNS3_10ClientInfoEE3$_0NS_9allocatorIS9_EEFvS5_EEclES5_', 
                       '__ZNSt3__110__function6__funcIZN7Backend6GoogleL15writeThreatInfoERNS3_21ProtocolMessageWriterEjRKNS_3setINS3_10ThreatTypeENS_4lessIS7_EENS_9allocatorIS7_EEEERKNS6_INS3_12PlatformTypeENS8_ISF_EENSA_ISF_EEEERKNS6_INS3_15ThreatEntryTypeENS8_ISL_EENSA_ISL_EEEERKNS6_INS3_8HashViewENS8_ISR_EENSA_ISR_EEEEE3$_2NSA_ISX_EEFvS5_EE18destroy_deallocateEv', 
                       '__ZNSt3__110__function6__funcIZN7Backend6GoogleL15writeThreatInfoERNS3_21ProtocolMessageWriterEjRKNS_3setINS3_10ThreatTypeENS_4lessIS7_EENS_9allocatorIS7_EEEERKNS6_INS3_12PlatformTypeENS8_ISF_EENSA_ISF_EEEERKNS6_INS3_15ThreatEntryTypeENS8_ISL_EENSA_ISL_EEEERKNS6_INS3_8HashViewENS8_ISR_EENSA_ISR_EEEEE3$_2NSA_ISX_EEFvS5_EE7destroyEv', 
                       '__ZNSt3__110__function6__funcIZN7Backend6GoogleL15writeThreatInfoERNS3_21ProtocolMessageWriterEjRKNS_3setINS3_10ThreatTypeENS_4lessIS7_EENS_9allocatorIS7_EEEERKNS6_INS3_12PlatformTypeENS8_ISF_EENSA_ISF_EEEERKNS6_INS3_15ThreatEntryTypeENS8_ISL_EENSA_ISL_EEEERKNS6_INS3_8HashViewENS8_ISR_EENSA_ISR_EEEEE3$_2NSA_ISX_EEFvS5_EED0Ev', 
                       '__ZNSt3__110__function6__funcIZN7Backend6GoogleL15writeThreatInfoERNS3_21ProtocolMessageWriterEjRKNS_3setINS3_10ThreatTypeENS_4lessIS7_EENS_9allocatorIS7_EEEERKNS6_INS3_12PlatformTypeENS8_ISF_EENSA_ISF_EEEERKNS6_INS3_15ThreatEntryTypeENS8_ISL_EENSA_ISL_EEEERKNS6_INS3_8HashViewENS8_ISR_EENSA_ISR_EEEEE3$_2NSA_ISX_EEFvS5_EED1Ev', 
                       '__ZNSt3__110__function6__funcIZN7Backend6GoogleL15writeThreatInfoERNS3_21ProtocolMessageWriterEjRKNS_3setINS3_10ThreatTypeENS_4lessIS7_EENS_9allocatorIS7_EEEERKNS6_INS3_12PlatformTypeENS8_ISF_EENSA_ISF_EEEERKNS6_INS3_15ThreatEntryTypeENS8_ISL_EENSA_ISL_EEEERKNS6_INS3_8HashViewENS8_ISR_EENSA_ISR_EEEEE3$_2NSA_ISX_EEFvS5_EEclES5_', 
                       '__ZNSt3__110__function6__funcIZN7Backend6GoogleL16writeConstraintsERNS3_21ProtocolMessageWriterEjRKNS3_39FetchThreatListUpdatesRequestSerializer17ListUpdateRequest11ConstraintsEE3$_1NS_9allocatorISB_EEFvS5_EE18destroy_deallocateEv', 
                       '__ZNSt3__110__function6__funcIZN7Backend6GoogleL16writeConstraintsERNS3_21ProtocolMessageWriterEjRKNS3_39FetchThreatListUpdatesRequestSerializer17ListUpdateRequest11ConstraintsEE3$_1NS_9allocatorISB_EEFvS5_EE7destroyEv', 
                       '__ZNSt3__110__function6__funcIZN7Backend6GoogleL16writeConstraintsERNS3_21ProtocolMessageWriterEjRKNS3_39FetchThreatListUpdatesRequestSerializer17ListUpdateRequest11ConstraintsEE3$_1NS_9allocatorISB_EEFvS5_EED0Ev', 
                       '__ZNSt3__110__function6__funcIZN7Backend6GoogleL16writeConstraintsERNS3_21ProtocolMessageWriterEjRKNS3_39FetchThreatListUpdatesRequestSerializer17ListUpdateRequest11ConstraintsEE3$_1NS_9allocatorISB_EEFvS5_EED1Ev', 
                       '__ZNSt3__110__function6__funcIZN7Backend6GoogleL16writeConstraintsERNS3_21ProtocolMessageWriterEjRKNS3_39FetchThreatListUpdatesRequestSerializer17ListUpdateRequest11ConstraintsEE3$_1NS_9allocatorISB_EEFvS5_EEclES5_', 
                       '__ZNSt3__110__function6__funcIZN7Backend6GoogleL16writeThreatEntryERNS3_21ProtocolMessageWriterEjNS3_8HashViewEE3$_1NS_9allocatorIS7_EEFvS5_EE18destroy_deallocateEv', 
                       '__ZNSt3__110__function6__funcIZN7Backend6GoogleL16writeThreatEntryERNS3_21ProtocolMessageWriterEjNS3_8HashViewEE3$_1NS_9allocatorIS7_EEFvS5_EE7destroyEv', 
                       '__ZNSt3__110__function6__funcIZN7Backend6GoogleL16writeThreatEntryERNS3_21ProtocolMessageWriterEjNS3_8HashViewEE3$_1NS_9allocatorIS7_EEFvS5_EED0Ev', 
                       '__ZNSt3__110__function6__funcIZN7Backend6GoogleL16writeThreatEntryERNS3_21ProtocolMessageWriterEjNS3_8HashViewEE3$_1NS_9allocatorIS7_EEFvS5_EED1Ev', 
                       '__ZNSt3__110__function6__funcIZN7Backend6GoogleL16writeThreatEntryERNS3_21ProtocolMessageWriterEjNS3_8HashViewEE3$_1NS_9allocatorIS7_EEFvS5_EEclES5_', 
                       '__ZNSt3__110__function6__funcIZN7Backend6GoogleL22writeListUpdateRequestERNS3_21ProtocolMessageWriterEjRKNS3_39FetchThreatListUpdatesRequestSerializer17ListUpdateRequestEE3$_2NS_9allocatorISA_EEFvS5_EE18destroy_deallocateEv', 
                       '__ZNSt3__110__function6__funcIZN7Backend6GoogleL22writeListUpdateRequestERNS3_21ProtocolMessageWriterEjRKNS3_39FetchThreatListUpdatesRequestSerializer17ListUpdateRequestEE3$_2NS_9allocatorISA_EEFvS5_EE7destroyEv', 
                       '__ZNSt3__110__function6__funcIZN7Backend6GoogleL22writeListUpdateRequestERNS3_21ProtocolMessageWriterEjRKNS3_39FetchThreatListUpdatesRequestSerializer17ListUpdateRequestEE3$_2NS_9allocatorISA_EEFvS5_EED0Ev', 
                       '__ZNSt3__110__function6__funcIZN7Backend6GoogleL22writeListUpdateRequestERNS3_21ProtocolMessageWriterEjRKNS3_39FetchThreatListUpdatesRequestSerializer17ListUpdateRequestEE3$_2NS_9allocatorISA_EEFvS5_EED1Ev', 
                       '__ZNSt3__110__function6__funcIZN7Backend6GoogleL22writeListUpdateRequestERNS3_21ProtocolMessageWriterEjRKNS3_39FetchThreatListUpdatesRequestSerializer17ListUpdateRequestEE3$_2NS_9allocatorISA_EEFvS5_EEclES5_', 
                       __ZNSt3__117__call_once_proxyINS_5tupleIJOZN8Platform29OnceConstructedNeverDestroyedIZNS2_16xpcErrorCategoryEvE16XPCErrorCategoryEC1EvEUlvE_EEEEEvPv, 
                       __ZNSt3__1L19piecewise_constructE, __ZNSt3__1L19piecewise_constructE, 
                       __ZTVN12SafeBrowsing7ServiceE, __ZTVN8Platform16FileOutputStreamE, 
                       __ZTVN8Platform9ASLLoggerE, '__ZTVNSt3__110__function6__funcIZ24-[SSBLookupContext init]E3$_0NS_9allocatorIS2_EEFvvEEE', 
                       '__ZTVNSt3__110__function6__funcIZ48-[SSBLookupContext lookUpURL:completionHandler:]E3$_1NS_9allocatorIS2_EEFvN7Backend12LookupResultENS_10error_codeEEEE', 
                       '__ZTVNSt3__110__function6__funcIZ67-[SSBLookupContext getLastDatabaseUpdateTimeWithCompletionHandler:]E3$_2NS_9allocatorIS2_EEFvNS_6chrono10time_pointINS5_12system_clockENS5_8durationIxNS_5ratioILl1ELl1000000EEEEEEENS_10error_codeEEEE', 
                       '__ZTVNSt3__110__function6__funcIZ71-[SSBLookupContext(SSBPrivate) _getServiceStatusWithCompletionHandler:]E3$_6NS_9allocatorIS2_EEFvN12SafeBrowsing13ServiceStatusENS_10error_codeEEEE', 
                       '__ZTVNSt3__110__function6__funcIZ72-[SSBLookupContext(SSBPrivate) _getDatabaseStatusWithCompletionHandler:]E3$_5NS_9allocatorIS2_EEFvN12SafeBrowsing14DatabaseStatusENS_10error_codeEEEE', 
                       '__ZTVNSt3__110__function6__funcIZ74-[SSBLookupContext(SSBPrivate) _forceDatabaseUpdateWithCompletionHandler:]E3$_4NS_9allocatorIS2_EEFvNS_10error_codeEEEE', 
                       '__ZTVNSt3__110__function6__funcIZN12SafeBrowsing13LookupContext17getDatabaseStatusENS_8functionIFvNS2_14DatabaseStatusENS_10error_codeEEEEE3$_0NS_9allocatorIS9_EEFvS6_EEE', 
                       '__ZTVNSt3__110__function6__funcIZN12SafeBrowsing13LookupContext25getLastDatabaseUpdateTimeENS_8functionIFvNS_6chrono10time_pointINS5_12system_clockENS5_8durationIxNS_5ratioILl1ELl1000000EEEEEEENS_10error_codeEEEEE3$_2NS_9allocatorISG_EEFvSD_EEE', 
                       '__ZTVNSt3__110__function6__funcIZN12SafeBrowsing13LookupContext9lookUpURLEP5NSURLNS_8functionIFvN7Backend12LookupResultENS_10error_codeEEEEE3$_1NS_9allocatorISC_EEFvS9_EEE', 
                       '__ZTVNSt3__110__function6__funcIZN12SafeBrowsing7Service21handleCheckFullHashesEPU24objcproto13OS_xpc_object8NSObjectE3$_0NS_9allocatorIS7_EEFvNS_6vectorIN7Backend6Google20ThreatListDescriptorENS8_ISD_EEEEEEE', 
                       '__ZTVNSt3__110__function6__funcIZN7Backend6Google15FullHashChecker11checkHashesENS_10shared_ptrINS4_5CheckEEEE3$_0NS_9allocatorIS8_EEFvNSt12experimental15fundamentals_v18optionalINS3_28FindFullHashesResponseParser6ResultEEEEEE', 
                       '__ZTVNSt3__110__function6__funcIZN7Backend6GoogleL15writeClientInfoERNS3_21ProtocolMessageWriterEjRKNS3_10ClientInfoEE3$_0NS_9allocatorIS9_EEFvS5_EEE', 
                       '__ZTVNSt3__110__function6__funcIZN7Backend6GoogleL15writeClientInfoERNS3_21ProtocolMessageWriterEjRKNS3_10ClientInfoEE3$_0NS_9allocatorIS9_EEFvS5_EEE', 
                       '__ZTVNSt3__110__function6__funcIZN7Backend6GoogleL15writeThreatInfoERNS3_21ProtocolMessageWriterEjRKNS_3setINS3_10ThreatTypeENS_4lessIS7_EENS_9allocatorIS7_EEEERKNS6_INS3_12PlatformTypeENS8_ISF_EENSA_ISF_EEEERKNS6_INS3_15ThreatEntryTypeENS8_ISL_EENSA_ISL_EEEERKNS6_INS3_8HashViewENS8_ISR_EENSA_ISR_EEEEE3$_2NSA_ISX_EEFvS5_EEE', 
                       '__ZTVNSt3__110__function6__funcIZN7Backend6GoogleL16writeConstraintsERNS3_21ProtocolMessageWriterEjRKNS3_39FetchThreatListUpdatesRequestSerializer17ListUpdateRequest11ConstraintsEE3$_1NS_9allocatorISB_EEFvS5_EEE', 
                       '__ZTVNSt3__110__function6__funcIZN7Backend6GoogleL16writeThreatEntryERNS3_21ProtocolMessageWriterEjNS3_8HashViewEE3$_1NS_9allocatorIS7_EEFvS5_EEE', 
                       '__ZTVNSt3__110__function6__funcIZN7Backend6GoogleL22writeListUpdateRequestERNS3_21ProtocolMessageWriterEjRKNS3_39FetchThreatListUpdatesRequestSerializer17ListUpdateRequestEE3$_2NS_9allocatorISA_EEFvS5_EEE', 
                       __ZTVZN8Platform16xpcErrorCategoryEvE16XPCErrorCategory, 
                       '__ZZ39+[SSBLookupContext sharedLookupContext]E13lookupContext', 
                       '__ZZ39+[SSBLookupContext sharedLookupContext]E9onceToken', 
                       __ZZN12SafeBrowsing7Service6sharedEvE7service, '__ZZN7Backend6Google36FetchThreatListUpdatesResponseParser13parseAdditionERNS0_21ProtocolMessageReaderEEN3$_18__invokeEPKvS6_', 
                       __ZZN8Platform12decodeBase64EPKcS1_E20base64DecodeAlphabet, 
                       __ZZN8Platform12encodeBase64EPKhS1_E20base64EncodeAlphabet, 
                       '__ZZN8Platform13URLConnectionC1ERNS0_6ClientEPU28objcproto17OS_dispatch_queue8NSObjectP12NSURLRequestEN3$_08__invokeEP16_CFURLConnectionP14_CFURLResponsePKv', 
                       '__ZZN8Platform13URLConnectionC1ERNS0_6ClientEPU28objcproto17OS_dispatch_queue8NSObjectP12NSURLRequestEN3$_18__invokeEP16_CFURLConnectionPK8__CFDatalPKv', 
                       '__ZZN8Platform13URLConnectionC1ERNS0_6ClientEPU28objcproto17OS_dispatch_queue8NSObjectP12NSURLRequestEN3$_28__invokeEP16_CFURLConnectionPKv', 
                       '__ZZN8Platform13URLConnectionC1ERNS0_6ClientEPU28objcproto17OS_dispatch_queue8NSObjectP12NSURLRequestEN3$_38__invokeEP16_CFURLConnectionP9__CFErrorPKv', 
                       __ZZN8Platform16xpcErrorCategoryEvE16xpcErrorCategory, 
                       __ZZN8Platform16xpcErrorCategoryEvEN16XPCErrorCategoryD0Ev, 
                       __ZZN8Platform16xpcErrorCategoryEvEN16XPCErrorCategoryD1Ev, 
                       __ZZN8Platform16xpcErrorCategoryEvENK16XPCErrorCategory4nameEv, 
                       __ZZN8Platform16xpcErrorCategoryEvENK16XPCErrorCategory7messageEi, 
                       __ZZN8PlatformL18activeTransactionsEvE18activeTransactions, 
                       '___39+[SSBLookupContext sharedLookupContext]_block_invoke', 
                       ____ZN12SafeBrowsing13LookupContext15checkFullHashesEP5NSURLNSt3__16vectorIN7Backend6Google15FullHashRequestENS3_9allocatorIS7_EEEENS3_8functionIFvNS5_12LookupResultENS3_10error_codeEEEE_block_invoke, 
                       ____ZN12SafeBrowsing13LookupContext16ensureConnectionEv_block_invoke, 
                       ____ZN12SafeBrowsing13LookupContext16getServiceStatusENSt3__18functionIFvNS_13ServiceStatusENS1_10error_codeEEEE_block_invoke, 
                       ____ZN12SafeBrowsing13LookupContext19forceDatabaseUpdateENSt3__18functionIFvNS1_10error_codeEEEE_block_invoke, 
                       ____ZN12SafeBrowsing13LookupContext25addDatabaseUpdateObserverENSt3__18functionIFvvEEE_block_invoke, 
                       ____ZN12SafeBrowsing13LookupContext26handleCheckFullHashesReplyEP5NSURLPU24objcproto13OS_xpc_object8NSObjectNSt3__18functionIFvN7Backend12LookupResultENS6_10error_codeEEEE_block_invoke, 
                       ____ZN12SafeBrowsing13LookupContext27handleGetServiceStatusReplyEPU24objcproto13OS_xpc_object8NSObjectNSt3__18functionIFvNS_13ServiceStatusENS4_10error_codeEEEE_block_invoke, 
                       ____ZN12SafeBrowsing13LookupContext27handleGetServiceStatusReplyEPU24objcproto13OS_xpc_object8NSObjectNSt3__18functionIFvNS_13ServiceStatusENS4_10error_codeEEEE_block_invoke.37, 
                       ____ZN12SafeBrowsing13LookupContext28removeDatabaseUpdateObserverEj_block_invoke, 
                       ____ZN12SafeBrowsing13LookupContext30registerForUpdateNotificationsEv_block_invoke, 
                       ____ZN12SafeBrowsing13LookupContext33dispatchWhenDatabasesAreAvailableENSt3__18functionIFvNS1_10error_codeEEEE_block_invoke, 
                       ____ZN12SafeBrowsing13LookupContext9lookUpURLEP5NSURLNSt3__18functionIFvN7Backend12LookupResultENS3_10error_codeEEEE_block_invoke, 
                       ____ZN12SafeBrowsing7Service10initializeEv_block_invoke, 
                       ____ZN12SafeBrowsing7Service19handleNewConnectionEPU24objcproto13OS_xpc_object8NSObject_block_invoke, 
                       ____ZN12SafeBrowsing7Service22registerUpdateActivityENSt3__16chrono10time_pointINS2_12system_clockENS2_8durationIxNS1_5ratioILl1ELl1000000EEEEEEE_block_invoke, 
                       ____ZN12SafeBrowsing7Service31checkInOrRegisterUpdateActivityENSt3__16chrono10time_pointINS2_12system_clockENS2_8durationIxNS1_5ratioILl1ELl1000000EEEEEEE_block_invoke, 
                       ____ZN12SafeBrowsing7Service4mainEv_block_invoke, 
                       ____ZN12SafeBrowsingL15requestsFromXPCEPU24objcproto13OS_xpc_object8NSObject_block_invoke, 
                       ____ZN7Backend6Google13FullHashCache21updateExpirationTimerEv_block_invoke, 
                       ____ZN7Backend6Google15DatabaseUpdater10initializeEv_block_invoke, 
                       ____ZN7Backend6Google15DatabaseUpdater13didFailUpdateEv_block_invoke, 
                       ____ZN7Backend6Google15DatabaseUpdater19fetchEncodedUpdatesEv_block_invoke, 
                       ____ZN7Backend6Google15DatabaseUpdater22didFetchEncodedUpdatesEP6NSDataP17NSHTTPURLResponseP7NSError_block_invoke, 
                       ____ZN7Backend6Google15DatabaseUpdater6updateEv_block_invoke, 
                       ____ZN7Backend6Google15FullHashChecker11checkHashesENSt3__110shared_ptrINS1_5CheckEEE_block_invoke, 
                       ____ZN7Backend6Google15FullHashChecker11checkHashesENSt3__16vectorINS0_15FullHashRequestENS2_9allocatorIS4_EEEEPU28objcproto17OS_dispatch_queue8NSObjectNS2_8functionIFvNS3_INS0_20ThreatListDescriptorENS5_ISC_EEEEEEE_block_invoke, 
                       ____ZN7Backend6Google15FullHashFetcher11fetchHashesENSt3__16vectorINS0_15FullHashRequestENS2_9allocatorIS4_EEEEPU28objcproto17OS_dispatch_queue8NSObjectNS2_8functionIFvNSt12experimental15fundamentals_v18optionalINS0_28FindFullHashesResponseParser6ResultEEEEEE_block_invoke, 
                       ____ZN7Backend6Google15FullHashFetcher18didFetchFullHashesEP6NSDataP17NSHTTPURLResponseP7NSErrorPU28objcproto17OS_dispatch_queue8NSObjectNSt3__18functionIFvNSt12experimental15fundamentals_v18optionalINS0_28FindFullHashesResponseParser6ResultEEEEEE_block_invoke, 
                       ____ZN7Backend6Google15FullHashFetcher18didFetchFullHashesEP6NSDataP17NSHTTPURLResponseP7NSErrorPU28objcproto17OS_dispatch_queue8NSObjectNSt3__18functionIFvNSt12experimental15fundamentals_v18optionalINS0_28FindFullHashesResponseParser6ResultEEEEEE_block_invoke.12, 
                       ____ZN7Backend6Google15FullHashFetcher18didFetchFullHashesEP6NSDataP17NSHTTPURLResponseP7NSErrorPU28objcproto17OS_dispatch_queue8NSObjectNSt3__18functionIFvNSt12experimental15fundamentals_v18optionalINS0_28FindFullHashesResponseParser6ResultEEEEEE_block_invoke.17, 
                       ____ZN7Backend6Google15FullHashFetcher22setMinimumWaitDurationENSt3__16chrono8durationIxNS2_5ratioILl1ELl1EEEEE_block_invoke, 
                       '____ZZ24-[SSBLookupContext init]ENK3$_0clEv_block_invoke', 
                       '____ZZN12SafeBrowsing13LookupContext16getServiceStatusENSt3__18functionIFvNS_13ServiceStatusENS1_10error_codeEEEEENK3$_6clEv_block_invoke', 
                       '____ZZN12SafeBrowsing13LookupContext33dispatchWhenDatabasesAreAvailableENSt3__18functionIFvNS1_10error_codeEEEEENK4$_10clEv_block_invoke', 
                       '____ZZN12SafeBrowsing7Service19handleNewConnectionEPU24objcproto13OS_xpc_object8NSObjectENK3$_5clES3__block_invoke', 
                       '____ZZN12SafeBrowsing7Service22registerUpdateActivityENSt3__16chrono10time_pointINS2_12system_clockENS2_8durationIxNS1_5ratioILl1ELl1000000EEEEEEEENK3$_3clEPU24objcproto13OS_xpc_object8NSObject_block_invoke', 
                       '____ZZN12SafeBrowsing7Service31checkInOrRegisterUpdateActivityENSt3__16chrono10time_pointINS2_12system_clockENS2_8durationIxNS1_5ratioILl1ELl1000000EEEEEEEENK3$_2clEPU24objcproto13OS_xpc_object8NSObject_block_invoke', 
                       '____ZZN12SafeBrowsing7Service4mainEvENK3$_4clEPU24objcproto13OS_xpc_object8NSObject_block_invoke', 
                       '____ZZN7Backend6Google15DatabaseUpdater10initializeEvENK3$_1clEv_block_invoke', 
                       '____ZZN7Backend6Google15DatabaseUpdater19fetchEncodedUpdatesEvENK3$_3clEP6NSDataP13NSURLResponseP7NSError_block_invoke', 
                       '____ZZN7Backend6Google15DatabaseUpdater6updateEvENK3$_2clEv_block_invoke', 
                       '____ZZN7Backend6Google15FullHashFetcher11fetchHashesENSt3__16vectorINS0_15FullHashRequestENS2_9allocatorIS4_EEEEPU28objcproto17OS_dispatch_queue8NSObjectNS2_8functionIFvNSt12experimental15fundamentals_v18optionalINS0_28FindFullHashesResponseParser6ResultEEEEEEENK3$_0clEv_block_invoke', 
                       '____ZZN7Backend6Google15FullHashFetcher11fetchHashesENSt3__16vectorINS0_15FullHashRequestENS2_9allocatorIS4_EEEEPU28objcproto17OS_dispatch_queue8NSObjectNS2_8functionIFvNSt12experimental15fundamentals_v18optionalINS0_28FindFullHashesResponseParser6ResultEEEEEEENK3$_0clEv_block_invoke.30', 
                       '____ZZZN7Backend6Google15FullHashFetcher11fetchHashesENSt3__16vectorINS0_15FullHashRequestENS2_9allocatorIS4_EEEEPU28objcproto17OS_dispatch_queue8NSObjectNS2_8functionIFvNSt12experimental15fundamentals_v18optionalINS0_28FindFullHashesResponseParser6ResultEEEEEEENK3$_0clEvENKUlP6NSDataP13NSURLResponseP7NSErrorE_clESM_SO_SQ__block_invoke', 
                       ___block_descriptor_tmp, ___block_descriptor_tmp, 
                       ___block_descriptor_tmp, ___block_descriptor_tmp, 
                       ___block_descriptor_tmp, ___block_descriptor_tmp, 
                       ___block_descriptor_tmp, ___block_descriptor_tmp.13, 
                       ___block_descriptor_tmp.15, ___block_descriptor_tmp.15, 
                       ___block_descriptor_tmp.16, ___block_descriptor_tmp.17, 
                       ___block_descriptor_tmp.19, ___block_descriptor_tmp.21, 
                       ___block_descriptor_tmp.22, ___block_descriptor_tmp.23, 
                       ___block_descriptor_tmp.24, ___block_descriptor_tmp.25, 
                       ___block_descriptor_tmp.26, ___block_descriptor_tmp.27, 
                       ___block_descriptor_tmp.27, ___block_descriptor_tmp.29, 
                       ___block_descriptor_tmp.31, ___block_descriptor_tmp.31, 
                       ___block_descriptor_tmp.35, ___block_descriptor_tmp.36, 
                       ___block_descriptor_tmp.41, ___block_descriptor_tmp.42, 
                       ___block_descriptor_tmp.42, ___block_descriptor_tmp.45, 
                       ___block_descriptor_tmp.47, ___block_descriptor_tmp.49, 
                       ___block_descriptor_tmp.49, ___block_descriptor_tmp.5, 
                       ___block_descriptor_tmp.51, ___block_descriptor_tmp.53, 
                       ___block_descriptor_tmp.53, ___block_descriptor_tmp.56, 
                       ___block_descriptor_tmp.56, ___block_descriptor_tmp.59, 
                       ___block_descriptor_tmp.6, ___block_descriptor_tmp.67, 
                       ___block_descriptor_tmp.7, ___block_descriptor_tmp.7, 
                       ___block_descriptor_tmp.9, ___copy_helper_block_, 
                       ___copy_helper_block_, ___copy_helper_block_, ___copy_helper_block_, 
                       ___copy_helper_block_, ___copy_helper_block_, ___copy_helper_block_, 
                       ___copy_helper_block_.10, ___copy_helper_block_.11, 
                       ___copy_helper_block_.11, ___copy_helper_block_.13, 
                       ___copy_helper_block_.14, ___copy_helper_block_.16, 
                       ___copy_helper_block_.18, ___copy_helper_block_.18, 
                       ___copy_helper_block_.2, ___copy_helper_block_.20, 
                       ___copy_helper_block_.22, ___copy_helper_block_.22, 
                       ___copy_helper_block_.23, ___copy_helper_block_.24, 
                       ___copy_helper_block_.24, ___copy_helper_block_.26, 
                       ___copy_helper_block_.28, ___copy_helper_block_.28, 
                       ___copy_helper_block_.3, ___copy_helper_block_.31, 
                       ___copy_helper_block_.32, ___copy_helper_block_.38, 
                       ___copy_helper_block_.39, ___copy_helper_block_.4, 
                       ___copy_helper_block_.4, ___copy_helper_block_.40, 
                       ___copy_helper_block_.42, ___copy_helper_block_.44, 
                       ___copy_helper_block_.46, ___copy_helper_block_.46, 
                       ___copy_helper_block_.48, ___copy_helper_block_.50, 
                       ___copy_helper_block_.50, ___copy_helper_block_.53, 
                       ___copy_helper_block_.54, ___copy_helper_block_.56, 
                       ___copy_helper_block_.6, ___copy_helper_block_.63, 
                       ___destroy_helper_block_, ___destroy_helper_block_, 
                       ___destroy_helper_block_, ___destroy_helper_block_, 
                       ___destroy_helper_block_, ___destroy_helper_block_, 
                       ___destroy_helper_block_, ___destroy_helper_block_.11, 
                       ___destroy_helper_block_.12, ___destroy_helper_block_.12, 
                       ___destroy_helper_block_.14, ___destroy_helper_block_.15, 
                       ___destroy_helper_block_.17, ___destroy_helper_block_.19, 
                       ___destroy_helper_block_.19, ___destroy_helper_block_.21, 
                       ___destroy_helper_block_.23, ___destroy_helper_block_.23, 
                       ___destroy_helper_block_.24, ___destroy_helper_block_.25, 
                       ___destroy_helper_block_.25, ___destroy_helper_block_.27, 
                       ___destroy_helper_block_.29, ___destroy_helper_block_.29, 
                       ___destroy_helper_block_.3, ___destroy_helper_block_.32, 
                       ___destroy_helper_block_.33, ___destroy_helper_block_.39, 
                       ___destroy_helper_block_.4, ___destroy_helper_block_.40, 
                       ___destroy_helper_block_.41, ___destroy_helper_block_.43, 
                       ___destroy_helper_block_.45, ___destroy_helper_block_.47, 
                       ___destroy_helper_block_.47, ___destroy_helper_block_.49, 
                       ___destroy_helper_block_.5, ___destroy_helper_block_.5, 
                       ___destroy_helper_block_.51, ___destroy_helper_block_.51, 
                       ___destroy_helper_block_.54, ___destroy_helper_block_.55, 
                       ___destroy_helper_block_.57, ___destroy_helper_block_.64, 
                       ___destroy_helper_block_.7 ]
    weak-def-symbols: [ __ZN7Backend6Google14BackoffTrackerINSt3__16chrono12system_clockEE15didReceiveErrorEv, 
                        __ZN12SafeBrowsing7ServiceD0Ev, __ZN12SafeBrowsing7ServiceD1Ev, 
                        __ZN12SafeBrowsing7ServiceD2Ev, __ZN7Backend6Google12getEnumValueINS0_10ThreatTypeEEEbPU24objcproto13OS_xpc_object8NSObjectPKcRT_, 
                        __ZN7Backend6Google12getEnumValueINS0_12PlatformTypeEEEbPU24objcproto13OS_xpc_object8NSObjectPKcRT_, 
                        __ZN7Backend6Google12getEnumValueINS0_15ThreatEntryTypeEEEbPU24objcproto13OS_xpc_object8NSObjectPKcRT_, 
                        __ZN7Backend6Google14BackoffTrackerINSt3__16chrono12system_clockEE26didReceiveSuccessfulResultEv, 
                        __ZN7Backend6Google21ProtocolMessageReader24readEmbeddedMessageFieldINS0_17RiceDeltaEncodingEEENSt12experimental15fundamentals_v18optionalIT_EENSt3__18functionIFS8_RS1_EEE, 
                        __ZN7Backend6Google21ProtocolMessageReader24readEmbeddedMessageFieldINS0_18ListUpdateResponse8AdditionEEENSt12experimental15fundamentals_v18optionalIT_EENSt3__18functionIFS9_RS1_EEE, 
                        __ZN7Backend6Google21ProtocolMessageReader24readEmbeddedMessageFieldINS0_18ListUpdateResponseEEENSt12experimental15fundamentals_v18optionalIT_EENSt3__18functionIFS8_RS1_EEE, 
                        __ZN7Backend6Google21ProtocolMessageReader24readEmbeddedMessageFieldINS0_28FindFullHashesResponseParser6Result11ThreatMatch13MetadataEntryEEENSt12experimental15fundamentals_v18optionalIT_EENSt3__18functionIFSB_RS1_EEE, 
                        __ZN7Backend6Google21ProtocolMessageReader24readEmbeddedMessageFieldINS0_28FindFullHashesResponseParser6Result11ThreatMatchEEENSt12experimental15fundamentals_v18optionalIT_EENSt3__18functionIFSA_RS1_EEE, 
                        __ZN7Backend6Google21ProtocolMessageReader24readEmbeddedMessageFieldINS0_9RawHashesEEENSt12experimental15fundamentals_v18optionalIT_EENSt3__18functionIFS8_RS1_EEE, 
                        __ZN7Backend6Google21ProtocolMessageReader24readEmbeddedMessageFieldINSt3__15arrayIhLm32EEEEENSt12experimental15fundamentals_v18optionalIT_EENS3_8functionIFSA_RS1_EEE, 
                        __ZN7Backend6Google21ProtocolMessageReader24readEmbeddedMessageFieldINSt3__16chrono8durationIxNS3_5ratioILl1ELl1EEEEEEENSt12experimental15fundamentals_v18optionalIT_EENS3_8functionIFSD_RS1_EEE, 
                        __ZN7Backend6Google21ProtocolMessageReader24readEmbeddedMessageFieldINSt3__16vectorINS0_28FindFullHashesResponseParser6Result11ThreatMatch13MetadataEntryENS3_9allocatorIS8_EEEEEENSt12experimental15fundamentals_v18optionalIT_EENS3_8functionIFSG_RS1_EEE, 
                        __ZN7Backend6Google21ProtocolMessageReader24readEmbeddedMessageFieldINSt3__16vectorIjNS3_9allocatorIjEEEEEENSt12experimental15fundamentals_v18optionalIT_EENS3_8functionIFSC_RS1_EEE, 
                        __ZN7Backend6Google21ProtocolMessageReader8readEnumINS0_10ThreatTypeEEEbRT_, 
                        __ZN7Backend6Google21ProtocolMessageReader8readEnumINS0_12PlatformTypeEEEbRT_, 
                        __ZN7Backend6Google21ProtocolMessageReader8readEnumINS0_12ResponseTypeEEEbRT_, 
                        __ZN7Backend6Google21ProtocolMessageReader8readEnumINS0_15CompressionTypeEEEbRT_, 
                        __ZN7Backend6Google21ProtocolMessageReader8readEnumINS0_15ThreatEntryTypeEEEbRT_, 
                        __ZN7Backend6GoogleltERKNS0_15FullHashChecker12FetchRequest5EntryES5_, 
                        __ZN7Backend6GoogleltERKNS0_4HashES3_, __ZN7Backend6GoogleltERKNS0_8HashViewES3_, 
                        __ZN8Platform29OnceConstructedNeverDestroyedIN12SafeBrowsing7ServiceEEC2Ev, 
                        __ZN8Platform29OnceConstructedNeverDestroyedINS_17SynchronizedValueINSt3__113unordered_setIPNS_11TransactionENS2_4hashIS5_EENS2_8equal_toIS5_EENS2_9allocatorIS5_EEEEEEEC2Ev, 
                        __ZN8Platform6Logger6StreamC2ERS0_NS0_5Entry4TypeE, 
                        __ZN8Platform6Logger6StreamD2Ev, __ZN8Platform9ASLLoggerD0Ev, 
                        __ZN8Platform9ASLLoggerD1Ev, __ZN8PlatformltERKNS_9ArrayViewIhEES3_, 
                        __ZNK7Backend6Google14BackoffTrackerINSt3__16chrono12system_clockEE33computeNextAllowedRequestDurationEv, 
                        __ZNKSt3__110__function6__funcIPFNSt12experimental15fundamentals_v18optionalIN7Backend6Google17RiceDeltaEncodingEEERNS6_21ProtocolMessageReaderEENS_9allocatorISC_EESB_E7__cloneEPNS0_6__baseISB_EE, 
                        __ZNKSt3__110__function6__funcIPFNSt12experimental15fundamentals_v18optionalIN7Backend6Google17RiceDeltaEncodingEEERNS6_21ProtocolMessageReaderEENS_9allocatorISC_EESB_E7__cloneEv, 
                        __ZNKSt3__110__function6__funcIPFNSt12experimental15fundamentals_v18optionalIN7Backend6Google18ListUpdateResponse8AdditionEEERNS6_21ProtocolMessageReaderEENS_9allocatorISD_EESC_E7__cloneEPNS0_6__baseISC_EE, 
                        __ZNKSt3__110__function6__funcIPFNSt12experimental15fundamentals_v18optionalIN7Backend6Google18ListUpdateResponse8AdditionEEERNS6_21ProtocolMessageReaderEENS_9allocatorISD_EESC_E7__cloneEv, 
                        __ZNKSt3__110__function6__funcIPFNSt12experimental15fundamentals_v18optionalIN7Backend6Google18ListUpdateResponseEEERNS6_21ProtocolMessageReaderEENS_9allocatorISC_EESB_E7__cloneEPNS0_6__baseISB_EE, 
                        __ZNKSt3__110__function6__funcIPFNSt12experimental15fundamentals_v18optionalIN7Backend6Google18ListUpdateResponseEEERNS6_21ProtocolMessageReaderEENS_9allocatorISC_EESB_E7__cloneEv, 
                        __ZNKSt3__110__function6__funcIPFNSt12experimental15fundamentals_v18optionalIN7Backend6Google28FindFullHashesResponseParser6Result11ThreatMatch13MetadataEntryEEERNS6_21ProtocolMessageReaderEENS_9allocatorISF_EESE_E7__cloneEPNS0_6__baseISE_EE, 
                        __ZNKSt3__110__function6__funcIPFNSt12experimental15fundamentals_v18optionalIN7Backend6Google28FindFullHashesResponseParser6Result11ThreatMatch13MetadataEntryEEERNS6_21ProtocolMessageReaderEENS_9allocatorISF_EESE_E7__cloneEv, 
                        __ZNKSt3__110__function6__funcIPFNSt12experimental15fundamentals_v18optionalIN7Backend6Google28FindFullHashesResponseParser6Result11ThreatMatchEEERNS6_21ProtocolMessageReaderEENS_9allocatorISE_EESD_E7__cloneEPNS0_6__baseISD_EE, 
                        __ZNKSt3__110__function6__funcIPFNSt12experimental15fundamentals_v18optionalIN7Backend6Google28FindFullHashesResponseParser6Result11ThreatMatchEEERNS6_21ProtocolMessageReaderEENS_9allocatorISE_EESD_E7__cloneEv, 
                        __ZNKSt3__110__function6__funcIPFNSt12experimental15fundamentals_v18optionalIN7Backend6Google9RawHashesEEERNS6_21ProtocolMessageReaderEENS_9allocatorISC_EESB_E7__cloneEPNS0_6__baseISB_EE, 
                        __ZNKSt3__110__function6__funcIPFNSt12experimental15fundamentals_v18optionalIN7Backend6Google9RawHashesEEERNS6_21ProtocolMessageReaderEENS_9allocatorISC_EESB_E7__cloneEv, 
                        __ZNKSt3__110__function6__funcIPFNSt12experimental15fundamentals_v18optionalINS_5arrayIhLm32EEEEERN7Backend6Google21ProtocolMessageReaderEENS_9allocatorISD_EESC_E7__cloneEPNS0_6__baseISC_EE, 
                        __ZNKSt3__110__function6__funcIPFNSt12experimental15fundamentals_v18optionalINS_5arrayIhLm32EEEEERN7Backend6Google21ProtocolMessageReaderEENS_9allocatorISD_EESC_E7__cloneEv, 
                        __ZNKSt3__110__function6__funcIPFNSt12experimental15fundamentals_v18optionalINS_6chrono8durationIxNS_5ratioILl1ELl1EEEEEEERN7Backend6Google21ProtocolMessageReaderEENS_9allocatorISG_EESF_E7__cloneEPNS0_6__baseISF_EE, 
                        __ZNKSt3__110__function6__funcIPFNSt12experimental15fundamentals_v18optionalINS_6chrono8durationIxNS_5ratioILl1ELl1EEEEEEERN7Backend6Google21ProtocolMessageReaderEENS_9allocatorISG_EESF_E7__cloneEv, 
                        __ZNKSt3__110__function6__funcIPFNSt12experimental15fundamentals_v18optionalINS_6vectorIN7Backend6Google28FindFullHashesResponseParser6Result11ThreatMatch13MetadataEntryENS_9allocatorISB_EEEEEERNS7_21ProtocolMessageReaderEENSC_ISJ_EESI_E7__cloneEPNS0_6__baseISI_EE, 
                        __ZNKSt3__110__function6__funcIPFNSt12experimental15fundamentals_v18optionalINS_6vectorIN7Backend6Google28FindFullHashesResponseParser6Result11ThreatMatch13MetadataEntryENS_9allocatorISB_EEEEEERNS7_21ProtocolMessageReaderEENSC_ISJ_EESI_E7__cloneEv, 
                        __ZNKSt3__110__function6__funcIPFNSt12experimental15fundamentals_v18optionalINS_6vectorIjNS_9allocatorIjEEEEEERN7Backend6Google21ProtocolMessageReaderEENS6_ISF_EESE_E7__cloneEPNS0_6__baseISE_EE, 
                        __ZNKSt3__110__function6__funcIPFNSt12experimental15fundamentals_v18optionalINS_6vectorIjNS_9allocatorIjEEEEEERN7Backend6Google21ProtocolMessageReaderEENS6_ISF_EESE_E7__cloneEv, 
                        __ZNKSt3__115basic_stringbufIcNS_11char_traitsIcEENS_9allocatorIcEEE3strEv, 
                        __ZNKSt3__16__treeIN7Backend6Google15FullHashChecker12FetchRequest5EntryENS_4lessIS5_EENS_9allocatorIS5_EEE14__count_uniqueIS5_EEmRKT_, 
                        __ZNKSt3__16__treeINS_12__value_typeINS_4pairIN7Backend6Google20ThreatListDescriptorENS4_4HashEEENS4_13FullHashCache5ValueEEENS_19__map_value_compareIS7_SA_NS_4lessIS7_EELb1EEENS_9allocatorISA_EEE13__lower_boundIS7_EENS_21__tree_const_iteratorISA_PNS_11__tree_nodeISA_PvEElEERKT_SN_PNS_15__tree_end_nodeIPNS_16__tree_node_baseISL_EEEE, 
                        __ZNKSt3__16__treeINS_12__value_typeINS_4pairIN7Backend6Google20ThreatListDescriptorENS4_4HashEEENS4_13FullHashCache5ValueEEENS_19__map_value_compareIS7_SA_NS_4lessIS7_EELb1EEENS_9allocatorISA_EEE4findIS7_EENS_21__tree_const_iteratorISA_PNS_11__tree_nodeISA_PvEElEERKT_, 
                        __ZNKSt3__16__treeINS_12__value_typeINS_5arrayIhLm32EEENS_15__list_iteratorIS3_PvEEEENS_19__map_value_compareIS3_S7_NS_4lessIS3_EELb1EEENS_9allocatorIS7_EEE14__count_uniqueIS3_EEmRKT_, 
                        __ZNSt3__110__function6__funcIPFNSt12experimental15fundamentals_v18optionalIN7Backend6Google17RiceDeltaEncodingEEERNS6_21ProtocolMessageReaderEENS_9allocatorISC_EESB_E18destroy_deallocateEv, 
                        __ZNSt3__110__function6__funcIPFNSt12experimental15fundamentals_v18optionalIN7Backend6Google17RiceDeltaEncodingEEERNS6_21ProtocolMessageReaderEENS_9allocatorISC_EESB_E7destroyEv, 
                        __ZNSt3__110__function6__funcIPFNSt12experimental15fundamentals_v18optionalIN7Backend6Google17RiceDeltaEncodingEEERNS6_21ProtocolMessageReaderEENS_9allocatorISC_EESB_ED0Ev, 
                        __ZNSt3__110__function6__funcIPFNSt12experimental15fundamentals_v18optionalIN7Backend6Google17RiceDeltaEncodingEEERNS6_21ProtocolMessageReaderEENS_9allocatorISC_EESB_ED1Ev, 
                        __ZNSt3__110__function6__funcIPFNSt12experimental15fundamentals_v18optionalIN7Backend6Google17RiceDeltaEncodingEEERNS6_21ProtocolMessageReaderEENS_9allocatorISC_EESB_EclESA_, 
                        __ZNSt3__110__function6__funcIPFNSt12experimental15fundamentals_v18optionalIN7Backend6Google18ListUpdateResponse8AdditionEEERNS6_21ProtocolMessageReaderEENS_9allocatorISD_EESC_E18destroy_deallocateEv, 
                        __ZNSt3__110__function6__funcIPFNSt12experimental15fundamentals_v18optionalIN7Backend6Google18ListUpdateResponse8AdditionEEERNS6_21ProtocolMessageReaderEENS_9allocatorISD_EESC_E7destroyEv, 
                        __ZNSt3__110__function6__funcIPFNSt12experimental15fundamentals_v18optionalIN7Backend6Google18ListUpdateResponse8AdditionEEERNS6_21ProtocolMessageReaderEENS_9allocatorISD_EESC_ED0Ev, 
                        __ZNSt3__110__function6__funcIPFNSt12experimental15fundamentals_v18optionalIN7Backend6Google18ListUpdateResponse8AdditionEEERNS6_21ProtocolMessageReaderEENS_9allocatorISD_EESC_ED1Ev, 
                        __ZNSt3__110__function6__funcIPFNSt12experimental15fundamentals_v18optionalIN7Backend6Google18ListUpdateResponse8AdditionEEERNS6_21ProtocolMessageReaderEENS_9allocatorISD_EESC_EclESB_, 
                        __ZNSt3__110__function6__funcIPFNSt12experimental15fundamentals_v18optionalIN7Backend6Google18ListUpdateResponseEEERNS6_21ProtocolMessageReaderEENS_9allocatorISC_EESB_E18destroy_deallocateEv, 
                        __ZNSt3__110__function6__funcIPFNSt12experimental15fundamentals_v18optionalIN7Backend6Google18ListUpdateResponseEEERNS6_21ProtocolMessageReaderEENS_9allocatorISC_EESB_E7destroyEv, 
                        __ZNSt3__110__function6__funcIPFNSt12experimental15fundamentals_v18optionalIN7Backend6Google18ListUpdateResponseEEERNS6_21ProtocolMessageReaderEENS_9allocatorISC_EESB_ED0Ev, 
                        __ZNSt3__110__function6__funcIPFNSt12experimental15fundamentals_v18optionalIN7Backend6Google18ListUpdateResponseEEERNS6_21ProtocolMessageReaderEENS_9allocatorISC_EESB_ED1Ev, 
                        __ZNSt3__110__function6__funcIPFNSt12experimental15fundamentals_v18optionalIN7Backend6Google18ListUpdateResponseEEERNS6_21ProtocolMessageReaderEENS_9allocatorISC_EESB_EclESA_, 
                        __ZNSt3__110__function6__funcIPFNSt12experimental15fundamentals_v18optionalIN7Backend6Google28FindFullHashesResponseParser6Result11ThreatMatch13MetadataEntryEEERNS6_21ProtocolMessageReaderEENS_9allocatorISF_EESE_E18destroy_deallocateEv, 
                        __ZNSt3__110__function6__funcIPFNSt12experimental15fundamentals_v18optionalIN7Backend6Google28FindFullHashesResponseParser6Result11ThreatMatch13MetadataEntryEEERNS6_21ProtocolMessageReaderEENS_9allocatorISF_EESE_E7destroyEv, 
                        __ZNSt3__110__function6__funcIPFNSt12experimental15fundamentals_v18optionalIN7Backend6Google28FindFullHashesResponseParser6Result11ThreatMatch13MetadataEntryEEERNS6_21ProtocolMessageReaderEENS_9allocatorISF_EESE_ED0Ev, 
                        __ZNSt3__110__function6__funcIPFNSt12experimental15fundamentals_v18optionalIN7Backend6Google28FindFullHashesResponseParser6Result11ThreatMatch13MetadataEntryEEERNS6_21ProtocolMessageReaderEENS_9allocatorISF_EESE_ED1Ev, 
                        __ZNSt3__110__function6__funcIPFNSt12experimental15fundamentals_v18optionalIN7Backend6Google28FindFullHashesResponseParser6Result11ThreatMatch13MetadataEntryEEERNS6_21ProtocolMessageReaderEENS_9allocatorISF_EESE_EclESD_, 
                        __ZNSt3__110__function6__funcIPFNSt12experimental15fundamentals_v18optionalIN7Backend6Google28FindFullHashesResponseParser6Result11ThreatMatchEEERNS6_21ProtocolMessageReaderEENS_9allocatorISE_EESD_E18destroy_deallocateEv, 
                        __ZNSt3__110__function6__funcIPFNSt12experimental15fundamentals_v18optionalIN7Backend6Google28FindFullHashesResponseParser6Result11ThreatMatchEEERNS6_21ProtocolMessageReaderEENS_9allocatorISE_EESD_E7destroyEv, 
                        __ZNSt3__110__function6__funcIPFNSt12experimental15fundamentals_v18optionalIN7Backend6Google28FindFullHashesResponseParser6Result11ThreatMatchEEERNS6_21ProtocolMessageReaderEENS_9allocatorISE_EESD_ED0Ev, 
                        __ZNSt3__110__function6__funcIPFNSt12experimental15fundamentals_v18optionalIN7Backend6Google28FindFullHashesResponseParser6Result11ThreatMatchEEERNS6_21ProtocolMessageReaderEENS_9allocatorISE_EESD_ED1Ev, 
                        __ZNSt3__110__function6__funcIPFNSt12experimental15fundamentals_v18optionalIN7Backend6Google28FindFullHashesResponseParser6Result11ThreatMatchEEERNS6_21ProtocolMessageReaderEENS_9allocatorISE_EESD_EclESC_, 
                        __ZNSt3__110__function6__funcIPFNSt12experimental15fundamentals_v18optionalIN7Backend6Google9RawHashesEEERNS6_21ProtocolMessageReaderEENS_9allocatorISC_EESB_E18destroy_deallocateEv, 
                        __ZNSt3__110__function6__funcIPFNSt12experimental15fundamentals_v18optionalIN7Backend6Google9RawHashesEEERNS6_21ProtocolMessageReaderEENS_9allocatorISC_EESB_E7destroyEv, 
                        __ZNSt3__110__function6__funcIPFNSt12experimental15fundamentals_v18optionalIN7Backend6Google9RawHashesEEERNS6_21ProtocolMessageReaderEENS_9allocatorISC_EESB_ED0Ev, 
                        __ZNSt3__110__function6__funcIPFNSt12experimental15fundamentals_v18optionalIN7Backend6Google9RawHashesEEERNS6_21ProtocolMessageReaderEENS_9allocatorISC_EESB_ED1Ev, 
                        __ZNSt3__110__function6__funcIPFNSt12experimental15fundamentals_v18optionalIN7Backend6Google9RawHashesEEERNS6_21ProtocolMessageReaderEENS_9allocatorISC_EESB_EclESA_, 
                        __ZNSt3__110__function6__funcIPFNSt12experimental15fundamentals_v18optionalINS_5arrayIhLm32EEEEERN7Backend6Google21ProtocolMessageReaderEENS_9allocatorISD_EESC_E18destroy_deallocateEv, 
                        __ZNSt3__110__function6__funcIPFNSt12experimental15fundamentals_v18optionalINS_5arrayIhLm32EEEEERN7Backend6Google21ProtocolMessageReaderEENS_9allocatorISD_EESC_E7destroyEv, 
                        __ZNSt3__110__function6__funcIPFNSt12experimental15fundamentals_v18optionalINS_5arrayIhLm32EEEEERN7Backend6Google21ProtocolMessageReaderEENS_9allocatorISD_EESC_ED0Ev, 
                        __ZNSt3__110__function6__funcIPFNSt12experimental15fundamentals_v18optionalINS_5arrayIhLm32EEEEERN7Backend6Google21ProtocolMessageReaderEENS_9allocatorISD_EESC_ED1Ev, 
                        __ZNSt3__110__function6__funcIPFNSt12experimental15fundamentals_v18optionalINS_5arrayIhLm32EEEEERN7Backend6Google21ProtocolMessageReaderEENS_9allocatorISD_EESC_EclESB_, 
                        __ZNSt3__110__function6__funcIPFNSt12experimental15fundamentals_v18optionalINS_6chrono8durationIxNS_5ratioILl1ELl1EEEEEEERN7Backend6Google21ProtocolMessageReaderEENS_9allocatorISG_EESF_E18destroy_deallocateEv, 
                        __ZNSt3__110__function6__funcIPFNSt12experimental15fundamentals_v18optionalINS_6chrono8durationIxNS_5ratioILl1ELl1EEEEEEERN7Backend6Google21ProtocolMessageReaderEENS_9allocatorISG_EESF_E7destroyEv, 
                        __ZNSt3__110__function6__funcIPFNSt12experimental15fundamentals_v18optionalINS_6chrono8durationIxNS_5ratioILl1ELl1EEEEEEERN7Backend6Google21ProtocolMessageReaderEENS_9allocatorISG_EESF_ED0Ev, 
                        __ZNSt3__110__function6__funcIPFNSt12experimental15fundamentals_v18optionalINS_6chrono8durationIxNS_5ratioILl1ELl1EEEEEEERN7Backend6Google21ProtocolMessageReaderEENS_9allocatorISG_EESF_ED1Ev, 
                        __ZNSt3__110__function6__funcIPFNSt12experimental15fundamentals_v18optionalINS_6chrono8durationIxNS_5ratioILl1ELl1EEEEEEERN7Backend6Google21ProtocolMessageReaderEENS_9allocatorISG_EESF_EclESE_, 
                        __ZNSt3__110__function6__funcIPFNSt12experimental15fundamentals_v18optionalINS_6vectorIN7Backend6Google28FindFullHashesResponseParser6Result11ThreatMatch13MetadataEntryENS_9allocatorISB_EEEEEERNS7_21ProtocolMessageReaderEENSC_ISJ_EESI_E18destroy_deallocateEv, 
                        __ZNSt3__110__function6__funcIPFNSt12experimental15fundamentals_v18optionalINS_6vectorIN7Backend6Google28FindFullHashesResponseParser6Result11ThreatMatch13MetadataEntryENS_9allocatorISB_EEEEEERNS7_21ProtocolMessageReaderEENSC_ISJ_EESI_E7destroyEv, 
                        __ZNSt3__110__function6__funcIPFNSt12experimental15fundamentals_v18optionalINS_6vectorIN7Backend6Google28FindFullHashesResponseParser6Result11ThreatMatch13MetadataEntryENS_9allocatorISB_EEEEEERNS7_21ProtocolMessageReaderEENSC_ISJ_EESI_ED0Ev, 
                        __ZNSt3__110__function6__funcIPFNSt12experimental15fundamentals_v18optionalINS_6vectorIN7Backend6Google28FindFullHashesResponseParser6Result11ThreatMatch13MetadataEntryENS_9allocatorISB_EEEEEERNS7_21ProtocolMessageReaderEENSC_ISJ_EESI_ED1Ev, 
                        __ZNSt3__110__function6__funcIPFNSt12experimental15fundamentals_v18optionalINS_6vectorIN7Backend6Google28FindFullHashesResponseParser6Result11ThreatMatch13MetadataEntryENS_9allocatorISB_EEEEEERNS7_21ProtocolMessageReaderEENSC_ISJ_EESI_EclESH_, 
                        __ZNSt3__110__function6__funcIPFNSt12experimental15fundamentals_v18optionalINS_6vectorIjNS_9allocatorIjEEEEEERN7Backend6Google21ProtocolMessageReaderEENS6_ISF_EESE_E18destroy_deallocateEv, 
                        __ZNSt3__110__function6__funcIPFNSt12experimental15fundamentals_v18optionalINS_6vectorIjNS_9allocatorIjEEEEEERN7Backend6Google21ProtocolMessageReaderEENS6_ISF_EESE_E7destroyEv, 
                        __ZNSt3__110__function6__funcIPFNSt12experimental15fundamentals_v18optionalINS_6vectorIjNS_9allocatorIjEEEEEERN7Backend6Google21ProtocolMessageReaderEENS6_ISF_EESE_ED0Ev, 
                        __ZNSt3__110__function6__funcIPFNSt12experimental15fundamentals_v18optionalINS_6vectorIjNS_9allocatorIjEEEEEERN7Backend6Google21ProtocolMessageReaderEENS6_ISF_EESE_ED1Ev, 
                        __ZNSt3__110__function6__funcIPFNSt12experimental15fundamentals_v18optionalINS_6vectorIjNS_9allocatorIjEEEEEERN7Backend6Google21ProtocolMessageReaderEENS6_ISF_EESE_EclESD_, 
                        __ZNSt3__110__list_impINS_5arrayIhLm32EEENS_9allocatorIS2_EEE5clearEv, 
                        __ZNSt3__110shared_ptrIN12SafeBrowsing13LookupContextEE11make_sharedIJEEES3_DpOT_, 
                        __ZNSt3__110shared_ptrIN7Backend6Google13FullHashCacheEE11make_sharedIJRU8__strongPU28objcproto17OS_dispatch_queue8NSObjectEEES4_DpOT_, 
                        __ZNSt3__110shared_ptrIN7Backend6Google15DatabaseUpdaterEE11make_sharedIJRN12SafeBrowsing7ServiceERU8__strongPU28objcproto17OS_dispatch_queue8NSObjectRNS0_IN8Platform6LoggerEEERNS2_13ConfigurationENS_12basic_stringIcNS_11char_traitsIcEENS_9allocatorIcEEEENS_6vectorINS2_20ThreatListDescriptorENSN_ISR_EEEEEEES4_DpOT_, 
                        __ZNSt3__110shared_ptrIN7Backend6Google15FullHashCheckerEE11make_sharedIJRNS2_13ConfigurationEEEES4_DpOT_, 
                        __ZNSt3__110shared_ptrIN7Backend6Google15FullHashFetcherEE11make_sharedIJRKNS2_13ConfigurationEEEES4_DpOT_, 
                        __ZNSt3__110shared_ptrIN8Platform11TransactionEE11make_sharedIJRA17_KcEEES3_DpOT_, 
                        __ZNSt3__110shared_ptrIN8Platform12SharedMemoryEE11make_sharedIJRPvRmEEES3_DpOT_, 
                        __ZNSt3__110shared_ptrIN8Platform9ASLLoggerEE11make_sharedIJEEES3_DpOT_, 
                        __ZNSt3__112__hash_tableINS_17__hash_value_typeIhNS_6vectorIhNS_9allocatorIhEEEEEENS_22__unordered_map_hasherIhS6_NS_4hashIhEELb1EEENS_21__unordered_map_equalIhS6_NS_8equal_toIhEELb1EEENS3_IS6_EEE12__deallocateEPNS_16__hash_node_baseIPNS_11__hash_nodeIS6_PvEEEE, 
                        __ZNSt3__112__hash_tableINS_17__hash_value_typeIhNS_6vectorIhNS_9allocatorIhEEEEEENS_22__unordered_map_hasherIhS6_NS_4hashIhEELb1EEENS_21__unordered_map_equalIhS6_NS_8equal_toIhEELb1EEENS3_IS6_EEE4findIhEENS_15__hash_iteratorIPNS_11__hash_nodeIS6_PvEEEERKT_, 
                        __ZNSt3__112__hash_tableINS_17__hash_value_typeIhNS_6vectorIhNS_9allocatorIhEEEEEENS_22__unordered_map_hasherIhS6_NS_4hashIhEELb1EEENS_21__unordered_map_equalIhS6_NS_8equal_toIhEELb1EEENS3_IS6_EEE6rehashEm, 
                        __ZNSt3__112__hash_tableINS_17__hash_value_typeIhNS_6vectorIhNS_9allocatorIhEEEEEENS_22__unordered_map_hasherIhS6_NS_4hashIhEELb1EEENS_21__unordered_map_equalIhS6_NS_8equal_toIhEELb1EEENS3_IS6_EEE8__rehashEm, 
                        __ZNSt3__112__hash_tableINS_17__hash_value_typeIhNS_6vectorIhNS_9allocatorIhEEEEEENS_22__unordered_map_hasherIhS6_NS_4hashIhEELb1EEENS_21__unordered_map_equalIhS6_NS_8equal_toIhEELb1EEENS3_IS6_EEED2Ev, 
                        __ZNSt3__112__hash_tableINS_17__hash_value_typeIjNS_8functionIFvvEEEEENS_22__unordered_map_hasherIjS5_NS_4hashIjEELb1EEENS_21__unordered_map_equalIjS5_NS_8equal_toIjEELb1EEENS_9allocatorIS5_EEE12__deallocateEPNS_16__hash_node_baseIPNS_11__hash_nodeIS5_PvEEEE, 
                        __ZNSt3__112__hash_tableINS_17__hash_value_typeIjNS_8functionIFvvEEEEENS_22__unordered_map_hasherIjS5_NS_4hashIjEELb1EEENS_21__unordered_map_equalIjS5_NS_8equal_toIjEELb1EEENS_9allocatorIS5_EEE6rehashEm, 
                        __ZNSt3__112__hash_tableINS_17__hash_value_typeIjNS_8functionIFvvEEEEENS_22__unordered_map_hasherIjS5_NS_4hashIjEELb1EEENS_21__unordered_map_equalIjS5_NS_8equal_toIjEELb1EEENS_9allocatorIS5_EEE8__rehashEm, 
                        __ZNSt3__112__hash_tableINS_17__hash_value_typeIjNS_8functionIFvvEEEEENS_22__unordered_map_hasherIjS5_NS_4hashIjEELb1EEENS_21__unordered_map_equalIjS5_NS_8equal_toIjEELb1EEENS_9allocatorIS5_EEED2Ev, 
                        __ZNSt3__112__hash_tableIPN8Platform11TransactionENS_4hashIS3_EENS_8equal_toIS3_EENS_9allocatorIS3_EEE14__erase_uniqueIS3_EEmRKT_, 
                        __ZNSt3__112__hash_tableIPN8Platform11TransactionENS_4hashIS3_EENS_8equal_toIS3_EENS_9allocatorIS3_EEE4findIS3_EENS_15__hash_iteratorIPNS_11__hash_nodeIS3_PvEEEERKT_, 
                        __ZNSt3__112__hash_tableIPN8Platform11TransactionENS_4hashIS3_EENS_8equal_toIS3_EENS_9allocatorIS3_EEE5eraseENS_21__hash_const_iteratorIPNS_11__hash_nodeIS3_PvEEEE, 
                        __ZNSt3__112__hash_tableIPN8Platform11TransactionENS_4hashIS3_EENS_8equal_toIS3_EENS_9allocatorIS3_EEE6rehashEm, 
                        __ZNSt3__112__hash_tableIPN8Platform11TransactionENS_4hashIS3_EENS_8equal_toIS3_EENS_9allocatorIS3_EEE6removeENS_21__hash_const_iteratorIPNS_11__hash_nodeIS3_PvEEEE, 
                        __ZNSt3__112__hash_tableIPN8Platform11TransactionENS_4hashIS3_EENS_8equal_toIS3_EENS_9allocatorIS3_EEE8__rehashEm, 
                        __ZNSt3__112basic_stringIcNS_11char_traitsIcEENS_9allocatorIcEEE6__initINS_11__wrap_iterIPKhEEEENS_9enable_ifIXsr21__is_forward_iteratorIT_EE5valueEvE4typeESC_SC_, 
                        __ZNSt3__112basic_stringIcNS_11char_traitsIcEENS_9allocatorIcEEE6__initINS_11__wrap_iterIPcEEEENS_9enable_ifIXsr21__is_forward_iteratorIT_EE5valueEvE4typeESB_SB_, 
                        __ZNSt3__112basic_stringIcNS_11char_traitsIcEENS_9allocatorIcEEE6__initINS_11__wrap_iterIPhEEEENS_9enable_ifIXsr21__is_forward_iteratorIT_EE5valueEvE4typeESB_SB_, 
                        __ZNSt3__112basic_stringIcNS_11char_traitsIcEENS_9allocatorIcEEE6__initIPKhEENS_9enable_ifIXsr21__is_forward_iteratorIT_EE5valueEvE4typeESA_SA_, 
                        __ZNSt3__112basic_stringIcNS_11char_traitsIcEENS_9allocatorIcEEE6__initIPcEENS_9enable_ifIXsr21__is_forward_iteratorIT_EE5valueEvE4typeES9_S9_, 
                        __ZNSt3__112basic_stringIcNS_11char_traitsIcEENS_9allocatorIcEEE6appendINS_11__wrap_iterIPKhEEEENS_9enable_ifIXsr21__is_forward_iteratorIT_EE5valueERS5_E4typeESC_SC_, 
                        __ZNSt3__113__lower_boundIRNS_6__lessIN7Backend6Google8HashViewES4_EENS3_12HashIteratorES4_EET0_S8_S8_RKT1_T_, 
                        __ZNSt3__113__tree_removeIPNS_16__tree_node_baseIPvEEEEvT_S5_, 
                        __ZNSt3__113__vector_baseIN12SafeBrowsing13ServiceStatus10ConnectionENS_9allocatorIS3_EEED2Ev, 
                        __ZNSt3__113__vector_baseIN12SafeBrowsing14DatabaseStatus8DatabaseENS_9allocatorIS3_EEED2Ev, 
                        __ZNSt3__113__vector_baseIN7Backend6Google12DatabaseInfoENS_9allocatorIS3_EEED2Ev, 
                        __ZNSt3__113__vector_baseIN7Backend6Google13FullHashCache5Value5EntryENS_9allocatorIS5_EEED2Ev, 
                        __ZNSt3__113__vector_baseIN7Backend6Google15CompressionTypeENS_9allocatorIS3_EEED2Ev, 
                        __ZNSt3__113__vector_baseIN7Backend6Google15FullHashRequestENS_9allocatorIS3_EEED2Ev, 
                        __ZNSt3__113__vector_baseIN7Backend6Google18ListUpdateResponse8AdditionENS_9allocatorIS4_EEED2Ev, 
                        __ZNSt3__113__vector_baseIN7Backend6Google18ListUpdateResponseENS_9allocatorIS3_EEED2Ev, 
                        __ZNSt3__113__vector_baseIN7Backend6Google20ThreatListDescriptorENS_9allocatorIS3_EEED2Ev, 
                        __ZNSt3__113__vector_baseIN7Backend6Google28FindFullHashesResponseParser6Result11ThreatMatch13MetadataEntryENS_9allocatorIS6_EEED2Ev, 
                        __ZNSt3__113__vector_baseIN7Backend6Google28FindFullHashesResponseParser6Result11ThreatMatchENS_9allocatorIS5_EEED2Ev, 
                        __ZNSt3__113__vector_baseIN7Backend6Google38LexicographicallyOrderedHashEnumerator8PositionENS_9allocatorIS4_EEED2Ev, 
                        __ZNSt3__113__vector_baseIN7Backend6Google39FetchThreatListUpdatesRequestSerializer17ListUpdateRequestENS_9allocatorIS4_EEED2Ev, 
                        __ZNSt3__113__vector_baseIN7Backend6Google8Database14HashSizeBucketENS_9allocatorIS4_EEED2Ev, 
                        __ZNSt3__113__vector_baseINS_12basic_stringIcNS_11char_traitsIcEENS_9allocatorIcEEEENS4_IS6_EEED2Ev, 
                        __ZNSt3__113__vector_baseINS_5arrayIhLm32EEENS_9allocatorIS2_EEED2Ev, 
                        __ZNSt3__113__vector_baseINS_8functionIFvNS_10error_codeEEEENS_9allocatorIS4_EEED2Ev, 
                        __ZNSt3__113__vector_baseIU8__strongPU24objcproto13OS_xpc_object8NSObjectNS_9allocatorIS4_EEED2Ev, 
                        __ZNSt3__113__vector_baseIjNS_9allocatorIjEEED2Ev, 
                        __ZNSt3__113unordered_mapIhNS_6vectorIhNS_9allocatorIhEEEENS_4hashIhEENS_8equal_toIhEENS2_INS_4pairIKhS4_EEEEEixEOh, 
                        __ZNSt3__113unordered_mapIjNS_8functionIFvvEEENS_4hashIjEENS_8equal_toIjEENS_9allocatorINS_4pairIKjS3_EEEEEixERSA_, 
                        __ZNSt3__114__split_bufferIN12SafeBrowsing13ServiceStatus10ConnectionERNS_9allocatorIS3_EEED2Ev, 
                        __ZNSt3__114__split_bufferIN12SafeBrowsing14DatabaseStatus8DatabaseERNS_9allocatorIS3_EEED2Ev, 
                        __ZNSt3__114__split_bufferIN7Backend6Google12DatabaseInfoERNS_9allocatorIS3_EEED2Ev, 
                        __ZNSt3__114__split_bufferIN7Backend6Google13FullHashCache5Value5EntryERNS_9allocatorIS5_EEED2Ev, 
                        __ZNSt3__114__split_bufferIN7Backend6Google15FullHashRequestERNS_9allocatorIS3_EEED2Ev, 
                        __ZNSt3__114__split_bufferIN7Backend6Google18ListUpdateResponse8AdditionERNS_9allocatorIS4_EEED2Ev, 
                        __ZNSt3__114__split_bufferIN7Backend6Google18ListUpdateResponseERNS_9allocatorIS3_EEED2Ev, 
                        __ZNSt3__114__split_bufferIN7Backend6Google28FindFullHashesResponseParser6Result11ThreatMatch13MetadataEntryERNS_9allocatorIS6_EEED2Ev, 
                        __ZNSt3__114__split_bufferIN7Backend6Google28FindFullHashesResponseParser6Result11ThreatMatchERNS_9allocatorIS5_EEED2Ev, 
                        __ZNSt3__114__split_bufferIN7Backend6Google39FetchThreatListUpdatesRequestSerializer17ListUpdateRequestERNS_9allocatorIS4_EEED2Ev, 
                        __ZNSt3__114__split_bufferINS_12basic_stringIcNS_11char_traitsIcEENS_9allocatorIcEEEERNS4_IS6_EEED2Ev, 
                        __ZNSt3__114__split_bufferINS_5arrayIhLm32EEERNS_9allocatorIS2_EEED2Ev, 
                        __ZNSt3__114__split_bufferINS_8functionIFvNS_10error_codeEEEERNS_9allocatorIS4_EEED2Ev, 
                        __ZNSt3__114__split_bufferIU8__strongPU24objcproto13OS_xpc_object8NSObjectRNS_9allocatorIS4_EEED2Ev, 
                        __ZNSt3__115basic_stringbufIcNS_11char_traitsIcEENS_9allocatorIcEEE3strERKNS_12basic_stringIcS2_S4_EE, 
                        __ZNSt3__115basic_stringbufIcNS_11char_traitsIcEENS_9allocatorIcEEE7seekoffExNS_8ios_base7seekdirEj, 
                        __ZNSt3__115basic_stringbufIcNS_11char_traitsIcEENS_9allocatorIcEEE7seekposENS_4fposI11__mbstate_tEEj, 
                        __ZNSt3__115basic_stringbufIcNS_11char_traitsIcEENS_9allocatorIcEEE8overflowEi, 
                        __ZNSt3__115basic_stringbufIcNS_11char_traitsIcEENS_9allocatorIcEEE9pbackfailEi, 
                        __ZNSt3__115basic_stringbufIcNS_11char_traitsIcEENS_9allocatorIcEEE9underflowEv, 
                        __ZNSt3__115basic_stringbufIcNS_11char_traitsIcEENS_9allocatorIcEEED0Ev, 
                        __ZNSt3__115basic_stringbufIcNS_11char_traitsIcEENS_9allocatorIcEEED1Ev, 
                        __ZNSt3__116__pad_and_outputIcNS_11char_traitsIcEEEENS_19ostreambuf_iteratorIT_T0_EES6_PKS4_S8_S8_RNS_8ios_baseES4_, 
                        __ZNSt3__117__call_once_proxyINS_5tupleIJOZN8Platform29OnceConstructedNeverDestroyedIN12SafeBrowsing7ServiceEEC1EvEUlvE_EEEEEvPv, 
                        __ZNSt3__117__call_once_proxyINS_5tupleIJOZN8Platform29OnceConstructedNeverDestroyedINS2_17SynchronizedValueINS_13unordered_setIPNS2_11TransactionENS_4hashIS7_EENS_8equal_toIS7_EENS_9allocatorIS7_EEEEEEEC1EvEUlvE_EEEEEvPv, 
                        __ZNSt3__118__insertion_sort_3IRNS_6__lessINS_12basic_stringIcNS_11char_traitsIcEENS_9allocatorIcEEEES7_EEPS7_EEvT0_SB_T_, 
                        __ZNSt3__118__tree_left_rotateIPNS_16__tree_node_baseIPvEEEEvT_, 
                        __ZNSt3__118generate_canonicalIdLm53ENS_26linear_congruential_engineIjLj48271ELj0ELj2147483647EEEEET_RT1_, 
                        __ZNSt3__119__tree_right_rotateIPNS_16__tree_node_baseIPvEEEEvT_, 
                        __ZNSt3__119basic_ostringstreamIcNS_11char_traitsIcEENS_9allocatorIcEEED0Ev, 
                        __ZNSt3__119basic_ostringstreamIcNS_11char_traitsIcEENS_9allocatorIcEEED1Ev, 
                        __ZNSt3__120__shared_ptr_emplaceIN12SafeBrowsing13LookupContextENS_9allocatorIS2_EEE16__on_zero_sharedEv, 
                        __ZNSt3__120__shared_ptr_emplaceIN12SafeBrowsing13LookupContextENS_9allocatorIS2_EEE21__on_zero_shared_weakEv, 
                        __ZNSt3__120__shared_ptr_emplaceIN12SafeBrowsing13LookupContextENS_9allocatorIS2_EEED0Ev, 
                        __ZNSt3__120__shared_ptr_emplaceIN12SafeBrowsing13LookupContextENS_9allocatorIS2_EEED1Ev, 
                        __ZNSt3__120__shared_ptr_emplaceIN7Backend6Google13FullHashCacheENS_9allocatorIS3_EEE16__on_zero_sharedEv, 
                        __ZNSt3__120__shared_ptr_emplaceIN7Backend6Google13FullHashCacheENS_9allocatorIS3_EEE21__on_zero_shared_weakEv, 
                        __ZNSt3__120__shared_ptr_emplaceIN7Backend6Google13FullHashCacheENS_9allocatorIS3_EEED0Ev, 
                        __ZNSt3__120__shared_ptr_emplaceIN7Backend6Google13FullHashCacheENS_9allocatorIS3_EEED1Ev, 
                        __ZNSt3__120__shared_ptr_emplaceIN7Backend6Google15DatabaseUpdaterENS_9allocatorIS3_EEE16__on_zero_sharedEv, 
                        __ZNSt3__120__shared_ptr_emplaceIN7Backend6Google15DatabaseUpdaterENS_9allocatorIS3_EEE21__on_zero_shared_weakEv, 
                        __ZNSt3__120__shared_ptr_emplaceIN7Backend6Google15DatabaseUpdaterENS_9allocatorIS3_EEED0Ev, 
                        __ZNSt3__120__shared_ptr_emplaceIN7Backend6Google15DatabaseUpdaterENS_9allocatorIS3_EEED1Ev, 
                        __ZNSt3__120__shared_ptr_emplaceIN7Backend6Google15FullHashChecker12FetchRequestENS_9allocatorIS4_EEE16__on_zero_sharedEv, 
                        __ZNSt3__120__shared_ptr_emplaceIN7Backend6Google15FullHashChecker12FetchRequestENS_9allocatorIS4_EEE21__on_zero_shared_weakEv, 
                        __ZNSt3__120__shared_ptr_emplaceIN7Backend6Google15FullHashChecker12FetchRequestENS_9allocatorIS4_EEED0Ev, 
                        __ZNSt3__120__shared_ptr_emplaceIN7Backend6Google15FullHashChecker12FetchRequestENS_9allocatorIS4_EEED1Ev, 
                        __ZNSt3__120__shared_ptr_emplaceIN7Backend6Google15FullHashChecker5CheckENS_9allocatorIS4_EEE16__on_zero_sharedEv, 
                        __ZNSt3__120__shared_ptr_emplaceIN7Backend6Google15FullHashChecker5CheckENS_9allocatorIS4_EEE21__on_zero_shared_weakEv, 
                        __ZNSt3__120__shared_ptr_emplaceIN7Backend6Google15FullHashChecker5CheckENS_9allocatorIS4_EEED0Ev, 
                        __ZNSt3__120__shared_ptr_emplaceIN7Backend6Google15FullHashChecker5CheckENS_9allocatorIS4_EEED1Ev, 
                        __ZNSt3__120__shared_ptr_emplaceIN7Backend6Google15FullHashCheckerENS_9allocatorIS3_EEE16__on_zero_sharedEv, 
                        __ZNSt3__120__shared_ptr_emplaceIN7Backend6Google15FullHashCheckerENS_9allocatorIS3_EEE21__on_zero_shared_weakEv, 
                        __ZNSt3__120__shared_ptr_emplaceIN7Backend6Google15FullHashCheckerENS_9allocatorIS3_EEED0Ev, 
                        __ZNSt3__120__shared_ptr_emplaceIN7Backend6Google15FullHashCheckerENS_9allocatorIS3_EEED1Ev, 
                        __ZNSt3__120__shared_ptr_emplaceIN7Backend6Google15FullHashFetcherENS_9allocatorIS3_EEE16__on_zero_sharedEv, 
                        __ZNSt3__120__shared_ptr_emplaceIN7Backend6Google15FullHashFetcherENS_9allocatorIS3_EEE21__on_zero_shared_weakEv, 
                        __ZNSt3__120__shared_ptr_emplaceIN7Backend6Google15FullHashFetcherENS_9allocatorIS3_EEED0Ev, 
                        __ZNSt3__120__shared_ptr_emplaceIN7Backend6Google15FullHashFetcherENS_9allocatorIS3_EEED1Ev, 
                        __ZNSt3__120__shared_ptr_emplaceIN8Platform11TransactionENS_9allocatorIS2_EEE16__on_zero_sharedEv, 
                        __ZNSt3__120__shared_ptr_emplaceIN8Platform11TransactionENS_9allocatorIS2_EEE21__on_zero_shared_weakEv, 
                        __ZNSt3__120__shared_ptr_emplaceIN8Platform11TransactionENS_9allocatorIS2_EEED0Ev, 
                        __ZNSt3__120__shared_ptr_emplaceIN8Platform11TransactionENS_9allocatorIS2_EEED1Ev, 
                        __ZNSt3__120__shared_ptr_emplaceIN8Platform12SharedMemoryENS_9allocatorIS2_EEE16__on_zero_sharedEv, 
                        __ZNSt3__120__shared_ptr_emplaceIN8Platform12SharedMemoryENS_9allocatorIS2_EEE21__on_zero_shared_weakEv, 
                        __ZNSt3__120__shared_ptr_emplaceIN8Platform12SharedMemoryENS_9allocatorIS2_EEED0Ev, 
                        __ZNSt3__120__shared_ptr_emplaceIN8Platform12SharedMemoryENS_9allocatorIS2_EEED1Ev, 
                        __ZNSt3__120__shared_ptr_emplaceIN8Platform9ASLLoggerENS_9allocatorIS2_EEE16__on_zero_sharedEv, 
                        __ZNSt3__120__shared_ptr_emplaceIN8Platform9ASLLoggerENS_9allocatorIS2_EEE21__on_zero_shared_weakEv, 
                        __ZNSt3__120__shared_ptr_emplaceIN8Platform9ASLLoggerENS_9allocatorIS2_EEED0Ev, 
                        __ZNSt3__120__shared_ptr_emplaceIN8Platform9ASLLoggerENS_9allocatorIS2_EEED1Ev, 
                        __ZNSt3__124__put_character_sequenceIcNS_11char_traitsIcEEEERNS_13basic_ostreamIT_T0_EES7_PKS4_m, 
                        __ZNSt3__124uniform_int_distributionIxEclINS_26linear_congruential_engineIjLj48271ELj0ELj2147483647EEEEExRT_RKNS1_10param_typeE, 
                        __ZNSt3__125__independent_bits_engineINS_26linear_congruential_engineIjLj48271ELj0ELj2147483647EEEyE6__evalENS_17integral_constantIbLb1EEE, 
                        __ZNSt3__125__independent_bits_engineINS_26linear_congruential_engineIjLj48271ELj0ELj2147483647EEEyEC2ERS2_m, 
                        __ZNSt3__127__insertion_sort_incompleteIRNS_6__lessINS_12basic_stringIcNS_11char_traitsIcEENS_9allocatorIcEEEES7_EEPS7_EEbT0_SB_T_, 
                        __ZNSt3__127__tree_balance_after_insertIPNS_16__tree_node_baseIPvEEEEvT_S5_, 
                        __ZNSt3__14listINS_5arrayIhLm32EEENS_9allocatorIS2_EEE6spliceENS_21__list_const_iteratorIS2_PvEERS5_S8_, 
                        __ZNSt3__16__sortIRNS_6__lessINS_12basic_stringIcNS_11char_traitsIcEENS_9allocatorIcEEEES7_EEPS7_EEvT0_SB_T_, 
                        __ZNSt3__16__treeIN7Backend6Google10ThreatTypeENS_4lessIS3_EENS_9allocatorIS3_EEE16__insert_node_atEPNS_15__tree_end_nodeIPNS_16__tree_node_baseIPvEEEERSD_SD_, 
                        __ZNSt3__16__treeIN7Backend6Google10ThreatTypeENS_4lessIS3_EENS_9allocatorIS3_EEE25__emplace_unique_key_argsIS3_JRKS3_EEENS_4pairINS_15__tree_iteratorIS3_PNS_11__tree_nodeIS3_PvEElEEbEERKT_DpOT0_, 
                        __ZNSt3__16__treeIN7Backend6Google10ThreatTypeENS_4lessIS3_EENS_9allocatorIS3_EEE7destroyEPNS_11__tree_nodeIS3_PvEE, 
                        __ZNSt3__16__treeIN7Backend6Google12PlatformTypeENS_4lessIS3_EENS_9allocatorIS3_EEE16__insert_node_atEPNS_15__tree_end_nodeIPNS_16__tree_node_baseIPvEEEERSD_SD_, 
                        __ZNSt3__16__treeIN7Backend6Google12PlatformTypeENS_4lessIS3_EENS_9allocatorIS3_EEE25__emplace_unique_key_argsIS3_JRKS3_EEENS_4pairINS_15__tree_iteratorIS3_PNS_11__tree_nodeIS3_PvEElEEbEERKT_DpOT0_, 
                        __ZNSt3__16__treeIN7Backend6Google12PlatformTypeENS_4lessIS3_EENS_9allocatorIS3_EEE7destroyEPNS_11__tree_nodeIS3_PvEE, 
                        __ZNSt3__16__treeIN7Backend6Google15FullHashChecker12FetchRequest5EntryENS_4lessIS5_EENS_9allocatorIS5_EEE12__find_equalIS5_EERPNS_16__tree_node_baseIPvEERPNS_15__tree_end_nodeISF_EERKT_, 
                        __ZNSt3__16__treeIN7Backend6Google15FullHashChecker12FetchRequest5EntryENS_4lessIS5_EENS_9allocatorIS5_EEE13__move_assignERSA_NS_17integral_constantIbLb1EEE, 
                        __ZNSt3__16__treeIN7Backend6Google15FullHashChecker12FetchRequest5EntryENS_4lessIS5_EENS_9allocatorIS5_EEE16__insert_node_atEPNS_15__tree_end_nodeIPNS_16__tree_node_baseIPvEEEERSF_SF_, 
                        __ZNSt3__16__treeIN7Backend6Google15FullHashChecker12FetchRequest5EntryENS_4lessIS5_EENS_9allocatorIS5_EEE25__emplace_unique_key_argsIS5_JS5_EEENS_4pairINS_15__tree_iteratorIS5_PNS_11__tree_nodeIS5_PvEElEEbEERKT_DpOT0_, 
                        __ZNSt3__16__treeIN7Backend6Google15FullHashChecker12FetchRequest5EntryENS_4lessIS5_EENS_9allocatorIS5_EEE7destroyEPNS_11__tree_nodeIS5_PvEE, 
                        __ZNSt3__16__treeIN7Backend6Google15ThreatEntryTypeENS_4lessIS3_EENS_9allocatorIS3_EEE16__insert_node_atEPNS_15__tree_end_nodeIPNS_16__tree_node_baseIPvEEEERSD_SD_, 
                        __ZNSt3__16__treeIN7Backend6Google15ThreatEntryTypeENS_4lessIS3_EENS_9allocatorIS3_EEE25__emplace_unique_key_argsIS3_JRKS3_EEENS_4pairINS_15__tree_iteratorIS3_PNS_11__tree_nodeIS3_PvEElEEbEERKT_DpOT0_, 
                        __ZNSt3__16__treeIN7Backend6Google15ThreatEntryTypeENS_4lessIS3_EENS_9allocatorIS3_EEE7destroyEPNS_11__tree_nodeIS3_PvEE, 
                        __ZNSt3__16__treeIN7Backend6Google8HashViewENS_4lessIS3_EENS_9allocatorIS3_EEE12__find_equalIS3_EERPNS_16__tree_node_baseIPvEERPNS_15__tree_end_nodeISD_EERKT_, 
                        __ZNSt3__16__treeIN7Backend6Google8HashViewENS_4lessIS3_EENS_9allocatorIS3_EEE16__insert_node_atEPNS_15__tree_end_nodeIPNS_16__tree_node_baseIPvEEEERSD_SD_, 
                        __ZNSt3__16__treeIN7Backend6Google8HashViewENS_4lessIS3_EENS_9allocatorIS3_EEE25__emplace_unique_key_argsIS3_JRKS3_EEENS_4pairINS_15__tree_iteratorIS3_PNS_11__tree_nodeIS3_PvEElEEbEERKT_DpOT0_, 
                        __ZNSt3__16__treeIN7Backend6Google8HashViewENS_4lessIS3_EENS_9allocatorIS3_EEE7destroyEPNS_11__tree_nodeIS3_PvEE, 
                        __ZNSt3__16__treeIN8Platform9ArrayViewIhEENS_4lessIS3_EENS_9allocatorIS3_EEE12__find_equalIS3_EERPNS_16__tree_node_baseIPvEERPNS_15__tree_end_nodeISD_EERKT_, 
                        __ZNSt3__16__treeIN8Platform9ArrayViewIhEENS_4lessIS3_EENS_9allocatorIS3_EEE16__insert_node_atEPNS_15__tree_end_nodeIPNS_16__tree_node_baseIPvEEEERSD_SD_, 
                        __ZNSt3__16__treeIN8Platform9ArrayViewIhEENS_4lessIS3_EENS_9allocatorIS3_EEE25__emplace_unique_key_argsIS3_JRKS3_EEENS_4pairINS_15__tree_iteratorIS3_PNS_11__tree_nodeIS3_PvEElEEbEERKT_DpOT0_, 
                        __ZNSt3__16__treeIN8Platform9ArrayViewIhEENS_4lessIS3_EENS_9allocatorIS3_EEE7destroyEPNS_11__tree_nodeIS3_PvEE, 
                        __ZNSt3__16__treeINS_10shared_ptrIN7Backend6Google15FullHashChecker5CheckEEENS_4lessIS6_EENS_9allocatorIS6_EEE16__construct_nodeIJRKS6_EEENS_10unique_ptrINS_11__tree_nodeIS6_PvEENS_22__tree_node_destructorINS9_ISI_EEEEEEDpOT_, 
                        __ZNSt3__16__treeINS_10shared_ptrIN7Backend6Google15FullHashChecker5CheckEEENS_4lessIS6_EENS_9allocatorIS6_EEE16__insert_node_atEPNS_15__tree_end_nodeIPNS_16__tree_node_baseIPvEEEERSG_SG_, 
                        __ZNSt3__16__treeINS_10shared_ptrIN7Backend6Google15FullHashChecker5CheckEEENS_4lessIS6_EENS_9allocatorIS6_EEE25__emplace_unique_key_argsIS6_JRKS6_EEENS_4pairINS_15__tree_iteratorIS6_PNS_11__tree_nodeIS6_PvEElEEbEERKT_DpOT0_, 
                        __ZNSt3__16__treeINS_10shared_ptrIN7Backend6Google15FullHashChecker5CheckEEENS_4lessIS6_EENS_9allocatorIS6_EEE7destroyEPNS_11__tree_nodeIS6_PvEE, 
                        __ZNSt3__16__treeINS_12__value_typeINS_4pairIN7Backend6Google20ThreatListDescriptorENS4_4HashEEENS4_13FullHashCache5ValueEEENS_19__map_value_compareIS7_SA_NS_4lessIS7_EELb1EEENS_9allocatorISA_EEE12__find_equalIS7_EERPNS_16__tree_node_baseIPvEERPNS_15__tree_end_nodeISM_EERKT_, 
                        __ZNSt3__16__treeINS_12__value_typeINS_4pairIN7Backend6Google20ThreatListDescriptorENS4_4HashEEENS4_13FullHashCache5ValueEEENS_19__map_value_compareIS7_SA_NS_4lessIS7_EELb1EEENS_9allocatorISA_EEE16__insert_node_atEPNS_15__tree_end_nodeIPNS_16__tree_node_baseIPvEEEERSM_SM_, 
                        __ZNSt3__16__treeINS_12__value_typeINS_4pairIN7Backend6Google20ThreatListDescriptorENS4_4HashEEENS4_13FullHashCache5ValueEEENS_19__map_value_compareIS7_SA_NS_4lessIS7_EELb1EEENS_9allocatorISA_EEE25__emplace_unique_key_argsIS7_JRKNS_21piecewise_construct_tENS_5tupleIJOS7_EEENSM_IJEEEEEENS2_INS_15__tree_iteratorISA_PNS_11__tree_nodeISA_PvEElEEbEERKT_DpOT0_, 
                        __ZNSt3__16__treeINS_12__value_typeINS_4pairIN7Backend6Google20ThreatListDescriptorENS4_4HashEEENS4_13FullHashCache5ValueEEENS_19__map_value_compareIS7_SA_NS_4lessIS7_EELb1EEENS_9allocatorISA_EEE5eraseENS_21__tree_const_iteratorISA_PNS_11__tree_nodeISA_PvEElEE, 
                        __ZNSt3__16__treeINS_12__value_typeINS_4pairIN7Backend6Google20ThreatListDescriptorENS4_4HashEEENS4_13FullHashCache5ValueEEENS_19__map_value_compareIS7_SA_NS_4lessIS7_EELb1EEENS_9allocatorISA_EEE7destroyEPNS_11__tree_nodeISA_PvEE, 
                        __ZNSt3__16__treeINS_12__value_typeINS_4pairIN7Backend6Google4HashENS4_20ThreatListDescriptorEEENS_10shared_ptrINS4_15FullHashChecker12FetchRequestEEEEENS_19__map_value_compareIS7_SC_NS_4lessIS7_EELb1EEENS_9allocatorISC_EEE12__find_equalIS7_EERPNS_16__tree_node_baseIPvEERPNS_15__tree_end_nodeISO_EERKT_, 
                        __ZNSt3__16__treeINS_12__value_typeINS_4pairIN7Backend6Google4HashENS4_20ThreatListDescriptorEEENS_10shared_ptrINS4_15FullHashChecker12FetchRequestEEEEENS_19__map_value_compareIS7_SC_NS_4lessIS7_EELb1EEENS_9allocatorISC_EEE13__lower_boundIS7_EENS_15__tree_iteratorISC_PNS_11__tree_nodeISC_PvEElEERKT_SP_PNS_15__tree_end_nodeIPNS_16__tree_node_baseISN_EEEE, 
                        __ZNSt3__16__treeINS_12__value_typeINS_4pairIN7Backend6Google4HashENS4_20ThreatListDescriptorEEENS_10shared_ptrINS4_15FullHashChecker12FetchRequestEEEEENS_19__map_value_compareIS7_SC_NS_4lessIS7_EELb1EEENS_9allocatorISC_EEE14__erase_uniqueIS7_EEmRKT_, 
                        __ZNSt3__16__treeINS_12__value_typeINS_4pairIN7Backend6Google4HashENS4_20ThreatListDescriptorEEENS_10shared_ptrINS4_15FullHashChecker12FetchRequestEEEEENS_19__map_value_compareIS7_SC_NS_4lessIS7_EELb1EEENS_9allocatorISC_EEE16__insert_node_atEPNS_15__tree_end_nodeIPNS_16__tree_node_baseIPvEEEERSO_SO_, 
                        __ZNSt3__16__treeINS_12__value_typeINS_4pairIN7Backend6Google4HashENS4_20ThreatListDescriptorEEENS_10shared_ptrINS4_15FullHashChecker12FetchRequestEEEEENS_19__map_value_compareIS7_SC_NS_4lessIS7_EELb1EEENS_9allocatorISC_EEE25__emplace_unique_key_argsIS7_JRKNS_21piecewise_construct_tENS_5tupleIJOS7_EEENSO_IJEEEEEENS2_INS_15__tree_iteratorISC_PNS_11__tree_nodeISC_PvEElEEbEERKT_DpOT0_, 
                        __ZNSt3__16__treeINS_12__value_typeINS_4pairIN7Backend6Google4HashENS4_20ThreatListDescriptorEEENS_10shared_ptrINS4_15FullHashChecker12FetchRequestEEEEENS_19__map_value_compareIS7_SC_NS_4lessIS7_EELb1EEENS_9allocatorISC_EEE4findIS7_EENS_15__tree_iteratorISC_PNS_11__tree_nodeISC_PvEElEERKT_, 
                        __ZNSt3__16__treeINS_12__value_typeINS_4pairIN7Backend6Google4HashENS4_20ThreatListDescriptorEEENS_10shared_ptrINS4_15FullHashChecker12FetchRequestEEEEENS_19__map_value_compareIS7_SC_NS_4lessIS7_EELb1EEENS_9allocatorISC_EEE5eraseENS_21__tree_const_iteratorISC_PNS_11__tree_nodeISC_PvEElEE, 
                        __ZNSt3__16__treeINS_12__value_typeINS_4pairIN7Backend6Google4HashENS4_20ThreatListDescriptorEEENS_10shared_ptrINS4_15FullHashChecker12FetchRequestEEEEENS_19__map_value_compareIS7_SC_NS_4lessIS7_EELb1EEENS_9allocatorISC_EEE7destroyEPNS_11__tree_nodeISC_PvEE, 
                        __ZNSt3__16__treeINS_12__value_typeINS_5arrayIhLm32EEENS_15__list_iteratorIS3_PvEEEENS_19__map_value_compareIS3_S7_NS_4lessIS3_EELb1EEENS_9allocatorIS7_EEE12__find_equalIS3_EERPNS_16__tree_node_baseIS5_EERPNS_15__tree_end_nodeISI_EERKT_, 
                        __ZNSt3__16__treeINS_12__value_typeINS_5arrayIhLm32EEENS_15__list_iteratorIS3_PvEEEENS_19__map_value_compareIS3_S7_NS_4lessIS3_EELb1EEENS_9allocatorIS7_EEE14__erase_uniqueIS3_EEmRKT_, 
                        __ZNSt3__16__treeINS_12__value_typeINS_5arrayIhLm32EEENS_15__list_iteratorIS3_PvEEEENS_19__map_value_compareIS3_S7_NS_4lessIS3_EELb1EEENS_9allocatorIS7_EEE16__insert_node_atEPNS_15__tree_end_nodeIPNS_16__tree_node_baseIS5_EEEERSI_SI_, 
                        __ZNSt3__16__treeINS_12__value_typeINS_5arrayIhLm32EEENS_15__list_iteratorIS3_PvEEEENS_19__map_value_compareIS3_S7_NS_4lessIS3_EELb1EEENS_9allocatorIS7_EEE25__emplace_unique_key_argsIS3_JRKNS_4pairIKS3_S6_EEEEENSG_INS_15__tree_iteratorIS7_PNS_11__tree_nodeIS7_S5_EElEEbEERKT_DpOT0_, 
                        __ZNSt3__16__treeINS_12__value_typeINS_5arrayIhLm32EEENS_15__list_iteratorIS3_PvEEEENS_19__map_value_compareIS3_S7_NS_4lessIS3_EELb1EEENS_9allocatorIS7_EEE4findIS3_EENS_15__tree_iteratorIS7_PNS_11__tree_nodeIS7_S5_EElEERKT_, 
                        __ZNSt3__16__treeINS_12__value_typeINS_5arrayIhLm32EEENS_15__list_iteratorIS3_PvEEEENS_19__map_value_compareIS3_S7_NS_4lessIS3_EELb1EEENS_9allocatorIS7_EEE5eraseENS_21__tree_const_iteratorIS7_PNS_11__tree_nodeIS7_S5_EElEE, 
                        __ZNSt3__16__treeINS_12__value_typeINS_5arrayIhLm32EEENS_15__list_iteratorIS3_PvEEEENS_19__map_value_compareIS3_S7_NS_4lessIS3_EELb1EEENS_9allocatorIS7_EEE7destroyEPNS_11__tree_nodeIS7_S5_EE, 
                        __ZNSt3__16__treeIU8__strongPU24objcproto13OS_xpc_object8NSObjectNS_4lessIS4_EENS_9allocatorIS4_EEE14__erase_uniqueIS4_EEmRKT_, 
                        __ZNSt3__16__treeIU8__strongPU24objcproto13OS_xpc_object8NSObjectNS_4lessIS4_EENS_9allocatorIS4_EEE16__insert_node_atEPNS_15__tree_end_nodeIPNS_16__tree_node_baseIPvEEEERSE_SE_, 
                        __ZNSt3__16__treeIU8__strongPU24objcproto13OS_xpc_object8NSObjectNS_4lessIS4_EENS_9allocatorIS4_EEE25__emplace_unique_key_argsIS4_JRU8__strongKS3_EEENS_4pairINS_15__tree_iteratorIS4_PNS_11__tree_nodeIS4_PvEElEEbEERKT_DpOT0_, 
                        __ZNSt3__16__treeIU8__strongPU24objcproto13OS_xpc_object8NSObjectNS_4lessIS4_EENS_9allocatorIS4_EEE4findIS4_EENS_15__tree_iteratorIS4_PNS_11__tree_nodeIS4_PvEElEERKT_, 
                        __ZNSt3__16__treeIU8__strongPU24objcproto13OS_xpc_object8NSObjectNS_4lessIS4_EENS_9allocatorIS4_EEE5eraseENS_21__tree_const_iteratorIS4_PNS_11__tree_nodeIS4_PvEElEE, 
                        __ZNSt3__16__treeIU8__strongPU24objcproto13OS_xpc_object8NSObjectNS_4lessIS4_EENS_9allocatorIS4_EEE7destroyEPNS_11__tree_nodeIS4_PvEE, 
                        __ZNSt3__16removeINS_11__wrap_iterIPNS_5arrayIhLm32EEEEES3_EET_S6_S6_RKT0_, 
                        __ZNSt3__16vectorIN12SafeBrowsing13ServiceStatus10ConnectionENS_9allocatorIS3_EEE10deallocateEv, 
                        __ZNSt3__16vectorIN12SafeBrowsing13ServiceStatus10ConnectionENS_9allocatorIS3_EEE21__push_back_slow_pathIS3_EEvOT_, 
                        __ZNSt3__16vectorIN12SafeBrowsing13ServiceStatus10ConnectionENS_9allocatorIS3_EEE26__swap_out_circular_bufferERNS_14__split_bufferIS3_RS5_EE, 
                        __ZNSt3__16vectorIN12SafeBrowsing14DatabaseStatus8DatabaseENS_9allocatorIS3_EEE10deallocateEv, 
                        __ZNSt3__16vectorIN12SafeBrowsing14DatabaseStatus8DatabaseENS_9allocatorIS3_EEE21__push_back_slow_pathIS3_EEvOT_, 
                        __ZNSt3__16vectorIN12SafeBrowsing14DatabaseStatus8DatabaseENS_9allocatorIS3_EEE26__swap_out_circular_bufferERNS_14__split_bufferIS3_RS5_EE, 
                        __ZNSt3__16vectorIN7Backend6Google12DatabaseInfoENS_9allocatorIS3_EEE10deallocateEv, 
                        __ZNSt3__16vectorIN7Backend6Google12DatabaseInfoENS_9allocatorIS3_EEE18__construct_at_endIPS3_EENS_9enable_ifIXsr21__is_forward_iteratorIT_EE5valueEvE4typeESA_SA_m, 
                        __ZNSt3__16vectorIN7Backend6Google12DatabaseInfoENS_9allocatorIS3_EEE21__push_back_slow_pathIS3_EEvOT_, 
                        __ZNSt3__16vectorIN7Backend6Google12DatabaseInfoENS_9allocatorIS3_EEE26__swap_out_circular_bufferERNS_14__split_bufferIS3_RS5_EE, 
                        __ZNSt3__16vectorIN7Backend6Google12DatabaseInfoENS_9allocatorIS3_EEE8allocateEm, 
                        __ZNSt3__16vectorIN7Backend6Google12DatabaseInfoENS_9allocatorIS3_EEEC2ERKS6_, 
                        __ZNSt3__16vectorIN7Backend6Google13FullHashCache5Value5EntryENS_9allocatorIS5_EEE21__push_back_slow_pathIRKS5_EEvOT_, 
                        __ZNSt3__16vectorIN7Backend6Google13FullHashCache5Value5EntryENS_9allocatorIS5_EEE21__push_back_slow_pathIS5_EEvOT_, 
                        __ZNSt3__16vectorIN7Backend6Google15CompressionTypeENS_9allocatorIS3_EEE10deallocateEv, 
                        __ZNSt3__16vectorIN7Backend6Google15CompressionTypeENS_9allocatorIS3_EEE6assignIPKS3_EENS_9enable_ifIXaasr21__is_forward_iteratorIT_EE5valuesr16is_constructibleIS3_NS_15iterator_traitsISB_E9referenceEEE5valueEvE4typeESB_SB_, 
                        __ZNSt3__16vectorIN7Backend6Google15CompressionTypeENS_9allocatorIS3_EEE8allocateEm, 
                        __ZNSt3__16vectorIN7Backend6Google15FullHashRequestENS_9allocatorIS3_EEE10deallocateEv, 
                        __ZNSt3__16vectorIN7Backend6Google15FullHashRequestENS_9allocatorIS3_EEE21__push_back_slow_pathIRKS3_EEvOT_, 
                        __ZNSt3__16vectorIN7Backend6Google15FullHashRequestENS_9allocatorIS3_EEE21__push_back_slow_pathIS3_EEvOT_, 
                        __ZNSt3__16vectorIN7Backend6Google15FullHashRequestENS_9allocatorIS3_EEE26__swap_out_circular_bufferERNS_14__split_bufferIS3_RS5_EE, 
                        __ZNSt3__16vectorIN7Backend6Google15FullHashRequestENS_9allocatorIS3_EEE8allocateEm, 
                        __ZNSt3__16vectorIN7Backend6Google15FullHashRequestENS_9allocatorIS3_EEEC2ERKS6_, 
                        __ZNSt3__16vectorIN7Backend6Google18ListUpdateResponse8AdditionENS_9allocatorIS4_EEE10deallocateEv, 
                        __ZNSt3__16vectorIN7Backend6Google18ListUpdateResponse8AdditionENS_9allocatorIS4_EEE21__push_back_slow_pathIS4_EEvOT_, 
                        __ZNSt3__16vectorIN7Backend6Google18ListUpdateResponse8AdditionENS_9allocatorIS4_EEE26__swap_out_circular_bufferERNS_14__split_bufferIS4_RS6_EE, 
                        __ZNSt3__16vectorIN7Backend6Google18ListUpdateResponseENS_9allocatorIS3_EEE21__push_back_slow_pathIS3_EEvOT_, 
                        __ZNSt3__16vectorIN7Backend6Google18ListUpdateResponseENS_9allocatorIS3_EEE26__swap_out_circular_bufferERNS_14__split_bufferIS3_RS5_EE, 
                        __ZNSt3__16vectorIN7Backend6Google20ThreatListDescriptorENS_9allocatorIS3_EEE21__push_back_slow_pathIRKS3_EEvOT_, 
                        __ZNSt3__16vectorIN7Backend6Google20ThreatListDescriptorENS_9allocatorIS3_EEE21__push_back_slow_pathIS3_EEvOT_, 
                        __ZNSt3__16vectorIN7Backend6Google20ThreatListDescriptorENS_9allocatorIS3_EEE8allocateEm, 
                        __ZNSt3__16vectorIN7Backend6Google20ThreatListDescriptorENS_9allocatorIS3_EEEC2ERKS6_, 
                        __ZNSt3__16vectorIN7Backend6Google28FindFullHashesResponseParser6Result11ThreatMatch13MetadataEntryENS_9allocatorIS6_EEE10deallocateEv, 
                        __ZNSt3__16vectorIN7Backend6Google28FindFullHashesResponseParser6Result11ThreatMatch13MetadataEntryENS_9allocatorIS6_EEE18__construct_at_endIPS6_EENS_9enable_ifIXsr21__is_forward_iteratorIT_EE5valueEvE4typeESD_SD_m, 
                        __ZNSt3__16vectorIN7Backend6Google28FindFullHashesResponseParser6Result11ThreatMatch13MetadataEntryENS_9allocatorIS6_EEE21__push_back_slow_pathIS6_EEvOT_, 
                        __ZNSt3__16vectorIN7Backend6Google28FindFullHashesResponseParser6Result11ThreatMatch13MetadataEntryENS_9allocatorIS6_EEE26__swap_out_circular_bufferERNS_14__split_bufferIS6_RS8_EE, 
                        __ZNSt3__16vectorIN7Backend6Google28FindFullHashesResponseParser6Result11ThreatMatch13MetadataEntryENS_9allocatorIS6_EEE8allocateEm, 
                        __ZNSt3__16vectorIN7Backend6Google28FindFullHashesResponseParser6Result11ThreatMatch13MetadataEntryENS_9allocatorIS6_EEEC2ERKS9_, 
                        __ZNSt3__16vectorIN7Backend6Google28FindFullHashesResponseParser6Result11ThreatMatchENS_9allocatorIS5_EEE21__push_back_slow_pathIS5_EEvOT_, 
                        __ZNSt3__16vectorIN7Backend6Google28FindFullHashesResponseParser6Result11ThreatMatchENS_9allocatorIS5_EEE26__swap_out_circular_bufferERNS_14__split_bufferIS5_RS7_EE, 
                        __ZNSt3__16vectorIN7Backend6Google28FindFullHashesResponseParser6Result11ThreatMatchENS_9allocatorIS5_EEE8allocateEm, 
                        __ZNSt3__16vectorIN7Backend6Google28FindFullHashesResponseParser6Result11ThreatMatchENS_9allocatorIS5_EEEC2ERKS8_, 
                        __ZNSt3__16vectorIN7Backend6Google38LexicographicallyOrderedHashEnumerator8PositionENS_9allocatorIS4_EEE21__push_back_slow_pathIS4_EEvOT_, 
                        __ZNSt3__16vectorIN7Backend6Google39FetchThreatListUpdatesRequestSerializer17ListUpdateRequestENS_9allocatorIS4_EEE21__push_back_slow_pathIS4_EEvOT_, 
                        __ZNSt3__16vectorIN7Backend6Google39FetchThreatListUpdatesRequestSerializer17ListUpdateRequestENS_9allocatorIS4_EEE26__swap_out_circular_bufferERNS_14__split_bufferIS4_RS6_EE, 
                        __ZNSt3__16vectorIN7Backend6Google8Database14HashSizeBucketENS_9allocatorIS4_EEE10deallocateEv, 
                        __ZNSt3__16vectorIN7Backend6Google8Database14HashSizeBucketENS_9allocatorIS4_EEE21__push_back_slow_pathIS4_EEvOT_, 
                        __ZNSt3__16vectorIN7Backend6Google8Database14HashSizeBucketENS_9allocatorIS4_EEE26__swap_out_circular_bufferERNS_14__split_bufferIS4_RS6_EE, 
                        __ZNSt3__16vectorIN7Backend6Google8Database14HashSizeBucketENS_9allocatorIS4_EEE6assignIPS4_EENS_9enable_ifIXaasr21__is_forward_iteratorIT_EE5valuesr16is_constructibleIS4_NS_15iterator_traitsISB_E9referenceEEE5valueEvE4typeESB_SB_, 
                        __ZNSt3__16vectorIN7Backend6Google8Database14HashSizeBucketENS_9allocatorIS4_EEE8allocateEm, 
                        __ZNSt3__16vectorIN7Backend6Google8Database14HashSizeBucketENS_9allocatorIS4_EEEC2ERKS7_, 
                        __ZNSt3__16vectorINS_12basic_stringIcNS_11char_traitsIcEENS_9allocatorIcEEEENS4_IS6_EEE10deallocateEv, 
                        __ZNSt3__16vectorINS_12basic_stringIcNS_11char_traitsIcEENS_9allocatorIcEEEENS4_IS6_EEE21__push_back_slow_pathIRKS6_EEvOT_, 
                        __ZNSt3__16vectorINS_12basic_stringIcNS_11char_traitsIcEENS_9allocatorIcEEEENS4_IS6_EEE21__push_back_slow_pathIS6_EEvOT_, 
                        __ZNSt3__16vectorINS_5arrayIhLm32EEENS_9allocatorIS2_EEE21__push_back_slow_pathIRKS2_EEvOT_, 
                        __ZNSt3__16vectorINS_5arrayIhLm32EEENS_9allocatorIS2_EEE21__push_back_slow_pathIS2_EEvOT_, 
                        __ZNSt3__16vectorINS_5arrayIhLm32EEENS_9allocatorIS2_EEE26__swap_out_circular_bufferERNS_14__split_bufferIS2_RS4_EE, 
                        __ZNSt3__16vectorINS_5arrayIhLm32EEENS_9allocatorIS2_EEE5eraseENS_11__wrap_iterIPKS2_EES9_, 
                        __ZNSt3__16vectorINS_5arrayIhLm32EEENS_9allocatorIS2_EEE7reserveEm, 
                        __ZNSt3__16vectorINS_8functionIFvNS_10error_codeEEEENS_9allocatorIS4_EEE21__push_back_slow_pathIRKS4_EEvOT_, 
                        __ZNSt3__16vectorINS_8functionIFvNS_10error_codeEEEENS_9allocatorIS4_EEE26__swap_out_circular_bufferERNS_14__split_bufferIS4_RS6_EE, 
                        __ZNSt3__16vectorIU8__strongPU24objcproto13OS_xpc_object8NSObjectNS_9allocatorIS4_EEE21__push_back_slow_pathIRU8__strongKS3_EEvOT_, 
                        __ZNSt3__16vectorIU8__strongPU24objcproto13OS_xpc_object8NSObjectNS_9allocatorIS4_EEE26__swap_out_circular_bufferERNS_14__split_bufferIS4_RS6_EE, 
                        __ZNSt3__16vectorIcNS_9allocatorIcEEE8allocateEm, 
                        __ZNSt3__16vectorIcNS_9allocatorIcEEEC2IPKcEET_NS_9enable_ifIXaasr21__is_forward_iteratorIS7_EE5valuesr16is_constructibleIcNS_15iterator_traitsIS7_E9referenceEEE5valueES7_E4typeE, 
                        __ZNSt3__16vectorIhNS_9allocatorIhEEE13__move_assignERS3_NS_17integral_constantIbLb1EEE, 
                        __ZNSt3__16vectorIhNS_9allocatorIhEEE21__push_back_slow_pathIhEEvOT_, 
                        __ZNSt3__16vectorIhNS_9allocatorIhEEE26__swap_out_circular_bufferERNS_14__split_bufferIhRS2_EEPh, 
                        __ZNSt3__16vectorIhNS_9allocatorIhEEE6insertINS_11__wrap_iterIPKcEEEENS_9enable_ifIXaasr21__is_forward_iteratorIT_EE5valuesr16is_constructibleIhNS_15iterator_traitsISA_E9referenceEEE5valueENS5_IPhEEE4typeENS5_IPKhEESA_SA_, 
                        __ZNSt3__16vectorIhNS_9allocatorIhEEE6insertINS_11__wrap_iterIPhEEEENS_9enable_ifIXaasr21__is_forward_iteratorIT_EE5valuesr16is_constructibleIhNS_15iterator_traitsIS9_E9referenceEEE5valueES7_E4typeENS5_IPKhEES9_S9_, 
                        __ZNSt3__16vectorIhNS_9allocatorIhEEE6insertIPKcEENS_9enable_ifIXaasr21__is_forward_iteratorIT_EE5valuesr16is_constructibleIhNS_15iterator_traitsIS8_E9referenceEEE5valueENS_11__wrap_iterIPhEEE4typeENSC_IPKhEES8_S8_, 
                        __ZNSt3__16vectorIhNS_9allocatorIhEEE6insertIPKhEENS_9enable_ifIXaasr21__is_forward_iteratorIT_EE5valuesr16is_constructibleIhNS_15iterator_traitsIS8_E9referenceEEE5valueENS_11__wrap_iterIPhEEE4typeENSC_IS6_EES8_S8_, 
                        __ZNSt3__16vectorIhNS_9allocatorIhEEE6resizeEm, 
                        __ZNSt3__16vectorIhNS_9allocatorIhEEE7reserveEm, 
                        __ZNSt3__16vectorIhNS_9allocatorIhEEE8__appendEm, 
                        __ZNSt3__16vectorIhNS_9allocatorIhEEE8allocateEm, 
                        __ZNSt3__16vectorIhNS_9allocatorIhEEEC2Em, __ZNSt3__16vectorIhNS_9allocatorIhEEEC2INS_11__wrap_iterIPhEEEET_NS_9enable_ifIXaasr21__is_forward_iteratorIS8_EE5valuesr16is_constructibleIhNS_15iterator_traitsIS8_E9referenceEEE5valueES8_E4typeE, 
                        __ZNSt3__16vectorIhNS_9allocatorIhEEEC2IPKcEET_NS_9enable_ifIXaasr21__is_forward_iteratorIS7_EE5valuesr16is_constructibleIhNS_15iterator_traitsIS7_E9referenceEEE5valueES7_E4typeE, 
                        __ZNSt3__16vectorIhNS_9allocatorIhEEEC2IPhEET_NS_9enable_ifIXaasr21__is_forward_iteratorIS6_EE5valuesr16is_constructibleIhNS_15iterator_traitsIS6_E9referenceEEE5valueES6_E4typeE, 
                        __ZNSt3__16vectorIjNS_9allocatorIjEEE10deallocateEv, 
                        __ZNSt3__16vectorIjNS_9allocatorIjEEE21__push_back_slow_pathIRKjEEvOT_, 
                        __ZNSt3__16vectorIjNS_9allocatorIjEEE26__swap_out_circular_bufferERNS_14__split_bufferIjRS2_EE, 
                        __ZNSt3__16vectorIjNS_9allocatorIjEEE6assignIPjEENS_9enable_ifIXaasr21__is_forward_iteratorIT_EE5valuesr16is_constructibleIjNS_15iterator_traitsIS7_E9referenceEEE5valueEvE4typeES7_S7_, 
                        __ZNSt3__16vectorIjNS_9allocatorIjEEE8allocateEm, 
                        __ZNSt3__16vectorIjNS_9allocatorIjEEEC2ERKS3_, 
                        __ZNSt3__17__sort3IRNS_6__lessINS_12basic_stringIcNS_11char_traitsIcEENS_9allocatorIcEEEES7_EEPS7_EEjT0_SB_SB_T_, 
                        __ZNSt3__17__sort4IRNS_6__lessINS_12basic_stringIcNS_11char_traitsIcEENS_9allocatorIcEEEES7_EEPS7_EEjT0_SB_SB_SB_T_, 
                        __ZNSt3__17__sort5IRNS_6__lessINS_12basic_stringIcNS_11char_traitsIcEENS_9allocatorIcEEEES7_EEPS7_EEjT0_SB_SB_SB_SB_T_, 
                        __ZNSt3__18functionIFvN12SafeBrowsing13ServiceStatusENS_10error_codeEEEC2ERKS5_, 
                        __ZNSt3__18functionIFvN12SafeBrowsing14DatabaseStatusENS_10error_codeEEEC2ERKS5_, 
                        __ZNSt3__18functionIFvN7Backend12LookupResultENS_10error_codeEEEC2ERKS5_, 
                        __ZNSt3__18functionIFvNS_10error_codeEEEC2ERKS3_, 
                        __ZNSt3__18functionIFvNS_6chrono10time_pointINS1_12system_clockENS1_8durationIxNS_5ratioILl1ELl1000000EEEEEEENS_10error_codeEEEC2ERKSB_, 
                        __ZNSt3__18functionIFvNS_6vectorIN7Backend6Google20ThreatListDescriptorENS_9allocatorIS4_EEEEEEC2ERKS9_, 
                        __ZNSt3__18functionIFvNS_6vectorIN7Backend6Google20ThreatListDescriptorENS_9allocatorIS4_EEEEEEaSEOS9_, 
                        __ZNSt3__18functionIFvNSt12experimental15fundamentals_v18optionalIN7Backend6Google28FindFullHashesResponseParser6ResultEEEEEC2ERKSA_, 
                        __ZNSt3__18functionIFvvEE4swapERS2_, __ZNSt3__18functionIFvvEEC2ERKS2_, 
                        __ZNSt3__18functionIFvvEEaSERKS2_, __ZNSt3__1plIcNS_11char_traitsIcEENS_9allocatorIcEEEENS_12basic_stringIT_T0_T1_EERKS9_PKS6_, 
                        __ZNSt3__1plIcNS_11char_traitsIcEENS_9allocatorIcEEEENS_12basic_stringIT_T0_T1_EERKS9_SB_, 
                        __ZTCNSt3__119basic_ostringstreamIcNS_11char_traitsIcEENS_9allocatorIcEEEE0_NS_13basic_ostreamIcS2_EE, 
                        __ZTTNSt3__119basic_ostringstreamIcNS_11char_traitsIcEENS_9allocatorIcEEEE, 
                        __ZTVNSt3__110__function6__funcIPFNSt12experimental15fundamentals_v18optionalIN7Backend6Google17RiceDeltaEncodingEEERNS6_21ProtocolMessageReaderEENS_9allocatorISC_EESB_EE, 
                        __ZTVNSt3__110__function6__funcIPFNSt12experimental15fundamentals_v18optionalIN7Backend6Google18ListUpdateResponse8AdditionEEERNS6_21ProtocolMessageReaderEENS_9allocatorISD_EESC_EE, 
                        __ZTVNSt3__110__function6__funcIPFNSt12experimental15fundamentals_v18optionalIN7Backend6Google18ListUpdateResponseEEERNS6_21ProtocolMessageReaderEENS_9allocatorISC_EESB_EE, 
                        __ZTVNSt3__110__function6__funcIPFNSt12experimental15fundamentals_v18optionalIN7Backend6Google28FindFullHashesResponseParser6Result11ThreatMatch13MetadataEntryEEERNS6_21ProtocolMessageReaderEENS_9allocatorISF_EESE_EE, 
                        __ZTVNSt3__110__function6__funcIPFNSt12experimental15fundamentals_v18optionalIN7Backend6Google28FindFullHashesResponseParser6Result11ThreatMatchEEERNS6_21ProtocolMessageReaderEENS_9allocatorISE_EESD_EE, 
                        __ZTVNSt3__110__function6__funcIPFNSt12experimental15fundamentals_v18optionalIN7Backend6Google9RawHashesEEERNS6_21ProtocolMessageReaderEENS_9allocatorISC_EESB_EE, 
                        __ZTVNSt3__110__function6__funcIPFNSt12experimental15fundamentals_v18optionalINS_5arrayIhLm32EEEEERN7Backend6Google21ProtocolMessageReaderEENS_9allocatorISD_EESC_EE, 
                        __ZTVNSt3__110__function6__funcIPFNSt12experimental15fundamentals_v18optionalINS_6chrono8durationIxNS_5ratioILl1ELl1EEEEEEERN7Backend6Google21ProtocolMessageReaderEENS_9allocatorISG_EESF_EE, 
                        __ZTVNSt3__110__function6__funcIPFNSt12experimental15fundamentals_v18optionalINS_6vectorIN7Backend6Google28FindFullHashesResponseParser6Result11ThreatMatch13MetadataEntryENS_9allocatorISB_EEEEEERNS7_21ProtocolMessageReaderEENSC_ISJ_EESI_EE, 
                        __ZTVNSt3__110__function6__funcIPFNSt12experimental15fundamentals_v18optionalINS_6vectorIjNS_9allocatorIjEEEEEERN7Backend6Google21ProtocolMessageReaderEENS6_ISF_EESE_EE, 
                        __ZTVNSt3__115basic_stringbufIcNS_11char_traitsIcEENS_9allocatorIcEEEE, 
                        __ZTVNSt3__119basic_ostringstreamIcNS_11char_traitsIcEENS_9allocatorIcEEEE, 
                        __ZTVNSt3__120__shared_ptr_emplaceIN12SafeBrowsing13LookupContextENS_9allocatorIS2_EEEE, 
                        __ZTVNSt3__120__shared_ptr_emplaceIN7Backend6Google13FullHashCacheENS_9allocatorIS3_EEEE, 
                        __ZTVNSt3__120__shared_ptr_emplaceIN7Backend6Google15DatabaseUpdaterENS_9allocatorIS3_EEEE, 
                        __ZTVNSt3__120__shared_ptr_emplaceIN7Backend6Google15FullHashChecker12FetchRequestENS_9allocatorIS4_EEEE, 
                        __ZTVNSt3__120__shared_ptr_emplaceIN7Backend6Google15FullHashChecker5CheckENS_9allocatorIS4_EEEE, 
                        __ZTVNSt3__120__shared_ptr_emplaceIN7Backend6Google15FullHashCheckerENS_9allocatorIS3_EEEE, 
                        __ZTVNSt3__120__shared_ptr_emplaceIN7Backend6Google15FullHashFetcherENS_9allocatorIS3_EEEE, 
                        __ZTVNSt3__120__shared_ptr_emplaceIN8Platform11TransactionENS_9allocatorIS2_EEEE, 
                        __ZTVNSt3__120__shared_ptr_emplaceIN8Platform12SharedMemoryENS_9allocatorIS2_EEEE, 
                        __ZTVNSt3__120__shared_ptr_emplaceIN8Platform9ASLLoggerENS_9allocatorIS2_EEEE, 
                        __ZTv0_n24_NSt3__119basic_ostringstreamIcNS_11char_traitsIcEENS_9allocatorIcEEED0Ev, 
                        __ZTv0_n24_NSt3__119basic_ostringstreamIcNS_11char_traitsIcEENS_9allocatorIcEEED1Ev, 
                        ___clang_call_terminate ]
    objc-classes:    [ _SSBLookupContext, _SSBLookupResult, __SSBDatabaseStatus, 
                       __SSBSafeHashCache, __SSBServiceStatus ]
    objc-ivars:      [ __SSBDatabaseStatus._databaseStatus, _SSBLookupContext._lookupContext, 
                       _SSBLookupContext._observerToken, _SSBLookupResult._lookupResult, 
                       __SSBSafeHashCache._cache, __SSBServiceStatus._serviceStatus ]
...
