---
archs:           [ armv7, armv7s, arm64 ]
platform:        ios
install-name:    /System/Library/PrivateFrameworks/ColorSync.framework/ColorSync
exports:         
  - archs:           [ armv7, armv7s, arm64 ]
    symbols:         [ _ColorSyncConvertDoubleXYZToD50, GCC_except_table131, 
                       GCC_except_table132, GCC_except_table133, GCC_except_table166, 
                       GCC_except_table170, GCC_except_table186, GCC_except_table196, 
                       GCC_except_table200, GCC_except_table202, GCC_except_table207, 
                       GCC_except_table208, GCC_except_table210, GCC_except_table219, 
                       GCC_except_table220, GCC_except_table221, GCC_except_table223, 
                       GCC_except_table225, GCC_except_table232, GCC_except_table234, 
                       GCC_except_table236, GCC_except_table237, GCC_except_table239, 
                       GCC_except_table244, GCC_except_table245, GCC_except_table246, 
                       GCC_except_table247, GCC_except_table250, GCC_except_table251, 
                       GCC_except_table252, GCC_except_table256, GCC_except_table257, 
                       GCC_except_table259, GCC_except_table260, GCC_except_table274, 
                       GCC_except_table275, GCC_except_table290, GCC_except_table293, 
                       GCC_except_table317, GCC_except_table318, GCC_except_table343, 
                       GCC_except_table352, GCC_except_table362, GCC_except_table363, 
                       GCC_except_table373, GCC_except_table375, GCC_except_table406, 
                       GCC_except_table412, GCC_except_table431, GCC_except_table441, 
                       GCC_except_table446, GCC_except_table449, GCC_except_table450, 
                       GCC_except_table453, GCC_except_table454, GCC_except_table455, 
                       GCC_except_table457, GCC_except_table468, GCC_except_table470, 
                       GCC_except_table478, GCC_except_table479, GCC_except_table486, 
                       GCC_except_table488, GCC_except_table489, GCC_except_table490, 
                       GCC_except_table492, GCC_except_table509, GCC_except_table510, 
                       GCC_except_table511, GCC_except_table513, GCC_except_table539, 
                       GCC_except_table543, GCC_except_table545, GCC_except_table566, 
                       GCC_except_table573, GCC_except_table574, GCC_except_table575, 
                       GCC_except_table597, GCC_except_table664, GCC_except_table667, 
                       GCC_except_table669, GCC_except_table671, GCC_except_table675, 
                       GCC_except_table677, GCC_except_table680, GCC_except_table683, 
                       GCC_except_table706, GCC_except_table710, GCC_except_table73, 
                       GCC_except_table754, GCC_except_table757, GCC_except_table761, 
                       GCC_except_table763, GCC_except_table766, GCC_except_table768, 
                       GCC_except_table771, GCC_except_table773, GCC_except_table775, 
                       GCC_except_table777, GCC_except_table780, GCC_except_table782, 
                       GCC_except_table784, GCC_except_table802, GCC_except_table810, 
                       GCC_except_table816, GCC_except_table818, GCC_except_table819, 
                       GCC_except_table820, GCC_except_table821, GCC_except_table89, 
                       GCC_except_table91, GCC_except_table929, GCC_except_table931, 
                       GCC_except_table935, GCC_except_table938, GCC_except_table940, 
                       GCC_except_table944, GCC_except_table946, GCC_except_table948, 
                       GCC_except_table953, GCC_except_table956, GCC_except_table958, 
                       GCC_except_table963, GCC_except_table965, GCC_except_table967, 
                       GCC_except_table972, GCC_except_table973, GCC_except_table974, 
                       GCC_except_table975, GCC_except_table978, GCC_except_table981, 
                       GCC_except_table983, GCC_except_table986, GCC_except_table987, 
                       GCC_except_table989, GCC_except_table993, _AppleCMMApplyTransform, 
                       _AppleCMMCreateTransformProperty, _AppleCMMInitializeLinkProfile, 
                       _AppleCMMInitializeTransform, _AppleCMMInitializeTransformWithName, 
                       _AppleCMMValidateProfile, _AppleCMMVerifyAdobeRGBGamma, 
                       _AppleCMMVerifySRGBGamma, _Bradford_mtx, _ColorSyncCMMApplyTransform, 
                       _ColorSyncCMMCopyLocalizedName, _ColorSyncCMMCreateAppleCMM, 
                       _ColorSyncCMMCreateAppleCMM.appleCMM, _ColorSyncCMMCreateAppleCMM.mtx, 
                       _ColorSyncCMMCreateTransformProperty, _ColorSyncCMMGetTypeID, 
                       _ColorSyncCMMGetTypeID.once, _ColorSyncCMMInitializeLinkProfile, 
                       _ColorSyncCMMInitializeTransform, _ColorSyncCreateCFDataFromURL, 
                       _ColorSyncCreateCodeFragment, _ColorSyncCreateCodeFragmentPriv, 
                       _ColorSyncCreateCodeFragmentPriv.lastCodeFragment, 
                       _ColorSyncCreateCodeFragmentPriv.lastOptions, _ColorSyncCreateCodeFragmentPriv.lastSequence, 
                       _ColorSyncCreateCodeFragmentPriv.mtx, _ColorSyncCreateInputPoppyProfile, 
                       _ColorSyncCreateOutputPoppyProfile, _ColorSyncCreateOutputPoppyProfileForRGBData, 
                       _ColorSyncCreateSignatureFromFourCharCode, _ColorSyncCreateSignatureFromFourCharCode.sigArray, 
                       _ColorSyncDataCanBeIgnoredOnSRGBDevice, _ColorSyncGetAdaptationMtx, 
                       _ColorSyncGetFourCharCodeFromSignature, _ColorSyncGetRenderingIntentString, 
                       _ColorSyncLoadvImageDYLD.handle, _ColorSyncLoadvImageDYLD.once, 
                       _ColorSyncLog, _ColorSyncMakeDisplayProfile, _ColorSyncMakeProfile, 
                       _ColorSyncMatrixCreate, _ColorSyncMatrixGetFunction, 
                       _ColorSyncMatrixGetOptions, _ColorSyncMatrixGetProperties, 
                       _ColorSyncMatrixGetRange, _ColorSyncMatrixGetTypeID, 
                       _ColorSyncMatrixGetTypeID.once, _ColorSyncNxMLUTCreate, 
                       _ColorSyncNxMLUTGetFunction, _ColorSyncNxMLUTGetOptions, 
                       _ColorSyncNxMLUTGetProperties, _ColorSyncNxMLUTGetRange, 
                       _ColorSyncNxMLUTGetTypeID, _ColorSyncNxMLUTGetTypeID.once, 
                       _ColorSyncProfileContainsTag, _ColorSyncProfileCopyData, 
                       _ColorSyncProfileCopyDescriptionString, _ColorSyncProfileCopyHeader, 
                       _ColorSyncProfileCopyTag, _ColorSyncProfileCopyTagSignatures, 
                       _ColorSyncProfileCreate, _ColorSyncProfileCreateLink, 
                       _ColorSyncProfileCreateMutable, _ColorSyncProfileCreateMutableCopy, 
                       _ColorSyncProfileCreateSanitizedCopy, _ColorSyncProfileCreateWithName, 
                       _ColorSyncProfileCreateWithName.once, _ColorSyncProfileCreateWithURL, 
                       _ColorSyncProfileGetData, _ColorSyncProfileGetFlagsFromOptions, 
                       _ColorSyncProfileGetFlagsMaskFromOptions, _ColorSyncProfileGetMD5, 
                       _ColorSyncProfileGetPoppyIndex, _ColorSyncProfileGetTag, 
                       _ColorSyncProfileGetTypeID, _ColorSyncProfileGetTypeID.once, 
                       _ColorSyncProfileGetXYZColor, _ColorSyncProfileIsWideGamut, 
                       _ColorSyncProfileRemoveTag, _ColorSyncProfileSetDescriptionTag, 
                       _ColorSyncProfileSetHeader, _ColorSyncProfileSetLocalizedStringDictionary, 
                       _ColorSyncProfileSetParametricTRCTag, _ColorSyncProfileSetTag, 
                       _ColorSyncProfileVerify, _ColorSyncSwapProfileHeader, 
                       _ColorSyncTRCCreateWithParams, _ColorSyncTRCCreateWithTableData, 
                       _ColorSyncTRCGetFunction, _ColorSyncTRCGetOptions, 
                       _ColorSyncTRCGetProperties, _ColorSyncTRCGetRange, 
                       _ColorSyncTRCGetTypeID, _ColorSyncTRCGetTypeID.once, 
                       _ColorSyncTransformConvert, _ColorSyncTransformCopyProperty, 
                       _ColorSyncTransformCreate, _ColorSyncTransformCreateWithName, 
                       _ColorSyncTransformGetDstComponentCount, _ColorSyncTransformGetIterator, 
                       _ColorSyncTransformGetSrcComponentCount, _ColorSyncTransformGetTypeID, 
                       _ColorSyncTransformGetTypeID.once, _ColorSyncTransformInternalCopyProperty, 
                       _ColorSyncTransformInternalGetCMMStorage, _ColorSyncTransformInternalSetCMMStorage, 
                       _ColorSyncTransformInternalSetProperty, _ColorSyncTransformIsNOP, 
                       _ColorSyncTransformIterate, _ColorSyncTransformIteratorGetTypeID.once, 
                       _ColorSyncTransformSetDstComponentCount, _ColorSyncTransformSetIterator, 
                       _ColorSyncTransformSetSrcComponentCount, _ColorSyncTransformValidate, 
                       _ColorSyncVerifyAdobeRGBData, _ColorSyncVerifyAdobeRGBData.once, 
                       _ColorSyncVerifySRGBData, _ColorSync_vImageConvert_16UToF, 
                       _ColorSync_vImageConvert_16UToF.ptr__, _ColorSync_vImageConvert_16Uto16F, 
                       _ColorSync_vImageConvert_16Uto16F.ptr__, _ColorSync_vImageConvert_Fto16F, 
                       _ColorSync_vImageConvert_Fto16F.ptr__, _DoApplyTransform, 
                       _DoCMMDisposeStorage, _DoFlattenCompactConversion, 
                       _DoFlattenFullConversion, _DoFlattenParametricConversion, 
                       _DoFlattenSimplifiedConversion, _DoInitializeLinkProfile, 
                       _DoInitializeTransform, _DoInitializeTransformAdobeRGBTosRGB, 
                       _DoValidateProfile, _DoVerifyAdobeRGBGamma, _DoVerifySRGBGamma, 
                       _MatrixMatrix, _SetChadData, __LabToLabValsProc, 
                       __Z11MakeLookupsPi, __Z15InvertMatrix3x3RA3_A3_d, 
                       __Z15MatrixMatrix4x4RA4_A4_dRA4_A4_KdS5_, __Z16CMMProcessBitmapP19CMMConversionParams, 
                       __Z16IsPureGammaCurvejPtRd, __Z16IsSRGBGammaCurvejPt, 
                       __Z16NxMLUTCreateDataiPvbmmm, __Z21NxMLUTFormatFromValuePKv, 
                       __Z23CMMGetPrecisionFromDataP13CMMDataParams, __Z24CMMThrowExceptionOnError6CMMErr, 
                       __Z24CMMThrowExceptionWithLogbPKc, __Z27RoundTripBlackPointEstimateRA256_ffff, 
                       __Z28CMMThrowExceptionOnConditionb6CMMErr, __Z30CMMGetChannelCountFromCMMSpace17CMMColorSpaceType, 
                       __Z34NxMLUTFillWith16BitUniformGridDataPtmmm, __Z7DecodeLf, 
                       __Z7DecodeNmmRA16_jS0_m, __Z9InvertLUTPiS_, __ZGVZL17createSRGBTRCDatavE11sRGBDataRef, 
                       __ZL10deallocatePvS_, __ZL10getNofCPUsv, __ZL10reallocatePvlmS_, 
                       __ZL11CMMConvTaskPv, __ZL12cmmAllocator, __ZL13GetCMMStorageP18ColorSyncTransform, 
                       __ZL14sRGBTRCDataPtr, __ZL16create_allocatorv, __ZL17CMMsRGBGammaTable, 
                       __ZL17createSRGBTRCDatav, __ZL18CMMAlphaByteOffsetPK13CMMDataParams, 
                       __ZL19CMMLinearGammaTable, __ZL19apply_cmm_transformP12CMMTransform19CMMConversionParams, 
                       __ZL19labDecodeTableChan0, __ZL19labDecodeTableChan1, 
                       __ZL19labDecodeTableChan2, __ZL19labEncodeTableChan0, 
                       __ZL19labEncodeTableChan1, __ZL19labEncodeTableChan2, 
                       __ZL20CMMInvsRGBGammaTable, __ZL21labDecodeDataChan0Ptr, 
                       __ZL21labDecodeDataChan1Ptr, __ZL21labDecodeDataChan2Ptr, 
                       __ZL21labEncodeDataChan0Ptr, __ZL21labEncodeDataChan1Ptr, 
                       __ZL21labEncodeDataChan2Ptr, __ZL22fill_sample_componentsmmRA16_jS0_m, 
                       __ZL24CMMTwoPointTwoGammaTable, __ZL24CMMsRGBGammaFloatLutInfo, 
                       __ZL24legacyLabChanLToPCSTable, __ZL24legacyPCSToLabChanLTable, 
                       __ZL25repackage_RGB16_to_RGBX16PtS_m, __ZL26CMMLinearGammaFloatLutInfo, 
                       __ZL26CMMOnePointEightGammaTable, __ZL26legacyLabChanAnBToPCSTable, 
                       __ZL26legacyLabChanLToPCSDataPtr, __ZL26legacyPCSToLabChanAnBTable, 
                       __ZL26legacyPCSToLabChanLDataPtr, __ZL26repackage_CMYK16_to_RGBX16PtS_m, 
                       __ZL26repackage_GRAY16_to_RGBX16PtS_m, __ZL27CMMInvTwoPointTwoGammaTable, 
                       __ZL27CMMInvsRGBGammaFloatLutInfo, __ZL27createSRGBGammaTableAndInfov, 
                       __ZL28collect_flattened_conversionP11CMMConvNodebPK14__CFDictionaryP9__CFArray, 
                       __ZL28compact_and_flatten_sequenceP12CMMTransformP11CMMConvNodeS2_R9CMMMemMgr17CMMColorSpaceTypeS5_mPK10__CFStringS8_m, 
                       __ZL28legacyLabChanAnBToPCSDataPtr, __ZL28legacyPCSToLabChanAnBDataPtr, 
                       __ZL29CMMInvOnePointEightGammaTable, __ZL29createLinearGammaTableAndInfov, 
                       __ZL31CMMTwoPointTwoGammaFloatLutInfo, __ZL33CMMOnePointEightGammaFloatLutInfo, 
                       __ZL34CMMInvTwoPointTwoGammaFloatLutInfo, __ZL34createTwoPointTwoGammaTableAndInfov, 
                       __ZL36CMMInvOnePointEightGammaFloatLutInfo, __ZL36createOnePointEightGammaTableAndInfov, 
                       __ZL7context, __ZL7nofCPUs, __ZL8allocatelmPv, __ZL9kFixedD50, 
                       __ZN10CMMConvLut16GetTransformTypeEv, __ZN10CMMConvLut19CalculateBoundariesEv, 
                       __ZN10CMMConvLut8CollapseER9CMMMemMgr, __ZN10CMMConvLutC2EPS_P11CMMConvNode, 
                       __ZN10CMMConvLutC2EjP8CMMTableP15CMMFloatLutInfoR9CMMMemMgrP11CMMConvNodejffbbb, 
                       __ZN10CMMConvLutD0Ev, __ZN10CMMConvLutD1Ev, __ZN10CMMConvLutD2Ev, 
                       __ZN10CMMLut8Tag12IsMatrixNullEv, __ZN10CMMLut8Tag12MakeInputLutEjPib, 
                       __ZN10CMMLut8Tag13EvaluateGammaEPhPb, __ZN10CMMLut8Tag13GetInputTableEj, 
                       __ZN10CMMLut8Tag13GetMatrixCompEii, __ZN10CMMLut8Tag13GetWholeClothEPhPm, 
                       __ZN10CMMLut8Tag13MakeNULLTableER9CMMMemMgrj, __ZN10CMMLut8Tag13MakeOutputLutEjPib, 
                       __ZN10CMMLut8Tag14GetOutputTableEj, __ZN10CMMLut8Tag17MakeInputLutTableEjP15CMMFloatLutInfoR9CMMMemMgr17CMMColorSpaceType, 
                       __ZN10CMMLut8Tag18MakeOutputLutTableEjP15CMMFloatLutInfoR9CMMMemMgr17CMMColorSpaceType, 
                       __ZN10CMMLut8Tag18SetNULLInputTablesER9CMMMemMgr, 
                       __ZN10CMMLut8Tag19SetNULLOutputTablesER9CMMMemMgr, 
                       __ZN10CMMLut8Tag27InterpolationProtectionZoneEv, 
                       __ZN10CMMLut8Tag8CopyClutER9CMMMemMgr, __ZN10CMMLut8Tag9EncodeLutEPhPi18CMMLutRangeMapping, 
                       __ZN10CMMLut8TagC2E14icTagSignatureP16CMMTagDataAccessP6CMMTagR9CMMMemMgr, 
                       __ZN10CMMLut8TagC2E14icTagSignatureRK6icLut8P6CMMTag, 
                       __ZN10CMMLut8TagD0Ev, __ZN10CMMLut8TagD1Ev, __ZN10CMMLut8TagD2Ev, 
                       __ZN10CMMProfile10GetDevConvE17CMMConversionType17icRenderingIntent, 
                       __ZN10CMMProfile10InitHeaderE17icRenderingIntent, 
                       __ZN10CMMProfile11GetCurveTagEj14icTagSignature, 
                       __ZN10CMMProfile13UseNamedColorEPS_17CMMConversionType, 
                       __ZN10CMMProfile15GetRelevantTagsERm, __ZN10CMMProfile15SetCopyrightTagEv, 
                       __ZN10CMMProfile17GetLutTagsGenericE17CMMConversionType17icRenderingIntent, 
                       __ZN10CMMProfile17SetDescriptionTagEPKc, __ZN10CMMProfile18InnerGetMatrixTagsERA3_P9CMMXYZTagRA3_P11CMMCurveTag, 
                       __ZN10CMMProfile18SingleTagContainerE14icTagSignature17CMMColorSpaceTypeS1_, 
                       __ZN10CMMProfile19GetAToBTagSignatureE17icRenderingIntent, 
                       __ZN10CMMProfile19GetBToATagSignatureE17icRenderingIntent, 
                       __ZN10CMMProfile19GetTagByArbitrationE14icTagSignature, 
                       __ZN10CMMProfile22GetPreviewTagSignatureE17icRenderingIntent, 
                       __ZN10CMMProfile24GenericGetConversionTypeEPK10__CFString, 
                       __ZN10CMMProfile26DoubleTagPCSToPCSContainerE17icRenderingIntent, 
                       __ZN10CMMProfile28ConvertToColorSyncProfileRefEP16ColorSyncProfile, 
                       __ZN10CMMProfile6GetTagE14icTagSignature, __ZN10CMMProfile6UsableEv, 
                       __ZN10CMMProfile7GetSizeEv, __ZN10CMMProfile7MakeTagE14icTagSignatureP16CMMTagDataAccessP6CMMTag, 
                       __ZN10CMMProfileC2EPK16ColorSyncProfileR9CMMMemMgr, 
                       __ZN10CMMProfileC2EPKcR9CMMMemMgr, __ZN10CMMProfileD0Ev, 
                       __ZN10CMMProfileD1Ev, __ZN10CMMProfileD2Ev, __ZN10CMMTextTagC2E14icTagSignatureP16CMMTagDataAccessP6CMMTag, 
                       __ZN10CMMTextTagC2E14icTagSignaturePKcR9CMMMemMgrP6CMMTag, 
                       __ZN11CMMConvNode10RemoveNOPsEv, __ZN11CMMCurveTag10InitializeEv, 
                       __ZN11CMMCurveTag12GetCurveDataEv, __ZN11CMMCurveTag12MakeLutTableEP15CMMFloatLutInfoR9CMMMemMgr18CMMLutRangeMappingd, 
                       __ZN11CMMCurveTag13EvaluateGammaEPbd, __ZN11CMMCurveTag13GetCurveCountEv, 
                       __ZN11CMMCurveTag15MakeInvLutTableEP15CMMFloatLutInfoR9CMMMemMgrPP8CMMTable, 
                       __ZN11CMMCurveTag24InvertFloatParametricLUTEP15CMMFloatLutInfo, 
                       __ZN11CMMCurveTag7MakeLutEP15CMMFloatLutInfoPi18CMMLutRangeMapping, 
                       __ZN11CMMCurveTag8ValidateEv, __ZN11CMMCurveTag9SameCurveEPS_S0_, 
                       __ZN11CMMCurveTagC2E14icTagSignatureP16CMMTagDataAccessP6CMMTag, 
                       __ZN11CMMCurveTagC2E14icTagSignaturePKhmP6CMMTag, 
                       __ZN11CMMLut16Tag12IsMatrixNullEv, __ZN11CMMLut16Tag12MakeInputLutEjPib, 
                       __ZN11CMMLut16Tag13EvaluateGammaEPtjPb, __ZN11CMMLut16Tag13GetInputTableEj, 
                       __ZN11CMMLut16Tag13GetMatrixCompEii, __ZN11CMMLut16Tag13GetWholeClothEPhPm, 
                       __ZN11CMMLut16Tag13MakeNULLTableER9CMMMemMgrj, __ZN11CMMLut16Tag13MakeOutputLutEjPib, 
                       __ZN11CMMLut16Tag14GetOutputTableEj, __ZN11CMMLut16Tag15GetInputABRangeEPtii, 
                       __ZN11CMMLut16Tag16GetInputLabRangeEj, __ZN11CMMLut16Tag17GetOutputLabRangeEj, 
                       __ZN11CMMLut16Tag17MakeInputLutTableEjP15CMMFloatLutInfoR9CMMMemMgr17CMMColorSpaceType, 
                       __ZN11CMMLut16Tag18MakeOutputLutTableEjP15CMMFloatLutInfoR9CMMMemMgr17CMMColorSpaceType, 
                       __ZN11CMMLut16Tag18SetNULLInputTablesER9CMMMemMgr, 
                       __ZN11CMMLut16Tag19SetNULLOutputTablesER9CMMMemMgr, 
                       __ZN11CMMLut16Tag20GetLabCriticalValuesEv, __ZN11CMMLut16Tag27InterpolationProtectionZoneEv, 
                       __ZN11CMMLut16Tag7GetMaxLEv, __ZN11CMMLut16Tag8ApplyLutEPtii, 
                       __ZN11CMMLut16Tag8CopyClutER9CMMMemMgr, __ZN11CMMLut16Tag8GetAZeroEv, 
                       __ZN11CMMLut16Tag8GetBZeroEv, __ZN11CMMLut16TagC2E14icTagSignatureP16CMMTagDataAccessP6CMMTagR9CMMMemMgr, 
                       __ZN11CMMLut16TagC2E14icTagSignatureRK7icLut16P6CMMTag, 
                       __ZN11CMMLut16TagD0Ev, __ZN11CMMLut16TagD1Ev, __ZN11CMMLut16TagD2Ev, 
                       __ZN12CMMInvMatrix6InvertEv, __ZN12CMMInvMatrixC2ERA3_P9CMMXYZTagRA3_i, 
                       __ZN12CMMRGBCurves12MakeLutTableEP15CMMFloatLutInfoR9CMMMemMgrj, 
                       __ZN12CMMRGBCurves15MakeInvLutTableEP15CMMFloatLutInfoR9CMMMemMgrjPP8CMMTable, 
                       __ZN13CMMConvInvLut11GetFirstMaxEv, __ZN13CMMConvInvLutD0Ev, 
                       __ZN13CMMConvInvLutD1Ev, __ZN13CMMConvInvLutD2Ev, 
                       __ZN13CMMConvMatrix13CollapseToRGBEP16CMMConvInvMatrixR9CMMMemMgr, 
                       __ZN13CMMConvMatrix14CollapseToGrayEPS_R9CMMMemMgr, 
                       __ZN13CMMConvMatrix15CollapseScalingEPS_R9CMMMemMgr, 
                       __ZN13CMMConvMatrix8CollapseER9CMMMemMgr, __ZN13CMMLutAtoBTag15GetOutputMatrixEv, 
                       __ZN13CMMLutAtoBTag18MakeOutputLutTableEjP15CMMFloatLutInfoR9CMMMemMgr17CMMColorSpaceType, 
                       __ZN13CMMLutAtoBTag19MakePreCLUTLutTableEjP15CMMFloatLutInfoR9CMMMemMgr17CMMColorSpaceType, 
                       __ZN13CMMLutAtoBTag20MakePostCLUTLutTableEjP15CMMFloatLutInfoR9CMMMemMgr17CMMColorSpaceType, 
                       __ZN13CMMLutBtoATag14GetInputMatrixEv, __ZN13CMMLutBtoATag17MakeInputLutTableEjP15CMMFloatLutInfoR9CMMMemMgr17CMMColorSpaceType, 
                       __ZN13CMMLutBtoATag19MakePreCLUTLutTableEjP15CMMFloatLutInfoR9CMMMemMgr17CMMColorSpaceType, 
                       __ZN13CMMLutBtoATag20MakePostCLUTLutTableEjP15CMMFloatLutInfoR9CMMMemMgr17CMMColorSpaceType, 
                       __ZN14CMMAlphaCopier4CopyEm, __ZN14CMMAlphaCopierC2EP13CMMDataParamsPKS0_, 
                       __ZN14CMMTextDescTagC2E14icTagSignatureP16CMMTagDataAccessP6CMMTag, 
                       __ZN14CMMTextDescTagC2E14icTagSignaturePKcR9CMMMemMgrP6CMMTag, 
                       __ZN15CMMConvCLUTBaseC2EP13CMMLutTagBaseR9CMMMemMgrP11CMMConvNode, 
                       __ZN15CMMConvCLUTBaseD0Ev, __ZN15CMMConvCLUTBaseD1Ev, 
                       __ZN15CMMConvRGBToRGB13RuntimeAdjustEP19CMMConversionParams, 
                       __ZN15CMMConvRGBToRGB16GetTransformTypeEv, __ZN15CMMConvRGBToRGBC2ER9CMMMemMgrP11CMMConvNode, 
                       __ZN15CMMConvRGBToRGBC2ER9CMMMemMgrPA256_KiRK9CMMMatrixPA4097_KhP8CMMTableP15CMMFloatLutInfoSC_SE_, 
                       __ZN15CMMConvRGBToRGBD0Ev, __ZN15CMMConvRGBToRGBD1Ev, 
                       __ZN15CMMConvRGBToRGBD2Ev, __ZN15CMMInputProfile16GetDstColorSpaceE17CMMConversionTypePb, 
                       __ZN15CMMInputProfile16GetSrcColorSpaceE17CMMConversionType, 
                       __ZN15CMMParaCurveTag10InitializeEv, __ZN15CMMParaCurveTag12MakeLutTableEP15CMMFloatLutInfoR9CMMMemMgr18CMMLutRangeMappingd, 
                       __ZN15CMMParaCurveTag13EvaluateGammaEPbd, __ZN15CMMParaCurveTag15MakeInvLutTableEP15CMMFloatLutInfoR9CMMMemMgrPP8CMMTable, 
                       __ZN15CMMParaCurveTag7MakeLutEP15CMMFloatLutInfoPi18CMMLutRangeMapping, 
                       __ZN15CMMParaCurveTag8ValidateEv, __ZN15CMMParaCurveTag9SameCurveEP11CMMCurveTagS1_, 
                       __ZN15CMMParaCurveTagC2E14icTagSignatureP16CMMTagDataAccessP6CMMTag, 
                       __ZN15CMMParaCurveTagC2E14icTagSignaturePKhmP6CMMTag, 
                       __ZN15CMMProfileMaker11MakeProfileEPK16ColorSyncProfileR9CMMMemMgr, 
                       __ZN15CMMProfileMaker13IsMatrixBasedEPK16ColorSyncProfileRK8icHeader, 
                       __ZN15CMMProfileMaker9TagExistsEPK16ColorSyncProfile14icTagSignature, 
                       __ZN16CMM8Bit3ChanData9SetParamsEPK13CMMDataParams, 
                       __ZN16CMMConvGrayToRGB8CollapseER9CMMMemMgr, __ZN16CMMConvInvMatrixC2ERK12CMMInvMatrixP11CMMConvNodeff, 
                       __ZN16CMMDataBaseClassC2EP13CMMDataParamsll, __ZN16CMMDataBaseClassC2EPK13CMMDataParamsll, 
                       __ZN16CMMNamedColorTagC2E14icTagSignatureP16CMMTagDataAccessP6CMMTagR9CMMMemMgr17CMMColorSpaceType, 
                       __ZN16CMMOutputProfile16GetDstColorSpaceE17CMMConversionTypePb, 
                       __ZN16CMMOutputProfile16GetSrcColorSpaceE17CMMConversionType, 
                       __ZN16CMMTagDataAccess10GetTagDataEmm, __ZN16CMMTagDataAccess11CopyTagDataEPhmm, 
                       __ZN16CMMTagDataAccessC2EPK16ColorSyncProfilePK10__CFString, 
                       __ZN16CMMTagDataAccessD0Ev, __ZN16CMMTagDataAccessD1Ev, 
                       __ZN16CMMTechnologyTagC2E14icTagSignatureP16CMMTagDataAccessP6CMMTag, 
                       __ZN16CMMThreadManager12ActivateTaskEP16dispatch_group_sP13CMMThreadDatamP19CMMConversionParams, 
                       __ZN16CMMThreadManager13ProcessBitmapEP19CMMConversionParams, 
                       __ZN16CMMThreadManager16DivideAndConquerEmP13CMMTaskParamsP19CMMConversionParamsS3_P13CMMDataParamsS5_S5_S5_, 
                       __ZN16CMMThreadManager17GetNofTasksNeededEP19CMMConversionParams, 
                       __ZN16CMMThreadManager20InitializeMPTaskDataEm, 
                       __ZN16CMMThreadManager5ReadyEP14CMMRuntimeInfom, 
                       __ZN16CMMThreadManagerD0Ev, __ZN16CMMThreadManagerD1Ev, 
                       __ZN17CMM16BitNChanData9SetParamsEPK13CMMDataParams, 
                       __ZN17CMMDevLinkProfile10GetLutTagsE17CMMConversionType17icRenderingIntent, 
                       __ZN17CMMDevLinkProfile16GetDstColorSpaceE17CMMConversionTypePb, 
                       __ZN17CMMDevLinkProfile16GetSrcColorSpaceE17CMMConversionType, 
                       __ZN17CMMDevLinkProfile17GetConversionTypeEPK10__CFStringbb, 
                       __ZN17CMMDevLinkProfileC2EPKcR9CMMMemMgr21icColorSpaceSignatureS4_P13CMMLutTagBaseP25CMMProfileSequenceDescTag, 
                       __ZN17CMMDisplayProfile16GetDstColorSpaceE17CMMConversionTypePb, 
                       __ZN17CMMDisplayProfile16GetSrcColorSpaceE17CMMConversionType, 
                       __ZN17CMMRGBToRGBMatrixC2ERK9CMMMatrixS2_, __ZN17ConversionManager11AddCLUTConvEP13CMMLutTagBase17CMMColorSpaceTypeS2_mmb, 
                       __ZN17ConversionManager11AddGrayConvEP10CMMProfile, 
                       __ZN17ConversionManager11AddLabToXYZERK11icXYZNumber, 
                       __ZN17ConversionManager11AddXYZToLabERK11icXYZNumber, 
                       __ZN17ConversionManager11AddXYZToXYZERK11icXYZNumberS2_, 
                       __ZN17ConversionManager11IsBPCActiveEP11CMMConvNode, 
                       __ZN17ConversionManager13AddLutTagConvEP9CMMLutTag17CMMColorSpaceTypeS2_, 
                       __ZN17ConversionManager13AddMatrixConvERA3_P9CMMXYZTagR12CMMRGBCurves, 
                       __ZN17ConversionManager13CollapseNodesEv, __ZN17ConversionManager14AddInvGrayConvEP10CMMProfile, 
                       __ZN17ConversionManager15AddGrayPCSToPCSEP10CMMProfile, 
                       __ZN17ConversionManager15InitLabToXYZLutEPiRK11icXYZNumberj, 
                       __ZN17ConversionManager15InitXYZToLabLutEPiRK11icXYZNumberj, 
                       __ZN17ConversionManager16AddInvMatrixConvERA3_P9CMMXYZTagR12CMMRGBCurves, 
                       __ZN17ConversionManager16GetColorConvTypeEP11CMMConvNode, 
                       __ZN17ConversionManager16GetTransformTypeEP11CMMConvNode, 
                       __ZN17ConversionManager17CreateLabToXYZLutERK11icXYZNumberj, 
                       __ZN17ConversionManager17CreateXYZToLabLutERK11icXYZNumberj, 
                       __ZN17ConversionManager17GetMaxNofChannelsEP11CMMConvNode, 
                       __ZN17ConversionManager19AddLegacyGenericLabE17CMMConversionType, 
                       __ZN17ConversionManager19AddLegacyLutTagConvEP15CMMLegacyLutTag17CMMColorSpaceTypeS2_, 
                       __ZN17ConversionManager19GetMaxCLUTNofPointsEP11CMMConvNodeS1_, 
                       __ZN17ConversionManager20AddScalingUpFloatXYZEv, 
                       __ZN17ConversionManager21MakeNDimLutConversionEP11CMMConvNodeP14CMMRuntimeInfo17CMMColorSpaceTypeS4_mjb, 
                       __ZN17ConversionManager22AddScalingDownFloatXYZEv, 
                       __ZN17ConversionManager22CreateSamplingGridDataEmmm, 
                       __ZN17ConversionManager22MakeColorMatchSequenceEP23CMMProfileInfoContainerP22CMMColorConversionInfo, 
                       __ZN17ConversionManager22MakeConversionSequenceEP23CMMProfileInfoContainerP22CMMColorConversionInfo, 
                       __ZN17ConversionManager25AddBlackPointCompensationEii, 
                       __ZN17ConversionManager26InitLegacyLabChanLToPCSLutEPi, 
                       __ZN17ConversionManager26InitPCSToLegacyLabChanLLutEPi, 
                       __ZN17ConversionManager26MakeLutTypeTagFromSequenceEP11CMMConvNodeS1_P14CMMRuntimeInfo17CMMColorSpaceTypeS4_bm18icTagTypeSignaturem, 
                       __ZN17ConversionManager26MakeNDimLutConversionInnerEP11CMMConvNodeP14CMMRuntimeInfo17CMMColorSpaceTypeS4_bmm, 
                       __ZN17ConversionManager28InitLegacyLabChanAnBToPCSLutEPi, 
                       __ZN17ConversionManager28InitPCSToLegacyLabChanAnBLutEPi, 
                       __ZN17ConversionManager32GetProfileDstBlackPointLightnessENSt3__111__wrap_iterIP14CMMProfileInfoEE, 
                       __ZN17ConversionManager32GetProfileSrcBlackPointLightnessENSt3__111__wrap_iterIP14CMMProfileInfoEEPi, 
                       __ZN17ConversionManager35CreateBlackPointEstimationTransformEbNSt3__111__wrap_iterIP14CMMProfileInfoEE17icRenderingIntentS5_Pm, 
                       __ZN18CMMAbstractProfile10GetLutTagsE17CMMConversionType17icRenderingIntent, 
                       __ZN18CMMAbstractProfile16GetDstColorSpaceE17CMMConversionTypePb, 
                       __ZN18CMMAbstractProfile16GetSrcColorSpaceE17CMMConversionType, 
                       __ZN18CMMAbstractProfile17GetConversionTypeEPK10__CFStringbb, 
                       __ZN18CMMDataDecodeMaker15MakeDataDecoderEP13CMMDataParams16CMMPrecisionTypeP14CMMRuntimeInfo17CMMColorSpaceTypem, 
                       __ZN18CMMDataDecodeMaker20MakeFloatDataDecoderEP13CMMDataParamsP14CMMRuntimeInfo17CMMColorSpaceTypem, 
                       __ZN18CMMDataEncodeMaker15MakeDataEncoderEPK13CMMDataParams16CMMPrecisionTypeP14CMMRuntimeInfo17CMMColorSpaceTypem, 
                       __ZN18CMMDataEncodeMaker20MakeFloatDataEncoderEPK13CMMDataParamsP14CMMRuntimeInfo17CMMColorSpaceTypem, 
                       __ZN18CMMGrayToRGBMatrixC2ERK9CMMMatrixS2_, __ZN18CMMRGBToGrayMatrixC2ERK9CMMMatrixS2_, 
                       __ZN19CMMAlphaCopierMaker15MakeAlphaCopierEP13CMMDataParamsPKS0_, 
                       __ZN19CMMGrayToGrayMatrixC2ERK9CMMMatrixS2_, __ZN20CMMColorSpaceProfile16GetDstColorSpaceE17CMMConversionTypePb, 
                       __ZN20CMMColorSpaceProfile16GetSrcColorSpaceE17CMMConversionType, 
                       __ZN20CMMColorSpaceProfile18IsLegacyGenericLabEv, 
                       __ZN20CMMColorSpaceProfileC2EPK16ColorSyncProfileR9CMMMemMgr, 
                       __ZN20CMMNamedColorProfile16GetDstColorSpaceE17CMMConversionTypePb, 
                       __ZN20CMMNamedColorProfile16GetSrcColorSpaceE17CMMConversionType, 
                       __ZN20CMMNamedColorProfile17GetConversionTypeEPK10__CFStringbb, 
                       __ZN21CMMConvRGBToRGBMatrix8CollapseER9CMMMemMgr, 
                       __ZN21CMMMatrixInputProfile13GetMatrixTagsERA3_P9CMMXYZTagR12CMMRGBCurves, 
                       __ZN22CMMDevLinkProfileMaker21MakeCMMDevLinkProfileEPK9__CFArrayPK14__CFDictionary18icTagTypeSignature, 
                       __ZN22CMMDevLinkProfileMaker26MakeCMMDevLinkProfileInnerEP23CMMProfileInfoContainer18icTagTypeSignature, 
                       __ZN23CMMFloatBitNChanDecoder8DoDecodeERK12CMMFloatBitsP14CMMRuntimeInfom, 
                       __ZN23CMMFloatBitNChanDecoderC2EmP13CMMDataParams, 
                       __ZN23CMMFloatBitNChanEncoder8DoEncodeER12CMMFloatBitsP14CMMRuntimeInfoPmS4_, 
                       __ZN23CMMFloatBitNChanEncoderC2EmmPK13CMMDataParams, 
                       __ZN23CMMMatrixDisplayProfile10GetLutTagsE17CMMConversionType17icRenderingIntent, 
                       __ZN23CMMMatrixDisplayProfile11GetGamutTagEv, __ZN23CMMMatrixDisplayProfile13GetMatrixTagsERA3_P9CMMXYZTagR12CMMRGBCurves, 
                       __ZN23CMMProfileInfoContainer17GetMaxNofChannelsEv, 
                       __ZN23CMMProfileInfoContainer17ProfilesIdenticalEP10CMMProfileS1_R9CMMMemMgr, 
                       __ZN23CMMProfileInfoContainer18GetRenderingIntentEP10CMMProfilePK10__CFString, 
                       __ZN23CMMProfileInfoContainer23EliminateNULLTransformsER9CMMMemMgr, 
                       __ZN23CMMProfileInfoContainerC2EPK9__CFArrayPK14__CFDictionaryR9CMMMemMgr, 
                       __ZN23CMMProfileInfoContainerD0Ev, __ZN23CMMProfileInfoContainerD1Ev, 
                       __ZN23CMMProfileInfoContainerD2Ev, __ZN25CMMProfileSequenceDescTagC2E14icTagSignatureP16CMMTagDataAccessP6CMMTag, 
                       __ZN25CMMProfileSequenceDescTagC2E14icTagSignaturePK23CMMProfileInfoContainerR9CMMMemMgrP6CMMTag, 
                       __ZN29CMMConvBlackPointCompensationC2EffP11CMMConvNode, 
                       __ZN6CMMTag10GetTagTypeEv, __ZN6CMMTag13GetWholeClothEPhPm, 
                       __ZN6CMMTagD0Ev, __ZN6CMMTagD1Ev, __ZN6CMMTagD2Ev, 
                       __ZN7CMMBase11NewInternalEmR9CMMMemMgrPKc, __ZN7CMMBasedlEPv, 
                       __ZN8CMMTable13MakeFloatCopyEmR9CMMMemMgr, __ZN8CMMTableC2EP16CMMTagDataAccessmmmR9CMMMemMgr, 
                       __ZN8CMMTableD0Ev, __ZN8CMMTableD1Ev, __ZN9CMMLutTag11GetCLUTSizeEhhP7_icCLUT, 
                       __ZN9CMMLutTag11InterpolateEjjPiiPtPjRj, __ZN9CMMLutTag12IsMatrixNullER10CMM3x4Type, 
                       __ZN9CMMLutTag13GetCLutPointsEv, __ZN9CMMLutTag16InitializeMatrixEjP16CMMTagDataAccessPj, 
                       __ZN9CMMLutTag17CreateUniformCLUTER9CMMMemMgrP8CMMTablehm, 
                       __ZN9CMMLutTag17InitializeOffsetsEPj, __ZN9CMMLutTag20InitializeCurveTableERNS_13CMMCurveTableER9CMMMemMgrjjP16CMMTagDataAccessPj, 
                       __ZN9CMMLutTag27InterpolationProtectionZoneEv, __ZN9CMMLutTag8CopyClutER9CMMMemMgr, 
                       __ZN9CMMLutTag8EvaluateEPtPjRA16_t, __ZN9CMMLutTagC2E14icTagSignatureP16CMMTagDataAccessP6CMMTagR9CMMMemMgrjj, 
                       __ZN9CMMLutTagD0Ev, __ZN9CMMLutTagD1Ev, __ZN9CMMLutTagD2Ev, 
                       __ZN9CMMMatrix14MakeMatrixConvER9CMMMemMgrP11CMMConvNode, 
                       __ZN9CMMMatrix16InitializeMatrixER10CMM3x3TypeRA3_P9CMMXYZTag, 
                       __ZN9CMMMatrix19InitializeRGBMatrixERKS_S1_, __ZN9CMMMatrix20InitializeGrayMatrixERKS_S1_, 
                       __ZN9CMMMatrixC2ER10CMM3x4Type, __ZN9CMMMemMgr12FlushStorageEv, 
                       __ZN9CMMMemMgr13RetainMemListEv, __ZN9CMMMemMgr14ReleaseMemListEv, 
                       __ZN9CMMMemMgr3NewEm, __ZN9CMMMemMgrC2Ev, __ZN9CMMXYZTagC2E14icTagSignatureP16CMMTagDataAccessP6CMMTag, 
                       __ZNK10CMMConvLut12ConvertFloatER12CMMFloatBitsmmb, 
                       __ZNK10CMMConvLut17FlattenConversionEPK14__CFDictionary, 
                       __ZNK10CMMConvLut18IsFloatingPointNOPEv, __ZNK10CMMConvLut5IsNOPEv, 
                       __ZNK10CMMMtxDiag10ConvertMaxE10CMM3x3Type10CMM3x1TypeR12CMMMaxBuffermm, 
                       __ZNK10CMMMtxDiag12ConvertFloatE10CMM3x3Type10CMM3x1TypeR14CMMFloatBuffermmb, 
                       __ZNK10CMMMtxOnly10ConvertMaxE10CMM3x3Type10CMM3x1TypeR12CMMMaxBuffermm, 
                       __ZNK10CMMMtxOnly12ConvertFloatE10CMM3x3Type10CMM3x1TypeR14CMMFloatBuffermmb, 
                       __ZNK13CMMConvMatrix5IsNOPEv, __ZNK13CMMMtxGeneric10ConvertMaxE10CMM3x3Type10CMM3x1TypeR12CMMMaxBuffermm, 
                       __ZNK13CMMMtxGeneric12ConvertFloatE10CMM3x3Type10CMM3x1TypeR14CMMFloatBuffermmb, 
                       __ZNK14CMMMtxLabToXYZ10ConvertMaxE10CMM3x3Type10CMM3x1TypeR12CMMMaxBuffermm, 
                       __ZNK14CMMMtxLabToXYZ12ConvertFloatE10CMM3x3Type10CMM3x1TypeR14CMMFloatBuffermmb, 
                       __ZNK14CMMMtxXYZToLab10ConvertMaxE10CMM3x3Type10CMM3x1TypeR12CMMMaxBuffermm, 
                       __ZNK14CMMMtxXYZToLab12ConvertFloatE10CMM3x3Type10CMM3x1TypeR14CMMFloatBuffermmb, 
                       __ZNK15CMMConvCLUTBase5IsNOPEv, __ZNK15CMMConvRGBToRGB17FlattenConversionEPK14__CFDictionary, 
                       __ZNK15CMMConvRGBToRGB28Convert8BitMtxOnlyWithLookupE10CMM3x3TypePimmPKvS3_, 
                       __ZNK15CMMConvRGBToRGB5IsNOPEv, __ZNK15CMMConvRGBToRGB7ConvertER10CMMMaxBitsP14CMMRuntimeInfomm, 
                       __ZNK15CMMConvRGBToRGB7ConvertER12CMMFloatBitsP14CMMRuntimeInfomm, 
                       __ZNK15CMMConvRGBToRGB7ConvertER8CMM8BitsP14CMMRuntimeInfomm, 
                       __ZNK15CMMMtxGrayToLab10ConvertMaxE10CMM3x3Type10CMM3x1TypeR12CMMMaxBuffermm, 
                       __ZNK15CMMMtxGrayToXYZ10ConvertMaxE10CMM3x3Type10CMM3x1TypeR12CMMMaxBuffermm, 
                       __ZNK15CMMMtxLabToGray10ConvertMaxE10CMM3x3Type10CMM3x1TypeR12CMMMaxBuffermm, 
                       __ZNK15CMMMtxXYZToGray10ConvertMaxE10CMM3x3Type10CMM3x1TypeR12CMMMaxBuffermm, 
                       __ZNK16CMMConvGrayToRGB17FlattenConversionEPK14__CFDictionary, 
                       __ZNK8CMMTable10SInt32DataEv, __ZNK8CMMTable10UInt16DataEv, 
                       __ZNK8CMMTable10UInt32DataEv, __ZNK8CMMTable11Float32DataEv, 
                       __ZNK8CMMTable9UInt8DataEv, __ZNK9CMMMatrix10IsDiagonalEv, 
                       __ZNK9CMMMatrix18IsFloatingPointNOPEv, __ZNK9CMMMatrix5IsNOPEv, 
                       __ZNK9CMMMtxRow10ConvertMaxE10CMM3x3Type10CMM3x1TypeR12CMMMaxBuffermm, 
                       __ZNK9CMMMtxRow12ConvertFloatE10CMM3x3Type10CMM3x1TypeR14CMMFloatBuffermmb, 
                       __ZTI10CMMConvLut, __ZTI10CMMLut8Tag, __ZTI10CMMProfile, 
                       __ZTI11CMMCurveTag, __ZTI11CMMLut16Tag, __ZTI13CMMConvInvLut, 
                       __ZTI13CMMConvMatrix, __ZTI13CMMLutAtoBTag, __ZTI13CMMLutBtoATag, 
                       __ZTI14CMMAlphaCopier, __ZTI15CMMConvCLUTBase, __ZTI15CMMConvRGBToRGB, 
                       __ZTI15CMMInputProfile, __ZTI15CMMParaCurveTag, 
                       __ZTI16CMMConvGrayToRGB, __ZTI16CMMOutputProfile, 
                       __ZTI16CMMTagDataAccess, __ZTI16CMMThreadManager, 
                       __ZTI17CMMDevLinkProfile, __ZTI17CMMDisplayProfile, 
                       __ZTI18CMMAbstractProfile, __ZTI20CMMColorSpaceProfile, 
                       __ZTI20CMMNamedColorProfile, __ZTI21CMMConvRGBToRGBMatrix, 
                       __ZTI21CMMMatrixInputProfile, __ZTI23CMMFloatBitNChanDecoder, 
                       __ZTI23CMMFloatBitNChanEncoder, __ZTI23CMMMatrixDisplayProfile, 
                       __ZTI23CMMProfileInfoContainer, __ZTI6CMMTag, __ZTI8CMMTable, 
                       __ZTI9CMMLutTag, __ZTS10CMMConvLut, __ZTS10CMMLut8Tag, 
                       __ZTS10CMMProfile, __ZTS11CMMCurveTag, __ZTS11CMMLut16Tag, 
                       __ZTS13CMMConvInvLut, __ZTS13CMMConvMatrix, __ZTS13CMMLutAtoBTag, 
                       __ZTS13CMMLutBtoATag, __ZTS14CMMAlphaCopier, __ZTS15CMMConvCLUTBase, 
                       __ZTS15CMMConvRGBToRGB, __ZTS15CMMInputProfile, 
                       __ZTS15CMMParaCurveTag, __ZTS16CMMConvGrayToRGB, 
                       __ZTS16CMMOutputProfile, __ZTS16CMMTagDataAccess, 
                       __ZTS16CMMThreadManager, __ZTS17CMMDevLinkProfile, 
                       __ZTS17CMMDisplayProfile, __ZTS18CMMAbstractProfile, 
                       __ZTS20CMMColorSpaceProfile, __ZTS20CMMNamedColorProfile, 
                       __ZTS21CMMConvRGBToRGBMatrix, __ZTS21CMMMatrixInputProfile, 
                       __ZTS23CMMFloatBitNChanDecoder, __ZTS23CMMFloatBitNChanEncoder, 
                       __ZTS23CMMMatrixDisplayProfile, __ZTS23CMMProfileInfoContainer, 
                       __ZTS6CMMTag, __ZTS8CMMTable, __ZTS9CMMLutTag, __ZTV10CMMConvLut, 
                       __ZTV10CMMLut8Tag, __ZTV10CMMProfile, __ZTV11CMMCurveTag, 
                       __ZTV11CMMLut16Tag, __ZTV13CMMConvInvLut, __ZTV13CMMConvMatrix, 
                       __ZTV13CMMLutAtoBTag, __ZTV13CMMLutBtoATag, __ZTV14CMMAlphaCopier, 
                       __ZTV15CMMConvCLUTBase, __ZTV15CMMConvRGBToRGB, 
                       __ZTV15CMMParaCurveTag, __ZTV16CMMConvGrayToRGB, 
                       __ZTV16CMMTagDataAccess, __ZTV16CMMThreadManager, 
                       __ZTV17CMMDevLinkProfile, __ZTV18CMMAbstractProfile, 
                       __ZTV20CMMColorSpaceProfile, __ZTV20CMMNamedColorProfile, 
                       __ZTV21CMMMatrixInputProfile, __ZTV23CMMFloatBitNChanDecoder, 
                       __ZTV23CMMFloatBitNChanEncoder, __ZTV23CMMMatrixDisplayProfile, 
                       __ZTV23CMMProfileInfoContainer, __ZTV6CMMTag, __ZTV8CMMTable, 
                       __ZTV9CMMLutTag, __ZZ16IsSRGBGammaCurvejPtE14instagramGamma, 
                       __ZZL14getSRGBTRCDatavE4once, __ZZL17createSRGBTRCDatavE11sRGBDataRef, 
                       __ZZL19CMMBytesDeallocatorvE4once, __ZZL27CMMInitializeSRGBGammaTablevE4once, 
                       __ZZL29CMMInitializeLinearGammaTablevE4once, __ZZL34CMMInitializeTwoPointTwoGammaTablevE4once, 
                       __ZZL36CMMInitializeOnePointEightGammaTablevE4once, 
                       __ZZN13CMMConvMatrix13CollapseToRGBEP16CMMConvInvMatrixR9CMMMemMgrE5wpXYZ, 
                       __ZZN16CMMThreadManager10GetNofCPUsEvE4once, __ZZN17ConversionManager17CreateLabToXYZLutERK11icXYZNumberjE7cmmLock, 
                       __ZZN17ConversionManager17CreateXYZToLabLutERK11icXYZNumberjE7cmmLock, 
                       __ZZN17ConversionManager19AddLegacyGenericLabE17CMMConversionTypeE7cmmLock, 
                       __ZZN17ConversionManager19AddLegacyGenericLabE17CMMConversionTypeE7cmmLock_0, 
                       __ZZN9CMMMatrix16InitializeMatrixER10CMM3x3TypeRA3_P9CMMXYZTagE3d50, 
                       __ZZNK10CMMConvLut18IsFloatingPointNOPEvE8identity, 
                       ___ColorSyncLoadvImageDYLD_block_invoke, ___acquire_input_profile_block_invoke, 
                       ___acquire_output_profile_block_invoke, ___acquire_output_profile_block_invoke_2, 
                       ___block_descriptor_tmp, ___block_descriptor_tmp, 
                       ___block_descriptor_tmp, ___block_descriptor_tmp.198, 
                       ___block_descriptor_tmp.6, ___block_descriptor_tmp.8, 
                       ___block_literal_global, ___block_literal_global, 
                       ___block_literal_global, ___block_literal_global.199, 
                       ___copyLoacalizedStringFromResources_block_invoke, 
                       ___use_xpc_only_block_invoke, _acquire_input_profile.predicates, 
                       _acquire_input_profile.profiles, _acquire_output_profile, 
                       _acquire_output_profile.fd, _acquire_output_profile.header, 
                       _acquire_output_profile.header_size, _acquire_output_profile.predicate, 
                       _acquire_output_profile.predicates, _acquire_output_profile.profiles, 
                       _addAbstractA2B, _addGammaTag, _addXYZTag, _adobeRGB, 
                       _adobeRGBData, _allocate, _classSignatureFromClassString, 
                       _colorSyncAllocator, _colorSyncBytesDeallocator.once, 
                       _colorSyncCMMClassInitialize, _colorSyncCMMCopyDebugDescription, 
                       _colorSyncCMMCopyFormatDescription, _colorSyncCMMFinalize, 
                       _colorSyncMatrixClassInitialize, _colorSyncMatrixCopyDebugDescription, 
                       _colorSyncMatrixCopyFormatDescription, _colorSyncNxMLUTClassInitialize, 
                       _colorSyncNxMLUTCopyDebugDescription, _colorSyncNxMLUTCopyFormatDescription, 
                       _colorSyncNxMLUTFinalize, _colorSyncProfileClassInitialize, 
                       _colorSyncProfileCopyDebugDescription, _colorSyncProfileCopyFormatDescription, 
                       _colorSyncProfileEqual, _colorSyncProfileFinalize, 
                       _colorSyncTRCClassInitialize, _colorSyncTRCCopyDebugDescription, 
                       _colorSyncTRCCopyFormatDescription, _colorSyncTRCFinalize, 
                       _colorSyncTransformClassInitialize, _colorSyncTransformCopyDebugDescription, 
                       _colorSyncTransformCopyFormatDescription, _colorSyncTransformEqual, 
                       _colorSyncTransformFinalize, _colorSyncTransformIteratorClassInitialize, 
                       _colorSyncTransformIteratorCopyDebugDescription, 
                       _colorSyncTransformIteratorCopyFormatDescription, 
                       _colorSyncTransformIteratorFinalize, _compareTags, 
                       _compareTags.tagOrder, _computeMD5, _context, _convertSpecToXYZ, 
                       _copyHeaderData, _copyLoacalizedStringFromResources, 
                       _copyLoacalizedStringFromResources.csBundle, _copyLoacalizedStringFromResources.predicate, 
                       _create, _createAdobeRGBData, _createProfileData, 
                       _createRuntimeInstance, _createSRGBData, _createTagData, 
                       _create_allocator, _create_input_poppy_profile.iccDate, 
                       _create_trc_data, _deallocate, _descriptionDictFromDSCMTag, 
                       _descriptionFromDSCMTag, _fillCurvTable, _findDescByLanguage, 
                       _flushVolatile, _getColorSpacetNofComponents, _getGammaCurve, 
                       _getGammaTable, _getICCXYZD50FromSpec, _getICCXYZFromSpec, 
                       _getSpecDoub, _getSpecFloat, _getSpecLong, _getTag, 
                       _getXYFromTemp, _getXYZColor, _get_boundary_extension, 
                       _get_float_value, _get_int32_value, _get_poppy_index_from_profile, 
                       _get_properties, _get_validated_param_array, _identity_mtx, 
                       _initializeURLs, _invBradford_mtx, _invVonKries_mtx, 
                       _inverseNativeGammaLookup, _kCMMSTORAGE, _kColorSyncACESCGLinearProfile, 
                       _kColorSyncAdobeRGB1998Profile, _kColorSyncBadDescription, 
                       _kColorSyncBestQuality, _kColorSyncBlackPointCompensation, 
                       _kColorSyncCMMRuntimeClass, _kColorSyncCMMRuntimeID, 
                       _kColorSyncConversion1DLut, _kColorSyncConversion3DLut, 
                       _kColorSyncConversionBPC, _kColorSyncConversionChannelID, 
                       _kColorSyncConversionChannelsInStageCount, _kColorSyncConversionGridPoints, 
                       _kColorSyncConversionInpChan, _kColorSyncConversionMatrix, 
                       _kColorSyncConversionNDLut, _kColorSyncConversionOutChan, 
                       _kColorSyncConversionParamCurve0, _kColorSyncConversionParamCurve1, 
                       _kColorSyncConversionParamCurve2, _kColorSyncConversionParamCurve3, 
                       _kColorSyncConversionParamCurve4, _kColorSyncConvertQuality, 
                       _kColorSyncConvertThreadCount, _kColorSyncConvertUseExtendedRange, 
                       _kColorSyncConvertUseVectorUnit, _kColorSyncDCIP3Profile, 
                       _kColorSyncDisplayP3Profile, _kColorSyncDraftQuality, 
                       _kColorSyncFixedPointRange, _kColorSyncFunctionDoesInputClamp, 
                       _kColorSyncFunctionDoesNoClamp, _kColorSyncFunctionDoesSignedReflection, 
                       _kColorSyncFunctionDoesXRange, _kColorSyncFunctionNegBoundary, 
                       _kColorSyncFunctionPosBoundary, _kColorSyncGenericCMYKProfile, 
                       _kColorSyncGenericGrayGamma22Profile, _kColorSyncGenericGrayProfile, 
                       _kColorSyncGenericLabProfile, _kColorSyncGenericRGBProfile, 
                       _kColorSyncGenericXYZProfile, _kColorSyncITUR2020Profile, 
                       _kColorSyncITUR709Profile, _kColorSyncMatrixRuntimeClass, 
                       _kColorSyncMatrixRuntimeID, _kColorSyncMissingDescription, 
                       _kColorSyncNormalQuality, _kColorSyncNxMLUTFormat, 
                       _kColorSyncNxMLUTFormatFixed16, _kColorSyncNxMLUTFormatFloat16, 
                       _kColorSyncNxMLUTFormatFloat32, _kColorSyncNxMLUTRuntimeClass, 
                       _kColorSyncNxMLUTRuntimeID, _kColorSyncOneChannelActiveMatrix, 
                       _kColorSyncPerceptualStandardRGBProfile, _kColorSyncPreferredCMM, 
                       _kColorSyncProfile, _kColorSyncProfileRuntimeClass, 
                       _kColorSyncProfileRuntimeID, _kColorSyncROMMRGBProfile, 
                       _kColorSyncRenderingIntent, _kColorSyncRenderingIntentAbsolute, 
                       _kColorSyncRenderingIntentPerceptual, _kColorSyncRenderingIntentRelative, 
                       _kColorSyncRenderingIntentSaturation, _kColorSyncRenderingIntentUseProfileHeader, 
                       _kColorSyncSRGBProfile, _kColorSyncSigAbstractClass, 
                       _kColorSyncSigColorSpaceClass, _kColorSyncSigDisplayClass, 
                       _kColorSyncSigInputClass, _kColorSyncSigLinkClass, 
                       _kColorSyncSigOutputClass, _kColorSyncSigRgbData, 
                       _kColorSyncSigXYZData, _kColorSyncTRCRuntimeClass, 
                       _kColorSyncTRCRuntimeID, _kColorSyncTextureFormatNxMtoRGBX16, 
                       _kColorSyncTextureFormatNxMtoRGBX8, _kColorSyncTextureFormatNxMtoRGBXFloat16, 
                       _kColorSyncTextureFormatNxMtoRGBXFloat32, _kColorSyncTranformIteratorRuntimeClass, 
                       _kColorSyncTransformAdobeRGBTosRGB, _kColorSyncTransformCodeFragmentType, 
                       _kColorSyncTransformCreator, _kColorSyncTransformDeviceToDevice, 
                       _kColorSyncTransformDeviceToPCS, _kColorSyncTransformDstSpace, 
                       _kColorSyncTransformFullConversionData, _kColorSyncTransformGamutCheck, 
                       _kColorSyncTransformIterationType, _kColorSyncTransformIteratorCompactType, 
                       _kColorSyncTransformIteratorFullType, _kColorSyncTransformIteratorRuntimeID, 
                       _kColorSyncTransformIteratorSimplifiedType, _kColorSyncTransformPCSToDevice, 
                       _kColorSyncTransformPCSToPCS, _kColorSyncTransformParametricConversionData, 
                       _kColorSyncTransformRuntimeClass, _kColorSyncTransformRuntimeID, 
                       _kColorSyncTransformSimplifiedConversionData, _kColorSyncTransformSrcSpace, 
                       _kColorSyncTransformTag, _kICCHeader, _kInvOnePointEightGammaData, 
                       _kInvTwoPointTwoGammaData, _kInvsRGBGammaData, _kInvsRGBMinTo8, 
                       _kLinearGammaData, _kOnePointEightGammaData, _kTwoPointTwo8ToMin, 
                       _kTwoPointTwoGammaData, _ksRGBGammaData, _localeCFStrToChars, 
                       _matrix_equal_matrix, _nxmLUT_equal_nxmLUT, _perceptual_standard_RGB_data, 
                       _reallocate, _removeReference, _sRGBData, _sRGBProfile, 
                       _setDESCTag, _tagDataAdder, _tagReferenceAdder, 
                       _tagSignatureAppender, _tagValueComparer, _tag_adder, 
                       _trc_equal_trc, _urls, _use_xpc_only.predicate, 
                       _use_xpc_only.xpc_only, _vCMMVectorConvert8BitRGBToRGB, 
                       _vImage_smart_null, _verifyProfileAgainstSRGB, _verifyProfileAgainstSRGB.once, 
                       _vonKries_mtx ]
    weak-def-symbols: [ __ZN12CMMExceptionD1Ev, __Z16InnerInterpolateI10CMMMaxBitsEiRT_jjPiiPtPjRj, 
                        __ZN10CMMConvLut15GetFunctionTypeEv, __ZN10CMMEncoDec10IsNOPCodecEv, 
                        __ZN10CMMEncoDecD0Ev, __ZN10CMMEncoDecD1Ev, __ZN10CMMLut8Tag10GetCLutPtrEv, 
                        __ZN10CMMLut8Tag10GetTagTypeEv, __ZN10CMMLut8Tag12GetInputChanEv, 
                        __ZN10CMMLut8Tag13GetCLutPointsEv, __ZN10CMMLut8Tag13GetOutputChanEv, 
                        __ZN10CMMLut8Tag14SetInputTablesEP8CMMTable, __ZN10CMMLut8Tag15SetOutputTablesEP8CMMTable, 
                        __ZN10CMMLut8Tag7SetCLutEP8CMMTable, __ZN10CMMProfile10GetLutTagsE17CMMConversionType17icRenderingIntent, 
                        __ZN10CMMProfile11GetGamutTagEv, __ZN10CMMProfile13GetMatrixTagsERA3_P9CMMXYZTagR12CMMRGBCurves, 
                        __ZN10CMMProfile18IsLegacyGenericLabEv, __ZN10CMMTagInfoD0Ev, 
                        __ZN10CMMTagInfoD1Ev, __ZN10CMMTextTagD0Ev, __ZN10CMMTextTagD1Ev, 
                        __ZN10TAllocatorI10CMMTagInfoED0Ev, __ZN10TAllocatorI10CMMTagInfoED1Ev, 
                        __ZN10TAllocatorI14CMMProfileInfoED0Ev, __ZN10TAllocatorI14CMMProfileInfoED1Ev, 
                        __ZN11CMMCLUTConvI12CMMTrilinearI14CMMCLUTMOutputI9CMMCLUT3DEEED0Ev, 
                        __ZN11CMMCLUTConvI12CMMTrilinearI14CMMCLUTMOutputI9CMMCLUT3DEEED1Ev, 
                        __ZN11CMMCLUTConvI13CMMNDimLinearI14CMMCLUTMOutputI9CMMCLUTnDEEED0Ev, 
                        __ZN11CMMCLUTConvI13CMMNDimLinearI14CMMCLUTMOutputI9CMMCLUTnDEEED1Ev, 
                        __ZN11CMMCLUTConvI13CMMQuadlinearI14CMMCLUTMOutputI9CMMCLUT4DEEED0Ev, 
                        __ZN11CMMCLUTConvI13CMMQuadlinearI14CMMCLUTMOutputI9CMMCLUT4DEEED1Ev, 
                        __ZN11CMMCLUTConvI14CMMPentahedralI14CMMCLUTMOutputI9CMMCLUT4DEEED0Ev, 
                        __ZN11CMMCLUTConvI14CMMPentahedralI14CMMCLUTMOutputI9CMMCLUT4DEEED1Ev, 
                        __ZN11CMMCLUTConvI8CMMTetraI14CMMCLUTMOutputI9CMMCLUT3DEEED0Ev, 
                        __ZN11CMMCLUTConvI8CMMTetraI14CMMCLUTMOutputI9CMMCLUT3DEEED1Ev, 
                        __ZN11CMMConvNode12GetPrecisionEv, __ZN11CMMConvNode13GetCLUTPointsEj, 
                        __ZN11CMMConvNode13RuntimeAdjustEP19CMMConversionParams, 
                        __ZN11CMMConvNode14GetNofSubNodesEv, __ZN11CMMConvNode15GetFunctionTypeEv, 
                        __ZN11CMMConvNode16GetNodeAggregateEv, __ZN11CMMConvNode16GetTransformTypeEv, 
                        __ZN11CMMConvNodeD0Ev, __ZN11CMMConvNodeD1Ev, __ZN11CMMCurveTagD0Ev, 
                        __ZN11CMMCurveTagD1Ev, __ZN11CMMLut16Tag10GetCLutPtrEv, 
                        __ZN11CMMLut16Tag10GetTagTypeEv, __ZN11CMMLut16Tag12GetInputChanEv, 
                        __ZN11CMMLut16Tag13GetCLutPointsEv, __ZN11CMMLut16Tag13GetOutputChanEv, 
                        __ZN11CMMLut16Tag14SetInputTablesEP8CMMTable, __ZN11CMMLut16Tag15SetOutputTablesEP8CMMTable, 
                        __ZN11CMMLut16Tag7SetCLutEP8CMMTable, __ZN12CMMInvMatrixD0Ev, 
                        __ZN12CMMInvMatrixD1Ev, __ZN12CMMRGBCurvesD0Ev, 
                        __ZN12CMMRGBCurvesD1Ev, __ZN12CMMTrilinearI14CMMCLUTMOutputI9CMMCLUT3DEEC2EP13CMMLutTagBaseR9CMMMemMgrP11CMMConvNode, 
                        __ZN12CMMTrilinearI14CMMCLUTMOutputI9CMMCLUT3DEED0Ev, 
                        __ZN12CMMTrilinearI14CMMCLUTMOutputI9CMMCLUT3DEED1Ev, 
                        __ZN13CMMConvMatrixD0Ev, __ZN13CMMConvMatrixD1Ev, 
                        __ZN13CMMLutAtoBTag14GetInputMatrixEv, __ZN13CMMLutAtoBTag17MakeInputLutTableEjP15CMMFloatLutInfoR9CMMMemMgr17CMMColorSpaceType, 
                        __ZN13CMMLutAtoBTagD0Ev, __ZN13CMMLutAtoBTagD1Ev, 
                        __ZN13CMMLutBtoATag15GetOutputMatrixEv, __ZN13CMMLutBtoATag18MakeOutputLutTableEjP15CMMFloatLutInfoR9CMMMemMgr17CMMColorSpaceType, 
                        __ZN13CMMLutBtoATagD0Ev, __ZN13CMMLutBtoATagD1Ev, 
                        __ZN13CMMNDimLinearI14CMMCLUTMOutputI9CMMCLUTnDEE17InitializeOffsetsEv, 
                        __ZN13CMMNDimLinearI14CMMCLUTMOutputI9CMMCLUTnDEE7OffsetsD0Ev, 
                        __ZN13CMMNDimLinearI14CMMCLUTMOutputI9CMMCLUTnDEE7OffsetsD1Ev, 
                        __ZN13CMMNDimLinearI14CMMCLUTMOutputI9CMMCLUTnDEEC2EP13CMMLutTagBaseR9CMMMemMgrP11CMMConvNode, 
                        __ZN13CMMNDimLinearI14CMMCLUTMOutputI9CMMCLUTnDEED0Ev, 
                        __ZN13CMMNDimLinearI14CMMCLUTMOutputI9CMMCLUTnDEED1Ev, 
                        __ZN13CMMNDimLinearI14CMMCLUTMOutputI9CMMCLUTnDEED2Ev, 
                        __ZN13CMMQuadlinearI14CMMCLUTMOutputI9CMMCLUT4DEE17InitializeOffsetsEv, 
                        __ZN13CMMQuadlinearI14CMMCLUTMOutputI9CMMCLUT4DEEC2EP13CMMLutTagBaseR9CMMMemMgrP11CMMConvNode, 
                        __ZN13CMMQuadlinearI14CMMCLUTMOutputI9CMMCLUT4DEED0Ev, 
                        __ZN13CMMQuadlinearI14CMMCLUTMOutputI9CMMCLUT4DEED1Ev, 
                        __ZN14CMMAlphaCopierD0Ev, __ZN14CMMAlphaCopierD1Ev, 
                        __ZN14CMMDataDecoder8DoDecodeERK12CMMFloatBitsP14CMMRuntimeInfom, 
                        __ZN14CMMDataDecoder8DoDecodeERK8CMM8BitsP14CMMRuntimeInfom, 
                        __ZN14CMMDataDecoderD0Ev, __ZN14CMMDataDecoderD1Ev, 
                        __ZN14CMMDataEncoder8DoEncodeER12CMMFloatBitsP14CMMRuntimeInfoPmS4_, 
                        __ZN14CMMDataEncoder8DoEncodeER8CMM8BitsP14CMMRuntimeInfoPmS4_, 
                        __ZN14CMMDataEncoderD0Ev, __ZN14CMMDataEncoderD1Ev, 
                        __ZN14CMMPentahedralI14CMMCLUTMOutputI9CMMCLUT4DEE17InitializeOffsetsEv, 
                        __ZN14CMMPentahedralI14CMMCLUTMOutputI9CMMCLUT4DEEC2EP13CMMLutTagBaseR9CMMMemMgrP11CMMConvNode, 
                        __ZN14CMMPentahedralI14CMMCLUTMOutputI9CMMCLUT4DEED0Ev, 
                        __ZN14CMMPentahedralI14CMMCLUTMOutputI9CMMCLUT4DEED1Ev, 
                        __ZN14CMMProfileInfoD0Ev, __ZN14CMMProfileInfoD1Ev, 
                        __ZN14CMMTextDescTagD0Ev, __ZN14CMMTextDescTagD1Ev, 
                        __ZN15CMMConvCLUTBase13GetCLUTPointsEj, __ZN15CMMConvCLUTBase15GetFunctionTypeEv, 
                        __ZN15CMMConvCLUTBase8CollapseER9CMMMemMgr, __ZN15CMMConvRGBToRGB12GetPrecisionEv, 
                        __ZN15CMMConvRGBToRGB13GetCLUTPointsEj, __ZN15CMMConvRGBToRGB14GetNofSubNodesEv, 
                        __ZN15CMMConvRGBToRGB15GetFunctionTypeEv, __ZN15CMMConvRGBToRGB16GetNodeAggregateEv, 
                        __ZN15CMMConvRGBToRGB8CollapseER9CMMMemMgr, __ZN15CMMParaCurveTag12GetCurveDataEv, 
                        __ZN15CMMParaCurveTag13GetCurveCountEv, __ZN15CMMParaCurveTagD0Ev, 
                        __ZN15CMMParaCurveTagD1Ev, __ZN15CMMProfileMakerD0Ev, 
                        __ZN15CMMProfileMakerD1Ev, __ZN16CMMConvGrayToRGB12GetPrecisionEv, 
                        __ZN16CMMConvGrayToRGB13GetCLUTPointsEj, __ZN16CMMConvGrayToRGBD0Ev, 
                        __ZN16CMMConvGrayToRGBD1Ev, __ZN16CMMConvInvMatrix8CollapseER9CMMMemMgr, 
                        __ZN16CMMConvInvMatrixD0Ev, __ZN16CMMConvInvMatrixD1Ev, 
                        __ZN16CMMDataBaseClass10IsSameDataEPS_, __ZN16CMMNamedColorTag13GetWholeClothEPhPm, 
                        __ZN16CMMNamedColorTagD0Ev, __ZN16CMMNamedColorTagD1Ev, 
                        __ZN16CMMOutputProfile17GetConversionTypeEPK10__CFStringbb, 
                        __ZN16CMMTechnologyTagD0Ev, __ZN16CMMTechnologyTagD1Ev, 
                        __ZN17CMM16BitNChanData12DecodeSampleERK10CMMMaxBitsPtRA3072_Kim, 
                        __ZN17CMM16BitNChanData12EncodeSampleERK10CMMMaxBitsRA3072_im, 
                        __ZN17CMM16BitNChanData14ResetOldSampleEv, __ZN17CMMDevLinkProfileD0Ev, 
                        __ZN17CMMDevLinkProfileD1Ev, __ZN17CMMDisplayProfile17GetConversionTypeEPK10__CFStringbb, 
                        __ZN17CMMMatrixGamutTagD0Ev, __ZN17CMMMatrixGamutTagD1Ev, 
                        __ZN17CMMRGBToRGBMatrixD0Ev, __ZN17CMMRGBToRGBMatrixD1Ev, 
                        __ZN17ConversionManager21ApplySequenceToBitmapEP11CMMConvNodeS1_R10CMMEncoDecP14CMMRuntimeInfomP19CMMProgressNotifier, 
                        __ZN17ConversionManager9DoConvertI10CMMMaxBitsEEiRT_P11CMMConvNodeS5_R10CMMEncoDecP14CMMRuntimeInfomP19CMMProgressNotifier, 
                        __ZN17ConversionManager9DoConvertI12CMMFloatBitsEEiRT_P11CMMConvNodeS5_R10CMMEncoDecP14CMMRuntimeInfomP19CMMProgressNotifier, 
                        __ZN17ConversionManager9DoConvertI8CMM8BitsEEiRT_P11CMMConvNodeS5_R10CMMEncoDecP14CMMRuntimeInfomP19CMMProgressNotifier, 
                        __ZN17ConversionManagerD0Ev, __ZN17ConversionManagerD1Ev, 
                        __ZN18CMMAbstractProfileD0Ev, __ZN18CMMAbstractProfileD1Ev, 
                        __ZN18CMMDataDecodeMakerD0Ev, __ZN18CMMDataDecodeMakerD1Ev, 
                        __ZN18CMMDataEncodeMakerD0Ev, __ZN18CMMDataEncodeMakerD1Ev, 
                        __ZN18CMMDecoderTemplateI17CMM16BitNChanDataE13InnerDoDecodeI10CMMMaxBitsEEvRKT_RKNS4_13CMMBufferTypeEm, 
                        __ZN18CMMDecoderTemplateI17CMM16BitNChanDataE8DoDecodeERK10CMMMaxBitsP14CMMRuntimeInfom, 
                        __ZN18CMMDecoderTemplateI17CMM16BitNChanDataED0Ev, 
                        __ZN18CMMDecoderTemplateI17CMM16BitNChanDataED1Ev, 
                        __ZN18CMMEncoderTemplateI17CMM16BitNChanDataE13InnerDoEncodeI10CMMMaxBitsEEvRKT_RNS4_13CMMBufferTypeEPmS9_, 
                        __ZN18CMMEncoderTemplateI17CMM16BitNChanDataE8DoEncodeER10CMMMaxBitsP14CMMRuntimeInfoPmS6_, 
                        __ZN18CMMEncoderTemplateI17CMM16BitNChanDataE9IsInPlaceEP16CMMDataBaseClass, 
                        __ZN18CMMEncoderTemplateI17CMM16BitNChanDataEC1Emm16CMMPrecisionTypePK13CMMDataParamsb, 
                        __ZN18CMMEncoderTemplateI17CMM16BitNChanDataED0Ev, 
                        __ZN18CMMEncoderTemplateI17CMM16BitNChanDataED1Ev, 
                        __ZN18CMMGrayToRGBMatrixD0Ev, __ZN18CMMGrayToRGBMatrixD1Ev, 
                        __ZN18CMMLutInputProfile10GetLutTagsE17CMMConversionType17icRenderingIntent, 
                        __ZN18CMMLutInputProfile17GetConversionTypeEPK10__CFStringbb, 
                        __ZN18CMMLutInputProfileD0Ev, __ZN18CMMLutInputProfileD1Ev, 
                        __ZN18CMMRGBToGrayMatrixD0Ev, __ZN18CMMRGBToGrayMatrixD1Ev, 
                        __ZN19CMMAlphaCopierMakerD0Ev, __ZN19CMMAlphaCopierMakerD1Ev, 
                        __ZN19CMMGrayToGrayMatrixD0Ev, __ZN19CMMGrayToGrayMatrixD1Ev, 
                        __ZN19CMMLutOutputProfile10GetLutTagsE17CMMConversionType17icRenderingIntent, 
                        __ZN19CMMLutOutputProfileD0Ev, __ZN19CMMLutOutputProfileD1Ev, 
                        __ZN19CMMMonoInputProfile17GetConversionTypeEPK10__CFStringbb, 
                        __ZN19CMMMonoInputProfileD0Ev, __ZN19CMMMonoInputProfileD1Ev, 
                        __ZN20CMMColorSpaceProfile10GetLutTagsE17CMMConversionType17icRenderingIntent, 
                        __ZN20CMMColorSpaceProfile17GetConversionTypeEPK10__CFStringbb, 
                        __ZN20CMMColorSpaceProfileD0Ev, __ZN20CMMColorSpaceProfileD1Ev, 
                        __ZN20CMMConvScaleFloatXYZ16GetTransformTypeEv, 
                        __ZN20CMMConvScaleFloatXYZ8CollapseER9CMMMemMgr, 
                        __ZN20CMMConvScaleFloatXYZD0Ev, __ZN20CMMConvScaleFloatXYZD1Ev, 
                        __ZN20CMMLutDisplayProfile10GetLutTagsE17CMMConversionType17icRenderingIntent, 
                        __ZN20CMMLutDisplayProfileD0Ev, __ZN20CMMLutDisplayProfileD1Ev, 
                        __ZN20CMMMonoOutputProfileD0Ev, __ZN20CMMMonoOutputProfileD1Ev, 
                        __ZN20CMMNamedColorProfile13UseNamedColorEP10CMMProfile17CMMConversionType, 
                        __ZN20CMMNamedColorProfileD0Ev, __ZN20CMMNamedColorProfileD1Ev, 
                        __ZN21CMMConvMatrixTemplateI10CMMMtxDiag13CMMConvMatrixE16GetTransformTypeEv, 
                        __ZN21CMMConvMatrixTemplateI10CMMMtxDiag13CMMConvMatrixED0Ev, 
                        __ZN21CMMConvMatrixTemplateI10CMMMtxDiag13CMMConvMatrixED1Ev, 
                        __ZN21CMMConvMatrixTemplateI10CMMMtxOnly13CMMConvMatrixE16GetTransformTypeEv, 
                        __ZN21CMMConvMatrixTemplateI10CMMMtxOnly13CMMConvMatrixED0Ev, 
                        __ZN21CMMConvMatrixTemplateI10CMMMtxOnly13CMMConvMatrixED1Ev, 
                        __ZN21CMMConvMatrixTemplateI10CMMMtxOnly16CMMConvInvMatrixE16GetTransformTypeEv, 
                        __ZN21CMMConvMatrixTemplateI10CMMMtxOnly16CMMConvInvMatrixED0Ev, 
                        __ZN21CMMConvMatrixTemplateI10CMMMtxOnly16CMMConvInvMatrixED1Ev, 
                        __ZN21CMMConvMatrixTemplateI10CMMMtxOnly21CMMConvRGBToRGBMatrixE16GetTransformTypeEv, 
                        __ZN21CMMConvMatrixTemplateI10CMMMtxOnly21CMMConvRGBToRGBMatrixED0Ev, 
                        __ZN21CMMConvMatrixTemplateI10CMMMtxOnly21CMMConvRGBToRGBMatrixED1Ev, 
                        __ZN21CMMConvMatrixTemplateI10CMMMtxOnly22CMMConvGrayToRGBMatrixE16GetTransformTypeEv, 
                        __ZN21CMMConvMatrixTemplateI10CMMMtxOnly22CMMConvGrayToRGBMatrixED0Ev, 
                        __ZN21CMMConvMatrixTemplateI10CMMMtxOnly22CMMConvGrayToRGBMatrixED1Ev, 
                        __ZN21CMMConvMatrixTemplateI10CMMMtxOnly22CMMConvRGBToGrayMatrixE16GetTransformTypeEv, 
                        __ZN21CMMConvMatrixTemplateI10CMMMtxOnly22CMMConvRGBToGrayMatrixED0Ev, 
                        __ZN21CMMConvMatrixTemplateI10CMMMtxOnly22CMMConvRGBToGrayMatrixED1Ev, 
                        __ZN21CMMConvMatrixTemplateI10CMMMtxOnly23CMMConvGrayToGrayMatrixE16GetTransformTypeEv, 
                        __ZN21CMMConvMatrixTemplateI10CMMMtxOnly23CMMConvGrayToGrayMatrixED0Ev, 
                        __ZN21CMMConvMatrixTemplateI10CMMMtxOnly23CMMConvGrayToGrayMatrixED1Ev, 
                        __ZN21CMMConvMatrixTemplateI13CMMMtxGeneric13CMMConvMatrixE16GetTransformTypeEv, 
                        __ZN21CMMConvMatrixTemplateI13CMMMtxGeneric13CMMConvMatrixED0Ev, 
                        __ZN21CMMConvMatrixTemplateI13CMMMtxGeneric13CMMConvMatrixED1Ev, 
                        __ZN21CMMConvMatrixTemplateI14CMMMtxLabToXYZ13CMMConvMatrixE16GetTransformTypeEv, 
                        __ZN21CMMConvMatrixTemplateI14CMMMtxLabToXYZ13CMMConvMatrixED0Ev, 
                        __ZN21CMMConvMatrixTemplateI14CMMMtxLabToXYZ13CMMConvMatrixED1Ev, 
                        __ZN21CMMConvMatrixTemplateI14CMMMtxXYZToLab13CMMConvMatrixE16GetTransformTypeEv, 
                        __ZN21CMMConvMatrixTemplateI14CMMMtxXYZToLab13CMMConvMatrixED0Ev, 
                        __ZN21CMMConvMatrixTemplateI14CMMMtxXYZToLab13CMMConvMatrixED1Ev, 
                        __ZN21CMMConvMatrixTemplateI15CMMMtxGrayToLab13CMMConvMatrixE16GetTransformTypeEv, 
                        __ZN21CMMConvMatrixTemplateI15CMMMtxGrayToLab13CMMConvMatrixED0Ev, 
                        __ZN21CMMConvMatrixTemplateI15CMMMtxGrayToLab13CMMConvMatrixED1Ev, 
                        __ZN21CMMConvMatrixTemplateI15CMMMtxGrayToXYZ13CMMConvMatrixE16GetTransformTypeEv, 
                        __ZN21CMMConvMatrixTemplateI15CMMMtxGrayToXYZ13CMMConvMatrixED0Ev, 
                        __ZN21CMMConvMatrixTemplateI15CMMMtxGrayToXYZ13CMMConvMatrixED1Ev, 
                        __ZN21CMMConvMatrixTemplateI15CMMMtxLabToGray13CMMConvMatrixE16GetTransformTypeEv, 
                        __ZN21CMMConvMatrixTemplateI15CMMMtxLabToGray13CMMConvMatrixED0Ev, 
                        __ZN21CMMConvMatrixTemplateI15CMMMtxLabToGray13CMMConvMatrixED1Ev, 
                        __ZN21CMMConvMatrixTemplateI15CMMMtxXYZToGray13CMMConvMatrixE16GetTransformTypeEv, 
                        __ZN21CMMConvMatrixTemplateI15CMMMtxXYZToGray13CMMConvMatrixED0Ev, 
                        __ZN21CMMConvMatrixTemplateI15CMMMtxXYZToGray13CMMConvMatrixED1Ev, 
                        __ZN21CMMConvMatrixTemplateI9CMMMtxRow13CMMConvMatrixE16GetTransformTypeEv, 
                        __ZN21CMMConvMatrixTemplateI9CMMMtxRow13CMMConvMatrixED0Ev, 
                        __ZN21CMMConvMatrixTemplateI9CMMMtxRow13CMMConvMatrixED1Ev, 
                        __ZN21CMMMatrixInputProfile17GetConversionTypeEPK10__CFStringbb, 
                        __ZN21CMMMatrixInputProfileD0Ev, __ZN21CMMMatrixInputProfileD1Ev, 
                        __ZN21CMMMonoDisplayProfileD0Ev, __ZN21CMMMonoDisplayProfileD1Ev, 
                        __ZN22CMMConvGrayToRGBMatrix8CollapseER9CMMMemMgr, 
                        __ZN22CMMConvRGBToGrayMatrix8CollapseER9CMMMemMgr, 
                        __ZN23CMMConvGrayToGrayMatrix8CollapseER9CMMMemMgr, 
                        __ZN23CMMFloatBitNChanDecoder8DoDecodeERK10CMMMaxBitsP14CMMRuntimeInfom, 
                        __ZN23CMMFloatBitNChanDecoder8DoDecodeERK10CMMMinBitsP14CMMRuntimeInfom, 
                        __ZN23CMMFloatBitNChanDecoder8DoDecodeERK8CMM8BitsP14CMMRuntimeInfom, 
                        __ZN23CMMFloatBitNChanDecoderD0Ev, __ZN23CMMFloatBitNChanDecoderD1Ev, 
                        __ZN23CMMFloatBitNChanEncoder8DoEncodeER10CMMMaxBitsP14CMMRuntimeInfoPmS4_, 
                        __ZN23CMMFloatBitNChanEncoder8DoEncodeER10CMMMinBitsP14CMMRuntimeInfoPmS4_, 
                        __ZN23CMMFloatBitNChanEncoder8DoEncodeER8CMM8BitsP14CMMRuntimeInfoPmS4_, 
                        __ZN23CMMFloatBitNChanEncoder9IsInPlaceEP16CMMDataBaseClass, 
                        __ZN23CMMFloatBitNChanEncoderD0Ev, __ZN23CMMFloatBitNChanEncoderD1Ev, 
                        __ZN23CMMMatrixDisplayProfileD0Ev, __ZN23CMMMatrixDisplayProfileD1Ev, 
                        __ZN25CMM8Bit3ChanNoConvDecoder13InnerDoDecodeERK8CMM8BitsRK13CMM8BitBufferm, 
                        __ZN25CMM8Bit3ChanNoConvDecoder8DoDecodeERK10CMMMaxBitsP14CMMRuntimeInfom, 
                        __ZN25CMM8Bit3ChanNoConvDecoder8DoDecodeERK8CMM8BitsP14CMMRuntimeInfom, 
                        __ZN25CMM8Bit3ChanNoConvDecoderD0Ev, __ZN25CMM8Bit3ChanNoConvDecoderD1Ev, 
                        __ZN25CMM8Bit3ChanNoConvEncoder13InnerDoEncodeERK8CMM8BitsR13CMM8BitBufferPmS5_, 
                        __ZN25CMM8Bit3ChanNoConvEncoder8DoEncodeER10CMMMaxBitsP14CMMRuntimeInfoPmS4_, 
                        __ZN25CMM8Bit3ChanNoConvEncoder8DoEncodeER8CMM8BitsP14CMMRuntimeInfoPmS4_, 
                        __ZN25CMM8Bit3ChanNoConvEncoder9IsInPlaceEP16CMMDataBaseClass, 
                        __ZN25CMM8Bit3ChanNoConvEncoderD0Ev, __ZN25CMM8Bit3ChanNoConvEncoderD1Ev, 
                        __ZN25CMMProfileSequenceDescTagD0Ev, __ZN25CMMProfileSequenceDescTagD1Ev, 
                        __ZN29CMMConvBlackPointCompensation12GetPrecisionEv, 
                        __ZN29CMMConvBlackPointCompensation13GetCLUTPointsEj, 
                        __ZN29CMMConvBlackPointCompensation16GetTransformTypeEv, 
                        __ZN29CMMConvBlackPointCompensation8CollapseER9CMMMemMgr, 
                        __ZN29CMMConvBlackPointCompensationD0Ev, __ZN29CMMConvBlackPointCompensationD1Ev, 
                        __ZN6CMMTag8ValidateEv, __ZN7TVectorI10CMMTagInfo10TAllocatorIS0_EE3putERKS0_, 
                        __ZN7TVectorI10CMMTagInfo10TAllocatorIS0_EEC2EmR9CMMMemMgr, 
                        __ZN7TVectorI10CMMTagInfo10TAllocatorIS0_EED0Ev, 
                        __ZN7TVectorI10CMMTagInfo10TAllocatorIS0_EED1Ev, 
                        __ZN7TVectorI14CMMProfileInfo10TAllocatorIS0_EE3putERKS0_, 
                        __ZN7TVectorI14CMMProfileInfo10TAllocatorIS0_EEC2EmR9CMMMemMgr, 
                        __ZN7TVectorI14CMMProfileInfo10TAllocatorIS0_EED0Ev, 
                        __ZN7TVectorI14CMMProfileInfo10TAllocatorIS0_EED1Ev, 
                        __ZN8CMMTetraI14CMMCLUTMOutputI9CMMCLUT3DEEC2EP13CMMLutTagBaseR9CMMMemMgrP11CMMConvNode, 
                        __ZN8CMMTetraI14CMMCLUTMOutputI9CMMCLUT3DEED0Ev, 
                        __ZN8CMMTetraI14CMMCLUTMOutputI9CMMCLUT3DEED1Ev, 
                        __ZN9CMMLutTag12GetInputChanEv, __ZN9CMMLutTag13GetOutputChanEv, 
                        __ZN9CMMLutTag13GetWholeClothEPhPm, __ZN9CMMMatrixD0Ev, 
                        __ZN9CMMMatrixD1Ev, __ZN9CMMXYZTagD0Ev, __ZN9CMMXYZTagD1Ev, 
                        __ZNK10CMMConvLut11InterpolateI10CMMMaxBitsEEvRT_mm, 
                        __ZNK10CMMConvLut17GetMaxNofChannelsEv, __ZNK10CMMConvLut7ConvertER10CMMMaxBitsP14CMMRuntimeInfomm, 
                        __ZNK10CMMConvLut7ConvertER12CMMFloatBitsP14CMMRuntimeInfomm, 
                        __ZNK11CMMCLUTConvI12CMMTrilinearI14CMMCLUTMOutputI9CMMCLUT3DEEE7ConvertER10CMMMaxBitsP14CMMRuntimeInfomm, 
                        __ZNK11CMMCLUTConvI12CMMTrilinearI14CMMCLUTMOutputI9CMMCLUT3DEEE7ConvertER12CMMFloatBitsP14CMMRuntimeInfomm, 
                        __ZNK11CMMCLUTConvI13CMMNDimLinearI14CMMCLUTMOutputI9CMMCLUTnDEEE7ConvertER10CMMMaxBitsP14CMMRuntimeInfomm, 
                        __ZNK11CMMCLUTConvI13CMMNDimLinearI14CMMCLUTMOutputI9CMMCLUTnDEEE7ConvertER12CMMFloatBitsP14CMMRuntimeInfomm, 
                        __ZNK11CMMCLUTConvI13CMMQuadlinearI14CMMCLUTMOutputI9CMMCLUT4DEEE7ConvertER10CMMMaxBitsP14CMMRuntimeInfomm, 
                        __ZNK11CMMCLUTConvI13CMMQuadlinearI14CMMCLUTMOutputI9CMMCLUT4DEEE7ConvertER12CMMFloatBitsP14CMMRuntimeInfomm, 
                        __ZNK11CMMCLUTConvI14CMMPentahedralI14CMMCLUTMOutputI9CMMCLUT4DEEE7ConvertER10CMMMaxBitsP14CMMRuntimeInfomm, 
                        __ZNK11CMMCLUTConvI14CMMPentahedralI14CMMCLUTMOutputI9CMMCLUT4DEEE7ConvertER12CMMFloatBitsP14CMMRuntimeInfomm, 
                        __ZNK11CMMCLUTConvI8CMMTetraI14CMMCLUTMOutputI9CMMCLUT3DEEE7ConvertER10CMMMaxBitsP14CMMRuntimeInfomm, 
                        __ZNK11CMMCLUTConvI8CMMTetraI14CMMCLUTMOutputI9CMMCLUT3DEEE7ConvertER12CMMFloatBitsP14CMMRuntimeInfomm, 
                        __ZNK11CMMConvNode17FlattenConversionEPK14__CFDictionary, 
                        __ZNK11CMMConvNode18IsFloatingPointNOPEv, __ZNK11CMMConvNode26AddFixedPointClippingRangeEP14__CFDictionary, 
                        __ZNK11CMMConvNode7ConvertER8CMM8BitsP14CMMRuntimeInfomm, 
                        __ZNK12CMMTrilinearI14CMMCLUTMOutputI9CMMCLUT3DEE11InterpolateI10CMMMaxBitsEEvRT_RNS6_13CMMBufferTypeEmm, 
                        __ZNK13CMMConvMatrix17GetMaxNofChannelsEv, __ZNK13CMMConvMatrix18IsFloatingPointNOPEv, 
                        __ZNK13CMMNDimLinearI14CMMCLUTMOutputI9CMMCLUTnDEE11InterpolateI10CMMMaxBitsEEvRT_RNS6_13CMMBufferTypeEmm, 
                        __ZNK13CMMQuadlinearI14CMMCLUTMOutputI9CMMCLUT4DEE11InterpolateI10CMMMaxBitsEEvRT_RNS6_13CMMBufferTypeEmm, 
                        __ZNK14CMMPentahedralI14CMMCLUTMOutputI9CMMCLUT4DEE11InterpolateI10CMMMaxBitsEEvRT_RNS6_13CMMBufferTypeEmm, 
                        __ZNK15CMMConvCLUTBase17FlattenConversionEPK14__CFDictionary, 
                        __ZNK15CMMConvCLUTBase17GetMaxNofChannelsEv, __ZNK15CMMConvRGBToRGB17GetMaxNofChannelsEv, 
                        __ZNK16CMMConvGrayToRGB17GetMaxNofChannelsEv, __ZNK16CMMConvGrayToRGB5IsNOPEv, 
                        __ZNK16CMMConvGrayToRGB7ConvertER10CMMMaxBitsP14CMMRuntimeInfomm, 
                        __ZNK16CMMConvGrayToRGB7ConvertER12CMMFloatBitsP14CMMRuntimeInfomm, 
                        __ZNK20CMMConvScaleFloatXYZ12ConvertFloatER12CMMFloatBitsmmb, 
                        __ZNK20CMMConvScaleFloatXYZ17FlattenConversionEPK14__CFDictionary, 
                        __ZNK20CMMConvScaleFloatXYZ17GetMaxNofChannelsEv, 
                        __ZNK20CMMConvScaleFloatXYZ5IsNOPEv, __ZNK20CMMConvScaleFloatXYZ7ConvertER10CMMMaxBitsP14CMMRuntimeInfomm, 
                        __ZNK20CMMConvScaleFloatXYZ7ConvertER12CMMFloatBitsP14CMMRuntimeInfomm, 
                        __ZNK21CMMConvMatrixTemplateI10CMMMtxDiag13CMMConvMatrixE17FlattenConversionEPK14__CFDictionary, 
                        __ZNK21CMMConvMatrixTemplateI10CMMMtxDiag13CMMConvMatrixE7ConvertER10CMMMaxBitsP14CMMRuntimeInfomm, 
                        __ZNK21CMMConvMatrixTemplateI10CMMMtxDiag13CMMConvMatrixE7ConvertER12CMMFloatBitsP14CMMRuntimeInfomm, 
                        __ZNK21CMMConvMatrixTemplateI10CMMMtxOnly13CMMConvMatrixE17FlattenConversionEPK14__CFDictionary, 
                        __ZNK21CMMConvMatrixTemplateI10CMMMtxOnly13CMMConvMatrixE7ConvertER10CMMMaxBitsP14CMMRuntimeInfomm, 
                        __ZNK21CMMConvMatrixTemplateI10CMMMtxOnly13CMMConvMatrixE7ConvertER12CMMFloatBitsP14CMMRuntimeInfomm, 
                        __ZNK21CMMConvMatrixTemplateI10CMMMtxOnly16CMMConvInvMatrixE17FlattenConversionEPK14__CFDictionary, 
                        __ZNK21CMMConvMatrixTemplateI10CMMMtxOnly16CMMConvInvMatrixE7ConvertER10CMMMaxBitsP14CMMRuntimeInfomm, 
                        __ZNK21CMMConvMatrixTemplateI10CMMMtxOnly16CMMConvInvMatrixE7ConvertER12CMMFloatBitsP14CMMRuntimeInfomm, 
                        __ZNK21CMMConvMatrixTemplateI10CMMMtxOnly21CMMConvRGBToRGBMatrixE17FlattenConversionEPK14__CFDictionary, 
                        __ZNK21CMMConvMatrixTemplateI10CMMMtxOnly21CMMConvRGBToRGBMatrixE7ConvertER10CMMMaxBitsP14CMMRuntimeInfomm, 
                        __ZNK21CMMConvMatrixTemplateI10CMMMtxOnly21CMMConvRGBToRGBMatrixE7ConvertER12CMMFloatBitsP14CMMRuntimeInfomm, 
                        __ZNK21CMMConvMatrixTemplateI10CMMMtxOnly22CMMConvGrayToRGBMatrixE17FlattenConversionEPK14__CFDictionary, 
                        __ZNK21CMMConvMatrixTemplateI10CMMMtxOnly22CMMConvGrayToRGBMatrixE7ConvertER10CMMMaxBitsP14CMMRuntimeInfomm, 
                        __ZNK21CMMConvMatrixTemplateI10CMMMtxOnly22CMMConvGrayToRGBMatrixE7ConvertER12CMMFloatBitsP14CMMRuntimeInfomm, 
                        __ZNK21CMMConvMatrixTemplateI10CMMMtxOnly22CMMConvRGBToGrayMatrixE17FlattenConversionEPK14__CFDictionary, 
                        __ZNK21CMMConvMatrixTemplateI10CMMMtxOnly22CMMConvRGBToGrayMatrixE7ConvertER10CMMMaxBitsP14CMMRuntimeInfomm, 
                        __ZNK21CMMConvMatrixTemplateI10CMMMtxOnly22CMMConvRGBToGrayMatrixE7ConvertER12CMMFloatBitsP14CMMRuntimeInfomm, 
                        __ZNK21CMMConvMatrixTemplateI10CMMMtxOnly23CMMConvGrayToGrayMatrixE17FlattenConversionEPK14__CFDictionary, 
                        __ZNK21CMMConvMatrixTemplateI10CMMMtxOnly23CMMConvGrayToGrayMatrixE7ConvertER10CMMMaxBitsP14CMMRuntimeInfomm, 
                        __ZNK21CMMConvMatrixTemplateI10CMMMtxOnly23CMMConvGrayToGrayMatrixE7ConvertER12CMMFloatBitsP14CMMRuntimeInfomm, 
                        __ZNK21CMMConvMatrixTemplateI13CMMMtxGeneric13CMMConvMatrixE17FlattenConversionEPK14__CFDictionary, 
                        __ZNK21CMMConvMatrixTemplateI13CMMMtxGeneric13CMMConvMatrixE7ConvertER10CMMMaxBitsP14CMMRuntimeInfomm, 
                        __ZNK21CMMConvMatrixTemplateI13CMMMtxGeneric13CMMConvMatrixE7ConvertER12CMMFloatBitsP14CMMRuntimeInfomm, 
                        __ZNK21CMMConvMatrixTemplateI14CMMMtxLabToXYZ13CMMConvMatrixE17FlattenConversionEPK14__CFDictionary, 
                        __ZNK21CMMConvMatrixTemplateI14CMMMtxLabToXYZ13CMMConvMatrixE7ConvertER10CMMMaxBitsP14CMMRuntimeInfomm, 
                        __ZNK21CMMConvMatrixTemplateI14CMMMtxLabToXYZ13CMMConvMatrixE7ConvertER12CMMFloatBitsP14CMMRuntimeInfomm, 
                        __ZNK21CMMConvMatrixTemplateI14CMMMtxXYZToLab13CMMConvMatrixE17FlattenConversionEPK14__CFDictionary, 
                        __ZNK21CMMConvMatrixTemplateI14CMMMtxXYZToLab13CMMConvMatrixE7ConvertER10CMMMaxBitsP14CMMRuntimeInfomm, 
                        __ZNK21CMMConvMatrixTemplateI14CMMMtxXYZToLab13CMMConvMatrixE7ConvertER12CMMFloatBitsP14CMMRuntimeInfomm, 
                        __ZNK21CMMConvMatrixTemplateI15CMMMtxGrayToLab13CMMConvMatrixE17FlattenConversionEPK14__CFDictionary, 
                        __ZNK21CMMConvMatrixTemplateI15CMMMtxGrayToLab13CMMConvMatrixE7ConvertER10CMMMaxBitsP14CMMRuntimeInfomm, 
                        __ZNK21CMMConvMatrixTemplateI15CMMMtxGrayToLab13CMMConvMatrixE7ConvertER12CMMFloatBitsP14CMMRuntimeInfomm, 
                        __ZNK21CMMConvMatrixTemplateI15CMMMtxGrayToXYZ13CMMConvMatrixE17FlattenConversionEPK14__CFDictionary, 
                        __ZNK21CMMConvMatrixTemplateI15CMMMtxGrayToXYZ13CMMConvMatrixE7ConvertER10CMMMaxBitsP14CMMRuntimeInfomm, 
                        __ZNK21CMMConvMatrixTemplateI15CMMMtxGrayToXYZ13CMMConvMatrixE7ConvertER12CMMFloatBitsP14CMMRuntimeInfomm, 
                        __ZNK21CMMConvMatrixTemplateI15CMMMtxLabToGray13CMMConvMatrixE17FlattenConversionEPK14__CFDictionary, 
                        __ZNK21CMMConvMatrixTemplateI15CMMMtxLabToGray13CMMConvMatrixE7ConvertER10CMMMaxBitsP14CMMRuntimeInfomm, 
                        __ZNK21CMMConvMatrixTemplateI15CMMMtxLabToGray13CMMConvMatrixE7ConvertER12CMMFloatBitsP14CMMRuntimeInfomm, 
                        __ZNK21CMMConvMatrixTemplateI15CMMMtxXYZToGray13CMMConvMatrixE17FlattenConversionEPK14__CFDictionary, 
                        __ZNK21CMMConvMatrixTemplateI15CMMMtxXYZToGray13CMMConvMatrixE7ConvertER10CMMMaxBitsP14CMMRuntimeInfomm, 
                        __ZNK21CMMConvMatrixTemplateI15CMMMtxXYZToGray13CMMConvMatrixE7ConvertER12CMMFloatBitsP14CMMRuntimeInfomm, 
                        __ZNK21CMMConvMatrixTemplateI9CMMMtxRow13CMMConvMatrixE17FlattenConversionEPK14__CFDictionary, 
                        __ZNK21CMMConvMatrixTemplateI9CMMMtxRow13CMMConvMatrixE7ConvertER10CMMMaxBitsP14CMMRuntimeInfomm, 
                        __ZNK21CMMConvMatrixTemplateI9CMMMtxRow13CMMConvMatrixE7ConvertER12CMMFloatBitsP14CMMRuntimeInfomm, 
                        __ZNK29CMMConvBlackPointCompensation12ConvertInnerI10CMMMaxBitsEEvRT_mm, 
                        __ZNK29CMMConvBlackPointCompensation17FlattenConversionEPK14__CFDictionary, 
                        __ZNK29CMMConvBlackPointCompensation17GetMaxNofChannelsEv, 
                        __ZNK29CMMConvBlackPointCompensation5IsNOPEv, __ZNK29CMMConvBlackPointCompensation7ConvertER10CMMMaxBitsP14CMMRuntimeInfomm, 
                        __ZNK29CMMConvBlackPointCompensation7ConvertER12CMMFloatBitsP14CMMRuntimeInfomm, 
                        __ZNK29CMMConvBlackPointCompensation7ConvertER8CMM8BitsP14CMMRuntimeInfomm, 
                        __ZNK8CMMTetraI14CMMCLUTMOutputI9CMMCLUT3DEE11InterpolateI10CMMMaxBitsEEvRT_RNS6_13CMMBufferTypeEmm, 
                        __ZNK9CMMCLUT3D12GetIntNFractI10CMMMaxBitsEEvRT_PNS2_17CMMColorComponentERA16_iS7_j, 
                        __ZNK9CMMCLUT4D12GetIntNFractI10CMMMaxBitsEEvRT_PNS2_17CMMColorComponentERA16_iS7_j, 
                        __ZNSt3__113__vector_baseI10CMMTagInfo10TAllocatorIS1_EED2Ev, 
                        __ZNSt3__113__vector_baseI14CMMProfileInfo10TAllocatorIS1_EED2Ev, 
                        __ZNSt3__114__split_bufferI10CMMTagInfoR10TAllocatorIS1_EED2Ev, 
                        __ZNSt3__114__split_bufferI14CMMProfileInfoR10TAllocatorIS1_EED2Ev, 
                        __ZNSt3__16vectorI10CMMTagInfo10TAllocatorIS1_EE26__swap_out_circular_bufferERNS_14__split_bufferIS1_RS3_EE, 
                        __ZNSt3__16vectorI10CMMTagInfo10TAllocatorIS1_EE6resizeEm, 
                        __ZNSt3__16vectorI10CMMTagInfo10TAllocatorIS1_EE8__appendEm, 
                        __ZNSt3__16vectorI14CMMProfileInfo10TAllocatorIS1_EE26__swap_out_circular_bufferERNS_14__split_bufferIS1_RS3_EE, 
                        __ZNSt3__16vectorI14CMMProfileInfo10TAllocatorIS1_EE6resizeEm, 
                        __ZNSt3__16vectorI14CMMProfileInfo10TAllocatorIS1_EE8__appendEm, 
                        __ZTI10CMMEncoDec, __ZTI10CMMMtxDiag, __ZTI10CMMMtxOnly, 
                        __ZTI10CMMTagInfo, __ZTI10CMMTextTag, __ZTI10TAllocatorI10CMMTagInfoE, 
                        __ZTI10TAllocatorI14CMMProfileInfoE, __ZTI11CMMCLUTConvI12CMMTrilinearI14CMMCLUTMOutputI9CMMCLUT3DEEE, 
                        __ZTI11CMMCLUTConvI13CMMNDimLinearI14CMMCLUTMOutputI9CMMCLUTnDEEE, 
                        __ZTI11CMMCLUTConvI13CMMQuadlinearI14CMMCLUTMOutputI9CMMCLUT4DEEE, 
                        __ZTI11CMMCLUTConvI14CMMPentahedralI14CMMCLUTMOutputI9CMMCLUT4DEEE, 
                        __ZTI11CMMCLUTConvI8CMMTetraI14CMMCLUTMOutputI9CMMCLUT3DEEE, 
                        __ZTI11CMMConvNode, __ZTI12CMMException, __ZTI12CMMInvMatrix, 
                        __ZTI12CMMRGBCurves, __ZTI12CMMTrilinearI14CMMCLUTMOutputI9CMMCLUT3DEE, 
                        __ZTI13CMMLutTagBase, __ZTI13CMMMtxGeneric, __ZTI13CMMNDimLinearI14CMMCLUTMOutputI9CMMCLUTnDEE, 
                        __ZTI13CMMQuadlinearI14CMMCLUTMOutputI9CMMCLUT4DEE, 
                        __ZTI14CMMCLUTMOutputI9CMMCLUT3DE, __ZTI14CMMCLUTMOutputI9CMMCLUT4DE, 
                        __ZTI14CMMCLUTMOutputI9CMMCLUTnDE, __ZTI14CMMDataDecoder, 
                        __ZTI14CMMDataEncoder, __ZTI14CMMMtxLabToXYZ, __ZTI14CMMMtxXYZToLab, 
                        __ZTI14CMMPentahedralI14CMMCLUTMOutputI9CMMCLUT4DEE, 
                        __ZTI14CMMProfileInfo, __ZTI14CMMTextDescTag, __ZTI15CMMLegacyLutTag, 
                        __ZTI15CMMMtxGrayToLab, __ZTI15CMMMtxGrayToXYZ, 
                        __ZTI15CMMMtxLabToGray, __ZTI15CMMMtxXYZToGray, 
                        __ZTI15CMMProfileMaker, __ZTI16CMM8Bit3ChanData, 
                        __ZTI16CMMConvInvMatrix, __ZTI16CMMDataBaseClass, 
                        __ZTI16CMMNamedColorTag, __ZTI16CMMTechnologyTag, 
                        __ZTI17CMM16BitNChanData, __ZTI17CMMMatrixGamutTag, 
                        __ZTI17CMMRGBToRGBMatrix, __ZTI17ConversionManager, 
                        __ZTI18CMMDataDecodeMaker, __ZTI18CMMDataEncodeMaker, 
                        __ZTI18CMMDecoderTemplateI17CMM16BitNChanDataE, 
                        __ZTI18CMMEncoderTemplateI17CMM16BitNChanDataE, 
                        __ZTI18CMMGrayToRGBMatrix, __ZTI18CMMLutInputProfile, 
                        __ZTI18CMMRGBToGrayMatrix, __ZTI19CMMAlphaCopierMaker, 
                        __ZTI19CMMGrayToGrayMatrix, __ZTI19CMMLutOutputProfile, 
                        __ZTI19CMMMonoInputProfile, __ZTI20CMMConvScaleFloatXYZ, 
                        __ZTI20CMMLutDisplayProfile, __ZTI20CMMMonoOutputProfile, 
                        __ZTI21CMMConvMatrixTemplateI10CMMMtxDiag13CMMConvMatrixE, 
                        __ZTI21CMMConvMatrixTemplateI10CMMMtxOnly13CMMConvMatrixE, 
                        __ZTI21CMMConvMatrixTemplateI10CMMMtxOnly16CMMConvInvMatrixE, 
                        __ZTI21CMMConvMatrixTemplateI10CMMMtxOnly21CMMConvRGBToRGBMatrixE, 
                        __ZTI21CMMConvMatrixTemplateI10CMMMtxOnly22CMMConvGrayToRGBMatrixE, 
                        __ZTI21CMMConvMatrixTemplateI10CMMMtxOnly22CMMConvRGBToGrayMatrixE, 
                        __ZTI21CMMConvMatrixTemplateI10CMMMtxOnly23CMMConvGrayToGrayMatrixE, 
                        __ZTI21CMMConvMatrixTemplateI13CMMMtxGeneric13CMMConvMatrixE, 
                        __ZTI21CMMConvMatrixTemplateI14CMMMtxLabToXYZ13CMMConvMatrixE, 
                        __ZTI21CMMConvMatrixTemplateI14CMMMtxXYZToLab13CMMConvMatrixE, 
                        __ZTI21CMMConvMatrixTemplateI15CMMMtxGrayToLab13CMMConvMatrixE, 
                        __ZTI21CMMConvMatrixTemplateI15CMMMtxGrayToXYZ13CMMConvMatrixE, 
                        __ZTI21CMMConvMatrixTemplateI15CMMMtxLabToGray13CMMConvMatrixE, 
                        __ZTI21CMMConvMatrixTemplateI15CMMMtxXYZToGray13CMMConvMatrixE, 
                        __ZTI21CMMConvMatrixTemplateI9CMMMtxRow13CMMConvMatrixE, 
                        __ZTI21CMMMonoDisplayProfile, __ZTI22CMMConvGrayToRGBMatrix, 
                        __ZTI22CMMConvRGBToGrayMatrix, __ZTI23CMMConvGrayToGrayMatrix, 
                        __ZTI25CMM8Bit3ChanNoConvDecoder, __ZTI25CMM8Bit3ChanNoConvEncoder, 
                        __ZTI25CMMProfileSequenceDescTag, __ZTI29CMMConvBlackPointCompensation, 
                        __ZTI7CMMBase, __ZTI7TVectorI10CMMTagInfo10TAllocatorIS0_EE, 
                        __ZTI7TVectorI14CMMProfileInfo10TAllocatorIS0_EE, 
                        __ZTI8CMMTetraI14CMMCLUTMOutputI9CMMCLUT3DEE, __ZTI9CMMCLUT3D, 
                        __ZTI9CMMCLUT4D, __ZTI9CMMCLUTnD, __ZTI9CMMMatrix, 
                        __ZTI9CMMMtxRow, __ZTI9CMMXYZTag, __ZTIN13CMMNDimLinearI14CMMCLUTMOutputI9CMMCLUTnDEE7OffsetsE, 
                        __ZTINSt3__113__vector_baseI10CMMTagInfo10TAllocatorIS1_EEE, 
                        __ZTINSt3__113__vector_baseI14CMMProfileInfo10TAllocatorIS1_EEE, 
                        __ZTINSt3__120__vector_base_commonILb1EEE, __ZTINSt3__16vectorI10CMMTagInfo10TAllocatorIS1_EEE, 
                        __ZTINSt3__16vectorI14CMMProfileInfo10TAllocatorIS1_EEE, 
                        __ZTINSt3__19allocatorI10CMMTagInfoEE, __ZTINSt3__19allocatorI14CMMProfileInfoEE, 
                        __ZTS10CMMEncoDec, __ZTS10CMMMtxDiag, __ZTS10CMMMtxOnly, 
                        __ZTS10CMMTagInfo, __ZTS10CMMTextTag, __ZTS10TAllocatorI10CMMTagInfoE, 
                        __ZTS10TAllocatorI14CMMProfileInfoE, __ZTS11CMMCLUTConvI12CMMTrilinearI14CMMCLUTMOutputI9CMMCLUT3DEEE, 
                        __ZTS11CMMCLUTConvI13CMMNDimLinearI14CMMCLUTMOutputI9CMMCLUTnDEEE, 
                        __ZTS11CMMCLUTConvI13CMMQuadlinearI14CMMCLUTMOutputI9CMMCLUT4DEEE, 
                        __ZTS11CMMCLUTConvI14CMMPentahedralI14CMMCLUTMOutputI9CMMCLUT4DEEE, 
                        __ZTS11CMMCLUTConvI8CMMTetraI14CMMCLUTMOutputI9CMMCLUT3DEEE, 
                        __ZTS11CMMConvNode, __ZTS12CMMException, __ZTS12CMMInvMatrix, 
                        __ZTS12CMMRGBCurves, __ZTS12CMMTrilinearI14CMMCLUTMOutputI9CMMCLUT3DEE, 
                        __ZTS13CMMLutTagBase, __ZTS13CMMMtxGeneric, __ZTS13CMMNDimLinearI14CMMCLUTMOutputI9CMMCLUTnDEE, 
                        __ZTS13CMMQuadlinearI14CMMCLUTMOutputI9CMMCLUT4DEE, 
                        __ZTS14CMMCLUTMOutputI9CMMCLUT3DE, __ZTS14CMMCLUTMOutputI9CMMCLUT4DE, 
                        __ZTS14CMMCLUTMOutputI9CMMCLUTnDE, __ZTS14CMMDataDecoder, 
                        __ZTS14CMMDataEncoder, __ZTS14CMMMtxLabToXYZ, __ZTS14CMMMtxXYZToLab, 
                        __ZTS14CMMPentahedralI14CMMCLUTMOutputI9CMMCLUT4DEE, 
                        __ZTS14CMMProfileInfo, __ZTS14CMMTextDescTag, __ZTS15CMMLegacyLutTag, 
                        __ZTS15CMMMtxGrayToLab, __ZTS15CMMMtxGrayToXYZ, 
                        __ZTS15CMMMtxLabToGray, __ZTS15CMMMtxXYZToGray, 
                        __ZTS15CMMProfileMaker, __ZTS16CMM8Bit3ChanData, 
                        __ZTS16CMMConvInvMatrix, __ZTS16CMMDataBaseClass, 
                        __ZTS16CMMNamedColorTag, __ZTS16CMMTechnologyTag, 
                        __ZTS17CMM16BitNChanData, __ZTS17CMMMatrixGamutTag, 
                        __ZTS17CMMRGBToRGBMatrix, __ZTS17ConversionManager, 
                        __ZTS18CMMDataDecodeMaker, __ZTS18CMMDataEncodeMaker, 
                        __ZTS18CMMDecoderTemplateI17CMM16BitNChanDataE, 
                        __ZTS18CMMEncoderTemplateI17CMM16BitNChanDataE, 
                        __ZTS18CMMGrayToRGBMatrix, __ZTS18CMMLutInputProfile, 
                        __ZTS18CMMRGBToGrayMatrix, __ZTS19CMMAlphaCopierMaker, 
                        __ZTS19CMMGrayToGrayMatrix, __ZTS19CMMLutOutputProfile, 
                        __ZTS19CMMMonoInputProfile, __ZTS20CMMConvScaleFloatXYZ, 
                        __ZTS20CMMLutDisplayProfile, __ZTS20CMMMonoOutputProfile, 
                        __ZTS21CMMConvMatrixTemplateI10CMMMtxDiag13CMMConvMatrixE, 
                        __ZTS21CMMConvMatrixTemplateI10CMMMtxOnly13CMMConvMatrixE, 
                        __ZTS21CMMConvMatrixTemplateI10CMMMtxOnly16CMMConvInvMatrixE, 
                        __ZTS21CMMConvMatrixTemplateI10CMMMtxOnly21CMMConvRGBToRGBMatrixE, 
                        __ZTS21CMMConvMatrixTemplateI10CMMMtxOnly22CMMConvGrayToRGBMatrixE, 
                        __ZTS21CMMConvMatrixTemplateI10CMMMtxOnly22CMMConvRGBToGrayMatrixE, 
                        __ZTS21CMMConvMatrixTemplateI10CMMMtxOnly23CMMConvGrayToGrayMatrixE, 
                        __ZTS21CMMConvMatrixTemplateI13CMMMtxGeneric13CMMConvMatrixE, 
                        __ZTS21CMMConvMatrixTemplateI14CMMMtxLabToXYZ13CMMConvMatrixE, 
                        __ZTS21CMMConvMatrixTemplateI14CMMMtxXYZToLab13CMMConvMatrixE, 
                        __ZTS21CMMConvMatrixTemplateI15CMMMtxGrayToLab13CMMConvMatrixE, 
                        __ZTS21CMMConvMatrixTemplateI15CMMMtxGrayToXYZ13CMMConvMatrixE, 
                        __ZTS21CMMConvMatrixTemplateI15CMMMtxLabToGray13CMMConvMatrixE, 
                        __ZTS21CMMConvMatrixTemplateI15CMMMtxXYZToGray13CMMConvMatrixE, 
                        __ZTS21CMMConvMatrixTemplateI9CMMMtxRow13CMMConvMatrixE, 
                        __ZTS21CMMMonoDisplayProfile, __ZTS22CMMConvGrayToRGBMatrix, 
                        __ZTS22CMMConvRGBToGrayMatrix, __ZTS23CMMConvGrayToGrayMatrix, 
                        __ZTS25CMM8Bit3ChanNoConvDecoder, __ZTS25CMM8Bit3ChanNoConvEncoder, 
                        __ZTS25CMMProfileSequenceDescTag, __ZTS29CMMConvBlackPointCompensation, 
                        __ZTS7CMMBase, __ZTS7TVectorI10CMMTagInfo10TAllocatorIS0_EE, 
                        __ZTS7TVectorI14CMMProfileInfo10TAllocatorIS0_EE, 
                        __ZTS8CMMTetraI14CMMCLUTMOutputI9CMMCLUT3DEE, __ZTS9CMMCLUT3D, 
                        __ZTS9CMMCLUT4D, __ZTS9CMMCLUTnD, __ZTS9CMMMatrix, 
                        __ZTS9CMMMtxRow, __ZTS9CMMXYZTag, __ZTSN13CMMNDimLinearI14CMMCLUTMOutputI9CMMCLUTnDEE7OffsetsE, 
                        __ZTSNSt3__113__vector_baseI10CMMTagInfo10TAllocatorIS1_EEE, 
                        __ZTSNSt3__113__vector_baseI14CMMProfileInfo10TAllocatorIS1_EEE, 
                        __ZTSNSt3__120__vector_base_commonILb1EEE, __ZTSNSt3__16vectorI10CMMTagInfo10TAllocatorIS1_EEE, 
                        __ZTSNSt3__16vectorI14CMMProfileInfo10TAllocatorIS1_EEE, 
                        __ZTSNSt3__19allocatorI10CMMTagInfoEE, __ZTSNSt3__19allocatorI14CMMProfileInfoEE, 
                        __ZTV10CMMEncoDec, __ZTV10CMMTagInfo, __ZTV10CMMTextTag, 
                        __ZTV10TAllocatorI10CMMTagInfoE, __ZTV10TAllocatorI14CMMProfileInfoE, 
                        __ZTV11CMMCLUTConvI12CMMTrilinearI14CMMCLUTMOutputI9CMMCLUT3DEEE, 
                        __ZTV11CMMCLUTConvI13CMMNDimLinearI14CMMCLUTMOutputI9CMMCLUTnDEEE, 
                        __ZTV11CMMCLUTConvI13CMMQuadlinearI14CMMCLUTMOutputI9CMMCLUT4DEEE, 
                        __ZTV11CMMCLUTConvI14CMMPentahedralI14CMMCLUTMOutputI9CMMCLUT4DEEE, 
                        __ZTV11CMMCLUTConvI8CMMTetraI14CMMCLUTMOutputI9CMMCLUT3DEEE, 
                        __ZTV11CMMConvNode, __ZTV12CMMInvMatrix, __ZTV12CMMRGBCurves, 
                        __ZTV12CMMTrilinearI14CMMCLUTMOutputI9CMMCLUT3DEE, 
                        __ZTV13CMMNDimLinearI14CMMCLUTMOutputI9CMMCLUTnDEE, 
                        __ZTV13CMMQuadlinearI14CMMCLUTMOutputI9CMMCLUT4DEE, 
                        __ZTV14CMMDataDecoder, __ZTV14CMMDataEncoder, __ZTV14CMMPentahedralI14CMMCLUTMOutputI9CMMCLUT4DEE, 
                        __ZTV14CMMProfileInfo, __ZTV14CMMTextDescTag, __ZTV15CMMProfileMaker, 
                        __ZTV16CMMConvInvMatrix, __ZTV16CMMNamedColorTag, 
                        __ZTV16CMMTechnologyTag, __ZTV17CMMMatrixGamutTag, 
                        __ZTV17CMMRGBToRGBMatrix, __ZTV17ConversionManager, 
                        __ZTV18CMMDataDecodeMaker, __ZTV18CMMDataEncodeMaker, 
                        __ZTV18CMMDecoderTemplateI17CMM16BitNChanDataE, 
                        __ZTV18CMMEncoderTemplateI17CMM16BitNChanDataE, 
                        __ZTV18CMMGrayToRGBMatrix, __ZTV18CMMLutInputProfile, 
                        __ZTV18CMMRGBToGrayMatrix, __ZTV19CMMAlphaCopierMaker, 
                        __ZTV19CMMGrayToGrayMatrix, __ZTV19CMMLutOutputProfile, 
                        __ZTV19CMMMonoInputProfile, __ZTV20CMMConvScaleFloatXYZ, 
                        __ZTV20CMMLutDisplayProfile, __ZTV20CMMMonoOutputProfile, 
                        __ZTV21CMMConvMatrixTemplateI10CMMMtxDiag13CMMConvMatrixE, 
                        __ZTV21CMMConvMatrixTemplateI10CMMMtxOnly13CMMConvMatrixE, 
                        __ZTV21CMMConvMatrixTemplateI10CMMMtxOnly16CMMConvInvMatrixE, 
                        __ZTV21CMMConvMatrixTemplateI10CMMMtxOnly21CMMConvRGBToRGBMatrixE, 
                        __ZTV21CMMConvMatrixTemplateI10CMMMtxOnly22CMMConvGrayToRGBMatrixE, 
                        __ZTV21CMMConvMatrixTemplateI10CMMMtxOnly22CMMConvRGBToGrayMatrixE, 
                        __ZTV21CMMConvMatrixTemplateI10CMMMtxOnly23CMMConvGrayToGrayMatrixE, 
                        __ZTV21CMMConvMatrixTemplateI13CMMMtxGeneric13CMMConvMatrixE, 
                        __ZTV21CMMConvMatrixTemplateI14CMMMtxLabToXYZ13CMMConvMatrixE, 
                        __ZTV21CMMConvMatrixTemplateI14CMMMtxXYZToLab13CMMConvMatrixE, 
                        __ZTV21CMMConvMatrixTemplateI15CMMMtxGrayToLab13CMMConvMatrixE, 
                        __ZTV21CMMConvMatrixTemplateI15CMMMtxGrayToXYZ13CMMConvMatrixE, 
                        __ZTV21CMMConvMatrixTemplateI15CMMMtxLabToGray13CMMConvMatrixE, 
                        __ZTV21CMMConvMatrixTemplateI15CMMMtxXYZToGray13CMMConvMatrixE, 
                        __ZTV21CMMConvMatrixTemplateI9CMMMtxRow13CMMConvMatrixE, 
                        __ZTV21CMMMonoDisplayProfile, __ZTV25CMM8Bit3ChanNoConvDecoder, 
                        __ZTV25CMM8Bit3ChanNoConvEncoder, __ZTV25CMMProfileSequenceDescTag, 
                        __ZTV29CMMConvBlackPointCompensation, __ZTV7TVectorI10CMMTagInfo10TAllocatorIS0_EE, 
                        __ZTV7TVectorI14CMMProfileInfo10TAllocatorIS0_EE, 
                        __ZTV8CMMTetraI14CMMCLUTMOutputI9CMMCLUT3DEE, __ZTV9CMMMatrix, 
                        __ZTV9CMMXYZTag, __ZTVN13CMMNDimLinearI14CMMCLUTMOutputI9CMMCLUTnDEE7OffsetsE, 
                        ___clang_call_terminate ]
...
