---
archs:           [ armv7, armv7s, arm64 ]
platform:        ios
install-name:    /System/Library/PrivateFrameworks/libEDR.framework/libEDR
exports:         
  - archs:           [ armv7, armv7s, arm64 ]
    symbols:         [ _EDREnable, GCC_except_table0, GCC_except_table0, 
                       GCC_except_table11, GCC_except_table12, GCC_except_table13, 
                       GCC_except_table15, GCC_except_table16, GCC_except_table17, 
                       GCC_except_table18, GCC_except_table18, GCC_except_table2, 
                       GCC_except_table2, GCC_except_table32, GCC_except_table33, 
                       GCC_except_table44, GCC_except_table5, GCC_except_table58, 
                       GCC_except_table6, GCC_except_table6, GCC_except_table69, 
                       GCC_except_table7, GCC_except_table74, GCC_except_table8, 
                       _EDRGetDisplayBrightness, _EDRGetDisplayHeadroom, 
                       _EDRGetDisplayMaxLuminance, _EDRIsEnabled, _EDRNotificationPostLocalNotification, 
                       _EDRNotificationPostNotification, _EDRNotificationPostSynchronousLocalNotification, 
                       _EDRNotificationPostSynchronousNotification, _EDRNotificationRegisterCallbackBlock, 
                       _EDRNotificationRegisterCallbackBlockOnQueue, _EDRNotificationRegisterCallbackFunction, 
                       _EDRNotificationRegisterCallbackFunctionOnQueue, 
                       _EDRNotificationRegisterHandlerBlock, _EDRNotificationRegisterHandlerBlockOnQueue, 
                       _EDRNotificationRegisterHandlerFunction, _EDRNotificationRegisterHandlerFunctionOnQueue, 
                       _EDRNotificationRegisterLocalCallbackBlock, _EDRNotificationRegisterLocalCallbackBlockOnQueue, 
                       _EDRNotificationRegisterLocalCallbackFunction, _EDRNotificationRegisterLocalCallbackFunctionOnQueue, 
                       _EDRNotificationRegisterLocalHandlerBlock, _EDRNotificationRegisterLocalHandlerBlockOnQueue, 
                       _EDRNotificationRegisterLocalHandlerFunction, _EDRNotificationRegisterLocalHandlerFunctionOnQueue, 
                       _EDRNotificationSendRequest, _EDRNotificationSendSynchronousRequest, 
                       _EDRNotificationStartService, _EDRNotificationStopService, 
                       _EDRNotificationUnregisterCallback, _EDRNotificationUnregisterCallbackBlock, 
                       _EDRNotificationUnregisterCallbackFunction, _EDRNotificationUnregisterHandler, 
                       _EDRNotificationUnregisterHandlerBlock, _EDRNotificationUnregisterHandlerFunction, 
                       _EDRRegisterCallbackBlock, _EDRRegisterNotificationBlock, 
                       _EDRServerEnable, _EDRServerGetCurrentDisplayProperties, 
                       _EDRServerGetDisplayBrightness, _EDRServerIsEnabled, 
                       _EDRServerSetDisplayBrightness, _EDRServerSetInitialBrightness, 
                       _EDRServerStart, _EDRServerStop, __Z28GetCurrentTimeInMillisecondsv, 
                       __Z7WaitFord, __Z9WaitUntild, __ZGVZL10EDRManagervE10edrManager, 
                       __ZGVZN12_GLOBAL__N_1L17setup_remote_portEPKcPjiE12time_to_wait, 
                       __ZGVZN12_GLOBAL__N_1L17setup_remote_portEPKcPjiE13time_to_retry, 
                       __ZGVZN12_GLOBAL__N_1L22EDRNotificationContextEvE21cdNotificationContext, 
                       __ZL10EDRManagerv, __ZL22EDRNotificationHandleriPviPiS_S0_S_, 
                       __ZL24RequestDisplayBrightnessj, __ZN10EDRDisplay10InitializeEfff, 
                       __ZN10EDRDisplay11InitializedEv, __ZN10EDRDisplay11UpdateEDROnEv, 
                       __ZN10EDRDisplay12EDRIsEnabledEv, __ZN10EDRDisplay12SetEnableEDREb, 
                       __ZN10EDRDisplay12SetXRPresentEb, __ZN10EDRDisplay12TimeStepImplEv, 
                       __ZN10EDRDisplay13SetBrightnessEf, __ZN10EDRDisplay16TargetBrightnessEv, 
                       __ZN10EDRDisplay17CurrentBrightnessEv, __ZN10EDRDisplay20TargetBrightnessImplEv, 
                       __ZN10EDRDisplay21CurrentBrightnessImplEv, __ZN10EDRDisplay23ScheduleSetBrightnessInEdU13block_pointerFvPviE, 
                       __ZN10EDRDisplay27ScheduleSetBrightnessInImplEdU13block_pointerFvPviE, 
                       __ZN10EDRDisplay8TimeStepEv, __ZN10EDRDisplay9DisplayIDEv, 
                       __ZN10EDRDisplayC1Ej, __ZN10EDRDisplayC2Ej, __ZN12_GLOBAL__N_19context_tD1Ev, 
                       __ZN12_GLOBAL__N_1L12destroy_portEj, __ZN12_GLOBAL__N_1L12release_portEj, 
                       __ZN12_GLOBAL__N_1L15execute_handlerENS_9handler_tEiPviPiS1_S2_b, 
                       __ZN12_GLOBAL__N_1L15transceive_dataEjiPviijPiS1_S1_S0_S1_S1_i, 
                       __ZN12_GLOBAL__N_1L16execute_callbackENS_10callback_tEiPvib, 
                       __ZN12_GLOBAL__N_1L16execute_handlersEPNS_9context_tEiPviPiS2_S3_b, 
                       __ZN12_GLOBAL__N_1L16setup_local_portEPKcPj, __ZN12_GLOBAL__N_1L17execute_callbacksEPNS_9context_tEiPvib, 
                       __ZN12_GLOBAL__N_1L21server_insert_handlerEPNS_9context_tEP16dispatch_queue_siU13block_pointerFviPviPiS4_S5_S4_ES4_PS6_S4_b, 
                       __ZN12_GLOBAL__N_1L22EDRNotificationContextEv, __ZN12_GLOBAL__N_1L28server_insert_handler_commonEPNS_9context_tEP16dispatch_queue_siU13block_pointerFviPviPiS4_S5_S4_ES4_PS6_S4_b, 
                       __ZN12_GLOBAL__N_1L29client_insert_callback_commonEPNS_9context_tEP16dispatch_queue_siU13block_pointerFviPviS4_ES4_PS5_S4_b, 
                       __ZN12_GLOBAL__N_1L37register_notification_callback_commonEPKcPviP16dispatch_queue_siU13block_pointerFviS2_iS2_ES2_PS5_S2_b, 
                       __ZN12_GLOBAL__N_1L39server_remove_client_with_no_send_rightEPNS_9context_tE, 
                       __ZN12_GLOBAL__N_1L8recv_msgEjPiS0_PNS_10msg_type_tEPjS0_PvS0_S0_, 
                       __ZN12_GLOBAL__N_1L9send_dataEjiPvii, __ZN12_GLOBAL__N_1L9send_portEjj, 
                       __ZN17EDRDisplayManager10AddDisplayEj, __ZN17EDRDisplayManager12SetEnableEDREb, 
                       __ZN17EDRDisplayManager12SetXRPresentEb, __ZN17EDRDisplayManager13RemoveDisplayEj, 
                       __ZN17EDRDisplayManager25RegisterNotificationBlockEU13block_pointerFvPviE, 
                       __ZN17EDRDisplayManager28ScheduleNextBrightnessUpdateEj, 
                       __ZN17EDRDisplayManager28ScheduleNextBrightnessUpdateEv, 
                       __ZN17EDRDisplayManager7DisplayEj, __ZN17EDRDisplayManager7DisplayEjfff, 
                       __ZN17EDRDisplayManagerC1Ev, __ZN17EDRDisplayManagerC2Ev, 
                       __ZN17EDRDisplayManagerD1Ev, __ZN17EDRDisplayManagerD2Ev, 
                       __ZN22EDRBrightnessAnimation10ValueAtEndEv, __ZN22EDRBrightnessAnimation11ValueAtTimeEd, 
                       __ZN22EDRBrightnessAnimation12SetEndpointsEff, __ZN22EDRBrightnessAnimation17SetAnimationCurveEPFffffE, 
                       __ZN22EDRBrightnessAnimation19SetTimeStepFunctionEPFdffdE, 
                       __ZN22EDRBrightnessAnimation20SetCurrentBrightnessEf, 
                       __ZN22EDRBrightnessAnimation24SetEndpointsWithDurationEffd, 
                       __ZN22EDRBrightnessAnimation33UpdateTransitionAnimationDurationEv, 
                       __ZN22EDRBrightnessAnimation4StopEv, __ZN22EDRBrightnessAnimation5StartEv, 
                       __ZN22EDRBrightnessAnimation8TimeStepEv, __ZN22EDRBrightnessAnimation9CompletedEv, 
                       __ZN22EDRBrightnessAnimationC1Ev, __ZN22EDRBrightnessAnimationC2Ev, 
                       __ZNSt3__112__hash_tableINS_17__hash_value_typeIiN12_GLOBAL__N_110callback_tEEENS_22__unordered_map_hasherIiS4_NS_4hashIiEELb1EEENS_21__unordered_map_equalIiS4_NS_8equal_toIiEELb1EEENS_9allocatorIS4_EEE4findIiEENS_15__hash_iteratorIPNS_11__hash_nodeIS4_PvEEEERKT_, 
                       __ZNSt3__112__hash_tableINS_17__hash_value_typeIiN12_GLOBAL__N_110callback_tEEENS_22__unordered_map_hasherIiS4_NS_4hashIiEELb1EEENS_21__unordered_map_equalIiS4_NS_8equal_toIiEELb1EEENS_9allocatorIS4_EEE5eraseENS_21__hash_const_iteratorIPNS_11__hash_nodeIS4_PvEEEE, 
                       __ZNSt3__112__hash_tableINS_17__hash_value_typeIiN12_GLOBAL__N_110callback_tEEENS_22__unordered_map_hasherIiS4_NS_4hashIiEELb1EEENS_21__unordered_map_equalIiS4_NS_8equal_toIiEELb1EEENS_9allocatorIS4_EEE8__rehashEm, 
                       __ZNSt3__112__hash_tableINS_17__hash_value_typeIiN12_GLOBAL__N_16port_tEEENS_22__unordered_map_hasherIiS4_NS_4hashIiEELb1EEENS_21__unordered_map_equalIiS4_NS_8equal_toIiEELb1EEENS_9allocatorIS4_EEE8__rehashEm, 
                       __ZNSt3__112__hash_tableINS_17__hash_value_typeIiN12_GLOBAL__N_19handler_tEEENS_22__unordered_map_hasherIiS4_NS_4hashIiEELb1EEENS_21__unordered_map_equalIiS4_NS_8equal_toIiEELb1EEENS_9allocatorIS4_EEE4findIiEENS_15__hash_iteratorIPNS_11__hash_nodeIS4_PvEEEERKT_, 
                       __ZNSt3__112__hash_tableINS_17__hash_value_typeIiN12_GLOBAL__N_19handler_tEEENS_22__unordered_map_hasherIiS4_NS_4hashIiEELb1EEENS_21__unordered_map_equalIiS4_NS_8equal_toIiEELb1EEENS_9allocatorIS4_EEE5eraseENS_21__hash_const_iteratorIPNS_11__hash_nodeIS4_PvEEEE, 
                       __ZNSt3__112__hash_tableINS_17__hash_value_typeIiN12_GLOBAL__N_19handler_tEEENS_22__unordered_map_hasherIiS4_NS_4hashIiEELb1EEENS_21__unordered_map_equalIiS4_NS_8equal_toIiEELb1EEENS_9allocatorIS4_EEE8__rehashEm, 
                       __ZNSt3__1L19piecewise_constructE, __ZZ15EDRServerEnableE12enabledCount, 
                       __ZZ24EDRRegisterCallbackBlockE9_callback, __ZZ9EDREnableE9lastState, 
                       __ZZL10EDRManagervE10edrManager, __ZZL15GetTimebaseInfovE12timebaseInfo, 
                       __ZZL15GetTimebaseInfovE9predicate, __ZZL24RequestDisplayBrightnessjE4data, 
                       __ZZL24RequestDisplayBrightnessjE9predicate, '__ZZN10EDRDisplayC1EjEN3$_08__invokeEfff', 
                       '__ZZN10EDRDisplayC1EjEN3$_18__invokeEffd', '__ZZN10EDRDisplayC1EjEN3$_28__invokeEfff', 
                       '__ZZN10EDRDisplayC1EjEN3$_38__invokeEffd', __ZZN12_GLOBAL__N_120get_audit_token_selfEvE4once, 
                       __ZZN12_GLOBAL__N_120get_audit_token_selfEvE6result, 
                       __ZZN12_GLOBAL__N_1L17setup_remote_portEPKcPjiE12time_to_wait, 
                       __ZZN12_GLOBAL__N_1L17setup_remote_portEPKcPjiE13time_to_retry, 
                       __ZZN12_GLOBAL__N_1L17setup_remote_portEPKcPjiE13timebase_info, 
                       __ZZN12_GLOBAL__N_1L17setup_remote_portEPKcPjiE9predicate, 
                       __ZZN12_GLOBAL__N_1L22EDRNotificationContextEvE21cdNotificationContext, 
                       __ZZN12_GLOBAL__N_1L22EDRNotificationContextEvE9predicate, 
                       ___EDRRegisterCallbackBlock_block_invoke, ___EDRServerStart_block_invoke, 
                       ____ZL15GetTimebaseInfov_block_invoke, ____ZL24RequestDisplayBrightnessj_block_invoke, 
                       ____ZL24RequestDisplayBrightnessj_block_invoke_2, 
                       ____ZN10EDRDisplay27ScheduleSetBrightnessInImplEdU13block_pointerFvPviE_block_invoke, 
                       ____ZN12_GLOBAL__N_120get_audit_token_selfEv_block_invoke, 
                       ____ZN12_GLOBAL__N_1L15execute_handlerENS_9handler_tEiPviPiS1_S2_b_block_invoke, 
                       ____ZN12_GLOBAL__N_1L16execute_callbackENS_10callback_tEiPvib_block_invoke, 
                       ____ZN12_GLOBAL__N_1L17setup_remote_portEPKcPji_block_invoke, 
                       ____ZN12_GLOBAL__N_1L22EDRNotificationContextEv_block_invoke, 
                       ____ZN12_GLOBAL__N_1L26start_notification_serviceEPKcPv_block_invoke, 
                       ____ZN12_GLOBAL__N_1L26start_notification_serviceEPKcPv_block_invoke.3, 
                       ____ZN12_GLOBAL__N_1L37register_notification_callback_commonEPKcPviP16dispatch_queue_siU13block_pointerFviS2_iS2_ES2_PS5_S2_b_block_invoke, 
                       ____ZN12_GLOBAL__N_1L37register_notification_callback_commonEPKcPviP16dispatch_queue_siU13block_pointerFviS2_iS2_ES2_PS5_S2_b_block_invoke.43, 
                       ____ZN12_GLOBAL__N_1L37register_notification_callback_commonEPKcPviP16dispatch_queue_siU13block_pointerFviS2_iS2_ES2_PS5_S2_b_block_invoke.48, 
                       ___block_descriptor_tmp, ___block_descriptor_tmp, 
                       ___block_descriptor_tmp, ___block_descriptor_tmp, 
                       ___block_descriptor_tmp.18, ___block_descriptor_tmp.2, 
                       ___block_descriptor_tmp.26, ___block_descriptor_tmp.32, 
                       ___block_descriptor_tmp.34, ___block_descriptor_tmp.41, 
                       ___block_descriptor_tmp.47, ___block_descriptor_tmp.5, 
                       ___block_descriptor_tmp.52, ___block_descriptor_tmp.57, 
                       ___block_descriptor_tmp.8, ___block_descriptor_tmp.8, 
                       ___block_literal_global, ___block_literal_global, 
                       ___block_literal_global, ___block_literal_global.3, 
                       ___block_literal_global.33, ___block_literal_global.58, 
                       ___block_literal_global.6, ___copy_helper_block_, 
                       ___copy_helper_block_, ___copy_helper_block_, ___copy_helper_block_.39, 
                       ___copy_helper_block_.45, ___copy_helper_block_.50, 
                       ___copy_helper_block_.6, ___destroy_helper_block_, 
                       ___destroy_helper_block_, ___destroy_helper_block_, 
                       ___destroy_helper_block_.40, ___destroy_helper_block_.46, 
                       ___destroy_helper_block_.51, ___destroy_helper_block_.7, 
                       _libEDRVersionNumber, _libEDRVersionString ]
    weak-def-symbols: [ __ZNSt3__112__hash_tableINS_17__hash_value_typeIdN10EDRDisplay24ActiveSetBrightnessStateEEENS_22__unordered_map_hasherIdS4_NS_4hashIdEELb1EEENS_21__unordered_map_equalIdS4_NS_8equal_toIdEELb1EEENS_9allocatorIS4_EEED2Ev, 
                        __ZNSt3__112__hash_tableINS_17__hash_value_typeIdN10EDRDisplay24ActiveSetBrightnessStateEEENS_22__unordered_map_hasherIdS4_NS_4hashIdEELb1EEENS_21__unordered_map_equalIdS4_NS_8equal_toIdEELb1EEENS_9allocatorIS4_EEE19__equal_range_multiIdEENS_4pairINS_15__hash_iteratorIPNS_11__hash_nodeIS4_PvEEEESN_EERKT_, 
                        __ZNSt3__112__hash_tableINS_17__hash_value_typeIdN10EDRDisplay24ActiveSetBrightnessStateEEENS_22__unordered_map_hasherIdS4_NS_4hashIdEELb1EEENS_21__unordered_map_equalIdS4_NS_8equal_toIdEELb1EEENS_9allocatorIS4_EEE19__node_insert_multiEPNS_11__hash_nodeIS4_PvEE, 
                        __ZNSt3__112__hash_tableINS_17__hash_value_typeIdN10EDRDisplay24ActiveSetBrightnessStateEEENS_22__unordered_map_hasherIdS4_NS_4hashIdEELb1EEENS_21__unordered_map_equalIdS4_NS_8equal_toIdEELb1EEENS_9allocatorIS4_EEE4findIdEENS_15__hash_iteratorIPNS_11__hash_nodeIS4_PvEEEERKT_, 
                        __ZNSt3__112__hash_tableINS_17__hash_value_typeIdN10EDRDisplay24ActiveSetBrightnessStateEEENS_22__unordered_map_hasherIdS4_NS_4hashIdEELb1EEENS_21__unordered_map_equalIdS4_NS_8equal_toIdEELb1EEENS_9allocatorIS4_EEE5eraseENS_21__hash_const_iteratorIPNS_11__hash_nodeIS4_PvEEEE, 
                        __ZNSt3__112__hash_tableINS_17__hash_value_typeIdN10EDRDisplay24ActiveSetBrightnessStateEEENS_22__unordered_map_hasherIdS4_NS_4hashIdEELb1EEENS_21__unordered_map_equalIdS4_NS_8equal_toIdEELb1EEENS_9allocatorIS4_EEE6rehashEm, 
                        __ZNSt3__112__hash_tableINS_17__hash_value_typeIdN10EDRDisplay24ActiveSetBrightnessStateEEENS_22__unordered_map_hasherIdS4_NS_4hashIdEELb1EEENS_21__unordered_map_equalIdS4_NS_8equal_toIdEELb1EEENS_9allocatorIS4_EEE6removeENS_21__hash_const_iteratorIPNS_11__hash_nodeIS4_PvEEEE, 
                        __ZNSt3__112__hash_tableINS_17__hash_value_typeIdN10EDRDisplay24ActiveSetBrightnessStateEEENS_22__unordered_map_hasherIdS4_NS_4hashIdEELb1EEENS_21__unordered_map_equalIdS4_NS_8equal_toIdEELb1EEENS_9allocatorIS4_EEE8__rehashEm, 
                        __ZNSt3__112__hash_tableINS_17__hash_value_typeIj10EDRDisplayEENS_22__unordered_map_hasherIjS3_NS_4hashIjEELb1EEENS_21__unordered_map_equalIjS3_NS_8equal_toIjEELb1EEENS_9allocatorIS3_EEE12__deallocateEPNS_16__hash_node_baseIPNS_11__hash_nodeIS3_PvEEEE, 
                        __ZNSt3__112__hash_tableINS_17__hash_value_typeIj10EDRDisplayEENS_22__unordered_map_hasherIjS3_NS_4hashIjEELb1EEENS_21__unordered_map_equalIjS3_NS_8equal_toIjEELb1EEENS_9allocatorIS3_EEE14__erase_uniqueIjEEmRKT_, 
                        __ZNSt3__112__hash_tableINS_17__hash_value_typeIj10EDRDisplayEENS_22__unordered_map_hasherIjS3_NS_4hashIjEELb1EEENS_21__unordered_map_equalIjS3_NS_8equal_toIjEELb1EEENS_9allocatorIS3_EEE16__construct_nodeIJRKNS_21piecewise_construct_tENS_5tupleIJRjEEESL_EEENS_10unique_ptrINS_11__hash_nodeIS3_PvEENS_22__hash_node_destructorINSC_ISP_EEEEEEDpOT_, 
                        __ZNSt3__112__hash_tableINS_17__hash_value_typeIj10EDRDisplayEENS_22__unordered_map_hasherIjS3_NS_4hashIjEELb1EEENS_21__unordered_map_equalIjS3_NS_8equal_toIjEELb1EEENS_9allocatorIS3_EEE20__node_insert_uniqueEPNS_11__hash_nodeIS3_PvEE, 
                        __ZNSt3__112__hash_tableINS_17__hash_value_typeIj10EDRDisplayEENS_22__unordered_map_hasherIjS3_NS_4hashIjEELb1EEENS_21__unordered_map_equalIjS3_NS_8equal_toIjEELb1EEENS_9allocatorIS3_EEE4findIjEENS_15__hash_iteratorIPNS_11__hash_nodeIS3_PvEEEERKT_, 
                        __ZNSt3__112__hash_tableINS_17__hash_value_typeIj10EDRDisplayEENS_22__unordered_map_hasherIjS3_NS_4hashIjEELb1EEENS_21__unordered_map_equalIjS3_NS_8equal_toIjEELb1EEENS_9allocatorIS3_EEE5eraseENS_21__hash_const_iteratorIPNS_11__hash_nodeIS3_PvEEEE, 
                        __ZNSt3__112__hash_tableINS_17__hash_value_typeIj10EDRDisplayEENS_22__unordered_map_hasherIjS3_NS_4hashIjEELb1EEENS_21__unordered_map_equalIjS3_NS_8equal_toIjEELb1EEENS_9allocatorIS3_EEE6rehashEm, 
                        __ZNSt3__112__hash_tableINS_17__hash_value_typeIj10EDRDisplayEENS_22__unordered_map_hasherIjS3_NS_4hashIjEELb1EEENS_21__unordered_map_equalIjS3_NS_8equal_toIjEELb1EEENS_9allocatorIS3_EEE6removeENS_21__hash_const_iteratorIPNS_11__hash_nodeIS3_PvEEEE, 
                        __ZNSt3__112__hash_tableINS_17__hash_value_typeIj10EDRDisplayEENS_22__unordered_map_hasherIjS3_NS_4hashIjEELb1EEENS_21__unordered_map_equalIjS3_NS_8equal_toIjEELb1EEENS_9allocatorIS3_EEE8__rehashEm, 
                        __ZNSt3__112__hash_tableINS_17__hash_value_typeIj10EDRDisplayEENS_22__unordered_map_hasherIjS3_NS_4hashIjEELb1EEENS_21__unordered_map_equalIjS3_NS_8equal_toIjEELb1EEENS_9allocatorIS3_EEED2Ev, 
                        __ZNSt3__113unordered_mapIj10EDRDisplayNS_4hashIjEENS_8equal_toIjEENS_9allocatorINS_4pairIKjS1_EEEEED1Ev, 
                        __ZNSt3__16vectorIhNS_9allocatorIhEEE8allocateEm, 
                        __ZNSt3__16vectorIhNS_9allocatorIhEEEC2Em, ___clang_call_terminate ]
...
