---
archs:           [ armv7, armv7s, arm64 ]
platform:        ios
install-name:    /System/Library/PrivateFrameworks/FontServices.framework/libFontParser.dylib
exports:         
  - archs:           [ armv7, armv7s, arm64 ]
    symbols:         [ _CreateFontForScaler, GCC_except_table0, GCC_except_table0, 
                       GCC_except_table0, GCC_except_table0, GCC_except_table0, 
                       GCC_except_table0, GCC_except_table0, GCC_except_table0, 
                       GCC_except_table1, GCC_except_table1, GCC_except_table1, 
                       GCC_except_table10, GCC_except_table10, GCC_except_table10, 
                       GCC_except_table10, GCC_except_table100, GCC_except_table101, 
                       GCC_except_table101, GCC_except_table102, GCC_except_table102, 
                       GCC_except_table103, GCC_except_table104, GCC_except_table104, 
                       GCC_except_table106, GCC_except_table106, GCC_except_table107, 
                       GCC_except_table108, GCC_except_table108, GCC_except_table11, 
                       GCC_except_table11, GCC_except_table11, GCC_except_table11, 
                       GCC_except_table110, GCC_except_table110, GCC_except_table111, 
                       GCC_except_table113, GCC_except_table114, GCC_except_table114, 
                       GCC_except_table114, GCC_except_table114, GCC_except_table115, 
                       GCC_except_table115, GCC_except_table116, GCC_except_table116, 
                       GCC_except_table118, GCC_except_table118, GCC_except_table118, 
                       GCC_except_table118, GCC_except_table118, GCC_except_table119, 
                       GCC_except_table119, GCC_except_table12, GCC_except_table12, 
                       GCC_except_table12, GCC_except_table12, GCC_except_table12, 
                       GCC_except_table12, GCC_except_table12, GCC_except_table121, 
                       GCC_except_table121, GCC_except_table122, GCC_except_table122, 
                       GCC_except_table123, GCC_except_table125, GCC_except_table125, 
                       GCC_except_table126, GCC_except_table126, GCC_except_table127, 
                       GCC_except_table127, GCC_except_table128, GCC_except_table128, 
                       GCC_except_table129, GCC_except_table13, GCC_except_table13, 
                       GCC_except_table13, GCC_except_table13, GCC_except_table130, 
                       GCC_except_table130, GCC_except_table131, GCC_except_table131, 
                       GCC_except_table132, GCC_except_table132, GCC_except_table132, 
                       GCC_except_table133, GCC_except_table134, GCC_except_table135, 
                       GCC_except_table135, GCC_except_table136, GCC_except_table137, 
                       GCC_except_table137, GCC_except_table137, GCC_except_table137, 
                       GCC_except_table138, GCC_except_table138, GCC_except_table138, 
                       GCC_except_table139, GCC_except_table139, GCC_except_table14, 
                       GCC_except_table14, GCC_except_table14, GCC_except_table140, 
                       GCC_except_table140, GCC_except_table141, GCC_except_table141, 
                       GCC_except_table142, GCC_except_table142, GCC_except_table143, 
                       GCC_except_table145, GCC_except_table146, GCC_except_table148, 
                       GCC_except_table149, GCC_except_table149, GCC_except_table149, 
                       GCC_except_table15, GCC_except_table15, GCC_except_table15, 
                       GCC_except_table15, GCC_except_table15, GCC_except_table15, 
                       GCC_except_table15, GCC_except_table15, GCC_except_table15, 
                       GCC_except_table151, GCC_except_table151, GCC_except_table152, 
                       GCC_except_table153, GCC_except_table153, GCC_except_table154, 
                       GCC_except_table154, GCC_except_table154, GCC_except_table155, 
                       GCC_except_table156, GCC_except_table156, GCC_except_table157, 
                       GCC_except_table157, GCC_except_table158, GCC_except_table159, 
                       GCC_except_table159, GCC_except_table16, GCC_except_table16, 
                       GCC_except_table16, GCC_except_table16, GCC_except_table16, 
                       GCC_except_table16, GCC_except_table161, GCC_except_table163, 
                       GCC_except_table164, GCC_except_table165, GCC_except_table166, 
                       GCC_except_table166, GCC_except_table166, GCC_except_table168, 
                       GCC_except_table168, GCC_except_table169, GCC_except_table169, 
                       GCC_except_table17, GCC_except_table17, GCC_except_table17, 
                       GCC_except_table17, GCC_except_table17, GCC_except_table170, 
                       GCC_except_table171, GCC_except_table172, GCC_except_table175, 
                       GCC_except_table176, GCC_except_table179, GCC_except_table18, 
                       GCC_except_table18, GCC_except_table18, GCC_except_table18, 
                       GCC_except_table18, GCC_except_table18, GCC_except_table180, 
                       GCC_except_table183, GCC_except_table184, GCC_except_table186, 
                       GCC_except_table188, GCC_except_table19, GCC_except_table19, 
                       GCC_except_table19, GCC_except_table19, GCC_except_table19, 
                       GCC_except_table19, GCC_except_table19, GCC_except_table190, 
                       GCC_except_table192, GCC_except_table193, GCC_except_table194, 
                       GCC_except_table195, GCC_except_table196, GCC_except_table197, 
                       GCC_except_table197, GCC_except_table198, GCC_except_table198, 
                       GCC_except_table2, GCC_except_table2, GCC_except_table2, 
                       GCC_except_table20, GCC_except_table20, GCC_except_table20, 
                       GCC_except_table20, GCC_except_table20, GCC_except_table201, 
                       GCC_except_table202, GCC_except_table205, GCC_except_table205, 
                       GCC_except_table207, GCC_except_table208, GCC_except_table209, 
                       GCC_except_table209, GCC_except_table21, GCC_except_table21, 
                       GCC_except_table21, GCC_except_table210, GCC_except_table211, 
                       GCC_except_table211, GCC_except_table211, GCC_except_table212, 
                       GCC_except_table212, GCC_except_table213, GCC_except_table215, 
                       GCC_except_table215, GCC_except_table216, GCC_except_table217, 
                       GCC_except_table219, GCC_except_table22, GCC_except_table22, 
                       GCC_except_table220, GCC_except_table225, GCC_except_table227, 
                       GCC_except_table23, GCC_except_table23, GCC_except_table231, 
                       GCC_except_table233, GCC_except_table233, GCC_except_table235, 
                       GCC_except_table238, GCC_except_table24, GCC_except_table24, 
                       GCC_except_table24, GCC_except_table24, GCC_except_table245, 
                       GCC_except_table249, GCC_except_table25, GCC_except_table25, 
                       GCC_except_table25, GCC_except_table250, GCC_except_table251, 
                       GCC_except_table254, GCC_except_table254, GCC_except_table26, 
                       GCC_except_table26, GCC_except_table26, GCC_except_table26, 
                       GCC_except_table26, GCC_except_table27, GCC_except_table27, 
                       GCC_except_table27, GCC_except_table27, GCC_except_table27, 
                       GCC_except_table28, GCC_except_table28, GCC_except_table28, 
                       GCC_except_table28, GCC_except_table28, GCC_except_table28, 
                       GCC_except_table28, GCC_except_table28, GCC_except_table280, 
                       GCC_except_table285, GCC_except_table29, GCC_except_table29, 
                       GCC_except_table29, GCC_except_table29, GCC_except_table29, 
                       GCC_except_table3, GCC_except_table3, GCC_except_table3, 
                       GCC_except_table30, GCC_except_table30, GCC_except_table30, 
                       GCC_except_table30, GCC_except_table30, GCC_except_table302, 
                       GCC_except_table31, GCC_except_table31, GCC_except_table31, 
                       GCC_except_table31, GCC_except_table32, GCC_except_table32, 
                       GCC_except_table32, GCC_except_table32, GCC_except_table32, 
                       GCC_except_table33, GCC_except_table33, GCC_except_table33, 
                       GCC_except_table33, GCC_except_table34, GCC_except_table34, 
                       GCC_except_table34, GCC_except_table34, GCC_except_table34, 
                       GCC_except_table35, GCC_except_table35, GCC_except_table36, 
                       GCC_except_table36, GCC_except_table36, GCC_except_table36, 
                       GCC_except_table36, GCC_except_table37, GCC_except_table37, 
                       GCC_except_table37, GCC_except_table38, GCC_except_table38, 
                       GCC_except_table38, GCC_except_table38, GCC_except_table39, 
                       GCC_except_table39, GCC_except_table4, GCC_except_table4, 
                       GCC_except_table40, GCC_except_table41, GCC_except_table41, 
                       GCC_except_table41, GCC_except_table41, GCC_except_table41, 
                       GCC_except_table42, GCC_except_table42, GCC_except_table43, 
                       GCC_except_table43, GCC_except_table44, GCC_except_table45, 
                       GCC_except_table45, GCC_except_table46, GCC_except_table46, 
                       GCC_except_table46, GCC_except_table47, GCC_except_table47, 
                       GCC_except_table48, GCC_except_table48, GCC_except_table48, 
                       GCC_except_table48, GCC_except_table48, GCC_except_table48, 
                       GCC_except_table49, GCC_except_table49, GCC_except_table49, 
                       GCC_except_table5, GCC_except_table5, GCC_except_table5, 
                       GCC_except_table5, GCC_except_table50, GCC_except_table50, 
                       GCC_except_table51, GCC_except_table51, GCC_except_table52, 
                       GCC_except_table52, GCC_except_table52, GCC_except_table52, 
                       GCC_except_table52, GCC_except_table52, GCC_except_table52, 
                       GCC_except_table53, GCC_except_table53, GCC_except_table53, 
                       GCC_except_table54, GCC_except_table54, GCC_except_table54, 
                       GCC_except_table54, GCC_except_table54, GCC_except_table54, 
                       GCC_except_table55, GCC_except_table55, GCC_except_table56, 
                       GCC_except_table56, GCC_except_table57, GCC_except_table57, 
                       GCC_except_table57, GCC_except_table58, GCC_except_table58, 
                       GCC_except_table58, GCC_except_table58, GCC_except_table59, 
                       GCC_except_table6, GCC_except_table6, GCC_except_table6, 
                       GCC_except_table6, GCC_except_table6, GCC_except_table60, 
                       GCC_except_table60, GCC_except_table60, GCC_except_table61, 
                       GCC_except_table61, GCC_except_table61, GCC_except_table61, 
                       GCC_except_table61, GCC_except_table61, GCC_except_table61, 
                       GCC_except_table61, GCC_except_table62, GCC_except_table63, 
                       GCC_except_table63, GCC_except_table63, GCC_except_table63, 
                       GCC_except_table64, GCC_except_table64, GCC_except_table64, 
                       GCC_except_table65, GCC_except_table65, GCC_except_table66, 
                       GCC_except_table67, GCC_except_table67, GCC_except_table67, 
                       GCC_except_table68, GCC_except_table68, GCC_except_table69, 
                       GCC_except_table69, GCC_except_table7, GCC_except_table7, 
                       GCC_except_table7, GCC_except_table7, GCC_except_table70, 
                       GCC_except_table71, GCC_except_table72, GCC_except_table72, 
                       GCC_except_table73, GCC_except_table74, GCC_except_table74, 
                       GCC_except_table74, GCC_except_table74, GCC_except_table74, 
                       GCC_except_table75, GCC_except_table76, GCC_except_table76, 
                       GCC_except_table76, GCC_except_table78, GCC_except_table78, 
                       GCC_except_table79, GCC_except_table79, GCC_except_table79, 
                       GCC_except_table8, GCC_except_table8, GCC_except_table80, 
                       GCC_except_table80, GCC_except_table80, GCC_except_table82, 
                       GCC_except_table82, GCC_except_table83, GCC_except_table87, 
                       GCC_except_table87, GCC_except_table88, GCC_except_table88, 
                       GCC_except_table88, GCC_except_table89, GCC_except_table89, 
                       GCC_except_table89, GCC_except_table9, GCC_except_table9, 
                       GCC_except_table9, GCC_except_table9, GCC_except_table90, 
                       GCC_except_table90, GCC_except_table91, GCC_except_table91, 
                       GCC_except_table92, GCC_except_table93, GCC_except_table94, 
                       GCC_except_table96, GCC_except_table96, GCC_except_table97, 
                       GCC_except_table97, GCC_except_table97, GCC_except_table97, 
                       GCC_except_table98, GCC_except_table99, _BrotliAllocateRingBuffer, 
                       _BrotliBuildCodeLengthsHuffmanTable, _BrotliBuildHuffmanTable, 
                       _BrotliBuildSimpleHuffmanTable, _BrotliCalculateRingBufferSize, 
                       _BrotliDecompressBuffer, _BrotliDecompressStream, 
                       _BrotliHuffmanTreeGroupInit, _BrotliInitBitReader, 
                       _BrotliStateCleanup, _BrotliStateCleanupAfterMetablock, 
                       _BrotliStateInit, _BrotliStateInitWithCustomAllocators, 
                       _BrotliStateMetablockBegin, _BrotliWarmupBitReader, 
                       _CheckMapCommon, _CheckMapHeaderCommon, _CopyUncompressedBlockToOutput, 
                       _DecodeCommandBlockSwitch, _DecodeContextMap, _DecodeDistanceBlockSwitch, 
                       _DecodeLiteralBlockSwitch, _DecodeMetaBlockLength, 
                       _DecodeVarLenUint8, _DecodeWindowBits, _DefaultAllocFunc, 
                       _DefaultFreeFunc, _FPFontCanCreatePostScriptSubset, 
                       _FPFontCopyAllNames, _FPFontCopyCharacterSet, _FPFontCopyFamilyName, 
                       _FPFontCopyFullName, _FPFontCopyGlyphBitmap, _FPFontCopyGlyphNameForGlyph, 
                       _FPFontCopyGlyphPath, _FPFontCopyMetadata, _FPFontCopyNames, 
                       _FPFontCopyOriginalGlyphPath, _FPFontCopyPath, _FPFontCopyPostScriptName, 
                       _FPFontCopyRegistryOrderingSupplement, _FPFontCopyTable, 
                       _FPFontCopyTableTags, _FPFontCopyURLPerRegistryOrdering, 
                       _FPFontCreateCopyWithVariation, _FPFontCreateFontSubset, 
                       _FPFontCreateFontsWithPath, _FPFontCreatePostScriptEncoding, 
                       _FPFontCreatePostScriptSubset, _FPFontCreateWithData, 
                       _FPFontCreateWithDataAndExtra, _FPFontGetAllPossibleUnicharsForGlyph, 
                       _FPFontGetAscent, _FPFontGetAverageAdvance, _FPFontGetBoundingBox, 
                       _FPFontGetCIDsForGlyphs, _FPFontGetCapHeight, _FPFontGetDescent, 
                       _FPFontGetFontInfo, _FPFontGetFormat, _FPFontGetGlyphDeviceAdvance, 
                       _FPFontGetGlyphDeviceBounds, _FPFontGetGlyphDeviceVerticalAdvance, 
                       _FPFontGetGlyphDeviceVerticalBounds, _FPFontGetGlyphForGlyphName, 
                       _FPFontGetGlyphIdealAdvanceAndSideBearing, _FPFontGetGlyphIdealAdvanceWidth, 
                       _FPFontGetGlyphIdealAdvanceWidths, _FPFontGetGlyphIdealBounds, 
                       _FPFontGetGlyphIdealVerticalAdvanceWidth, _FPFontGetGlyphIdealVerticalBounds, 
                       _FPFontGetGlyphNameMaxLength, _FPFontGetGlyphVerticalTranslate, 
                       _FPFontGetGlyphsForCIDs, _FPFontGetGlyphsForGlyphNames, 
                       _FPFontGetGlyphsForText, _FPFontGetGlyphsForUnichars, 
                       _FPFontGetGlyphsXo, _FPFontGetItalicAngle, _FPFontGetLineGap, 
                       _FPFontGetMaximumAdvance, _FPFontGetMinimumLeftSideBearing, 
                       _FPFontGetMinimumRightSideBearing, _FPFontGetNumberOfGlyphs, 
                       _FPFontGetOS2UnicodeRanges, _FPFontGetPostScriptName, 
                       _FPFontGetStemH, _FPFontGetStemV, _FPFontGetTable, 
                       _FPFontGetTableTags, _FPFontGetTrueTypeEncoding, 
                       _FPFontGetType1Encoding, _FPFontGetUnderlinePosition, 
                       _FPFontGetUnderlineThickness, _FPFontGetUnicharsForGlyph, 
                       _FPFontGetUnitsPerEm, _FPFontGetVMetrics, _FPFontGetVariation, 
                       _FPFontGetVariationAxes, _FPFontGetVersion, _FPFontGetXHeight, 
                       _FPFontIsBitmapOnly, _FPFontIsItalic, _FPFontIsMonospaced, 
                       _FPFontIsSFNT, _FPFontPurgeCaches, _FPFontRelease, 
                       _FPFontRetain, _FPFontShouldAutoHint, _FPGetFontSubsetFormat, 
                       _GetResourcePtrCommon, _GetSortWord, _InverseMoveToFrontTransform, 
                       _ProcessCommands, _RMDisposeMappedFileRef, _RMGetIndexedResource, 
                       _RMGetNamedResource, _RMGetResource, _RMGetResourceCount, 
                       _RMNewMappedRefFromMappedFork, _ReadHuffmanCode, 
                       _ReleaseFontForScaler, _SafeDecodeCommandBlockSwitch, 
                       _SafeDecodeDistanceBlockSwitch, _SafeDecodeLiteralBlockSwitch, 
                       _SafeDecodeSymbol, _SafeProcessCommands, _TextCompare, 
                       _ToUpperCase, _TransformDictionaryWord, _WriteRingBuffer, 
                       _XMLSplicedFontCreateFromData, __EqualString, __Z10CanMapPathPKc, 
                       __Z12EexecDecryptPhPKhmjb, __Z12LenIVDecryptPhPKhii, 
                       __Z13DecryptStringPhPKhm, __Z15PurgeTFontCachePKc, 
                       __Z17FontIsPDFFallbackPKc, __Z18dFPPrintTFontCachev, 
                       __Z19GetScriptOfOrderingPKcRi, __Z20CopyMetadataFromFontPK8__CFData, 
                       __Z21GenerateCIDUnicodeMap9TAdobeROSmm, __Z22FPFontCopySplicedStashPv, 
                       __Z22PurgeFileFragmentCachePKc, __Z23CopyBase64EncodedObjectPK8__CFData27NSDataBase64DecodingOptions, 
                       __Z24FPFontGetVariationScalarPvs, __Z24FPGetStandardEncodingSIDh, 
                       __Z24GetLatinEncodingTaxonomyv, __Z25FPFontGetVariationScalarsPvsPd, 
                       __Z25FPGetStandardEncodingNameh, __Z25dFPPrintFileFragmentCachev, 
                       __Z26GetLatinEncodingDictionaryv, __Z28GetCIDUnicodeEncodeNameArrayjRPKcS1_Rm, 
                       __Z29GenerateGlyphNameForCIDPerROSt9TAdobeROSPc, 
                       __Z32FPFontGetVariationKernAdjustmentPvsPKvm, __ZL10BCDtoASCIIPPKhmPc, 
                       __ZL10CFFDictGetIiLj0EEbPKhmPT_m, __ZL10CFFDictGetIiLj16EEbPKhmPT_m, 
                       __ZL10CFFDictGetIiLj30EEbRKN16TCFFFontDictInfo7DictSrcEPT_m, 
                       __ZL10CFFDictGetIjLj0EEbPKhmPT_m, __ZL10CFFDictGetItLj0EEbPKhmPT_m, 
                       __ZL10DeltaBluesPisP12BlueValueRecPt, __ZL10gCharCodes, 
                       __ZL10powersof10, __ZL11AppendBytesPvjS_, __ZL11AppendBytesPvjS_, 
                       __ZL11ReadByteIncR14MDataReference, __ZL12EncodingHashRK12EncHashTablePKhj, 
                       __ZL12MapTTCHeaderPKvm, __ZL12ReadBytesIncR14MDataReferenceh, 
                       __ZL12gKoreanChars, __ZL12kStdStrTable, __ZL13Default_lenIV, 
                       __ZL13gChineseChars, __ZL13kQDToStyleMap, __ZL14gEncodingTable, 
                       __ZL14gJapaneseChars, __ZL14kUnicodeRanges, __ZL15Default_charset, 
                       __ZL15DeriveStyleNamePKhS0_, __ZL15GetFontCallbackPKhmtsPv, 
                       __ZL15lookupUstrByCIDRK16TCIDUnicodeTabletRm, __ZL16CreateNameStringmPKhj, 
                       __ZL16Default_BlueFuzz, __ZL16Default_CIDCount, 
                       __ZL16Default_Encoding, __ZL16Default_FontBBox, 
                       __ZL16Default_UniqueID, __ZL16MetadataFromFontPK8__CFDataP24FTAppleSubtableData_metaPPK14__CFDictionary, 
                       __ZL16gKoreanHighBytes, __ZL16toUnicodeApplierPKvPv, 
                       __ZL17CFFScanNextOpCodePKhRmRiRt, __ZL17Default_BlueScale, 
                       __ZL17Default_BlueShift, __ZL17Default_ForceBold, 
                       __ZL17Default_PaintType, __ZL17DictParseCallbackPKhmtsPv, 
                       __ZL17FindIndexedStringRK16FontNameTable_BEmPvS2_, 
                       __ZL17PathOrNullIfEmptyPK6CGPath, __ZL18CopyFontNameStringRK15TFontNameString, 
                       __ZL18Default_FontMatrix, __ZL18Default_VToHOrigin, 
                       __ZL18defaultOpCodes_CID, __ZL18gJapaneseHighBytes, 
                       __ZL19Default_CIDFontType, __ZL19Default_ItalicAngle, 
                       __ZL19Default_StrokeWidth, __ZL19OTFSetupHFMXAndVFMXRK9TSFNTDataiRPK12EndianScalarIsL11EEndianness0EES7_, 
                       __ZL19cmapOverrideApplierPKvPv, __ZL19defaultOpCodesArray, 
                       __ZL19defaultOpCodes_Font, __ZL20Default_isfixedPitch, 
                       __ZL21Default_LanguageGroup, __ZL21Default_defaultWidthX, 
                       __ZL21Default_defaultWidthY, __ZL21Default_nominalWidthX, 
                       __ZL21FPOFAStreamPSDownloadRK11TFontScalerRjPKcbPKtS4_jPKjS6_P9__CFArrayP8__CFData, 
                       __ZL21gParserFontDictionary, __ZL22Default_CIDFontVersion, 
                       __ZL22Default_CharstringType, __ZL22Default_HBaselineShift, 
                       __ZL22defaultOpCodes_CIDFont, __ZL22defaultOpCodes_Private, 
                       __ZL22gParserBlendDictionary, __ZL23Default_CIDFontRevision, 
                       __ZL23Default_ExpansionFactor, __ZL23SetUnicodeForGlyphInMapPjP14__CFDictionarytjm, 
                       __ZL24LocalGetMMFondNameCoordsPKhsPs, __ZL24SpecialGlyphIDToStringIDPK12TCFFFontInfoR14MDataReferencet, 
                       __ZL24TestTableDeallocCallbackPvS_, __ZL24gParserCIDFontDictionary, 
                       __ZL24gParserDerivedDictionary, __ZL24gParserPrivateDictionary, 
                       __ZL25Default_UnderlinePosition, __ZL25Default_initialRandomSeed, 
                       __ZL25ExpertGlyphID_to_StringID, __ZL25StandardGlyphIDToStringIDPK12TCFFFontInfoR14MDataReferencet, 
                       __ZL25gParserEncodingDictionary, __ZL25gParserFontDictionaryList, 
                       __ZL26CharsetEnumerationCallbackPKhmtsPv, __ZL26Default_ForceBoldThreshold, 
                       __ZL26Default_UnderlineThickness, __ZL26gParserBlendDictionaryList, 
                       __ZL26gParserCompositeDictionary, __ZL27AdobeExpertCode_to_StringID, 
                       __ZL27EncodingEnumerationCallbackPKhmtsPv, __ZL27gSimplifiedChineseHighBytes, 
                       __ZL28gParserCIDFontDictionaryList, __ZL28gParserDerivedDictionaryList, 
                       __ZL28gParserPrivateDictionaryList, __ZL28gTraditionalChineseHighBytes, 
                       __ZL29AdobeStandardCode_to_StringID, __ZL29GetCharactersForGlyphUsingMapPjPK14__CFDictionaryttPtm, 
                       __ZL29gParserEncodingDictionaryList, __ZL29gParserPrivateBlendDictionary, 
                       __ZL30FindMatchWithNameAndVariationsPKvPv, __ZL30gParserCompositeDictionaryList, 
                       __ZL31ExpertSubsetGlyphID_to_StringID, __ZL32ExtractLanguageSpecificComponentPKvPv, 
                       __ZL32StandardRomanGlyphID_to_StringID, __ZL33AdobeExpertSubsetCode_to_StringID, 
                       __ZL33gParserPrivateBlendDictionaryList, __ZL35CreateCFCharacterSetFromUSetPatternPK10__CFString, 
                       __ZL35GetUniqueCharactersForGlyphUsingMapPjPK14__CFDictionaryttPtm, 
                       __ZL5mkfxlii, __ZL6ASSERTbPKc, __ZL6fxlmul3FxlS_, 
                       __ZL8fxlpow103Fxli, __ZL8strtofxlPh, __ZL9MakeUTF16PKjPtmmm, 
                       __ZL9ReadBytesRK14MDataReferenceh, __ZL9kCharType, 
                       __ZL9kNullInfo, __ZN10MCacheDataD0Ev, __ZN10MCacheDataD1Ev, 
                       __ZN10MCacheDataD2Ev, __ZN10TALMXTableD0Ev, __ZN10TALMXTableD1Ev, 
                       __ZN10TExceptionD0Ev, __ZN10TExceptionD1Ev, __ZN10TExceptionD2Ev, 
                       __ZN10TFontCacheD0Ev, __ZN10TFontCacheD1Ev, __ZN10TROTATableD0Ev, 
                       __ZN10TROTATableD1Ev, __ZN10TStringRefC1ERK14TDataReferencem, 
                       __ZN10TStringRefC1ERKS_, __ZN10TStringRefC2ERK14TDataReferencem, 
                       __ZN10TStringRefC2ERKS_, __ZN10TStringRefD0Ev, __ZN10TStringRefD1Ev, 
                       __ZN10TStringRefD2Ev, __ZN10TStringRefaSERKS_, __ZN10TToUnicode15ParseSubElementEP8_xmlNodePK10__CFString, 
                       __ZN10TToUnicode5BuildEP8_xmlNode, __ZN10TToUnicodeD0Ev, 
                       __ZN10TToUnicodeD1Ev, __ZN10TToUnicodeD2Ev, __ZN10TType1Font7AddNameER12TSimpleArrayI15TFontNameStringEPKht, 
                       __ZN10TType1FontC2Ev, __ZN10TType1FontD0Ev, __ZN10TType1FontD1Ev, 
                       __ZN10TType1FontD2Ev, __ZN10TcmapTable13GetCMapHeaderEv, 
                       __ZN10TheadTableC1ERK9TSFNTFont, __ZN10TheadTableC2ERK9TSFNTFont, 
                       __ZN10TheadTableD0Ev, __ZN10TheadTableD1Ev, __ZN10TheadTableD2Ev, 
                       __ZN10ThmtxTableC1ERK9TSFNTFont, __ZN10ThmtxTableC2ERK9TSFNTFont, 
                       __ZN10ThmtxTableC2ERK9TSFNTFontjj, __ZN10ThmtxTableD0Ev, 
                       __ZN10ThmtxTableD1Ev, __ZN10TmaxpTableD0Ev, __ZN10TmaxpTableD1Ev, 
                       __ZN10TnameTableC1ERK9TSFNTFont, __ZN10TnameTableD0Ev, 
                       __ZN10TnameTableD1Ev, __ZN10TpostTableC1ERK9TSFNTFont, 
                       __ZN10TpostTableC2ERK9TSFNTFont, __ZN10TpostTableD0Ev, 
                       __ZN10TpostTableD1Ev, __ZN10TsfntTableC1ERK9TSFNTFontj, 
                       __ZN10TsfntTableC2ERK9TSFNTFontj, __ZN10TsfntTableD0Ev, 
                       __ZN10TsfntTableD1Ev, __ZN10TsfntTableD2Ev, __ZN10TvmtxTableC1ERK9TSFNTFont, 
                       __ZN10TvmtxTableD0Ev, __ZN10TvmtxTableD1Ev, __ZN10TzapfTableC1ERK9TSFNTFont, 
                       __ZN10TzapfTableC2ERK9TSFNTFont, __ZN10TzapfTableD0Ev, 
                       __ZN10TzapfTableD1Ev, __ZN11TCharString8CharDataEv, 
                       __ZN11TCharStringC1EtRK14TDataReference, __ZN11TCharStringC1EtmPKv, 
                       __ZN11TCharStringC1Ev, __ZN11TCharStringC2EtRK14TDataReference, 
                       __ZN11TCharStringC2EtmPKv, __ZN11TCharStringC2Ev, 
                       __ZN11TCharStringD0Ev, __ZN11TCharStringD1Ev, __ZN11TCharStringD2Ev, 
                       __ZN11TComponents15ParseSubElementEP8_xmlNodePK10__CFString, 
                       __ZN11TComponents5BuildEP8_xmlNode, __ZN11TComponentsD0Ev, 
                       __ZN11TComponentsD1Ev, __ZN11TComponentsD2Ev, __ZN11TFontScaler16CreateFontScalerEO13TScalerStrike, 
                       __ZN11TNameStringC1EPKvmhb, __ZN11TNameStringC1ERK14TDataReferencemh, 
                       __ZN11TNameStringC2EPKvmhb, __ZN11TNameStringC2ERK14TDataReferencemh, 
                       __ZN11TNameStringD0Ev, __ZN11TNameStringD1Ev, __ZN11TNameStringD2Ev, 
                       __ZN11TPosingFont14ParseAttributeEPK10__CFStringS2_, 
                       __ZN11TPosingFont15ParseSubElementEP8_xmlNodePK10__CFString, 
                       __ZN11TPosingFont5BuildEP8_xmlNode, __ZN11TPosingFontD0Ev, 
                       __ZN11TPosingFontD1Ev, __ZN11TPosingFontD2Ev, __ZN11TTableCacheD0Ev, 
                       __ZN11TTableCacheD1Ev, __ZN11TVFMX2TableD0Ev, __ZN11TVFMX2TableD1Ev, 
                       __ZN11TwOFFStream6IsWOFFERK14TDataReference, __ZN11TwOFFStreamC1ERK14TFileReference, 
                       __ZN11TwOFFStreamC2ERK14TFileReference, __ZN11TwOFFStreamC2ERK14TFileReferencePK8__CFData, 
                       __ZN11TwOFFStreamD0Ev, __ZN11TwOFFStreamD1Ev, __ZN11TwOFFStreamD2Ev, 
                       __ZN12MScalerCacheD0Ev, __ZN12MScalerCacheD1Ev, 
                       __ZN12MScalerCacheD2Ev, __ZN12TDefaultHeap4FreeEPv, 
                       __ZN12TDefaultHeap6CallocEmm, __ZN12TDefaultHeap6MallocEm, 
                       __ZN12TDefaultHeap7ReallocEPvm, __ZN12TDefaultHeapD0Ev, 
                       __ZN12TDefaultHeapD1Ev, __ZN12TDefaultHeapD2Ev, 
                       __ZN12TFontHandler17CreateFontHandlerERK5TFontbRK14TVariationsRef, 
                       __ZN12TFontHandlerD0Ev, __ZN12TFontHandlerD1Ev, 
                       __ZN12TFontHandlerD2Ev, __ZN12TFontMetrics14ParseAttributeEPK10__CFStringS2_, 
                       __ZN12TFontMetrics5BuildEP8_xmlNode, __ZN12TFontMetricsD0Ev, 
                       __ZN12TFontMetricsD1Ev, __ZN12TFontMetricsD2Ev, 
                       __ZN12TType1Scaler14GetType1ScalerEv, __ZN12TType1Scaler17CreateType1ScalerEv, 
                       __ZN12TType1Scaler9sProtocolE, __ZN12TwOFF2Stream7IsWOFF2ERK14TDataReference, 
                       __ZN12TwOFF2StreamC1ERK14TFileReference, __ZN12TwOFF2StreamC2ERK14TFileReference, 
                       __ZN12TwOFF2StreamD0Ev, __ZN12TwOFF2StreamD1Ev, 
                       __ZN13FDArrayEntityC1Ev, __ZN13FDArrayEntityD1Ev, 
                       __ZN13MType1CIDFontC2Ev, __ZN13MType1CIDFontD0Ev, 
                       __ZN13MType1CIDFontD1Ev, __ZN13MType1CIDFontD2Ev, 
                       __ZN13TBinarySearchD0Ev, __ZN13TBinarySearchD1Ev, 
                       __ZN13TComponentDef14ParseAttributeEPK10__CFStringS2_, 
                       __ZN13TComponentDef15ParseSubElementEP8_xmlNodePK10__CFString, 
                       __ZN13TComponentDef5BuildEP8_xmlNode, __ZN13TComponentDefD0Ev, 
                       __ZN13TComponentDefD1Ev, __ZN13TComponentDefD2Ev, 
                       __ZN13TFONDResourceC1ERK26TResourceFileDataSurrogate, 
                       __ZN13TFONDResourceC2ERK26TResourceFileDataSurrogate, 
                       __ZN13TFONDResourceD0Ev, __ZN13TFONDResourceD1Ev, 
                       __ZN13TOpenTypeFontC2ERK19TType1CFFDescriptor, __ZN13TOpenTypeFontD0Ev, 
                       __ZN13TOpenTypeFontD1Ev, __ZN13TOpenTypeFontD2Ev, 
                       __ZN13TSBITWOFFFontC1EPK8__CFDatai, __ZN13TSBITWOFFFontC2EPK8__CFDatai, 
                       __ZN13TSBITWOFFFontD0Ev, __ZN13TSBITWOFFFontD1Ev, 
                       __ZN13TScalerStrikeC1ERK5TFontPK15CGFontVariationmRK16TStrikeTransform, 
                       __ZN13TScalerStrikeC2EOS_, __ZN13TScalerStrikeC2ERK5TFontPK15CGFontVariationmRK16TStrikeTransform, 
                       __ZN13TScalerStrikeC2ERKS_, __ZN13TTrueTypeFont14IsTrueTypeFontERK9TSFNTFont, 
                       __ZN13TTrueTypeFontD2Ev, __ZN13TcmapOverride15ParseSubElementEP8_xmlNodePK10__CFString, 
                       __ZN13TcmapOverride5BuildEP8_xmlNode, __ZN13TcmapOverrideD0Ev, 
                       __ZN13TcmapOverrideD1Ev, __ZN13TcmapOverrideD2Ev, 
                       __ZN14MDataReferenceC1ERKS_im, __ZN14MDataReferenceC2ERKS_im, 
                       __ZN14MDataReferenceD0Ev, __ZN14MDataReferenceD1Ev, 
                       __ZN14MDataReferenceD2Ev, __ZN14MFileReferenceC2EPKc, 
                       __ZN14MFileReferenceD0Ev, __ZN14MFileReferenceD1Ev, 
                       __ZN14TDataReferenceC1ERK9TFragmenti, __ZN14TDataReferenceC1ERKS_i, 
                       __ZN14TDataReferenceC1Ev, __ZN14TDataReferenceC2ERK9TFragmenti, 
                       __ZN14TDataReferenceC2ERKS_i, __ZN14TDataReferenceC2Ev, 
                       __ZN14TDataReferenceD0Ev, __ZN14TDataReferenceD1Ev, 
                       __ZN14TDataReferenceD2Ev, __ZN14TDataReferenceaSERKS_, 
                       __ZN14TFontSurrogateC1EPK5TFont, __ZN14TFontSurrogateC1ERKS_, 
                       __ZN14TFontSurrogateC1Ev, __ZN14TFontSurrogateC2EPK5TFont, 
                       __ZN14TFontSurrogateC2ERKS_, __ZN14TFontSurrogateC2Ev, 
                       __ZN14TFontSurrogateD0Ev, __ZN14TFontSurrogateD1Ev, 
                       __ZN14TFontSurrogateD2Ev, __ZN14TFontSurrogateaSERKS_, 
                       __ZN14TLWFNType1FontC1ERK22TResourceForkSurrogate, 
                       __ZN14TLWFNType1FontC1ERK22TResourceForkSurrogateRK26TResourceFileDataSurrogateS5_, 
                       __ZN14TLWFNType1FontC2ERK22TResourceForkSurrogate, 
                       __ZN14TLWFNType1FontC2ERK22TResourceForkSurrogateRK26TResourceFileDataSurrogateS5_, 
                       __ZN14TLWFNType1FontD0Ev, __ZN14TLWFNType1FontD1Ev, 
                       __ZN14TLWFNType1FontD2Ev, __ZN14TSFNTType1Font11IsType1FontERK9TSFNTData, 
                       __ZN14TSFNTType1FontC1ERK26TResourceFileDataSurrogateS2_, 
                       __ZN14TSFNTType1FontC2ERK26TResourceFileDataSurrogateS2_, 
                       __ZN14TSFNTType1FontD0Ev, __ZN14TSFNTType1FontD1Ev, 
                       __ZN14TSFNTType1FontD2Ev, __ZN14TTTCMemoryFontD0Ev, 
                       __ZN14TTTCMemoryFontD1Ev, __ZN14TType1DataFontD0Ev, 
                       __ZN14TType1DataFontD1Ev, __ZN14TVariationAxisD1Ev, 
                       __ZN14TVariationAxisD2Ev, __ZN14TcmapTableDataD0Ev, 
                       __ZN14TcmapTableDataD1Ev, __ZN15TCFFFontSetInfo11GetFontNameEtPPcPj, 
                       __ZN15TFontNameStringC1EtPK10__CFStringS2_, __ZN15TFontNameStringC2EtPK10__CFStringS2_, 
                       __ZN15TFontNameStringD0Ev, __ZN15TFontNameStringD1Ev, 
                       __ZN15TFontNameStringD2Ev, __ZN15TGrowableBufferD0Ev, 
                       __ZN15TGrowableBufferD1Ev, __ZN15TGrowableBufferD2Ev, 
                       __ZN15TNFNTBitmapFont17IsValidBitmapFontEPK14nfntFontRec_BE, 
                       __ZN15TParsingContext10BlendBluesERtRjPP12BlueValueRecRK28TParseOpenCloseGetTokenScope, 
                       __ZN15TParsingContext10BlendErodeEv, __ZN15TParsingContext10CharStringEjjjPKcS1_j, 
                       __ZN15TParsingContext10DecryptBufEv, __ZN15TParsingContext10DoCIDRangeEv, 
                       __ZN15TParsingContext10DoEncodingEP17TEncodingProtocol, 
                       __ZN15TParsingContext10DoFontBBoxER10TCoordBBox, 
                       __ZN15TParsingContext10FamilyNameEPKc, __ZN15TParsingContext10FixedPitchEb, 
                       __ZN15TParsingContext10GetBooleanEv, __ZN15TParsingContext10GetIntegerEv, 
                       __ZN15TParsingContext10HexConvertEv, __ZN15TParsingContext10ScanStringEv, 
                       __ZN15TParsingContext10SetNumAxesEj, __ZN15TParsingContext10SetVersionEv, 
                       __ZN15TParsingContext10SubroutineEiPKhj, __ZN15TParsingContext11DoUseMatrixEv, 
                       __ZN15TParsingContext11FixFontDescER8FontDesc, __ZN15TParsingContext11GetCDevProcEv, 
                       __ZN15TParsingContext11InitGlobalsEv, __ZN15TParsingContext11ItalicAngleEi, 
                       __ZN15TParsingContext11SetCDevProcEv, __ZN15TParsingContext11SetFontTypeEv, 
                       __ZN15TParsingContext11SetPGFArrayEv, __ZN15TParsingContext12DoCIDProtectEv, 
                       __ZN15TParsingContext12DoFontMatrixER12TFractMatrix, 
                       __ZN15TParsingContext12DoNotDefCharEv, __ZN15TParsingContext12EexecDecryptEv, 
                       __ZN15TParsingContext12StdWStemSnapERtPiRi, __ZN15TParsingContext12WeightVectorEPii, 
                       __ZN15TParsingContext13BlendAxisTypeEjPKc, __ZN15TParsingContext13BlendStemSnapEPPiRt, 
                       __ZN15TParsingContext13DoCharStringsEv, __ZN15TParsingContext13DoFontProtectEv, 
                       __ZN15TParsingContext13DoNotDefRangeEv, __ZN15TParsingContext13GetFixedArrayEPij, 
                       __ZN15TParsingContext13GetOtherBluesERtRjP12BlueValueRec, 
                       __ZN15TParsingContext13InterpretFracEPc, __ZN15TParsingContext13SetFDepVectorEv, 
                       __ZN15TParsingContext13SetNumMastersEj, __ZN15TParsingContext13SetPGFontTypeEv, 
                       __ZN15TParsingContext13SetSubsVectorEv, __ZN15TParsingContext14EnsureBlendRecEv, 
                       __ZN15TParsingContext14GetStringTokenEv, __ZN15TParsingContext14HandleReactionEi, 
                       __ZN15TParsingContext14InterpretFixedEPc, __ZN15TParsingContext14ParseErodeProcEv, 
                       __ZN15TParsingContext14ParseType1FontEv, __ZN15TParsingContext14ResizeFontDescEPP8FontDescj, 
                       __ZN15TParsingContext14SetCIDFontTypeEv, __ZN15TParsingContext14SetCharOffsetsEv, 
                       __ZN15TParsingContext14StopDecryptingEv, __ZN15TParsingContext15BlendNumberAxesEj, 
                       __ZN15TParsingContext15BlendOtherBluesERtRjPP12BlueValueRecRK28TParseOpenCloseGetTokenScope, 
                       __ZN15TParsingContext15CharStringIndexEiisPKc, __ZN15TParsingContext15GetBinaryStringERjS0_S0_, 
                       __ZN15TParsingContext15SetWeightVectorEv, __ZN15TParsingContext16AllocCharStringsEi, 
                       __ZN15TParsingContext16AllocSubroutinesEi, __ZN15TParsingContext16BuildMacEncTableEv, 
                       __ZN15TParsingContext16DoCodeSpaceRangeEv, __ZN15TParsingContext16DoFontInfoStringEPKcRi, 
                       __ZN15TParsingContext16GetHeaderCommentEi, __ZN15TParsingContext16InterpretBooleanEPc, 
                       __ZN15TParsingContext16InterpretIntegerEPc, __ZN15TParsingContext16SetBlendFontBBoxEv, 
                       __ZN15TParsingContext16SetFontDictArrayEv, __ZN15TParsingContext16ShareCharStringsEPKc, 
                       __ZN15TParsingContext16ShareSubroutinesEPKc, __ZN15TParsingContext16SkipBinaryStringEv, 
                       __ZN15TParsingContext17GetOpenFixedArrayEPij, __ZN15TParsingContext17SetBlendAxisTypesEv, 
                       __ZN15TParsingContext17SetBlendDesignMapEv, __ZN15TParsingContext17SetBlendForceBoldEv, 
                       __ZN15TParsingContext17UnderlinePositionEi, __ZN15TParsingContext18BlendDesignMappingEjiPiS0_, 
                       __ZN15TParsingContext18BlendNumberDesignsEj, __ZN15TParsingContext18SwipeResultsToFontER10TType1Font, 
                       __ZN15TParsingContext18UnderlineThicknessEi, __ZN15TParsingContext19DisposeEncHashTableEP12EncHashTable, 
                       __ZN15TParsingContext20BlendDesignPositionsEiPi, 
                       __ZN15TParsingContext20ResetForPrivateBlendEv, __ZN15TParsingContext21GetStandardEncodeNameEh, 
                       __ZN15TParsingContext23SetBlendDesignPositionsEv, 
                       __ZN15TParsingContext6DoXUIDEv, __ZN15TParsingContext6FSTypeEi, 
                       __ZN15TParsingContext6NoticeEPKc, __ZN15TParsingContext6SkipToE5Token, 
                       __ZN15TParsingContext6WeightEPKc, __ZN15TParsingContext7DoParseEPK17TParserDictionary, 
                       __ZN15TParsingContext7DoSubrsEv, __ZN15TParsingContext7FillBufEv, 
                       __ZN15TParsingContext7GetFracEv, __ZN15TParsingContext7SetMDFVEv, 
                       __ZN15TParsingContext7VersionEPKc, __ZN15TParsingContext8DoBFCharEv, 
                       __ZN15TParsingContext8FontNameEPKc, __ZN15TParsingContext8FullNameEPKc, 
                       __ZN15TParsingContext8GetBluesERtRjP12BlueValueRec, 
                       __ZN15TParsingContext8GetBytesERm, __ZN15TParsingContext8GetFixedEv, 
                       __ZN15TParsingContext9CopyrightEPKc, __ZN15TParsingContext9DoBFRangeEv, 
                       __ZN15TParsingContext9DoCIDCharEv, __ZN15TParsingContext9InitInputEv, 
                       __ZN15TParsingContext9MakeFixedEv, __ZN15TParsingContextC2ERK14TDataReference, 
                       __ZN15TParsingContextD0Ev, __ZN15TParsingContextD1Ev, 
                       __ZN15TParsingContextD2Ev, __ZN15TSBITMemoryFontC1EPKvmi, 
                       __ZN15TSBITMemoryFontC2EPKvmi, __ZN15TSBITMemoryFontD0Ev, 
                       __ZN15TSBITMemoryFontD1Ev, __ZN15TSBITMemoryFontD2Ev, 
                       __ZN15TTrueTypeScaler17GetTrueTypeScalerEv, __ZN15TTrueTypeScaler20CreateTrueTypeScalerEv, 
                       __ZN15TTrueTypeScaler9sProtocolE, __ZN15TUnicodeCharSet14ParseAttributeEPK10__CFStringS2_, 
                       __ZN15TUnicodeCharSetD0Ev, __ZN15TUnicodeCharSetD1Ev, 
                       __ZN15TUnicodeCharSetD2Ev, __ZN15TVariationValue18kTolerantFractionsE, 
                       __ZN15TVariationValue8kEpsilonE, __ZN15TVariationValueD0Ev, 
                       __ZN15TVariationValueD1Ev, __ZN15TXMLSplicedFont17CreateSpliceFontsERK18TFileDataSurrogateR12TSimpleArrayIP5TFontE, 
                       __ZN15TXMLSplicedFontC2ERK18TFileDataSurrogatePK14__CFDictionary, 
                       __ZN15TXMLSplicedFontD0Ev, __ZN15TXMLSplicedFontD1Ev, 
                       __ZN16MParserProtocols10CIDFDArrayEi, __ZN16MParserProtocols10CharStringEjjjPKcS1_j, 
                       __ZN16MParserProtocols10FDepVectorEiPKc, __ZN16MParserProtocols10FamilyNameEPKc, 
                       __ZN16MParserProtocols10FixedPitchEb, __ZN16MParserProtocols10SubroutineEiPKhj, 
                       __ZN16MParserProtocols10SubsVectorEiPKh, __ZN16MParserProtocols10SupplementEi, 
                       __ZN16MParserProtocols10notdefcharEjij, __ZN16MParserProtocols11CharOffsetsEiPKh, 
                       __ZN16MParserProtocols11HostSupportEPKc, __ZN16MParserProtocols11ItalicAngleEi, 
                       __ZN16MParserProtocols11WritingModeEi, __ZN16MParserProtocols11bfchar_codeEjij, 
                       __ZN16MParserProtocols11bfchar_nameEjiPKc, __ZN16MParserProtocols11notdefrangeEjijij, 
                       __ZN16MParserProtocols12CIDMapOffsetEi, __ZN16MParserProtocols12CIDStartDataEjj, 
                       __ZN16MParserProtocols12OriginalFontEPKc, __ZN16MParserProtocols12WeightVectorEPii, 
                       __ZN16MParserProtocols12bfrange_codeEjijij, __ZN16MParserProtocols12bfrange_nameEjijiiPKc, 
                       __ZN16MParserProtocols13AllocPGFArrayEi, __ZN16MParserProtocols13BlendAxisTypeEjPKc, 
                       __ZN16MParserProtocols13SubrMapOffsetEi, __ZN16MParserProtocols13componentfontEiPKc, 
                       __ZN16MParserProtocols14CIDFontVersionEi, __ZN16MParserProtocols14EndCIDFontDictEi, 
                       __ZN16MParserProtocols14FontProtectionEiPKh, __ZN16MParserProtocols14PublicUniqueIDEi, 
                       __ZN16MParserProtocols14ResizeFontDescEPP8FontDescj, 
                       __ZN16MParserProtocols14codespacerangeEjiji, __ZN16MParserProtocols14rearrangedfontEPKc, 
                       __ZN16MParserProtocols15AllocFDepVectorEi, __ZN16MParserProtocols15BlendNumberAxesEj, 
                       __ZN16MParserProtocols15FDArrayFontNameEPKc, __ZN16MParserProtocols15FDepVector_MDFFEiPKcbiiPKh, 
                       __ZN16MParserProtocols15NumericEncodingEii, __ZN16MParserProtocols15SpecialEncodingEiPKc, 
                       __ZN16MParserProtocols16AllocCharStringsEi, __ZN16MParserProtocols16AllocSubroutinesEi, 
                       __ZN16MParserProtocols16BeginCIDFontDictEiPP8FontDesc, 
                       __ZN16MParserProtocols16BlendItalicAngleEii, __ZN16MParserProtocols16ShareCharStringsEPKc, 
                       __ZN16MParserProtocols16ShareSubroutinesEPKc, __ZN16MParserProtocols16UseNamedEncodingEPKc, 
                       __ZN16MParserProtocols16endcomponentfontEi, __ZN16MParserProtocols17StartEexecSectionEb, 
                       __ZN16MParserProtocols17UnderlinePositionEi, __ZN16MParserProtocols18BlendDesignMappingEjiPiS0_, 
                       __ZN16MParserProtocols18BlendNumberDesignsEj, __ZN16MParserProtocols18UnderlineThicknessEi, 
                       __ZN16MParserProtocols18UseSpecialEncodingEi, __ZN16MParserProtocols19UseNamedCharStringsEPKc, 
                       __ZN16MParserProtocols19UseStandardEncodingEv, __ZN16MParserProtocols20BlendDesignPositionsEiPi, 
                       __ZN16MParserProtocols21SpecialAccentEncodingEiPKc, 
                       __ZN16MParserProtocols22BlendUnderlinePositionEii, 
                       __ZN16MParserProtocols23BlendUnderlineThicknessEii, 
                       __ZN16MParserProtocols24UseSpecialAccentEncodingEi, 
                       __ZN16MParserProtocols25UseStandardAccentEncodingEv, 
                       __ZN16MParserProtocols4MDIDEi, __ZN16MParserProtocols4XUIDEiPi, 
                       __ZN16MParserProtocols6FSTypeEi, __ZN16MParserProtocols6NoticeEPKc, 
                       __ZN16MParserProtocols6RunIntEPKc, __ZN16MParserProtocols6WeightEPKc, 
                       __ZN16MParserProtocols7EscCharEi, __ZN16MParserProtocols7FDBytesEi, 
                       __ZN16MParserProtocols7GDBytesEi, __ZN16MParserProtocols7MDFVEndEiP12TFractMatrixi, 
                       __ZN16MParserProtocols7PrefEncEPKc, __ZN16MParserProtocols7SDBytesEi, 
                       __ZN16MParserProtocols7UIDBaseEi, __ZN16MParserProtocols7UseCMapEPKc, 
                       __ZN16MParserProtocols7VersionEPKc, __ZN16MParserProtocols7cidcharEjij, 
                       __ZN16MParserProtocols7usefontEt, __ZN16MParserProtocols8CDevProcEi, 
                       __ZN16MParserProtocols8CIDCountEi, __ZN16MParserProtocols8FMapTypeEi, 
                       __ZN16MParserProtocols8FontNameEPKc, __ZN16MParserProtocols8FontTypeEi, 
                       __ZN16MParserProtocols8FullNameEPKc, __ZN16MParserProtocols8GetBytesERm, 
                       __ZN16MParserProtocols8MDFVFontEiPKc, __ZN16MParserProtocols8OrderingEPKc, 
                       __ZN16MParserProtocols8PGFArrayEiPKc, __ZN16MParserProtocols8PGFontIDEi, 
                       __ZN16MParserProtocols8RegistryEPKc, __ZN16MParserProtocols8cidrangeEjijij, 
                       __ZN16MParserProtocols9AllocMDFVEi, __ZN16MParserProtocols9CopyrightEPKc, 
                       __ZN16MParserProtocols9MDFVBeginEiPKcS1_P10TCoordBBox, 
                       __ZN16MParserProtocols9SubrCountEi, __ZN16MParserProtocols9usematrixEiP12TFixedMatrix, 
                       __ZN16MParserProtocolsD0Ev, __ZN16MParserProtocolsD1Ev, 
                       __ZN16TCIDMetricsTableC2ERK9TSFNTFontjjjtib, __ZN16TCIDMetricsTableD0Ev, 
                       __ZN16TCIDMetricsTableD1Ev, __ZN16TOpenTypeCIDFontC2ERK14TDataReference, 
                       __ZN16TOpenTypeCIDFontC2ERK19TType1CFFDescriptor, 
                       __ZN16TOpenTypeCIDFontD0Ev, __ZN16TOpenTypeCIDFontD1Ev, 
                       __ZN16TOpenTypeCIDFontD2Ev, __ZN16TStrikeTransformC1ERK5TFontPK17CGAffineTransformj, 
                       __ZN16TStrikeTransformC2ERK5TFontPK17CGAffineTransformj, 
                       __ZN16TType1MemoryFontC1EPKvm, __ZN16TType1MemoryFontC2EPKvm, 
                       __ZN16TType1MemoryFontD0Ev, __ZN16TType1MemoryFontD1Ev, 
                       __ZN16TType1MemoryFontD2Ev, __ZN17MReferenceCountedD0Ev, 
                       __ZN17MReferenceCountedD1Ev, __ZN17MReferenceCountedD2Ev, 
                       __ZN17TEncodingProtocol10UseSpecialEi, __ZN17TEncodingProtocol11UseStandardEv, 
                       __ZN17TEncodingProtocol7SpecialEiPKc, __ZN17TEncodingProtocolD0Ev, 
                       __ZN17TEncodingProtocolD1Ev, __ZN17TOS2UnicodeRanges11GetRangeBitEj, 
                       __ZN17TOS2UnicodeRanges11SetRangeBitE7CFRange, __ZN17TOS2UnicodeRanges11SetRangeBitEj, 
                       __ZN17TOpenTypeWOFFFontC1ERK9TSFNTDataPK8__CFDatai, 
                       __ZN17TOpenTypeWOFFFontC2ERK9TSFNTDataPK8__CFDatai, 
                       __ZN17TOpenTypeWOFFFontD0Ev, __ZN17TOpenTypeWOFFFontD1Ev, 
                       __ZN17TOpenTypeWOFFFontD2Ev, __ZN17TParserDictionaryD0Ev, 
                       __ZN17TParserDictionaryD1Ev, __ZN17TSBITDataForkFontC1ERK18TFileDataSurrogate, 
                       __ZN17TSBITDataForkFontC2ERK18TFileDataSurrogate, 
                       __ZN17TSBITDataForkFontD0Ev, __ZN17TSBITDataForkFontD1Ev, 
                       __ZN17TSBITResourceFontC1ERK26TResourceFileDataSurrogateS2_, 
                       __ZN17TSBITResourceFontC2ERK26TResourceFileDataSurrogateS2_, 
                       __ZN17TSBITResourceFontD0Ev, __ZN17TSBITResourceFontD1Ev, 
                       __ZN17TSFNTCIDType1Font9IsCIDFontERK9TSFNTData, 
                       __ZN17TSFNTCIDType1FontC1ERK26TResourceFileDataSurrogateS2_, 
                       __ZN17TSFNTCIDType1FontC2ERK26TResourceFileDataSurrogateS2_, 
                       __ZN17TSFNTCIDType1FontD0Ev, __ZN17TSFNTCIDType1FontD1Ev, 
                       __ZN17TSFNTCIDType1FontD2Ev, __ZN17TSFNTOpenTypeFont9IsCFFFontERK9TSFNTData, 
                       __ZN17TSFNTOpenTypeFontC2ERK9TSFNTData, __ZN17TSFNTOpenTypeFontD0Ev, 
                       __ZN17TSFNTOpenTypeFontD1Ev, __ZN17TSFNTOpenTypeFontD2Ev, 
                       __ZN17TTrueTypeWOFFFontC1EPK8__CFDatai, __ZN17TTrueTypeWOFFFontC2EPK8__CFDatai, 
                       __ZN17TTrueTypeWOFFFontD0Ev, __ZN17TTrueTypeWOFFFontD1Ev, 
                       __ZN17TTrueTypeWOFFFontD2Ev, __ZN17TType1FontHandler11kNumEscArgsE, 
                       __ZN17TType1FontHandler8kNumArgsE, __ZN17TType1FontHandlerC2ERK10TType1Font, 
                       __ZN17TType1FontHandlerD0Ev, __ZN17TType1FontHandlerD1Ev, 
                       __ZN17TType1FontHandlerD2Ev, __ZN17TcmapUnicodeTable18GetUnicodeSubtableERj, 
                       __ZN17TcmapUnicodeTableC1ERK9TSFNTFont, __ZN17TcmapUnicodeTableC2ERK9TSFNTFont, 
                       __ZN17TcmapUnicodeTableD0Ev, __ZN17TcmapUnicodeTableD1Ev, 
                       __ZN18TCFFParsingContext11FixFontDescEP8FontDesc, 
                       __ZN18TCFFParsingContext11InitFD_FontEP10BlendState, 
                       __ZN18TCFFParsingContext12InitFontDescEP11TRegistrantP8FontDesc, 
                       __ZN18TCFFParsingContext12ParseCFFdataERK19TType1CFFDescriptor, 
                       __ZN18TCFFParsingContext13CommenceParseEbbRiRj, 
                       __ZN18TCFFParsingContext14InitFD_PrivateEP10BlendState, 
                       __ZN18TCFFParsingContext16ParseCharsetDictEP12TCFFFontInfo, 
                       __ZN18TCFFParsingContext18SwipeResultsToFontER13TOpenTypeFont, 
                       __ZN18TCFFParsingContext8FontTypeEi, __ZN18TCFFParsingContextC1ERK14TDataReferenceR13TOpenTypeFontP16TCFFFontDictInfoi, 
                       __ZN18TCFFParsingContextC2ERK14TDataReferenceR13TOpenTypeFontP16TCFFFontDictInfoi, 
                       __ZN18TCFFParsingContextD0Ev, __ZN18TCFFParsingContextD1Ev, 
                       __ZN18TCFFParsingContextD2Ev, __ZN18TFileDataReference9MapOrReadEPKci, 
                       __ZN18TFileDataReferenceC2EPKc, __ZN18TFileDataReferenceC2EPKcb, 
                       __ZN18TFileDataReferenceD0Ev, __ZN18TFileDataReferenceD1Ev, 
                       __ZN18TFileDataReferenceD2Ev, __ZN18TFileDataSurrogateC1EPKcb, 
                       __ZN18TFileDataSurrogateC1ERKS_, __ZN18TFileDataSurrogateC2EPKcb, 
                       __ZN18TFileDataSurrogateD0Ev, __ZN18TFileDataSurrogateD1Ev, 
                       __ZN18TFileDataSurrogateD2Ev, __ZN18TFileDataSurrogateaSERKS_, 
                       __ZN18TFileFragmentCacheD0Ev, __ZN18TFileFragmentCacheD1Ev, 
                       __ZN18TFileFragmentCacheD2Ev, __ZN18TStrikeDescriptionC1Ev, 
                       __ZN18TStrikeDescriptionC2Ev, __ZN18TStrikeDescriptionD0Ev, 
                       __ZN18TStrikeDescriptionD1Ev, __ZN18TStrikeDescriptionD2Ev, 
                       __ZN18TType1FileDataFontC1ERK18TFileDataSurrogate, 
                       __ZN18TType1FileDataFontC2ERK18TFileDataSurrogate, 
                       __ZN18TType1FileDataFontD0Ev, __ZN18TType1FileDataFontD1Ev, 
                       __ZN18TType1FileDataFontD2Ev, __ZN18TcmapEncodingTable11GetSubtableEtttPt, 
                       __ZN18TcmapEncodingTable16MakeNFNTGlyphMapEtPt, 
                       __ZN18TcmapEncodingTable18GetSubtableAtIndexEt, 
                       __ZN18TcmapEncodingTable20FindPreferredMacCmapEv, 
                       __ZN18TcmapEncodingTableC1ERK9TSFNTFontPK13TFONDResource, 
                       __ZN18TcmapEncodingTableC1ERK9TSFNTFontttt, __ZN18TcmapEncodingTableC2ERK9TSFNTFontPK13TFONDResource, 
                       __ZN18TcmapEncodingTableC2ERK9TSFNTFontttt, __ZN18TcmapEncodingTableD0Ev, 
                       __ZN18TcmapEncodingTableD1Ev, __ZN19TBinarySingleSearchD0Ev, 
                       __ZN19TBinarySingleSearchD1Ev, __ZN19TConcreteFontScaler17LoadDylibFunctionEPKcS1_, 
                       __ZN19TConcreteFontScaler9LoadDylibEPKc, __ZN19TConcreteFontScalerC2EO13TScalerStrikeRK15TScalerProtocol, 
                       __ZN19TInterpreterContext12PopSubrStackERPKh, __ZN19TInterpreterContext12SetSubrStackEPKhmRS1_, 
                       __ZN19TInterpreterContext13PushSubrStackEPKhS1_RS1_, 
                       __ZN19TInterpreterContext14LoadSubroutineEjPKhmttRS1_, 
                       __ZN19TInterpreterContextC2ERK10TType1FontPimP12TSubrContextm, 
                       __ZN19TInterpreterContextD0Ev, __ZN19TInterpreterContextD1Ev, 
                       __ZN19TInterpreterContextD2Ev, __ZN19TOpenTypeMemoryFontC1ERK9TSFNTDataPKvm, 
                       __ZN19TOpenTypeMemoryFontC2ERK9TSFNTDataPKvm, __ZN19TOpenTypeMemoryFontD0Ev, 
                       __ZN19TOpenTypeMemoryFontD1Ev, __ZN19TOpenTypeMemoryFontD2Ev, 
                       __ZN19TTableDataReferenceD0Ev, __ZN19TTableDataReferenceD1Ev, 
                       __ZN19TTrueTypeMemoryFontC1EPKvmPK8__CFDatai, __ZN19TTrueTypeMemoryFontC2EPKvmPK8__CFDatai, 
                       __ZN19TTrueTypeMemoryFontD0Ev, __ZN19TTrueTypeMemoryFontD1Ev, 
                       __ZN19TType1CFFDescriptor13GetCFFFontSetEv, __ZN19TType1CFFDescriptorC1E14TDataReferenceRK10TStringRef, 
                       __ZN19TType1CFFDescriptorC2E14TDataReferenceRK10TStringRef, 
                       __ZN19TType1CFFDescriptorD0Ev, __ZN19TType1CFFDescriptorD1Ev, 
                       __ZN19TType1CFFDescriptorD2Ev, __ZN20TOpenTypeCIDWOFFFontC1ERK9TSFNTDataPK8__CFDatai, 
                       __ZN20TOpenTypeCIDWOFFFontC2ERK9TSFNTDataPK8__CFDatai, 
                       __ZN20TOpenTypeCIDWOFFFontD0Ev, __ZN20TOpenTypeCIDWOFFFontD1Ev, 
                       __ZN20TOpenTypeCIDWOFFFontD2Ev, __ZN20TSFNTOpenTypeCIDFont12IsCFFCIDFontERK9TSFNTData, 
                       __ZN20TSFNTOpenTypeCIDFontC2ERK9TSFNTData, __ZN20TSFNTOpenTypeCIDFontD0Ev, 
                       __ZN20TSFNTOpenTypeCIDFontD1Ev, __ZN20TSFNTOpenTypeCIDFontD2Ev, 
                       __ZN20TTrueTypeFontHandler16TGlyphHeaderDataD0Ev, 
                       __ZN20TTrueTypeFontHandler16TGlyphHeaderDataD1Ev, 
                       __ZN20TTrueTypeFontHandler16TGlyphHeaderDataD2Ev, 
                       __ZN20TTrueTypeFontHandlerC2ERK13TTrueTypeFont, 
                       __ZN20TTrueTypeFontHandlerD0Ev, __ZN20TTrueTypeFontHandlerD1Ev, 
                       __ZN20TTrueTypeFontHandlerD2Ev, __ZN20TType1ParsingContext10CIDFDArrayEi, 
                       __ZN20TType1ParsingContext10CharStringEjjjPKcS1_j, 
                       __ZN20TType1ParsingContext10RemapArrayEi, __ZN20TType1ParsingContext10SupplementEi, 
                       __ZN20TType1ParsingContext12CIDMapOffsetEi, __ZN20TType1ParsingContext12CIDStartDataEjj, 
                       __ZN20TType1ParsingContext14CIDFontVersionEi, __ZN20TType1ParsingContext14EndCIDFontDictEi, 
                       __ZN20TType1ParsingContext14ParseType1FontEv, __ZN20TType1ParsingContext15FDArrayFontNameEPKc, 
                       __ZN20TType1ParsingContext15SpecialEncodingEiPKc, 
                       __ZN20TType1ParsingContext16AllocCharStringsEi, 
                       __ZN20TType1ParsingContext16BeginCIDFontDictEiPP8FontDesc, 
                       __ZN20TType1ParsingContext17StartEexecSectionEb, 
                       __ZN20TType1ParsingContext18UseSpecialEncodingEi, 
                       __ZN20TType1ParsingContext4XUIDEiPi, __ZN20TType1ParsingContext7FDBytesEi, 
                       __ZN20TType1ParsingContext7GDBytesEi, __ZN20TType1ParsingContext7UIDBaseEi, 
                       __ZN20TType1ParsingContext8CIDCountEi, __ZN20TType1ParsingContext8GetBytesERm, 
                       __ZN20TType1ParsingContext8OrderingEPKc, __ZN20TType1ParsingContext8RegistryEPKc, 
                       __ZN20TType1ParsingContextC2ERK14TDataReferenceR10TType1Font, 
                       __ZN20TType1ParsingContextD0Ev, __ZN20TType1ParsingContextD1Ev, 
                       __ZN20TType1ParsingContextD2Ev, __ZN20TcmapTableFileData16D0Ev, 
                       __ZN20TcmapTableFileData16D1Ev, __ZN20TcmapTableFileData32D0Ev, 
                       __ZN20TcmapTableFileData32D1Ev, __ZN21ParserBlendDictionaryD0Ev, 
                       __ZN21ParserBlendDictionaryD1Ev, __ZN21TCFFCIDParsingContext10CIDFDArrayEi, 
                       __ZN21TCFFCIDParsingContext10SupplementEi, __ZN21TCFFCIDParsingContext12CIDMapOffsetEi, 
                       __ZN21TCFFCIDParsingContext12CIDStartDataEjj, __ZN21TCFFCIDParsingContext13SubrMapOffsetEi, 
                       __ZN21TCFFCIDParsingContext14CIDFontVersionEi, __ZN21TCFFCIDParsingContext14EndCIDFontDictEi, 
                       __ZN21TCFFCIDParsingContext15FDArrayFontNameEPKc, 
                       __ZN21TCFFCIDParsingContext15ParseCFFCIDdataERK19TType1CFFDescriptorPK12EndianScalarIsL11EEndianness0EEb, 
                       __ZN21TCFFCIDParsingContext16BeginCIDFontDictEiPP8FontDesc, 
                       __ZN21TCFFCIDParsingContext16ParseCharsetDictEP12TCFFFontInfo, 
                       __ZN21TCFFCIDParsingContext17CFFLoadCIDCharsetEPK12TCFFFontInfoPKN16TCFFFontDictInfo7DictSrcE, 
                       __ZN21TCFFCIDParsingContext18CFFLoadCIDFDSelectEPK12TCFFFontInfoPKN16TCFFFontDictInfo7DictSrcE, 
                       __ZN21TCFFCIDParsingContext18SwipeResultsToFontER16TOpenTypeCIDFont, 
                       __ZN21TCFFCIDParsingContext20ParseCFFCIDFontDictsERK19TType1CFFDescriptorRt, 
                       __ZN21TCFFCIDParsingContext4XUIDEiPi, __ZN21TCFFCIDParsingContext7FDBytesEi, 
                       __ZN21TCFFCIDParsingContext7GDBytesEi, __ZN21TCFFCIDParsingContext7SDBytesEi, 
                       __ZN21TCFFCIDParsingContext7UIDBaseEi, __ZN21TCFFCIDParsingContext8CIDCountEi, 
                       __ZN21TCFFCIDParsingContext8FontTypeEi, __ZN21TCFFCIDParsingContext8OrderingEPKc, 
                       __ZN21TCFFCIDParsingContext8RegistryEPKc, __ZN21TCFFCIDParsingContext9SubrCountEi, 
                       __ZN21TCFFCIDParsingContextC2ERK14TDataReferenceR16TOpenTypeCIDFontP16TCFFFontDictInfo, 
                       __ZN21TCFFCIDParsingContextD0Ev, __ZN21TCFFCIDParsingContextD1Ev, 
                       __ZN21TCFFCIDParsingContextD2Ev, __ZN21TFileFragmentCachableD0Ev, 
                       __ZN21TFileFragmentCachableD1Ev, __ZN21TFileFragmentCachableD2Ev, 
                       __ZN21TGrowableBlocksBufferD0Ev, __ZN21TGrowableBlocksBufferD1Ev, 
                       __ZN21TLanguagePreferedList15ParseSubElementEP8_xmlNodePK10__CFString, 
                       __ZN21TLanguagePreferedList23ExtractSortedComponentsEP9__CFArray, 
                       __ZN21TLanguagePreferedList5BuildEP8_xmlNode, __ZN21TLanguagePreferedListD0Ev, 
                       __ZN21TLanguagePreferedListD1Ev, __ZN21TLanguagePreferedListD2Ev, 
                       __ZN21TOpenTypeDataForkFontC1ERK18TFileDataSurrogate, 
                       __ZN21TOpenTypeDataForkFontC2ERK18TFileDataSurrogate, 
                       __ZN21TOpenTypeDataForkFontD0Ev, __ZN21TOpenTypeDataForkFontD1Ev, 
                       __ZN21TOpenTypeFileDataFontC1ERK18TFileDataSurrogateRK19TType1CFFDescriptor, 
                       __ZN21TOpenTypeFileDataFontC2ERK18TFileDataSurrogateRK19TType1CFFDescriptor, 
                       __ZN21TOpenTypeFileDataFontD0Ev, __ZN21TOpenTypeFileDataFontD1Ev, 
                       __ZN21TPostScriptNameStringC2EPKc, __ZN21TPostScriptNameStringC2ERK15TFontNameString, 
                       __ZN21TRenderingHeaderTableD0Ev, __ZN21TRenderingHeaderTableD1Ev, 
                       __ZN21TTrueTypeDataForkFontC1ERK18TFileDataSurrogate, 
                       __ZN21TTrueTypeDataForkFontC2ERK18TFileDataSurrogate, 
                       __ZN21TTrueTypeDataForkFontD0Ev, __ZN21TTrueTypeDataForkFontD1Ev, 
                       __ZN21TTrueTypeDataForkFontD2Ev, __ZN21TTrueTypeResourceFontC1ERK26TResourceFileDataSurrogateS2_, 
                       __ZN21TTrueTypeResourceFontC2ERK26TResourceFileDataSurrogateS2_, 
                       __ZN21TTrueTypeResourceFontD0Ev, __ZN21TTrueTypeResourceFontD1Ev, 
                       __ZN21TTrueTypeResourceFontD2Ev, __ZN22TFileDataCopyReferenceC2EPKc, 
                       __ZN22TFileDataCopyReferenceD0Ev, __ZN22TFileDataCopyReferenceD1Ev, 
                       __ZN22TFileDataCopyReferenceD2Ev, __ZN22TFileDescriptorContextC2EPKc, 
                       __ZN22TFileDescriptorContextD2Ev, __ZN22TFileFragmentReferenceD0Ev, 
                       __ZN22TFileFragmentReferenceD1Ev, __ZN22TFileFragmentReferenceD2Ev, 
                       __ZN22TInMemoryDataReferenceC1EPKvmi, __ZN22TInMemoryDataReferenceC1ERK7TCFBlob, 
                       __ZN22TInMemoryDataReferenceC2ERK7TCFBlob, __ZN22TInMemoryDataReferenceD0Ev, 
                       __ZN22TInMemoryDataReferenceD1Ev, __ZN22TInMemoryDataReferenceD2Ev, 
                       __ZN22TOpenTypeCFFMemoryFontC1ERK19TType1CFFDescriptor, 
                       __ZN22TOpenTypeCFFMemoryFontC2ERK19TType1CFFDescriptor, 
                       __ZN22TOpenTypeCFFMemoryFontD0Ev, __ZN22TOpenTypeCFFMemoryFontD1Ev, 
                       __ZN22TOpenTypeCIDMemoryFontC1ERK9TSFNTDataPKvm, 
                       __ZN22TOpenTypeCIDMemoryFontC2ERK9TSFNTDataPKvm, 
                       __ZN22TOpenTypeCIDMemoryFontD0Ev, __ZN22TOpenTypeCIDMemoryFontD1Ev, 
                       __ZN22TOpenTypeCIDMemoryFontD2Ev, __ZN22TResourceForkSurrogateC1EPKcb, 
                       __ZN22TResourceForkSurrogateC1ERK26TResourceForkFileReference, 
                       __ZN22TResourceForkSurrogateC2EPKcb, __ZN22TResourceForkSurrogateC2ERK26TResourceForkFileReference, 
                       __ZN22TResourceForkSurrogateD0Ev, __ZN22TResourceForkSurrogateD1Ev, 
                       __ZN22TResourceForkSurrogateD2Ev, __ZN22TType1RenderingContextD0Ev, 
                       __ZN22TType1RenderingContextD1Ev, __ZN22Type1ProtectionContext13EDecryptBytesEPhPKhi, 
                       __ZN22Type1ProtectionContext13GetProtectionEv, __ZN22Type1ProtectionContext14FontProtectionEiPKv, 
                       __ZN22Type1ProtectionContext19DoubleEncryptionKeyEPKc, 
                       __ZN22Type1ProtectionContext22EvaluateFontProtectionEPKhi, 
                       __ZN22Type1ProtectionContextC1ERK9TSFNTFont, __ZN22Type1ProtectionContextC2ERK9TSFNTFont, 
                       __ZN22Type1ProtectionContextD0Ev, __ZN22Type1ProtectionContextD1Ev, 
                       __ZN23TAccentEncodingProtocol10UseSpecialEi, __ZN23TAccentEncodingProtocol11UseStandardEv, 
                       __ZN23TAccentEncodingProtocol7SpecialEiPKc, __ZN23TAccentEncodingProtocolD0Ev, 
                       __ZN23TAccentEncodingProtocolD1Ev, __ZN23TSFNTType1CFFDescriptorC1ERK9TSFNTDataj, 
                       __ZN23TSFNTType1CFFDescriptorC2ERK9TSFNTDataj, __ZN23TSFNTType1CFFDescriptorD0Ev, 
                       __ZN23TSFNTType1CFFDescriptorD1Ev, __ZN23TType1CIDParsingContext10CIDFDArrayEi, 
                       __ZN23TType1CIDParsingContext10CharStringEjjjPKcS1_j, 
                       __ZN23TType1CIDParsingContext10SubroutineEiPKhj, 
                       __ZN23TType1CIDParsingContext10SupplementEi, __ZN23TType1CIDParsingContext12CIDMapOffsetEi, 
                       __ZN23TType1CIDParsingContext12CIDStartDataEjj, 
                       __ZN23TType1CIDParsingContext12ParseCIDFontEv, __ZN23TType1CIDParsingContext13SubrMapOffsetEi, 
                       __ZN23TType1CIDParsingContext14CIDFontVersionEi, 
                       __ZN23TType1CIDParsingContext14EndCIDFontDictEi, 
                       __ZN23TType1CIDParsingContext14FontProtectionEiPKh, 
                       __ZN23TType1CIDParsingContext14ResizeFontDescEPP8FontDescj, 
                       __ZN23TType1CIDParsingContext15BlendNumberAxesEj, 
                       __ZN23TType1CIDParsingContext15FDArrayFontNameEPKc, 
                       __ZN23TType1CIDParsingContext16AllocCharStringsEi, 
                       __ZN23TType1CIDParsingContext16AllocSubroutinesEi, 
                       __ZN23TType1CIDParsingContext16BeginCIDFontDictEiPP8FontDesc, 
                       __ZN23TType1CIDParsingContext16ShareCharStringsEPKc, 
                       __ZN23TType1CIDParsingContext16ShareSubroutinesEPKc, 
                       __ZN23TType1CIDParsingContext18BlendNumberDesignsEj, 
                       __ZN23TType1CIDParsingContext18SwipeResultsToFontER17TSFNTCIDType1Font, 
                       __ZN23TType1CIDParsingContext4XUIDEiPi, __ZN23TType1CIDParsingContext6RunIntEPKc, 
                       __ZN23TType1CIDParsingContext7FDBytesEi, __ZN23TType1CIDParsingContext7GDBytesEi, 
                       __ZN23TType1CIDParsingContext7SDBytesEi, __ZN23TType1CIDParsingContext7UIDBaseEi, 
                       __ZN23TType1CIDParsingContext8CIDCountEi, __ZN23TType1CIDParsingContext8FontTypeEi, 
                       __ZN23TType1CIDParsingContext8OrderingEPKc, __ZN23TType1CIDParsingContext8RegistryEPKc, 
                       __ZN23TType1CIDParsingContext9SubrCountEi, __ZN23TType1CIDParsingContextC2ERK14TDataReferenceRK19CIDFontHeaderRecordR22Type1ProtectionContextjR17TSFNTCIDType1Font, 
                       __ZN23TType1CIDParsingContextD0Ev, __ZN23TType1CIDParsingContextD1Ev, 
                       __ZN23TType1CIDParsingContextD2Ev, __ZN23TType1GlyphOutlineBatchC1ERK18TGlyphOutlineBatchRK12TFixedMatrixd, 
                       __ZN23TType1GlyphOutlineBatchC1ERK18TGlyphOutlineBatchRK12TFractMatrixd, 
                       __ZN23TType1GlyphOutlineBatchC2ERK18TGlyphOutlineBatchRK12TFixedMatrixd, 
                       __ZN23TType1GlyphOutlineBatchC2ERK18TGlyphOutlineBatchRK12TFractMatrixd, 
                       __ZN23TType1GlyphOutlineBatchD0Ev, __ZN23TType1GlyphOutlineBatchD1Ev, 
                       __ZN24TGlyphOutlineLookupCache23CreateGlyphOutlineCacheEj, 
                       __ZN24TGlyphOutlineLookupCacheD0Ev, __ZN24TGlyphOutlineLookupCacheD1Ev, 
                       __ZN24TOpenTypeCIDDataForkFontC1ERK18TFileDataSurrogate, 
                       __ZN24TOpenTypeCIDDataForkFontC2ERK18TFileDataSurrogate, 
                       __ZN24TOpenTypeCIDDataForkFontD0Ev, __ZN24TOpenTypeCIDDataForkFontD1Ev, 
                       __ZN24TOpenTypeCIDFileDataFontC1ERK18TFileDataSurrogateRK19TType1CFFDescriptor, 
                       __ZN24TOpenTypeCIDFileDataFontC2ERK18TFileDataSurrogateRK19TType1CFFDescriptor, 
                       __ZN24TOpenTypeCIDFileDataFontD0Ev, __ZN24TOpenTypeCIDFileDataFontD1Ev, 
                       __ZN24TParserPrivateDictionaryD0Ev, __ZN24TParserPrivateDictionaryD1Ev, 
                       __ZN24TTrueTypeFontDataHandlerC1ERK13TTrueTypeFont, 
                       __ZN24TTrueTypeFontDataHandlerC2ERK13TTrueTypeFont, 
                       __ZN24TTrueTypeFontDataHandlerD0Ev, __ZN24TTrueTypeFontDataHandlerD1Ev, 
                       __ZN24TTrueTypeFontDataHandlerD2Ev, __ZN24TType1DataParsingContext15BlendNumberAxesEj, 
                       __ZN24TType1DataParsingContext15CharStringIndexEiisPKc, 
                       __ZN24TType1DataParsingContextD0Ev, __ZN24TType1DataParsingContextD1Ev, 
                       __ZN24TType1InterpreterContext14LoadSubroutineEjPKhmttRS1_, 
                       __ZN24TType1LWFNParsingContext10CharStringEjjjPKcS1_j, 
                       __ZN24TType1LWFNParsingContext15CharStringIndexEiisPKc, 
                       __ZN24TType1LWFNParsingContext16BlendItalicAngleEii, 
                       __ZN24TType1LWFNParsingContext19UseStandardEncodingEv, 
                       __ZN24TType1LWFNParsingContext8GetBytesERm, __ZN24TType1LWFNParsingContextC2ERK23TType1LWFNResourceChainR10TType1FontPK26TResourceFileDataSurrogate, 
                       __ZN24TType1LWFNParsingContextD0Ev, __ZN24TType1LWFNParsingContextD1Ev, 
                       __ZN24TType1LWFNParsingContextD2Ev, __ZN25TGlyphNameToUnicodeLookupC1Ev, 
                       __ZN25TGlyphNameToUnicodeLookupC2Ev, __ZN25TGlyphNameToUnicodeLookupD0Ev, 
                       __ZN25TGlyphNameToUnicodeLookupD1Ev, __ZN25TGlyphNameToUnicodeLookupD2Ev, 
                       __ZN25TOpenTypeCFFCIDMemoryFontC1ERK19TType1CFFDescriptor, 
                       __ZN25TOpenTypeCFFCIDMemoryFontC2ERK19TType1CFFDescriptor, 
                       __ZN25TOpenTypeCFFCIDMemoryFontD0Ev, __ZN25TOpenTypeCFFCIDMemoryFontD1Ev, 
                       __ZN25TType1CubicOutlineContextC1ERK18TGlyphOutlineBatchP19TInterpreterContext, 
                       __ZN25TType1CubicOutlineContextD0Ev, __ZN25TType1CubicOutlineContextD1Ev, 
                       __ZN26TDataForkFileDataReferenceC1ERK18TFileDataSurrogatei, 
                       __ZN26TDataForkFileDataReferenceD0Ev, __ZN26TDataForkFileDataReferenceD1Ev, 
                       __ZN26TResourceFileDataReferenceC2ERK22TResourceForkSurrogate, 
                       __ZN26TResourceFileDataReferenceC2ERK22TResourceForkSurrogatejPKh, 
                       __ZN26TResourceFileDataReferenceC2ERK22TResourceForkSurrogatejj, 
                       __ZN26TResourceFileDataReferenceC2ERK22TResourceForkSurrogatejs, 
                       __ZN26TResourceFileDataReferenceD0Ev, __ZN26TResourceFileDataReferenceD1Ev, 
                       __ZN26TResourceFileDataSurrogateC1ERK22TResourceForkSurrogate, 
                       __ZN26TResourceFileDataSurrogateC1ERK22TResourceForkSurrogatejPKh, 
                       __ZN26TResourceFileDataSurrogateC1ERK22TResourceForkSurrogatejj, 
                       __ZN26TResourceFileDataSurrogateC1ERK22TResourceForkSurrogatejs, 
                       __ZN26TResourceFileDataSurrogateC1ERKS_, __ZN26TResourceFileDataSurrogateC2ERK22TResourceForkSurrogate, 
                       __ZN26TResourceFileDataSurrogateC2ERK22TResourceForkSurrogatejPKh, 
                       __ZN26TResourceFileDataSurrogateC2ERK22TResourceForkSurrogatejj, 
                       __ZN26TResourceFileDataSurrogateC2ERK22TResourceForkSurrogatejs, 
                       __ZN26TResourceFileDataSurrogateC2ERKS_, __ZN26TResourceFileDataSurrogateD0Ev, 
                       __ZN26TResourceFileDataSurrogateD1Ev, __ZN26TResourceFileDataSurrogateD2Ev, 
                       __ZN26TResourceFileDataSurrogateaSERKS_, __ZN26TResourceForkFileReferenceC2EPKcb, 
                       __ZN26TResourceForkFileReferenceD0Ev, __ZN26TResourceForkFileReferenceD1Ev, 
                       __ZN26TResourceForkFileReferenceD2Ev, __ZN26TType1MemoryParsingContext10CharStringEjjjPKcS1_j, 
                       __ZN26TType1MemoryParsingContext18SwipeResultsToFontER10TType1Font, 
                       __ZN26TType1MemoryParsingContextD0Ev, __ZN26TType1MemoryParsingContextD1Ev, 
                       __ZN27TGlyphOutlineHashTableCacheD0Ev, __ZN27TGlyphOutlineHashTableCacheD1Ev, 
                       __ZN27TTrueTypeQuadOutlineContext10EndContourEv, 
                       __ZN27TTrueTypeQuadOutlineContext8AddPointEbii, 
                       __ZN27TTrueTypeQuadOutlineContextD0Ev, __ZN27TTrueTypeQuadOutlineContextD1Ev, 
                       __ZN28ParserPrivateBlendDictionaryD0Ev, __ZN28ParserPrivateBlendDictionaryD1Ev, 
                       __ZN28TTrueTypeFontLongDataHandlerD0Ev, __ZN28TTrueTypeFontLongDataHandlerD1Ev, 
                       __ZN28TTrueTypeFontLongDataHandlerD2Ev, __ZN29TLanguagePreferedComponentDef15ParseSubElementEP8_xmlNodePK10__CFString, 
                       __ZN29TLanguagePreferedComponentDef5BuildEP8_xmlNode, 
                       __ZN29TLanguagePreferedComponentDefD0Ev, __ZN29TLanguagePreferedComponentDefD1Ev, 
                       __ZN29TLanguagePreferedComponentDefD2Ev, __ZN30TGlyphNameToUnicodeTaxisLookupC1Ev, 
                       __ZN30TGlyphNameToUnicodeTaxisLookupC2Ev, __ZN30TGlyphNameToUnicodeTaxisLookupD0Ev, 
                       __ZN30TGlyphNameToUnicodeTaxisLookupD1Ev, __ZN30TGlyphNameToUnicodeTaxisLookupD2Ev, 
                       __ZN32TGrowableOffsetsAndStringsBufferD0Ev, __ZN32TGrowableOffsetsAndStringsBufferD1Ev, 
                       __ZN32TStringKeyInsertSortedDictionaryD0Ev, __ZN32TStringKeyInsertSortedDictionaryD1Ev, 
                       __ZN32TStringKeyInsertSortedDictionaryD2Ev, __ZN32TType1FontType1CharStringHandler17throwUnimlementedEPKh, 
                       __ZN32TType1FontType1CharStringHandlerC1ERK10TType1Font, 
                       __ZN32TType1FontType1CharStringHandlerC2ERK10TType1Font, 
                       __ZN32TType1FontType1CharStringHandlerD0Ev, __ZN32TType1FontType1CharStringHandlerD1Ev, 
                       __ZN32TType1FontType1CharStringHandlerD2Ev, __ZN32TType1FontType2CharStringHandler17throwUnimlementedEPKh, 
                       __ZN32TType1FontType2CharStringHandlerD0Ev, __ZN32TType1FontType2CharStringHandlerD1Ev, 
                       __ZN32TType1FontType2CharStringHandlerD2Ev, __ZN34TIntegralKeyInsertSortedDictionaryD0Ev, 
                       __ZN34TIntegralKeyInsertSortedDictionaryD1Ev, __ZN34TIntegralKeyInsertSortedDictionaryD2Ev, 
                       __ZN35TTrueTypeBufferedQuadOutlineContext8AddPointEbii, 
                       __ZN35TTrueTypeBufferedQuadOutlineContextD0Ev, __ZN35TTrueTypeBufferedQuadOutlineContextD1Ev, 
                       __ZN35TType1CIDFontType1CharStringHandlerD0Ev, __ZN35TType1CIDFontType1CharStringHandlerD1Ev, 
                       __ZN35TType1CIDFontType1CharStringHandlerD2Ev, __ZN35TType1FontType2CIDCharStringHandlerD0Ev, 
                       __ZN35TType1FontType2CIDCharStringHandlerD1Ev, __ZN35TType1FontType2CIDCharStringHandlerD2Ev, 
                       __ZN38TTrueTypeTransformedQuadOutlineContextD0Ev, 
                       __ZN38TTrueTypeTransformedQuadOutlineContextD1Ev, 
                       __ZN46TType1FontType1CharStringHandlerWithVariationsC1ERK10TType1FontRK14TVariationsRef, 
                       __ZN46TType1FontType1CharStringHandlerWithVariationsC2ERK10TType1FontRK14TVariationsRef, 
                       __ZN46TType1FontType1CharStringHandlerWithVariationsD0Ev, 
                       __ZN46TType1FontType1CharStringHandlerWithVariationsD1Ev, 
                       __ZN46TType1FontType1CharStringHandlerWithVariationsD2Ev, 
                       __ZN4TMap14ParseAttributeEPK10__CFStringS2_, __ZN4TMap5BuildEP8_xmlNode, 
                       __ZN4TMapD0Ev, __ZN4TMapD1Ev, __ZN5TFont18CreateFontEntitiesEPKcbR12TSimpleArrayIPS_ERbsS1_b, 
                       __ZN5TFont18CreateFontFileFontEPKcjbsS1_, __ZN5TFont18CreateInMemoryFontEiPKvmPK8__CFData, 
                       __ZN5TFont21FindFontNamePerScriptEPKc, __ZN5TFont25CreateFontEntitiesForFileEPKcbR12TSimpleArrayIPS_EbsS1_, 
                       __ZN5TFont31CreateFontEntitiesForDataStreamEiPKvmPK8__CFDataR12TSimpleArrayIPS_E, 
                       __ZN5TFont38GetRegistryOrderingSupplementPerScriptEtR10TStringRefS1_Ri, 
                       __ZN5TFontD0Ev, __ZN5TFontD1Ev, __ZN5TFontD2Ev, 
                       __ZN5THeapD0Ev, __ZN5THeapD1Ev, __ZN5THeapD2Ev, 
                       __ZN5TName14ParseAttributeEPK10__CFStringS2_, __ZN5TName5BuildEP8_xmlNode, 
                       __ZN5TNameD0Ev, __ZN5TNameD1Ev, __ZN5TNameD2Ev, 
                       __ZN5woff210kKnownTagsE, __ZN5woff211ReadBase128EPNS_6BufferEPj, 
                       __ZN5woff212_GLOBAL__N_115StoreTableEntryEPhjj, 
                       __ZN5woff212_GLOBAL__N_116StoreOffsetTableEPhmjt, 
                       __ZN5woff212_GLOBAL__N_14Pad4EPNS_8WOFF2OutE, __ZN5woff213Read255UShortEPNS_6BufferEPj, 
                       __ZN5woff214WOFF2StringOut5WriteEPKvm, __ZN5woff214WOFF2StringOut5WriteEPKvmm, 
                       __ZN5woff214WOFF2StringOutC1EPNSt3__112basic_stringIcNS1_11char_traitsIcEENS1_9allocatorIcEEEE, 
                       __ZN5woff215ComputeULongSumEPKhm, __ZN5woff217ConvertWOFF2ToTTFEPKhmPNS_8WOFF2OutE, 
                       __ZN5woff220CollectionHeaderSizeEjj, __ZN7TFPFontC2EPK5TFontPK10__CFString, 
                       __ZN7TFPFontC2ERKS_mPK15CGFontVariationlt, __ZN7TFPFontD0Ev, 
                       __ZN7TFPFontD1Ev, __ZN7TFPFontD2Ev, __ZN7TMatrix14ParseAttributeEPK10__CFStringS2_, 
                       __ZN7TMatrix5BuildEP8_xmlNode, __ZN7TMatrixD0Ev, 
                       __ZN7TMatrixD1Ev, __ZN7TMatrixD2Ev, __ZN7TStringD0Ev, 
                       __ZN7TStringD1Ev, __ZN7TStringD2Ev, __ZN8TElement14ParseAttributeEPK10__CFStringS2_, 
                       __ZN8TElement15ParseSubElementEP8_xmlNodePK10__CFString, 
                       __ZN8TElement18ParseAllAttributesEP8_xmlNode, __ZN8TElement5ParseEP8_xmlNode, 
                       __ZN8TMapChar14ParseAttributeEPK10__CFStringS2_, 
                       __ZN8TMapChar5BuildEP8_xmlNode, __ZN8TMapCharD0Ev, 
                       __ZN8TMapCharD1Ev, __ZN8TTTCDataC2ERK14TFileReference, 
                       __ZN8TTTCDataD0Ev, __ZN8TTTCDataD1Ev, __ZN9TBlendRecC2Ejj, 
                       __ZN9TBlendRecD1Ev, __ZN9TBlendRecD2Ev, __ZN9TCGAccess10CGRectZeroE, 
                       __ZN9TCGAccess10CGSizeZeroE, __ZN9TCGAccess12CGPathRetainE, 
                       __ZN9TCGAccess13CGPathIsEmptyE, __ZN9TCGAccess13CGPathReleaseE, 
                       __ZN9TCGAccess17CGPathMoveToPointE, __ZN9TCGAccess18CGPathCloseSubpathE, 
                       __ZN9TCGAccess19CGPathCreateMutableEv, __ZN9TCGAccess20CGPathAddLineToPointE, 
                       __ZN9TCGAccess20CGPathGetBoundingBoxE, __ZN9TCGAccess21CGPathAddCurveToPointE, 
                       __ZN9TCGAccess22CGFontIndexMapAddRangeEP14CGFontIndexMapttPKt, 
                       __ZN9TCGAccess22CGPathCreateMutablePtrE, __ZN9TCGAccess25CGAffineTransformIdentityE, 
                       __ZN9TCGAccess25CGFontIndexMapAddRangePtrE, __ZN9TCGAccess25CGPathAddQuadCurveToPointE, 
                       __ZN9TCGAccess34CGPathCreateByNormalizingGlyphPathE, 
                       __ZN9TCGAccess34CGPathCreateCopyByTransformingPathE, 
                       __ZN9TFONDDataD0Ev, __ZN9TFONDDataD1Ev, __ZN9TFONDDataD2Ev, 
                       __ZN9TFontDataD2Ev, __ZN9TFragmentC1ERK14MDataReferencei, 
                       __ZN9TFragmentC1ERKS_, __ZN9TFragmentC2ERK14MDataReferencei, 
                       __ZN9TFragmentC2ERKS_, __ZN9TFragmentD0Ev, __ZN9TFragmentD1Ev, 
                       __ZN9TFragmentD2Ev, __ZN9TFragmentaSERKS_, __ZN9TLanguage14ParseAttributeEPK10__CFStringS2_, 
                       __ZN9TLanguageD0Ev, __ZN9TLanguageD1Ev, __ZN9TLanguageD2Ev, 
                       __ZN9TSBITFont10IsSBITFontERK9TSFNTFont, __ZN9TSBITFontC1ERK9TSFNTFont, 
                       __ZN9TSBITFontC2ERK9TSFNTFont, __ZN9TSBITFontD0Ev, 
                       __ZN9TSBITFontD1Ev, __ZN9TSFNTData19SwitchFileReferenceERK14TFileReference, 
                       __ZN9TSFNTDataC1ERK14TFileReference, __ZN9TSFNTDataD0Ev, 
                       __ZN9TSFNTDataD1Ev, __ZN9TSFNTDataD2Ev, __ZN9TSFNTFontC2ERKS_, 
                       __ZN9TSFNTFontD0Ev, __ZN9TSFNTFontD1Ev, __ZN9TSFNTFontD2Ev, 
                       __ZN9TTracking14ParseAttributeEPK10__CFStringS2_, 
                       __ZN9TTrackingD0Ev, __ZN9TTrackingD1Ev, __ZN9TTrackingD2Ev, 
                       __ZN9Tos2TableC1ERK9TSFNTFont, __ZN9Tos2TableC2ERK9TSFNTFont, 
                       __ZN9Tos2TableD0Ev, __ZN9Tos2TableD1Ev, __ZNK10TToUnicode22GetToUnicodeDataStructEv, 
                       __ZNK10TType1Font10GetDescentEv, __ZNK10TType1Font10GetGlyphIDEPKc, 
                       __ZNK10TType1Font10GetLineGapEv, __ZNK10TType1Font10GetXHeightEv, 
                       __ZNK10TType1Font10MakeStringEi, __ZNK10TType1Font12GetCapHeightEv, 
                       __ZNK10TType1Font12GetCaretInfoERsS0_Rt, __ZNK10TType1Font12GetErectBBoxEv, 
                       __ZNK10TType1Font12GetGlyphNameEt, __ZNK10TType1Font12GetNumGlyphsEv, 
                       __ZNK10TType1Font12IsMonospacedEv, __ZNK10TType1Font13GetAvgAdvanceEv, 
                       __ZNK10TType1Font13GetCharStringEt, __ZNK10TType1Font13GetGlyphNamesER12TSimpleArrayI10TStringRefE, 
                       __ZNK10TType1Font13GetMaxAdvanceEv, __ZNK10TType1Font13GetUnitsPerEmEv, 
                       __ZNK10TType1Font14GetItalicAngleEv, __ZNK10TType1Font15ApplyFontMatrixEdd, 
                       __ZNK10TType1Font15VerifyGlyphNameEtPKc, __ZNK10TType1Font16CopyCharacterSetEv, 
                       __ZNK10TType1Font17GetPostscriptNameEv, __ZNK10TType1Font18GetVerticalMetricsERiS0_S0_S0_S0_S0_S0_S0_RdS1_S1_S1_, 
                       __ZNK10TType1Font19GetOS2UnicodeRangesEPjf, __ZNK10TType1Font19MakeInverseGlyphMapEv, 
                       __ZNK10TType1Font20GetHorizontalMetricsERiS0_S0_S0_S0_S0_S0_S0_S0_RbS1_RdS0_S0_S2_S2_S2_S2_RsS3_, 
                       __ZNK10TType1Font20GetUnderlinePositionEv, __ZNK10TType1Font21GetCharactersForGlyphEtPtm, 
                       __ZNK10TType1Font21GetMinLeftSideBearingEv, __ZNK10TType1Font21GetUnderlineThicknessEv, 
                       __ZNK10TType1Font22GetCharactersPerGlyphsEPKtPtm, 
                       __ZNK10TType1Font22GetGlyphsPerCharactersEPKtPtRjb, 
                       __ZNK10TType1Font22GetMinRightSideBearingEv, __ZNK10TType1Font27GetUniqueCharactersForGlyphEtPtm, 
                       __ZNK10TType1Font35GetPostScriptNameSuffixForVariationERK14TVariationsRefPc, 
                       __ZNK10TType1Font7GetBLNDEv, __ZNK10TType1Font7GetMMVREv, 
                       __ZNK10TType1Font7GetNameEtttt, __ZNK10TType1Font8GetNamesER12TSimpleArrayI15TFontNameStringE, 
                       __ZNK10TType1Font8GetStemHEv, __ZNK10TType1Font8GetStemVEv, 
                       __ZNK10TType1Font8IsItalicEv, __ZNK10TType1Font9GetAscentEv, 
                       __ZNK10TType1Font9GetBoundsERdS0_S0_S0_, __ZNK10TcmapTable6GetMapEv, 
                       __ZNK10TcmapTable9GetFormatEv, __ZNK10ThmtxTable10GetAdvanceEt, 
                       __ZNK10ThmtxTable13GetRawMetricsEtRs, __ZNK10TnameTable11GetAllNamesER12TSimpleArrayI15TFontNameStringE, 
                       __ZNK10TnameTable11GetNameHeadEv, __ZNK10TnameTable12GetSomeNamesER12TSimpleArrayI15TFontNameStringE, 
                       __ZNK10TnameTable17GetPostscriptNameEv, __ZNK10TnameTable22GetNameLengthAndOffsetEiRK17sfntNameRecord_BERm, 
                       __ZNK10TnameTable7GetNameEtttt, __ZNK10TnameTable8FindNameEtttt, 
                       __ZNK10TpostTable10GetGlyphIDEPKc, __ZNK10TpostTable12GetGlyphNameEt, 
                       __ZNK10TpostTable15VerifyGlyphNameEtPKc, __ZNK10TzapfTable12GetGlyphInfoEi, 
                       __ZNK10TzapfTable13LookupOffsetPEPK11LookupTablei, 
                       __ZNK10TzapfTable15MapToCharactersEtPtm, __ZNK10TzapfTable3MapEPKtPtRm, 
                       __ZNK11TwOFFStream11GetFontDataEim, __ZNK11TwOFFStream12CopyDataHaulEv, 
                       __ZNK11TwOFFStream7GetKindEv, __ZNK11TwOFFStream9GetFormatEv, 
                       __ZNK12MScalerCache12SetCacheDataEP10MCacheData, 
                       __ZNK12TCFFFontInfo10GetDataRefEjjR14MDataReference, 
                       __ZNK12TCFFFontInfo13EnumerateDictE6DictIDPvPFbPKhmtsS1_E, 
                       __ZNK12TCFFFontInfo15GetIndexedArrayEP13TCFFArrayInfojjRPhS3_, 
                       __ZNK12TCFFFontInfo17EnumerateFontDictE6DictIDPvPFbPKhmtsS1_E, 
                       __ZNK12TCFFFontInfo21EnumerateEncodingDictER14MDataReferencePFtPKS_S1_tEPvPFbPKhmtsS6_E, 
                       __ZNK12TCFFFontInfo24EnumerateDictAndDefaultsE6DictIDPvPFbPKhmtsS1_E, 
                       __ZNK12TCFFFontInfo25EnumerateFontDictDefaultsE6DictIDPvPFbPKhmtsS1_E, 
                       __ZNK12TCFFFontInfo29EnumerateCompiledEncodingDictER14MDataReferencePFtPKS_S1_tEPvPFbPKhmtsS6_E, 
                       __ZNK12TCFFFontInfo29SpecialGlyphIDToStringIDArrayER14MDataReferencePt, 
                       __ZNK12TCFFFontInfo9GetStringEtPc, __ZNK12TFontHandler14GetFontMetricsERiS0_S0_b, 
                       __ZNK12TType1Scaler16GetType1EncodingEPt, __ZNK12TwOFF2Stream7GetKindEv, 
                       __ZNK13MType1CIDFont15GetCIDGlyphNameEt, __ZNK13MType1CIDFont18GetCIDForGlyphNameEPKc, 
                       __ZNK13MType1CIDFont6GetROSEv, __ZNK13TBinarySearch14DoBinarySearchEt, 
                       __ZNK13TBinarySearch7DoRangeEttt, __ZNK13TFONDResource10GetFontRefEv, 
                       __ZNK13TFONDResource7GetKindEv, __ZNK13TNFNTFontInfo11GetNFNTDataEsPm, 
                       __ZNK13TOpenTypeFont10GetCFFDataEim, __ZNK13TOpenTypeFont10GetGlyphIDEPKc, 
                       __ZNK13TOpenTypeFont12GetGlyphNameEt, __ZNK13TOpenTypeFont13GetCharStringEt, 
                       __ZNK13TOpenTypeFont15VerifyGlyphNameEtPKc, __ZNK13TSBITWOFFFont10GetDescentEv, 
                       __ZNK13TSBITWOFFFont10GetLineGapEv, __ZNK13TSBITWOFFFont12GetCaretInfoERsS0_Rt, 
                       __ZNK13TSBITWOFFFont13GetAvgAdvanceEv, __ZNK13TSBITWOFFFont13GetMaxAdvanceEv, 
                       __ZNK13TSBITWOFFFont20GetHorizontalMetricsERiS0_S0_S0_S0_S0_S0_S0_S0_RbS1_RdS0_S0_S2_S2_S2_S2_RsS3_, 
                       __ZNK13TSBITWOFFFont8GetStemHEv, __ZNK13TSBITWOFFFont8GetStemVEv, 
                       __ZNK13TSBITWOFFFont9GetAscentEv, __ZNK13TSBITWOFFFont9GetBoundsERdS0_S0_S0_, 
                       __ZNK13TTrueTypeFont10GetGlyphIDEPKc, __ZNK13TTrueTypeFont12GetCJKScriptEv, 
                       __ZNK13TTrueTypeFont12GetGlyphNameEt, __ZNK13TTrueTypeFont16GetCIDsForGlyphsEPKtmPt, 
                       __ZNK13TTrueTypeFont16GetGlyphsForCIDsEPKtmPt, __ZNK13TTrueTypeFont29GetRegistryOrderingSupplementER10TStringRefS1_Ri, 
                       __ZNK13TTrueTypeFont35GetPostScriptNameSuffixForVariationERK14TVariationsRefPc, 
                       __ZNK13TcmapOverride25GetCmapOverrideDataStructEv, 
                       __ZNK14TDataReference11AddRefCountEv, __ZNK14TDataReference11DucRefCountEv, 
                       __ZNK14TDataReference7GetDataEv, __ZNK14TDataReference7GetSizeEv, 
                       __ZNK14TDataReferenceeqERKS_, __ZNK14TFontSurrogate12GetTablePartEjjjRj, 
                       __ZNK14TFontSurrogate13GetTableIndexEjPj, __ZNK14TFontSurrogate14GetTableOffsetEjPj, 
                       __ZNK14TFontSurrogate15FontTableExistsEj, __ZNK14TFontSurrogate16GetFontTableSizeEj, 
                       __ZNK14TFontSurrogate17GetTableDirectoryEv, __ZNK14TFontSurrogate21GetFontProtectionInfoEPj, 
                       __ZNK14TFontSurrogate8GetTableEjjPj, __ZNK14TFontSurrogate9GetFormatEv, 
                       __ZNK14TLWFNType1Font10GetDescentEv, __ZNK14TLWFNType1Font10GetFontRefEv, 
                       __ZNK14TLWFNType1Font10GetLineGapEv, __ZNK14TLWFNType1Font13GetCharStringEt, 
                       __ZNK14TLWFNType1Font16GetFontFamilyRefEv, __ZNK14TLWFNType1Font16GetVariationAxesERNSt3__16vectorI14TVariationAxisNS0_9allocatorIS2_EEEE, 
                       __ZNK14TLWFNType1Font21GetVariationInstancesERNSt3__16vectorI18TVariationInstanceNS0_9allocatorIS2_EEEE, 
                       __ZNK14TLWFNType1Font30FindGlyphNameForCustomEncodingEPKciRi, 
                       __ZNK14TLWFNType1Font7GetBLNDEv, __ZNK14TLWFNType1Font7GetHFMXEv, 
                       __ZNK14TLWFNType1Font7GetKindEv, __ZNK14TLWFNType1Font7GetMMVREv, 
                       __ZNK14TLWFNType1Font7GetNameEtttt, __ZNK14TLWFNType1Font8GetNamesER12TSimpleArrayI15TFontNameStringE, 
                       __ZNK14TLWFNType1Font9GetAscentEv, __ZNK14TSFNTType1Font10GetDescentEv, 
                       __ZNK14TSFNTType1Font10GetFontRefEv, __ZNK14TSFNTType1Font10GetLineGapEv, 
                       __ZNK14TSFNTType1Font12GetCaretInfoERsS0_Rt, __ZNK14TSFNTType1Font12GetSomeNamesER12TSimpleArrayI15TFontNameStringE, 
                       __ZNK14TSFNTType1Font13GetCharStringEt, __ZNK14TSFNTType1Font16CopyCharacterSetEv, 
                       __ZNK14TSFNTType1Font16GetFontFamilyRefEv, __ZNK14TSFNTType1Font16GetVariationAxesERNSt3__16vectorI14TVariationAxisNS0_9allocatorIS2_EEEE, 
                       __ZNK14TSFNTType1Font17GetPostscriptNameEv, __ZNK14TSFNTType1Font18HasValidGlyphNamesEv, 
                       __ZNK14TSFNTType1Font19GetOS2UnicodeRangesEPjf, 
                       __ZNK14TSFNTType1Font21GetCharactersForGlyphEtPtm, 
                       __ZNK14TSFNTType1Font21GetVariationInstancesERNSt3__16vectorI18TVariationInstanceNS0_9allocatorIS2_EEEE, 
                       __ZNK14TSFNTType1Font22GetCharactersPerGlyphsEPKtPtm, 
                       __ZNK14TSFNTType1Font22GetGlyphsPerCharactersEPKtPtRjb, 
                       __ZNK14TSFNTType1Font27GetUniqueCharactersForGlyphEtPtm, 
                       __ZNK14TSFNTType1Font7GetBLNDEv, __ZNK14TSFNTType1Font7GetHFMXEv, 
                       __ZNK14TSFNTType1Font7GetKindEv, __ZNK14TSFNTType1Font7GetMMVREv, 
                       __ZNK14TSFNTType1Font7GetNameEtttt, __ZNK14TSFNTType1Font7GetVFMXEv, 
                       __ZNK14TSFNTType1Font8GetNamesER12TSimpleArrayI15TFontNameStringE, 
                       __ZNK14TSFNTType1Font9GetAscentEv, __ZNK14TSFNTType1Font9GetRefConEv, 
                       __ZNK14TSFNTType1Font9GetT1DataEim, __ZNK14TType1DataFont13GetCharStringEt, 
                       __ZNK15TCFFFontSetInfo12GetArrayInfoER13TCFFArrayInfoj, 
                       __ZNK15TCFFFontSetInfo15GetFontDictInfoEPK13TCFFArrayInfotP16TCFFFontDictInfo, 
                       __ZNK15TCFFFontSetInfo21GetIndexedArrayOffsetER14MDataReferenceRK13TCFFArrayInfoj, 
                       __ZNK15TCFFFontSetInfo30GetIndexedArrayOffsetAndLengthERK13TCFFArrayInfojRjS3_, 
                       __ZNK15TCFFFontSetInfo7GetFontEPK13TCFFArrayInfotP12TCFFFontInfo, 
                       __ZNK15TFontNameString10DebugPrintEv, __ZNK15TGrowableBuffer20DeriveAllocationSizeEm, 
                       __ZNK15TParsingContext10GetEncHashEPKc, __ZNK15TParsingContext18GetType1DataOffsetEv, 
                       __ZNK15TSBITMemoryFont10GetDescentEv, __ZNK15TSBITMemoryFont10GetLineGapEv, 
                       __ZNK15TSBITMemoryFont12GetCaretInfoERsS0_Rt, __ZNK15TSBITMemoryFont13GetAvgAdvanceEv, 
                       __ZNK15TSBITMemoryFont13GetMaxAdvanceEv, __ZNK15TSBITMemoryFont20GetHorizontalMetricsERiS0_S0_S0_S0_S0_S0_S0_S0_RbS1_RdS0_S0_S2_S2_S2_S2_RsS3_, 
                       __ZNK15TSBITMemoryFont8GetStemHEv, __ZNK15TSBITMemoryFont8GetStemVEv, 
                       __ZNK15TSBITMemoryFont9GetAscentEv, __ZNK15TSBITMemoryFont9GetBoundsERdS0_S0_S0_, 
                       __ZNK15TTrueTypeScaler16GetType1EncodingEPt, __ZNK15TTrueTypeScaler24ParseType1EncodingStreamEPcmPt, 
                       __ZNK15TXMLSplicedFont10GetDescentEv, __ZNK15TXMLSplicedFont10GetFontRefEv, 
                       __ZNK15TXMLSplicedFont10GetGlyphIDEPKc, __ZNK15TXMLSplicedFont10GetLineGapEv, 
                       __ZNK15TXMLSplicedFont10GetXHeightEv, __ZNK15TXMLSplicedFont12GetCapHeightEv, 
                       __ZNK15TXMLSplicedFont12GetCaretInfoERsS0_Rt, __ZNK15TXMLSplicedFont12GetGlyphNameEt, 
                       __ZNK15TXMLSplicedFont12GetNumGlyphsEv, __ZNK15TXMLSplicedFont12GetSomeNamesER12TSimpleArrayI15TFontNameStringE, 
                       __ZNK15TXMLSplicedFont12IsMonospacedEv, __ZNK15TXMLSplicedFont13GetAvgAdvanceEv, 
                       __ZNK15TXMLSplicedFont13GetGlyphNamesER12TSimpleArrayI10TStringRefE, 
                       __ZNK15TXMLSplicedFont13GetMaxAdvanceEv, __ZNK15TXMLSplicedFont13GetUnitsPerEmEv, 
                       __ZNK15TXMLSplicedFont14GetItalicAngleEv, __ZNK15TXMLSplicedFont15VerifyGlyphNameEtPKc, 
                       __ZNK15TXMLSplicedFont16CopyCharacterSetEv, __ZNK15TXMLSplicedFont17GetPostscriptNameEv, 
                       __ZNK15TXMLSplicedFont18GetVerticalMetricsERiS0_S0_S0_S0_S0_S0_S0_RdS1_S1_S1_, 
                       __ZNK15TXMLSplicedFont19GetOS2UnicodeRangesEPjf, 
                       __ZNK15TXMLSplicedFont20GetHorizontalMetricsERiS0_S0_S0_S0_S0_S0_S0_S0_RbS1_RdS0_S0_S2_S2_S2_S2_RsS3_, 
                       __ZNK15TXMLSplicedFont20GetUnderlinePositionEv, 
                       __ZNK15TXMLSplicedFont21GetCharactersForGlyphEtPtm, 
                       __ZNK15TXMLSplicedFont21GetMinLeftSideBearingEv, 
                       __ZNK15TXMLSplicedFont21GetUnderlineThicknessEv, 
                       __ZNK15TXMLSplicedFont22GetCharactersPerGlyphsEPKtPtm, 
                       __ZNK15TXMLSplicedFont22GetGlyphsPerCharactersEPKtPtRjb, 
                       __ZNK15TXMLSplicedFont22GetMinRightSideBearingEv, 
                       __ZNK15TXMLSplicedFont27GetUniqueCharactersForGlyphEtPtm, 
                       __ZNK15TXMLSplicedFont7GetKindEv, __ZNK15TXMLSplicedFont7GetNameEtttt, 
                       __ZNK15TXMLSplicedFont8GetNamesER12TSimpleArrayI15TFontNameStringE, 
                       __ZNK15TXMLSplicedFont8GetStemHEv, __ZNK15TXMLSplicedFont8GetStemVEv, 
                       __ZNK15TXMLSplicedFont8IsItalicEv, __ZNK15TXMLSplicedFont9GetAscentEv, 
                       __ZNK15TXMLSplicedFont9GetBoundsERdS0_S0_S0_, __ZNK16TOpenTypeCIDFont10GetFDIndexEt, 
                       __ZNK16TOpenTypeCIDFont10GetGlyphIDEPKc, __ZNK16TOpenTypeCIDFont12GetGlyphNameEt, 
                       __ZNK16TOpenTypeCIDFont13GetCharStringEt, __ZNK16TOpenTypeCIDFont13GetLocalSubrsEhRtS0_S0_Rm, 
                       __ZNK16TOpenTypeCIDFont14GetCIDSubrDataEtRtS0_Rm, 
                       __ZNK16TOpenTypeCIDFont16GetCIDsForGlyphsEPKtmPt, 
                       __ZNK16TOpenTypeCIDFont16GetGlyphsForCIDsEPKtmPt, 
                       __ZNK16TOpenTypeCIDFont17GetLocalParseDataEt, __ZNK16TOpenTypeCIDFont29GetRegistryOrderingSupplementER10TStringRefS1_Ri, 
                       __ZNK16TOpenTypeCIDFont6GetCIDEt, __ZNK16TType1MemoryFont10GetFontRefEv, 
                       __ZNK16TType1MemoryFont7GetKindEv, __ZNK17TFormat0cmapTable3MapERPKhjPtRj, 
                       __ZNK17TFormat14UVSTable3MapEiiPt, __ZNK17TFormat2cmapTable16DecomposeMacCmapEPhjPmPtRm, 
                       __ZNK17TFormat2cmapTable3MapERPKhjPtRjt, __ZNK17TFormat4cmapTable16DecomposeMacCmapEPhjPmPtRm, 
                       __ZNK17TFormat4cmapTable3MapERPKhjPtRjt, __ZNK17TFormat6cmapTable10VerifyCMAPEv, 
                       __ZNK17TFormat6cmapTable3MapERPKhjPtRjt, __ZNK17TOpenTypeWOFFFont7GetKindEv, 
                       __ZNK17TParserDictionary12ResetParsingER15TParsingContext, 
                       __ZNK17TParserDictionary25CommenceDictionaryParsingER15TParsingContext, 
                       __ZNK17TSBITDataForkFont10GetDescentEv, __ZNK17TSBITDataForkFont10GetLineGapEv, 
                       __ZNK17TSBITDataForkFont12GetCaretInfoERsS0_Rt, 
                       __ZNK17TSBITDataForkFont13GetAvgAdvanceEv, __ZNK17TSBITDataForkFont13GetMaxAdvanceEv, 
                       __ZNK17TSBITDataForkFont20GetHorizontalMetricsERiS0_S0_S0_S0_S0_S0_S0_S0_RbS1_RdS0_S0_S2_S2_S2_S2_RsS3_, 
                       __ZNK17TSBITDataForkFont8GetStemHEv, __ZNK17TSBITDataForkFont8GetStemVEv, 
                       __ZNK17TSBITDataForkFont9GetAscentEv, __ZNK17TSBITDataForkFont9GetBoundsERdS0_S0_S0_, 
                       __ZNK17TSBITResourceFont10GetDescentEv, __ZNK17TSBITResourceFont10GetLineGapEv, 
                       __ZNK17TSBITResourceFont12GetCaretInfoERsS0_Rt, 
                       __ZNK17TSBITResourceFont13GetAvgAdvanceEv, __ZNK17TSBITResourceFont13GetMaxAdvanceEv, 
                       __ZNK17TSBITResourceFont20GetHorizontalMetricsERiS0_S0_S0_S0_S0_S0_S0_S0_RbS1_RdS0_S0_S2_S2_S2_S2_RsS3_, 
                       __ZNK17TSBITResourceFont8GetStemHEv, __ZNK17TSBITResourceFont8GetStemVEv, 
                       __ZNK17TSBITResourceFont9GetAscentEv, __ZNK17TSBITResourceFont9GetBoundsERdS0_S0_S0_, 
                       __ZNK17TSFNTCIDType1Font10GetDescentEv, __ZNK17TSFNTCIDType1Font10GetFontRefEv, 
                       __ZNK17TSFNTCIDType1Font10GetGlyphIDEPKc, __ZNK17TSFNTCIDType1Font10GetLineGapEv, 
                       __ZNK17TSFNTCIDType1Font12GetCaretInfoERsS0_Rt, 
                       __ZNK17TSFNTCIDType1Font12GetGlyphNameEt, __ZNK17TSFNTCIDType1Font12GetSomeNamesER12TSimpleArrayI15TFontNameStringE, 
                       __ZNK17TSFNTCIDType1Font13GetCharStringEt, __ZNK17TSFNTCIDType1Font14GetCIDSubrDataEtRtS0_Rm, 
                       __ZNK17TSFNTCIDType1Font15VerifyGlyphNameEtPKc, 
                       __ZNK17TSFNTCIDType1Font16CopyCharacterSetEv, __ZNK17TSFNTCIDType1Font16GetCIDsForGlyphsEPKtmPt, 
                       __ZNK17TSFNTCIDType1Font16GetFontFamilyRefEv, __ZNK17TSFNTCIDType1Font16GetGlyphsForCIDsEPKtmPt, 
                       __ZNK17TSFNTCIDType1Font17GetPostscriptNameEv, __ZNK17TSFNTCIDType1Font18HasValidGlyphNamesEv, 
                       __ZNK17TSFNTCIDType1Font19GetOS2UnicodeRangesEPjf, 
                       __ZNK17TSFNTCIDType1Font21GetCharactersForGlyphEtPtm, 
                       __ZNK17TSFNTCIDType1Font22GetCharactersPerGlyphsEPKtPtm, 
                       __ZNK17TSFNTCIDType1Font22GetGlyphsPerCharactersEPKtPtRjb, 
                       __ZNK17TSFNTCIDType1Font25GetAlternateMetricsParamsERtRsS1_S1_S1_RbS1_S1_S1_S1_S1_, 
                       __ZNK17TSFNTCIDType1Font27GetUniqueCharactersForGlyphEtPtm, 
                       __ZNK17TSFNTCIDType1Font29GetRegistryOrderingSupplementER10TStringRefS1_Ri, 
                       __ZNK17TSFNTCIDType1Font7GetKindEv, __ZNK17TSFNTCIDType1Font7GetNameEtttt, 
                       __ZNK17TSFNTCIDType1Font8GetNamesER12TSimpleArrayI15TFontNameStringE, 
                       __ZNK17TSFNTCIDType1Font9GetAscentEv, __ZNK17TSFNTCIDType1Font9GetRefConEv, 
                       __ZNK17TSFNTCIDType1Font9GetT1DataEim, __ZNK17TSFNTOpenTypeFont10GetCFFDataEim, 
                       __ZNK17TSFNTOpenTypeFont10GetDescentEv, __ZNK17TSFNTOpenTypeFont10GetGlyphIDEPKc, 
                       __ZNK17TSFNTOpenTypeFont10GetLineGapEv, __ZNK17TSFNTOpenTypeFont10GetXHeightEv, 
                       __ZNK17TSFNTOpenTypeFont12GetCapHeightEv, __ZNK17TSFNTOpenTypeFont12GetCaretInfoERsS0_Rt, 
                       __ZNK17TSFNTOpenTypeFont12GetGlyphNameEt, __ZNK17TSFNTOpenTypeFont12GetNumGlyphsEv, 
                       __ZNK17TSFNTOpenTypeFont12GetSomeNamesER12TSimpleArrayI15TFontNameStringE, 
                       __ZNK17TSFNTOpenTypeFont12IsMonospacedEv, __ZNK17TSFNTOpenTypeFont13GetAvgAdvanceEv, 
                       __ZNK17TSFNTOpenTypeFont13GetMaxAdvanceEv, __ZNK17TSFNTOpenTypeFont14GetItalicAngleEv, 
                       __ZNK17TSFNTOpenTypeFont15VerifyGlyphNameEtPKc, 
                       __ZNK17TSFNTOpenTypeFont16CopyCharacterSetEv, __ZNK17TSFNTOpenTypeFont17GetPostscriptNameEv, 
                       __ZNK17TSFNTOpenTypeFont18HasValidGlyphNamesEv, 
                       __ZNK17TSFNTOpenTypeFont19GetOS2UnicodeRangesEPjf, 
                       __ZNK17TSFNTOpenTypeFont20GetUnderlinePositionEv, 
                       __ZNK17TSFNTOpenTypeFont21GetCharactersForGlyphEtPtm, 
                       __ZNK17TSFNTOpenTypeFont21GetMinLeftSideBearingEv, 
                       __ZNK17TSFNTOpenTypeFont21GetUnderlineThicknessEv, 
                       __ZNK17TSFNTOpenTypeFont22GetCharactersPerGlyphsEPKtPtm, 
                       __ZNK17TSFNTOpenTypeFont22GetGlyphsPerCharactersEPKtPtRjb, 
                       __ZNK17TSFNTOpenTypeFont22GetMinRightSideBearingEv, 
                       __ZNK17TSFNTOpenTypeFont27GetUniqueCharactersForGlyphEtPtm, 
                       __ZNK17TSFNTOpenTypeFont7GetHFMXEv, __ZNK17TSFNTOpenTypeFont7GetNameEtttt, 
                       __ZNK17TSFNTOpenTypeFont7GetVFMXEv, __ZNK17TSFNTOpenTypeFont8GetNamesER12TSimpleArrayI15TFontNameStringE, 
                       __ZNK17TSFNTOpenTypeFont8GetStemHEv, __ZNK17TSFNTOpenTypeFont8GetStemVEv, 
                       __ZNK17TSFNTOpenTypeFont8IsItalicEv, __ZNK17TSFNTOpenTypeFont9GetAscentEv, 
                       __ZNK17TSFNTOpenTypeFont9GetBoundsERdS0_S0_S0_, 
                       __ZNK17TTrueTypeWOFFFont7GetKindEv, __ZNK17TType1FontHandler12DeriveBoundsER19TInterpreterContexttRdS2_S2_S2_b, 
                       __ZNK17TType1FontHandler12GetNumGlyphsEv, __ZNK17TType1FontHandler12ParseOutlineEtR22TType1RenderingContext, 
                       __ZNK17TType1FontHandler13DeriveAdvanceER19TInterpreterContexttb, 
                       __ZNK17TType1FontHandler16DeriveRawMetricsER19TInterpreterContexttRsb, 
                       __ZNK17TType1FontHandler21CalculateH2VTranslateERK22TType1RenderingContext, 
                       __ZNK17TType1FontHandler23DeriveVerticalTranslateER19TInterpreterContextt, 
                       __ZNK17TType1FontHandler9GetRandomEv, __ZNK17TcmapUnicodeTable14FillInverseMapEPjP14__CFDictionarym, 
                       __ZNK17TcmapUnicodeTable16CopyCharacterSetEtP17TOS2UnicodeRanges, 
                       __ZNK17TcmapUnicodeTable21GetCharactersForGlyphEPjPK14__CFDictionaryttPtm, 
                       __ZNK17TcmapUnicodeTable27GetUniqueCharactersForGlyphEPjPK14__CFDictionaryttPtm, 
                       __ZNK17TcmapUnicodeTable3MapEPKtPtRj, __ZNK18TCFFParsingContext18GetType1DataOffsetEv, 
                       __ZNK18TFileDataSurrogate11GetDataSizeEv, __ZNK18TFileDataSurrogate11GetFileSizeEv, 
                       __ZNK18TFileDataSurrogate16GetDataReferenceEim, 
                       __ZNK18TType1FileDataFont10GetFontRefEv, __ZNK18TType1FileDataFont7GetKindEv, 
                       __ZNK18TcmapEncodingTable10MapFormat4ERK14TcmapTableDataRPKhjPtRj, 
                       __ZNK18TcmapEncodingTable10MapFormat6ERK14TcmapTableDataRPKhjPtRj, 
                       __ZNK18TcmapEncodingTable21GetCharactersForGlyphEPjPK14__CFDictionaryttPtm, 
                       __ZNK18TcmapEncodingTable27GetUniqueCharactersForGlyphEPjPK14__CFDictionaryttPtm, 
                       __ZNK18TcmapEncodingTable3MapERPKhjPtRj, __ZNK19TConcreteFontScaler13CopyGlyphPathEtPK17CGAffineTransform, 
                       __ZNK19TConcreteFontScaler15CopyGlyphBitmapEtjP6CGRectPm, 
                       __ZNK19TConcreteFontScaler16GetGlyphFromNameEPKcm, 
                       __ZNK19TConcreteFontScaler16StreamPSDownloadEPjPKvPKcS4_PKjPKtbS8_P9__CFArray, 
                       __ZNK19TConcreteFontScaler16StreamPSEncodingEPjPKvPKjPKt, 
                       __ZNK19TConcreteFontScaler18GetVariationScalarEs, 
                       __ZNK19TConcreteFontScaler18StreamingTypeQueryEPj, 
                       __ZNK19TConcreteFontScaler19GetGlyphIdealBoundsEt, 
                       __ZNK19TConcreteFontScaler20GetGlyphDeviceBoundsEt, 
                       __ZNK19TConcreteFontScaler20GetGlyphIdealMetricsEtP6CGSizeS1_S1_, 
                       __ZNK19TConcreteFontScaler21GetGlyphDeviceAdvanceEt, 
                       __ZNK19TConcreteFontScaler21GetGlyphDeviceMetricsEtP6CGSizeS1_S1_P6CGRect, 
                       __ZNK19TConcreteFontScaler25GetGlyphIdealAdvanceWidthEt, 
                       __ZNK19TConcreteFontScaler31GetGlyphDeviceVerticalTranslateEt, 
                       __ZNK19TInterpreterContext12GetBuildCharEv, __ZNK19TOpenTypeMemoryFont10GetFontRefEv, 
                       __ZNK19TOpenTypeMemoryFont7GetKindEv, __ZNK19TTrueTypeMemoryFont10GetFontRefEv, 
                       __ZNK19TTrueTypeMemoryFont7GetKindEv, __ZNK19TTrueTypeMemoryFont8GetTableEjRm, 
                       __ZNK19TTrueTypeMemoryFont8GotTableEj, __ZNK19TType1CFFDescriptor10GetCFFDataEiRm, 
                       __ZNK19TType1CFFDescriptor8IsCFFCIDEv, __ZNK19TType1CFFDescriptor9IsCFFTYP1Ev, 
                       __ZNK20TGlyphOutlineContext12CubicCurveToEdddddd, 
                       __ZNK20TGlyphOutlineContext15QuadaticCurveToEdddd, 
                       __ZNK20TGlyphOutlineContext6LineToEdd, __ZNK20TGlyphOutlineContext6MoveToEdd, 
                       __ZNK20TGlyphOutlineContext7EndPathEv, __ZNK20TGlyphOutlineContext7NewPathEt, 
                       __ZNK20TOpenTypeCIDWOFFFont7GetKindEv, __ZNK20TSFNTOpenTypeCIDFont10GetCFFDataEim, 
                       __ZNK20TSFNTOpenTypeCIDFont10GetDescentEv, __ZNK20TSFNTOpenTypeCIDFont10GetGlyphIDEPKc, 
                       __ZNK20TSFNTOpenTypeCIDFont10GetLineGapEv, __ZNK20TSFNTOpenTypeCIDFont10GetXHeightEv, 
                       __ZNK20TSFNTOpenTypeCIDFont12GetCapHeightEv, __ZNK20TSFNTOpenTypeCIDFont12GetCaretInfoERsS0_Rt, 
                       __ZNK20TSFNTOpenTypeCIDFont12GetGlyphNameEt, __ZNK20TSFNTOpenTypeCIDFont12GetNumGlyphsEv, 
                       __ZNK20TSFNTOpenTypeCIDFont12GetSomeNamesER12TSimpleArrayI15TFontNameStringE, 
                       __ZNK20TSFNTOpenTypeCIDFont12IsMonospacedEv, __ZNK20TSFNTOpenTypeCIDFont13GetAvgAdvanceEv, 
                       __ZNK20TSFNTOpenTypeCIDFont13GetMaxAdvanceEv, __ZNK20TSFNTOpenTypeCIDFont14GetItalicAngleEv, 
                       __ZNK20TSFNTOpenTypeCIDFont15VerifyGlyphNameEtPKc, 
                       __ZNK20TSFNTOpenTypeCIDFont16CopyCharacterSetEv, 
                       __ZNK20TSFNTOpenTypeCIDFont16GetGlyphsForCIDsEPKtmPt, 
                       __ZNK20TSFNTOpenTypeCIDFont17GetPostscriptNameEv, 
                       __ZNK20TSFNTOpenTypeCIDFont18HasValidGlyphNamesEv, 
                       __ZNK20TSFNTOpenTypeCIDFont19GetOS2UnicodeRangesEPjf, 
                       __ZNK20TSFNTOpenTypeCIDFont20GetUnderlinePositionEv, 
                       __ZNK20TSFNTOpenTypeCIDFont21GetCharactersForGlyphEtPtm, 
                       __ZNK20TSFNTOpenTypeCIDFont21GetMinLeftSideBearingEv, 
                       __ZNK20TSFNTOpenTypeCIDFont21GetUnderlineThicknessEv, 
                       __ZNK20TSFNTOpenTypeCIDFont22GetCharactersPerGlyphsEPKtPtm, 
                       __ZNK20TSFNTOpenTypeCIDFont22GetGlyphsPerCharactersEPKtPtRjb, 
                       __ZNK20TSFNTOpenTypeCIDFont22GetMinRightSideBearingEv, 
                       __ZNK20TSFNTOpenTypeCIDFont27GetUniqueCharactersForGlyphEtPtm, 
                       __ZNK20TSFNTOpenTypeCIDFont29GetRegistryOrderingSupplementER10TStringRefS1_Ri, 
                       __ZNK20TSFNTOpenTypeCIDFont6GetCIDEt, __ZNK20TSFNTOpenTypeCIDFont7GetHFMXEv, 
                       __ZNK20TSFNTOpenTypeCIDFont7GetNameEtttt, __ZNK20TSFNTOpenTypeCIDFont7GetVFMXEv, 
                       __ZNK20TSFNTOpenTypeCIDFont8GetNamesER12TSimpleArrayI15TFontNameStringE, 
                       __ZNK20TSFNTOpenTypeCIDFont8GetStemHEv, __ZNK20TSFNTOpenTypeCIDFont8GetStemVEv, 
                       __ZNK20TSFNTOpenTypeCIDFont8IsItalicEv, __ZNK20TSFNTOpenTypeCIDFont9GetAscentEv, 
                       __ZNK20TSFNTOpenTypeCIDFont9GetBoundsERdS0_S0_S0_, 
                       __ZNK20TTrueTypeFontHandler10GetAdvanceEtb, __ZNK20TTrueTypeFontHandler11RenderGlyphEtR27TTrueTypeQuadOutlineContextjPb, 
                       __ZNK20TTrueTypeFontHandler12GetNumGlyphsEv, __ZNK20TTrueTypeFontHandler12ParseOutlineEtR27TTrueTypeQuadOutlineContextPb, 
                       __ZNK20TTrueTypeFontHandler13GetRawMetricsEtRsb, 
                       __ZNK20TTrueTypeFontHandler14GetOutlinePathEtRK18TGlyphOutlineBatchPb, 
                       __ZNK20TTrueTypeFontHandler16TGlyphHeaderData7GetHeadEv, 
                       __ZNK20TTrueTypeFontHandler21GetHorizontalAdvancesEPKtPdm, 
                       __ZNK20TTrueTypeFontHandler32GetHorizontalToVerticalTranslateEt, 
                       __ZNK20TTrueTypeFontHandler9GetBoundsEtRdS0_S0_S0_b, 
                       __ZNK21ParserBlendDictionary12ResetParsingER15TParsingContext, 
                       __ZNK21TFileFragmentCachable10DebugPrintEi, __ZNK21TFormat4_816cmapTable3MapERPKhjPtRjt, 
                       __ZNK21TFormat6_816cmapTable3MapERPKhjPtRjt, __ZNK21TGrowableBlocksBuffer20DeriveAllocationSizeEm, 
                       __ZNK21TOpenTypeDataForkFont10GetFontRefEv, __ZNK21TOpenTypeDataForkFont7GetKindEv, 
                       __ZNK21TOpenTypeDataForkFont9GetRefConEv, __ZNK21TOpenTypeFileDataFont10GetFontRefEv, 
                       __ZNK21TOpenTypeFileDataFont7GetKindEv, __ZNK21TTrueTypeDataForkFont10GetFontRefEv, 
                       __ZNK21TTrueTypeDataForkFont7GetKindEv, __ZNK21TTrueTypeDataForkFont9GetRefConEv, 
                       __ZNK21TTrueTypeResourceFont10GetFontRefEv, __ZNK21TTrueTypeResourceFont11GetNFNTInfoER13TNFNTFontInfo, 
                       __ZNK21TTrueTypeResourceFont13GetQDEncodingEtttPt, 
                       __ZNK21TTrueTypeResourceFont16GetFontFamilyRefEv, 
                       __ZNK21TTrueTypeResourceFont17GetPostscriptNameEv, 
                       __ZNK21TTrueTypeResourceFont7GetKindEv, __ZNK21TTrueTypeResourceFont9GetRefConEv, 
                       __ZNK22TFileFragmentReference11GetFileDataEim, __ZNK22TFileFragmentReference17IsFileFragmentRefEv, 
                       __ZNK22TFormat4UTF16cmapTable14FillInverseMapEPjP14__CFDictionarym, 
                       __ZNK22TFormat4UTF16cmapTable16CopyCharacterSetEtP17TOS2UnicodeRanges, 
                       __ZNK22TFormat4UTF16cmapTable3MapEPKtPtRj, __ZNK22TFormat6UTF16cmapTable14FillInverseMapEPjP14__CFDictionarym, 
                       __ZNK22TFormat6UTF16cmapTable16CopyCharacterSetEtP17TOS2UnicodeRanges, 
                       __ZNK22TFormat6UTF16cmapTable3MapEPKtPtRj, __ZNK22TFormat8UTF16cmapTable16CopyCharacterSetEtP17TOS2UnicodeRanges, 
                       __ZNK22TFormat8UTF16cmapTable3MapEPKtPtRj, __ZNK22TInMemoryDataReference11GetDataSizeEv, 
                       __ZNK22TInMemoryDataReference11GetFileSizeEv, __ZNK22TInMemoryDataReference16GetDataReferenceEim, 
                       __ZNK22TOpenTypeCFFMemoryFont10GetFontRefEv, __ZNK22TOpenTypeCFFMemoryFont7GetKindEv, 
                       __ZNK22TOpenTypeCIDMemoryFont10GetFontRefEv, __ZNK22TOpenTypeCIDMemoryFont7GetKindEv, 
                       __ZNK22TType1RenderingContext10EndContourEv, __ZNK22TType1RenderingContext12BoundsExtendERK7TVector, 
                       __ZNK22TType1RenderingContext6LineToERK7TVector, 
                       __ZNK22TType1RenderingContext6MoveToERK7TVector, 
                       __ZNK22TType1RenderingContext7CurveToERK7TVectorS2_S2_, 
                       __ZNK22Type1ProtectionContext17IsDoublyEncryptedEv, 
                       __ZNK23TFormat10UTF16cmapTable14FillInverseMapEPjP14__CFDictionarym, 
                       __ZNK23TFormat10UTF16cmapTable16CopyCharacterSetEtP17TOS2UnicodeRanges, 
                       __ZNK23TFormat10UTF16cmapTable3MapEPKtPtRj, __ZNK23TFormat12UTF16cmapTable3MapEPKtPtRj, 
                       __ZNK23TFormat13UTF16cmapTable3MapEPKtPtRj, __ZNK23TType1GlyphOutlineBatch12CubicCurveToEdddddd, 
                       __ZNK23TType1GlyphOutlineBatch15QuadaticCurveToEdddd, 
                       __ZNK23TType1GlyphOutlineBatch6LineToEdd, __ZNK23TType1GlyphOutlineBatch6MoveToEdd, 
                       __ZNK23TType1GlyphOutlineBatch7EndPathEv, __ZNK23TType1GlyphOutlineBatch7NewPathEt, 
                       __ZNK24TOpenTypeCIDDataForkFont10GetFontRefEv, __ZNK24TOpenTypeCIDDataForkFont7GetKindEv, 
                       __ZNK24TOpenTypeCIDDataForkFont9GetRefConEv, __ZNK24TOpenTypeCIDFileDataFont10GetFontRefEv, 
                       __ZNK24TOpenTypeCIDFileDataFont7GetKindEv, __ZNK24TParserPrivateDictionary12ResetParsingER15TParsingContext, 
                       __ZNK24TTrueTypeFontDataHandler12GetGlyphDataEtRm, 
                       __ZNK24TTrueTypeFontDataHandler25GetHorizontalMetricsTableEv, 
                       __ZNK25TOpenTypeCFFCIDMemoryFont10GetFontRefEv, 
                       __ZNK25TOpenTypeCFFCIDMemoryFont7GetKindEv, __ZNK25TType1CubicOutlineContext6LineToERK7TVector, 
                       __ZNK25TType1CubicOutlineContext6MoveToERK7TVector, 
                       __ZNK25TType1CubicOutlineContext7CurveToERK7TVectorS2_S2_, 
                       __ZNK25TType1CubicOutlineContext7EndPathEv, __ZNK25TType1CubicOutlineContext7NewPathEt, 
                       __ZNK26TResourceFileDataReference16GetDataReferenceEim, 
                       __ZNK26TResourceFileDataSurrogate11GetDataSizeEv, 
                       __ZNK26TResourceFileDataSurrogate11GetFileSizeEv, 
                       __ZNK26TResourceFileDataSurrogate16GetDataReferenceEim, 
                       __ZNK26TResourceFileDataSurrogate7GetPathEv, __ZNK26TResourceForkFileReference11GetResourceEjsPmPh, 
                       __ZNK26TResourceForkFileReference14IsResourceFileEv, 
                       __ZNK26TResourceForkFileReference16GetNamedResourceEjPKhPsPm, 
                       __ZNK26TResourceForkFileReference16GetResourceCountEj, 
                       __ZNK26TResourceForkFileReference18GetIndexedResourceEjjPsPmPh, 
                       __ZNK27TTrueTypeQuadOutlineContext6LineToERK6TPoint, 
                       __ZNK27TTrueTypeQuadOutlineContext6MoveToERK6TPoint, 
                       __ZNK27TTrueTypeQuadOutlineContext7CurveToERK6TPointS2_, 
                       __ZNK27TTrueTypeQuadOutlineContext7GetKindEv, __ZNK28ParserPrivateBlendDictionary12ResetParsingER15TParsingContext, 
                       __ZNK28TTrueTypeFontLongDataHandler12GetGlyphDataEtRm, 
                       __ZNK30TGlyphNameToUnicodeTaxisLookup11GetUnicodesEPKcPj, 
                       __ZNK32TType1FontType1CharStringHandler10GetAdvanceEtb, 
                       __ZNK32TType1FontType1CharStringHandler11ProcessSEACEiiittR22TType1RenderingContext, 
                       __ZNK32TType1FontType1CharStringHandler13GetRawMetricsEtRsb, 
                       __ZNK32TType1FontType1CharStringHandler14GetFontMetricsERiS0_S0_b, 
                       __ZNK32TType1FontType1CharStringHandler14GetOutlinePathEtRK18TGlyphOutlineBatchPb, 
                       __ZNK32TType1FontType1CharStringHandler20InterpreteCharStringERK11TCharStringR22TType1RenderingContext, 
                       __ZNK32TType1FontType1CharStringHandler21GetHorizontalAdvancesEPKtPdm, 
                       __ZNK32TType1FontType1CharStringHandler26GetStandardEncodingGlyphIDEh, 
                       __ZNK32TType1FontType1CharStringHandler32GetHorizontalToVerticalTranslateEt, 
                       __ZNK32TType1FontType1CharStringHandler5BlendEPiti, 
                       __ZNK32TType1FontType1CharStringHandler9GetBoundsEtRdS0_S0_S0_b, 
                       __ZNK32TType1FontType2CharStringHandler10GetAdvanceEtb, 
                       __ZNK32TType1FontType2CharStringHandler11ProcessSEACEiittR22TType1RenderingContext, 
                       __ZNK32TType1FontType2CharStringHandler12ParseOutlineEtR22TType1RenderingContext, 
                       __ZNK32TType1FontType2CharStringHandler13GetRawMetricsEtRsb, 
                       __ZNK32TType1FontType2CharStringHandler14GetOutlinePathEtRK18TGlyphOutlineBatchPb, 
                       __ZNK32TType1FontType2CharStringHandler20InterpreteCharStringERK11TCharStringR22TType1RenderingContext, 
                       __ZNK32TType1FontType2CharStringHandler21GetHorizontalAdvancesEPKtPdm, 
                       __ZNK32TType1FontType2CharStringHandler26GetStandardEncodingGlyphIDEh, 
                       __ZNK32TType1FontType2CharStringHandler32GetHorizontalToVerticalTranslateEt, 
                       __ZNK32TType1FontType2CharStringHandler9GetBoundsEtRdS0_S0_S0_b, 
                       __ZNK33TType1FontType13CharStringHandler20InterpreteCharStringERK11TCharStringR22TType1RenderingContext, 
                       __ZNK35TType1CIDFontType1CharStringHandler10GetAdvanceEtb, 
                       __ZNK35TType1CIDFontType1CharStringHandler13GetRawMetricsEtRsb, 
                       __ZNK35TType1CIDFontType1CharStringHandler14GetOutlinePathEtRK18TGlyphOutlineBatchPb, 
                       __ZNK35TType1CIDFontType1CharStringHandler9GetBoundsEtRdS0_S0_S0_b, 
                       __ZNK35TType1FontType2CIDCharStringHandler10GetAdvanceEtb, 
                       __ZNK35TType1FontType2CIDCharStringHandler13GetRawMetricsEtRsb, 
                       __ZNK35TType1FontType2CIDCharStringHandler14GetOutlinePathEtRK18TGlyphOutlineBatchPb, 
                       __ZNK35TType1FontType2CIDCharStringHandler21GetHorizontalAdvancesEPKtPdm, 
                       __ZNK35TType1FontType2CIDCharStringHandler32GetHorizontalToVerticalTranslateEt, 
                       __ZNK35TType1FontType2CIDCharStringHandler9GetBoundsEtRdS0_S0_S0_b, 
                       __ZNK38TTrueTypeTransformedQuadOutlineContext19ScaleTransformPointERK6TPoint, 
                       __ZNK38TTrueTypeTransformedQuadOutlineContext20AffineTransformPointERK6TPoint, 
                       __ZNK38TTrueTypeTransformedQuadOutlineContext23TranslateTransformPointERK6TPoint, 
                       __ZNK38TTrueTypeTransformedQuadOutlineContext6LineToERK6TPoint, 
                       __ZNK38TTrueTypeTransformedQuadOutlineContext6MoveToERK6TPoint, 
                       __ZNK38TTrueTypeTransformedQuadOutlineContext7CurveToERK6TPointS2_, 
                       __ZNK38TTrueTypeTransformedQuadOutlineContext7GetKindEv, 
                       __ZNK5TFont11GetNFNTInfoER13TNFNTFontInfo, __ZNK5TFont16GetCIDsForGlyphsEPKtmPt, 
                       __ZNK5TFont16GetGlyphsForCIDsEPKtmPt, __ZNK5TFont16GetVariationAxesERNSt3__16vectorI14TVariationAxisNS0_9allocatorIS2_EEEE, 
                       __ZNK5TFont20GetGlyphOutlineCacheEP14TVariationsRef, 
                       __ZNK5TFont21GetVariationInstancesERNSt3__16vectorI18TVariationInstanceNS0_9allocatorIS2_EEEE, 
                       __ZNK5TFont29GetRegistryOrderingSupplementER10TStringRefS1_Ri, 
                       __ZNK5TFont35GetPostScriptNameSuffixForVariationERK14TVariationsRefPc, 
                       __ZNK5TFont7GetHashEv, __ZNK5TFonteqERKS_, __ZNK7TFPFont10GetHandlerERK14TVariationsRef, 
                       __ZNK7TFPFont11GetFontInfoEv, __ZNK7TFPFont11GetVMetricsER14FPFontVMetrics, 
                       __ZNK7TFPFont12CopyFontNameEtPNSt3__16vectorI18TVariationInstanceNS0_9allocatorIS2_EEEE, 
                       __ZNK7TFPFont12CopyMetadataEv, __ZNK7TFPFont12FillFontInfoER10FPFontInfo, 
                       __ZNK7TFPFont12FillVMetricsER14FPFontVMetrics, __ZNK7TFPFont12GetTableTagsEv, 
                       __ZNK7TFPFont12IsBitmapOnlyEv, __ZNK7TFPFont13CopyFontNamesEv, 
                       __ZNK7TFPFont13CopyTableTagsEv, __ZNK7TFPFont16CopyAllFontNamesEv, 
                       __ZNK7TFPFont17GetGlyphPathCacheEv, __ZNK7TFPFont19CopyStringAndGetKeyERK15TFontNameStringRPK10__CFStringRNSt3__16vectorI18TVariationInstanceNS7_9allocatorIS9_EEEE, 
                       __ZNK7TFPFont21GetAverageGlyphHeightEPtm, __ZNK7TFPFont23GetXoGlyphsPerShortCutsEv, 
                       __ZNK7TFPFont33ComposePostScriptNameForVariationEmPK15CGFontVariationPcm, 
                       __ZNK7TFPFont34GetCharactersWithGlyphNameForGlyphEtPtm, 
                       __ZNK7TFPFont43GetXHeightAndCapHeightByAverageGlyphHeightsER10FPFontInfo, 
                       __ZNK7TFPFont8GetGlyphEPKc, __ZNK7TFPFont9CopyTableEj, 
                       __ZNK7TFPFont9GetXGlyphEv, __ZNK7TFPFont9GetoGlyphEv, 
                       __ZNK7TMatrix17AddStashedElementEP9__CFArrayPK10__CFString, 
                       __ZNK8TTTCData10GetFontRefEv, __ZNK8TTTCData7GetKindEv, 
                       __ZNK9TFONDData17FindMatchingStyleEs, __ZNK9TFONDData17GetPostscriptNameEs, 
                       __ZNK9TFONDData17GetPostscriptNameEsPhm, __ZNK9TFONDData8DumpFONDEv, 
                       __ZNK9TFontData11GetFontDataEim, __ZNK9TFragment14UpdateFragmentERK14MDataReference, 
                       __ZNK9TFragment17IsFileFragmentRefEv, __ZNK9TSBITFont10GetDescentEv, 
                       __ZNK9TSBITFont10GetFontRefEv, __ZNK9TSBITFont10GetLineGapEv, 
                       __ZNK9TSBITFont12GetCaretInfoERsS0_Rt, __ZNK9TSBITFont13GetAvgAdvanceEv, 
                       __ZNK9TSBITFont13GetMaxAdvanceEv, __ZNK9TSBITFont20GetHorizontalMetricsERiS0_S0_S0_S0_S0_S0_S0_S0_RbS1_RdS0_S0_S2_S2_S2_S2_RsS3_, 
                       __ZNK9TSBITFont7GetKindEv, __ZNK9TSBITFont8GetStemHEv, 
                       __ZNK9TSBITFont8GetStemVEv, __ZNK9TSBITFont9GetAscentEv, 
                       __ZNK9TSBITFont9GetBoundsERdS0_S0_S0_, __ZNK9TSFNTData10GetFontRefEv, 
                       __ZNK9TSFNTData7GetKindEv, __ZNK9TSFNTFont10GetDescentEv, 
                       __ZNK9TSFNTFont10GetGlyphIDEPKc, __ZNK9TSFNTFont10GetLineGapEv, 
                       __ZNK9TSFNTFont10GetXHeightEv, __ZNK9TSFNTFont12GetCIDGTableERm, 
                       __ZNK9TSFNTFont12GetCapHeightEv, __ZNK9TSFNTFont12GetCaretInfoERsS0_Rt, 
                       __ZNK9TSFNTFont12GetDirectoryERm, __ZNK9TSFNTFont12GetDirectoryEv, 
                       __ZNK9TSFNTFont12GetGCIDTableERm, __ZNK9TSFNTFont12GetGlyphNameEt, 
                       __ZNK9TSFNTFont12GetNumGlyphsEv, __ZNK9TSFNTFont12GetSomeNamesER12TSimpleArrayI15TFontNameStringE, 
                       __ZNK9TSFNTFont12IsMonospacedEv, __ZNK9TSFNTFont13GetAvgAdvanceEv, 
                       __ZNK9TSFNTFont13GetGlyphNamesER12TSimpleArrayI10TStringRefE, 
                       __ZNK9TSFNTFont13GetMaxAdvanceEv, __ZNK9TSFNTFont13GetUnitsPerEmEv, 
                       __ZNK9TSFNTFont14GetItalicAngleEv, __ZNK9TSFNTFont14GetTableOffsetEj, 
                       __ZNK9TSFNTFont14GetTableOffsetEjRm, __ZNK9TSFNTFont15VerifyGlyphNameEtPKc, 
                       __ZNK9TSFNTFont16CopyCharacterSetEv, __ZNK9TSFNTFont16GetVariationAxesERNSt3__16vectorI14TVariationAxisNS0_9allocatorIS2_EEEE, 
                       __ZNK9TSFNTFont16HasBadvtmxTablesEv, __ZNK9TSFNTFont17GetPostscriptNameEv, 
                       __ZNK9TSFNTFont18GetVerticalMetricsERiS0_S0_S0_S0_S0_S0_S0_RdS1_S1_S1_, 
                       __ZNK9TSFNTFont18HasValidGlyphNamesEv, __ZNK9TSFNTFont19GetOS2UnicodeRangesEPjf, 
                       __ZNK9TSFNTFont20GetHorizontalMetricsERiS0_S0_S0_S0_S0_S0_S0_S0_RbS1_RdS0_S0_S2_S2_S2_S2_RsS3_, 
                       __ZNK9TSFNTFont20GetUnderlinePositionEv, __ZNK9TSFNTFont21GetCharactersForGlyphEtPtm, 
                       __ZNK9TSFNTFont21GetMinLeftSideBearingEv, __ZNK9TSFNTFont21GetUnderlineThicknessEv, 
                       __ZNK9TSFNTFont21GetVariationInstancesERNSt3__16vectorI18TVariationInstanceNS0_9allocatorIS2_EEEE, 
                       __ZNK9TSFNTFont22GetCharactersPerGlyphsEPKtPtm, 
                       __ZNK9TSFNTFont22GetGlyphsPerCharactersEPKtPtRjb, 
                       __ZNK9TSFNTFont22GetMinRightSideBearingEv, __ZNK9TSFNTFont27GetUniqueCharactersForGlyphEtPtm, 
                       __ZNK9TSFNTFont7GetNameEtttt, __ZNK9TSFNTFont8GetNamesER12TSimpleArrayI15TFontNameStringE, 
                       __ZNK9TSFNTFont8GetStemHEv, __ZNK9TSFNTFont8GetStemVEv, 
                       __ZNK9TSFNTFont8GetTableEjRm, __ZNK9TSFNTFont8GetTableEji, 
                       __ZNK9TSFNTFont8GotTableEj, __ZNK9TSFNTFont8IsItalicEv, 
                       __ZNK9TSFNTFont9GetAscentEv, __ZNK9TSFNTFont9GetBoundsERdS0_S0_S0_, 
                       __ZNK9Tos2Table10GetXHeightEv, __ZNK9Tos2Table12GetCapHeightEv, 
                       __ZNK9Tos2Table13GetAvgAdvanceEv, __ZNK9Tos2Table18HasUnicodeCodePageEj, 
                       __ZNK9Tos2Table19GetPanoseProportionEv, __ZNK9Tos2Table8IsItalicEv, 
                       __ZNSt3__16vectorIN5woff212_GLOBAL__N_113WOFF2FontInfoENS_9allocatorIS3_EEE6resizeEm, 
                       __ZNSt3__1L19piecewise_constructE, __ZTI10MCacheData, 
                       __ZTI10TALMXTable, __ZTI10TException, __ZTI10TFontCache, 
                       __ZTI10TROTATable, __ZTI10TStringRef, __ZTI10TToUnicode, 
                       __ZTI10TType1Font, __ZTI10TcmapTable, __ZTI10TheadTable, 
                       __ZTI10ThmtxTable, __ZTI10TmaxpTable, __ZTI10TnameTable, 
                       __ZTI10TpostTable, __ZTI10TsfntTable, __ZTI10TvmtxTable, 
                       __ZTI10TzapfTable, __ZTI11TCharString, __ZTI11TComponents, 
                       __ZTI11TNameString, __ZTI11TPosingFont, __ZTI11TTableCache, 
                       __ZTI11TVFMX2Table, __ZTI11TwOFFStream, __ZTI12MScalerCache, 
                       __ZTI12TDefaultHeap, __ZTI12TFontHandler, __ZTI12TFontMetrics, 
                       __ZTI12TType1Scaler, __ZTI12TwOFF2Stream, __ZTI13MType1CIDFont, 
                       __ZTI13TBinarySearch, __ZTI13TComponentDef, __ZTI13TFONDResource, 
                       __ZTI13TOpenTypeFont, __ZTI13TSBITWOFFFont, __ZTI13TTrueTypeFont, 
                       __ZTI13TcmapOverride, __ZTI14MDataReference, __ZTI14MFileReference, 
                       __ZTI14TDataReference, __ZTI14TFileReference, __ZTI14TFontSurrogate, 
                       __ZTI14TLWFNType1Font, __ZTI14TSFNTType1Font, __ZTI14TTTCMemoryFont, 
                       __ZTI14TType1DataFont, __ZTI14TcmapTableData, __ZTI15TFontNameString, 
                       __ZTI15TGrowableBuffer, __ZTI15TParsingContext, 
                       __ZTI15TSBITMemoryFont, __ZTI15TTrueTypeScaler, 
                       __ZTI15TUnicodeCharSet, __ZTI15TVariationValue, 
                       __ZTI15TXMLSplicedFont, __ZTI16MParserProtocols, 
                       __ZTI16TCIDMetricsTable, __ZTI16TOpenTypeCIDFont, 
                       __ZTI16TType1MemoryFont, __ZTI17MReferenceCounted, 
                       __ZTI17TEncodingProtocol, __ZTI17TFormat2cmapTable, 
                       __ZTI17TFormat4cmapTable, __ZTI17TOpenTypeWOFFFont, 
                       __ZTI17TParserDictionary, __ZTI17TSBITDataForkFont, 
                       __ZTI17TSBITResourceFont, __ZTI17TSFNTCIDType1Font, 
                       __ZTI17TSFNTOpenTypeFont, __ZTI17TTrueTypeWOFFFont, 
                       __ZTI17TType1FontHandler, __ZTI17TcmapUnicodeTable, 
                       __ZTI18TCFFParsingContext, __ZTI18TFileDataReference, 
                       __ZTI18TFileDataSurrogate, __ZTI18TFileFragmentCache, 
                       __ZTI18TStrikeDescription, __ZTI18TType1FileDataFont, 
                       __ZTI18TcmapEncodingTable, __ZTI19TBinarySingleSearch, 
                       __ZTI19TConcreteFontScaler, __ZTI19TInterpreterContext, 
                       __ZTI19TOpenTypeMemoryFont, __ZTI19TTableDataReference, 
                       __ZTI19TTrueTypeMemoryFont, __ZTI19TType1CFFDescriptor, 
                       __ZTI20TGlyphOutlineContext, __ZTI20TOpenTypeCIDWOFFFont, 
                       __ZTI20TSFNTOpenTypeCIDFont, __ZTI20TTrueTypeFontHandler, 
                       __ZTI20TType1ParsingContext, __ZTI20TcmapTableFileData16, 
                       __ZTI20TcmapTableFileData32, __ZTI21ParserBlendDictionary, 
                       __ZTI21TCFFCIDParsingContext, __ZTI21TFileFragmentCachable, 
                       __ZTI21TGrowableBlocksBuffer, __ZTI21TLanguagePreferedList, 
                       __ZTI21TOpenTypeDataForkFont, __ZTI21TOpenTypeFileDataFont, 
                       __ZTI21TRenderingHeaderTable, __ZTI21TTrueTypeDataForkFont, 
                       __ZTI21TTrueTypeResourceFont, __ZTI22TFileDataCopyReference, 
                       __ZTI22TFileFragmentReference, __ZTI22TInMemoryDataReference, 
                       __ZTI22TOpenTypeCFFMemoryFont, __ZTI22TOpenTypeCIDMemoryFont, 
                       __ZTI22TResourceForkSurrogate, __ZTI22TType1RenderingContext, 
                       __ZTI22Type1ProtectionContext, __ZTI23TAccentEncodingProtocol, 
                       __ZTI23TSFNTType1CFFDescriptor, __ZTI23TType1CIDParsingContext, 
                       __ZTI23TType1GlyphOutlineBatch, __ZTI24TGlyphOutlineLookupCache, 
                       __ZTI24TOpenTypeCIDDataForkFont, __ZTI24TOpenTypeCIDFileDataFont, 
                       __ZTI24TParserPrivateDictionary, __ZTI24TTrueTypeFontDataHandler, 
                       __ZTI24TType1DataParsingContext, __ZTI24TType1InterpreterContext, 
                       __ZTI24TType1LWFNParsingContext, __ZTI25TGlyphNameToUnicodeLookup, 
                       __ZTI25TOpenTypeCFFCIDMemoryFont, __ZTI25TType1CubicOutlineContext, 
                       __ZTI26TDataForkFileDataReference, __ZTI26TResourceFileDataReference, 
                       __ZTI26TResourceFileDataSurrogate, __ZTI26TResourceForkFileReference, 
                       __ZTI26TType1MemoryParsingContext, __ZTI27TGlyphOutlineHashTableCache, 
                       __ZTI27TTrueTypeQuadOutlineContext, __ZTI28ParserPrivateBlendDictionary, 
                       __ZTI28TTrueTypeFontLongDataHandler, __ZTI29TLanguagePreferedComponentDef, 
                       __ZTI30TGlyphNameToUnicodeTaxisLookup, __ZTI32TGrowableOffsetsAndStringsBuffer, 
                       __ZTI32TStringKeyInsertSortedDictionary, __ZTI32TType1FontType1CharStringHandler, 
                       __ZTI32TType1FontType2CharStringHandler, __ZTI34TIntegralKeyInsertSortedDictionary, 
                       __ZTI35TTrueTypeBufferedQuadOutlineContext, __ZTI35TType1CIDFontType1CharStringHandler, 
                       __ZTI35TType1FontType2CIDCharStringHandler, __ZTI38TTrueTypeTransformedQuadOutlineContext, 
                       __ZTI46TType1FontType1CharStringHandlerWithVariations, 
                       __ZTI4TMap, __ZTI5TFont, __ZTI5THeap, __ZTI5TName, 
                       __ZTI7TFPFont, __ZTI7TMatrix, __ZTI7TString, __ZTI8TElement, 
                       __ZTI8TMapChar, __ZTI8TTTCData, __ZTI9TFONDData, 
                       __ZTI9TFontData, __ZTI9TFragment, __ZTI9TLanguage, 
                       __ZTI9TSBITFont, __ZTI9TSFNTData, __ZTI9TSFNTFont, 
                       __ZTI9TTracking, __ZTI9Tos2Table, __ZTIN20TTrueTypeFontHandler16TGlyphHeaderDataE, 
                       __ZTIN5woff214WOFF2StringOutE, __ZTS10MCacheData, 
                       __ZTS10TALMXTable, __ZTS10TException, __ZTS10TFontCache, 
                       __ZTS10TROTATable, __ZTS10TStringRef, __ZTS10TToUnicode, 
                       __ZTS10TType1Font, __ZTS10TcmapTable, __ZTS10TheadTable, 
                       __ZTS10ThmtxTable, __ZTS10TmaxpTable, __ZTS10TnameTable, 
                       __ZTS10TpostTable, __ZTS10TsfntTable, __ZTS10TvmtxTable, 
                       __ZTS10TzapfTable, __ZTS11TCharString, __ZTS11TComponents, 
                       __ZTS11TNameString, __ZTS11TPosingFont, __ZTS11TTableCache, 
                       __ZTS11TVFMX2Table, __ZTS11TwOFFStream, __ZTS12MScalerCache, 
                       __ZTS12TDefaultHeap, __ZTS12TFontHandler, __ZTS12TFontMetrics, 
                       __ZTS12TType1Scaler, __ZTS12TwOFF2Stream, __ZTS13MType1CIDFont, 
                       __ZTS13TBinarySearch, __ZTS13TComponentDef, __ZTS13TFONDResource, 
                       __ZTS13TOpenTypeFont, __ZTS13TSBITWOFFFont, __ZTS13TTrueTypeFont, 
                       __ZTS13TcmapOverride, __ZTS14MDataReference, __ZTS14MFileReference, 
                       __ZTS14TDataReference, __ZTS14TFileReference, __ZTS14TFontSurrogate, 
                       __ZTS14TLWFNType1Font, __ZTS14TSFNTType1Font, __ZTS14TTTCMemoryFont, 
                       __ZTS14TType1DataFont, __ZTS14TcmapTableData, __ZTS15TFontNameString, 
                       __ZTS15TGrowableBuffer, __ZTS15TParsingContext, 
                       __ZTS15TSBITMemoryFont, __ZTS15TTrueTypeScaler, 
                       __ZTS15TUnicodeCharSet, __ZTS15TVariationValue, 
                       __ZTS15TXMLSplicedFont, __ZTS16MParserProtocols, 
                       __ZTS16TCIDMetricsTable, __ZTS16TOpenTypeCIDFont, 
                       __ZTS16TType1MemoryFont, __ZTS17MReferenceCounted, 
                       __ZTS17TEncodingProtocol, __ZTS17TFormat2cmapTable, 
                       __ZTS17TFormat4cmapTable, __ZTS17TOpenTypeWOFFFont, 
                       __ZTS17TParserDictionary, __ZTS17TSBITDataForkFont, 
                       __ZTS17TSBITResourceFont, __ZTS17TSFNTCIDType1Font, 
                       __ZTS17TSFNTOpenTypeFont, __ZTS17TTrueTypeWOFFFont, 
                       __ZTS17TType1FontHandler, __ZTS17TcmapUnicodeTable, 
                       __ZTS18TCFFParsingContext, __ZTS18TFileDataReference, 
                       __ZTS18TFileDataSurrogate, __ZTS18TFileFragmentCache, 
                       __ZTS18TStrikeDescription, __ZTS18TType1FileDataFont, 
                       __ZTS18TcmapEncodingTable, __ZTS19TBinarySingleSearch, 
                       __ZTS19TConcreteFontScaler, __ZTS19TInterpreterContext, 
                       __ZTS19TOpenTypeMemoryFont, __ZTS19TTableDataReference, 
                       __ZTS19TTrueTypeMemoryFont, __ZTS19TType1CFFDescriptor, 
                       __ZTS20TGlyphOutlineContext, __ZTS20TOpenTypeCIDWOFFFont, 
                       __ZTS20TSFNTOpenTypeCIDFont, __ZTS20TTrueTypeFontHandler, 
                       __ZTS20TType1ParsingContext, __ZTS20TcmapTableFileData16, 
                       __ZTS20TcmapTableFileData32, __ZTS21ParserBlendDictionary, 
                       __ZTS21TCFFCIDParsingContext, __ZTS21TFileFragmentCachable, 
                       __ZTS21TGrowableBlocksBuffer, __ZTS21TLanguagePreferedList, 
                       __ZTS21TOpenTypeDataForkFont, __ZTS21TOpenTypeFileDataFont, 
                       __ZTS21TRenderingHeaderTable, __ZTS21TTrueTypeDataForkFont, 
                       __ZTS21TTrueTypeResourceFont, __ZTS22TFileDataCopyReference, 
                       __ZTS22TFileFragmentReference, __ZTS22TInMemoryDataReference, 
                       __ZTS22TOpenTypeCFFMemoryFont, __ZTS22TOpenTypeCIDMemoryFont, 
                       __ZTS22TResourceForkSurrogate, __ZTS22TType1RenderingContext, 
                       __ZTS22Type1ProtectionContext, __ZTS23TAccentEncodingProtocol, 
                       __ZTS23TSFNTType1CFFDescriptor, __ZTS23TType1CIDParsingContext, 
                       __ZTS23TType1GlyphOutlineBatch, __ZTS24TGlyphOutlineLookupCache, 
                       __ZTS24TOpenTypeCIDDataForkFont, __ZTS24TOpenTypeCIDFileDataFont, 
                       __ZTS24TParserPrivateDictionary, __ZTS24TTrueTypeFontDataHandler, 
                       __ZTS24TType1DataParsingContext, __ZTS24TType1InterpreterContext, 
                       __ZTS24TType1LWFNParsingContext, __ZTS25TGlyphNameToUnicodeLookup, 
                       __ZTS25TOpenTypeCFFCIDMemoryFont, __ZTS25TType1CubicOutlineContext, 
                       __ZTS26TDataForkFileDataReference, __ZTS26TResourceFileDataReference, 
                       __ZTS26TResourceFileDataSurrogate, __ZTS26TResourceForkFileReference, 
                       __ZTS26TType1MemoryParsingContext, __ZTS27TGlyphOutlineHashTableCache, 
                       __ZTS27TTrueTypeQuadOutlineContext, __ZTS28ParserPrivateBlendDictionary, 
                       __ZTS28TTrueTypeFontLongDataHandler, __ZTS29TLanguagePreferedComponentDef, 
                       __ZTS30TGlyphNameToUnicodeTaxisLookup, __ZTS32TGrowableOffsetsAndStringsBuffer, 
                       __ZTS32TStringKeyInsertSortedDictionary, __ZTS32TType1FontType1CharStringHandler, 
                       __ZTS32TType1FontType2CharStringHandler, __ZTS34TIntegralKeyInsertSortedDictionary, 
                       __ZTS35TTrueTypeBufferedQuadOutlineContext, __ZTS35TType1CIDFontType1CharStringHandler, 
                       __ZTS35TType1FontType2CIDCharStringHandler, __ZTS38TTrueTypeTransformedQuadOutlineContext, 
                       __ZTS46TType1FontType1CharStringHandlerWithVariations, 
                       __ZTS4TMap, __ZTS5TFont, __ZTS5THeap, __ZTS5TName, 
                       __ZTS7TFPFont, __ZTS7TMatrix, __ZTS7TString, __ZTS8TElement, 
                       __ZTS8TMapChar, __ZTS8TTTCData, __ZTS9TFONDData, 
                       __ZTS9TFontData, __ZTS9TFragment, __ZTS9TLanguage, 
                       __ZTS9TSBITFont, __ZTS9TSFNTData, __ZTS9TSFNTFont, 
                       __ZTS9TTracking, __ZTS9Tos2Table, __ZTSN20TTrueTypeFontHandler16TGlyphHeaderDataE, 
                       __ZTSN5woff214WOFF2StringOutE, __ZTV10MCacheData, 
                       __ZTV10TALMXTable, __ZTV10TException, __ZTV10TFontCache, 
                       __ZTV10TROTATable, __ZTV10TStringRef, __ZTV10TToUnicode, 
                       __ZTV10TType1Font, __ZTV10TheadTable, __ZTV10ThmtxTable, 
                       __ZTV10TmaxpTable, __ZTV10TnameTable, __ZTV10TpostTable, 
                       __ZTV10TsfntTable, __ZTV10TvmtxTable, __ZTV10TzapfTable, 
                       __ZTV11TCharString, __ZTV11TComponents, __ZTV11TNameString, 
                       __ZTV11TPosingFont, __ZTV11TTableCache, __ZTV11TVFMX2Table, 
                       __ZTV11TwOFFStream, __ZTV12MScalerCache, __ZTV12TDefaultHeap, 
                       __ZTV12TFontHandler, __ZTV12TFontMetrics, __ZTV12TType1Scaler, 
                       __ZTV12TwOFF2Stream, __ZTV13MType1CIDFont, __ZTV13TBinarySearch, 
                       __ZTV13TComponentDef, __ZTV13TFONDResource, __ZTV13TOpenTypeFont, 
                       __ZTV13TSBITWOFFFont, __ZTV13TcmapOverride, __ZTV14MDataReference, 
                       __ZTV14MFileReference, __ZTV14TDataReference, __ZTV14TFontSurrogate, 
                       __ZTV14TLWFNType1Font, __ZTV14TSFNTType1Font, __ZTV14TTTCMemoryFont, 
                       __ZTV14TType1DataFont, __ZTV14TcmapTableData, __ZTV15TFontNameString, 
                       __ZTV15TGrowableBuffer, __ZTV15TParsingContext, 
                       __ZTV15TSBITMemoryFont, __ZTV15TTrueTypeScaler, 
                       __ZTV15TUnicodeCharSet, __ZTV15TVariationValue, 
                       __ZTV15TXMLSplicedFont, __ZTV16MParserProtocols, 
                       __ZTV16TCIDMetricsTable, __ZTV16TOpenTypeCIDFont, 
                       __ZTV16TType1MemoryFont, __ZTV17MReferenceCounted, 
                       __ZTV17TEncodingProtocol, __ZTV17TFormat2cmapTable, 
                       __ZTV17TFormat4cmapTable, __ZTV17TOpenTypeWOFFFont, 
                       __ZTV17TParserDictionary, __ZTV17TSBITDataForkFont, 
                       __ZTV17TSBITResourceFont, __ZTV17TSFNTCIDType1Font, 
                       __ZTV17TSFNTOpenTypeFont, __ZTV17TTrueTypeWOFFFont, 
                       __ZTV17TType1FontHandler, __ZTV17TcmapUnicodeTable, 
                       __ZTV18TCFFParsingContext, __ZTV18TFileDataReference, 
                       __ZTV18TFileDataSurrogate, __ZTV18TFileFragmentCache, 
                       __ZTV18TStrikeDescription, __ZTV18TType1FileDataFont, 
                       __ZTV18TcmapEncodingTable, __ZTV19TBinarySingleSearch, 
                       __ZTV19TConcreteFontScaler, __ZTV19TInterpreterContext, 
                       __ZTV19TOpenTypeMemoryFont, __ZTV19TTableDataReference, 
                       __ZTV19TTrueTypeMemoryFont, __ZTV19TType1CFFDescriptor, 
                       __ZTV20TGlyphOutlineContext, __ZTV20TOpenTypeCIDWOFFFont, 
                       __ZTV20TSFNTOpenTypeCIDFont, __ZTV20TTrueTypeFontHandler, 
                       __ZTV20TType1ParsingContext, __ZTV20TcmapTableFileData16, 
                       __ZTV20TcmapTableFileData32, __ZTV21ParserBlendDictionary, 
                       __ZTV21TCFFCIDParsingContext, __ZTV21TFileFragmentCachable, 
                       __ZTV21TGrowableBlocksBuffer, __ZTV21TLanguagePreferedList, 
                       __ZTV21TOpenTypeDataForkFont, __ZTV21TOpenTypeFileDataFont, 
                       __ZTV21TRenderingHeaderTable, __ZTV21TTrueTypeDataForkFont, 
                       __ZTV21TTrueTypeResourceFont, __ZTV22TFileDataCopyReference, 
                       __ZTV22TFileFragmentReference, __ZTV22TInMemoryDataReference, 
                       __ZTV22TOpenTypeCFFMemoryFont, __ZTV22TOpenTypeCIDMemoryFont, 
                       __ZTV22TResourceForkSurrogate, __ZTV22TType1RenderingContext, 
                       __ZTV22Type1ProtectionContext, __ZTV23TAccentEncodingProtocol, 
                       __ZTV23TSFNTType1CFFDescriptor, __ZTV23TType1CIDParsingContext, 
                       __ZTV23TType1GlyphOutlineBatch, __ZTV24TGlyphOutlineLookupCache, 
                       __ZTV24TOpenTypeCIDDataForkFont, __ZTV24TOpenTypeCIDFileDataFont, 
                       __ZTV24TParserPrivateDictionary, __ZTV24TTrueTypeFontDataHandler, 
                       __ZTV24TType1DataParsingContext, __ZTV24TType1InterpreterContext, 
                       __ZTV24TType1LWFNParsingContext, __ZTV25TGlyphNameToUnicodeLookup, 
                       __ZTV25TOpenTypeCFFCIDMemoryFont, __ZTV25TType1CubicOutlineContext, 
                       __ZTV26TDataForkFileDataReference, __ZTV26TResourceFileDataReference, 
                       __ZTV26TResourceFileDataSurrogate, __ZTV26TResourceForkFileReference, 
                       __ZTV26TType1MemoryParsingContext, __ZTV27TGlyphOutlineHashTableCache, 
                       __ZTV27TTrueTypeQuadOutlineContext, __ZTV28ParserPrivateBlendDictionary, 
                       __ZTV28TTrueTypeFontLongDataHandler, __ZTV29TLanguagePreferedComponentDef, 
                       __ZTV30TGlyphNameToUnicodeTaxisLookup, __ZTV32TGrowableOffsetsAndStringsBuffer, 
                       __ZTV32TStringKeyInsertSortedDictionary, __ZTV32TType1FontType1CharStringHandler, 
                       __ZTV32TType1FontType2CharStringHandler, __ZTV34TIntegralKeyInsertSortedDictionary, 
                       __ZTV35TTrueTypeBufferedQuadOutlineContext, __ZTV35TType1CIDFontType1CharStringHandler, 
                       __ZTV35TType1FontType2CIDCharStringHandler, __ZTV38TTrueTypeTransformedQuadOutlineContext, 
                       __ZTV46TType1FontType1CharStringHandlerWithVariations, 
                       __ZTV4TMap, __ZTV5TFont, __ZTV5THeap, __ZTV5TName, 
                       __ZTV7TFPFont, __ZTV7TMatrix, __ZTV7TString, __ZTV8TMapChar, 
                       __ZTV8TTTCData, __ZTV9TFONDData, __ZTV9TFragment, 
                       __ZTV9TLanguage, __ZTV9TSBITFont, __ZTV9TSFNTData, 
                       __ZTV9TSFNTFont, __ZTV9TTracking, __ZTV9Tos2Table, 
                       __ZTVN20TTrueTypeFontHandler16TGlyphHeaderDataE, 
                       __ZTVN5woff214WOFF2StringOutE, __ZThn16_N10TType1FontD0Ev, 
                       __ZThn16_N10TType1FontD1Ev, __ZThn16_N11TwOFFStreamD0Ev, 
                       __ZThn16_N11TwOFFStreamD1Ev, __ZThn16_N12TwOFF2StreamD0Ev, 
                       __ZThn16_N12TwOFF2StreamD1Ev, __ZThn16_N13TFONDResourceD0Ev, 
                       __ZThn16_N13TFONDResourceD1Ev, __ZThn16_N13TOpenTypeFontD0Ev, 
                       __ZThn16_N13TOpenTypeFontD1Ev, __ZThn16_N13TSBITWOFFFontD0Ev, 
                       __ZThn16_N13TSBITWOFFFontD1Ev, __ZThn16_N14TLWFNType1FontD0Ev, 
                       __ZThn16_N14TLWFNType1FontD1Ev, __ZThn16_N14TSFNTType1FontD0Ev, 
                       __ZThn16_N14TSFNTType1FontD1Ev, __ZThn16_N14TTTCMemoryFontD0Ev, 
                       __ZThn16_N14TTTCMemoryFontD1Ev, __ZThn16_N14TType1DataFontD0Ev, 
                       __ZThn16_N14TType1DataFontD1Ev, __ZThn16_N15TSBITMemoryFontD0Ev, 
                       __ZThn16_N15TSBITMemoryFontD1Ev, __ZThn16_N15TXMLSplicedFontD0Ev, 
                       __ZThn16_N15TXMLSplicedFontD1Ev, __ZThn16_N16TOpenTypeCIDFontD0Ev, 
                       __ZThn16_N16TOpenTypeCIDFontD1Ev, __ZThn16_N16TType1MemoryFontD0Ev, 
                       __ZThn16_N16TType1MemoryFontD1Ev, __ZThn16_N17TOpenTypeWOFFFontD0Ev, 
                       __ZThn16_N17TOpenTypeWOFFFontD1Ev, __ZThn16_N17TSBITDataForkFontD0Ev, 
                       __ZThn16_N17TSBITDataForkFontD1Ev, __ZThn16_N17TSBITResourceFontD0Ev, 
                       __ZThn16_N17TSBITResourceFontD1Ev, __ZThn16_N17TSFNTCIDType1FontD0Ev, 
                       __ZThn16_N17TSFNTCIDType1FontD1Ev, __ZThn16_N17TSFNTOpenTypeFontD0Ev, 
                       __ZThn16_N17TSFNTOpenTypeFontD1Ev, __ZThn16_N17TTrueTypeWOFFFontD0Ev, 
                       __ZThn16_N17TTrueTypeWOFFFontD1Ev, __ZThn16_N18TType1FileDataFontD0Ev, 
                       __ZThn16_N18TType1FileDataFontD1Ev, __ZThn16_N19TOpenTypeMemoryFontD0Ev, 
                       __ZThn16_N19TOpenTypeMemoryFontD1Ev, __ZThn16_N19TTrueTypeMemoryFontD0Ev, 
                       __ZThn16_N19TTrueTypeMemoryFontD1Ev, __ZThn16_N20TOpenTypeCIDWOFFFontD0Ev, 
                       __ZThn16_N20TOpenTypeCIDWOFFFontD1Ev, __ZThn16_N20TSFNTOpenTypeCIDFontD0Ev, 
                       __ZThn16_N20TSFNTOpenTypeCIDFontD1Ev, __ZThn16_N21TOpenTypeDataForkFontD0Ev, 
                       __ZThn16_N21TOpenTypeDataForkFontD1Ev, __ZThn16_N21TOpenTypeFileDataFontD0Ev, 
                       __ZThn16_N21TOpenTypeFileDataFontD1Ev, __ZThn16_N21TTrueTypeDataForkFontD0Ev, 
                       __ZThn16_N21TTrueTypeDataForkFontD1Ev, __ZThn16_N21TTrueTypeResourceFontD0Ev, 
                       __ZThn16_N21TTrueTypeResourceFontD1Ev, __ZThn16_N22TOpenTypeCFFMemoryFontD0Ev, 
                       __ZThn16_N22TOpenTypeCFFMemoryFontD1Ev, __ZThn16_N22TOpenTypeCIDMemoryFontD0Ev, 
                       __ZThn16_N22TOpenTypeCIDMemoryFontD1Ev, __ZThn16_N24TOpenTypeCIDDataForkFontD0Ev, 
                       __ZThn16_N24TOpenTypeCIDDataForkFontD1Ev, __ZThn16_N24TOpenTypeCIDFileDataFontD0Ev, 
                       __ZThn16_N24TOpenTypeCIDFileDataFontD1Ev, __ZThn16_N25TOpenTypeCFFCIDMemoryFontD0Ev, 
                       __ZThn16_N25TOpenTypeCFFCIDMemoryFontD1Ev, __ZThn16_N5TFontD0Ev, 
                       __ZThn16_N5TFontD1Ev, __ZThn16_N8TTTCDataD0Ev, __ZThn16_N8TTTCDataD1Ev, 
                       __ZThn16_N9TSBITFontD0Ev, __ZThn16_N9TSBITFontD1Ev, 
                       __ZThn16_N9TSFNTDataD0Ev, __ZThn16_N9TSFNTDataD1Ev, 
                       __ZThn16_N9TSFNTFontD0Ev, __ZThn16_N9TSFNTFontD1Ev, 
                       __ZThn224_N17TSFNTCIDType1FontD0Ev, __ZThn224_N17TSFNTCIDType1FontD1Ev, 
                       __ZThn224_NK17TSFNTCIDType1Font14GetCIDSubrDataEtRtS0_Rm, 
                       __ZThn24_N18TFileDataReferenceD0Ev, __ZThn24_N18TFileDataReferenceD1Ev, 
                       __ZThn24_N22TFileDataCopyReferenceD0Ev, __ZThn24_N22TFileDataCopyReferenceD1Ev, 
                       __ZThn24_N22TFileFragmentReferenceD0Ev, __ZThn24_N22TFileFragmentReferenceD1Ev, 
                       __ZThn24_N26TResourceFileDataReferenceD0Ev, __ZThn24_N26TResourceFileDataReferenceD1Ev, 
                       __ZThn24_N26TResourceForkFileReferenceD0Ev, __ZThn24_N26TResourceForkFileReferenceD1Ev, 
                       __ZThn24_N9TFragmentD0Ev, __ZThn24_N9TFragmentD1Ev, 
                       __ZThn272_N16TOpenTypeCIDFontD0Ev, __ZThn272_N16TOpenTypeCIDFontD1Ev, 
                       __ZThn272_N20TOpenTypeCIDWOFFFontD0Ev, __ZThn272_N20TOpenTypeCIDWOFFFontD1Ev, 
                       __ZThn272_N20TSFNTOpenTypeCIDFontD0Ev, __ZThn272_N20TSFNTOpenTypeCIDFontD1Ev, 
                       __ZThn272_N22TOpenTypeCIDMemoryFontD0Ev, __ZThn272_N22TOpenTypeCIDMemoryFontD1Ev, 
                       __ZThn272_N24TOpenTypeCIDDataForkFontD0Ev, __ZThn272_N24TOpenTypeCIDDataForkFontD1Ev, 
                       __ZThn272_N24TOpenTypeCIDFileDataFontD0Ev, __ZThn272_N24TOpenTypeCIDFileDataFontD1Ev, 
                       __ZThn272_N25TOpenTypeCFFCIDMemoryFontD0Ev, __ZThn272_N25TOpenTypeCFFCIDMemoryFontD1Ev, 
                       __ZThn272_NK16TOpenTypeCIDFont14GetCIDSubrDataEtRtS0_Rm, 
                       __ZThn272_NK16TOpenTypeCIDFont6GetCIDEt, __ZThn272_NK20TSFNTOpenTypeCIDFont6GetCIDEt, 
                       __ZThn7152_N27TGlyphOutlineHashTableCacheD0Ev, __ZThn7152_N27TGlyphOutlineHashTableCacheD1Ev, 
                       __ZZ24FPGetStandardEncodingSIDhE8gStdSIDs, __ZZ24GetLatinEncodingTaxonomyvE23gGlyphNameToUnicodeDict, 
                       __ZZ24GetLatinEncodingTaxonomyvE4once, __ZZ26GetLatinEncodingDictionaryvE18gLatinEncodingDict, 
                       __ZZ26GetLatinEncodingDictionaryvE4once, __ZZ32FPFontCopyURLPerRegistryOrderingE28FontServicesCopyFontWithName, 
                       __ZZ32FPFontCopyURLPerRegistryOrderingE4once, __ZZL10AddEncHashP12EncHashTablePKhijE6notdef, 
                       __ZZL13GetPrivateKeyvE8gKeyData, __ZZL13InitXMLParservE4once, 
                       __ZZL16_decodeCharactercE15DataDecodeTable, __ZZL21InitParserDictionarysvE4once, 
                       __ZZL22Expand1BitTo8BitPixelsmPKhPhE14k1BitTo8BitLUT, 
                       __ZZL47CreateCanonicalLocaleIdentifierFromMSLanguageIDtE18kMSLanguageStrings, 
                       __ZZN12TType1Scaler14GetType1ScalerEvE12createOnceT1, 
                       __ZZN15TParsingContext11EncodeTableEvE13gEncodeTableP, 
                       __ZZN15TTrueTypeScaler17GetTrueTypeScalerEvE12createOnceTT, 
                       __ZZN21TLanguagePreferedList27GetSystemPreferredLanguagesEvE19gApplePrefLanguages, 
                       __ZZN5TFont21FindFontNamePerScriptEPKcE20gPDFFallbackFontName, 
                       __ZZN9TCGAccess4InitEvE4once, __ZZN9Tos2TableC1ERK9TSFNTFontE15kMinVersionSize, 
                       __ZZNK13TTrueTypeFont35GetPostScriptNameSuffixForVariationERK14TVariationsRefPcE11nibbleToHex, 
                       __ZZNK7TFPFont23GetXoGlyphsPerShortCutsEvE5chars, 
                       __ZZNK7TFPFont43GetXHeightAndCapHeightByAverageGlyphHeightsER10FPFontInfoE5chars, 
                       ___Block_byref_object_copy_, ___Block_byref_object_dispose_, 
                       ___FPFontCopyURLPerRegistryOrdering_block_invoke, 
                       ____Z24GetLatinEncodingTaxonomyv_block_invoke, ____Z26GetLatinEncodingDictionaryv_block_invoke, 
                       ____ZL13InitXMLParserv_block_invoke, ____ZL21InitParserDictionarysv_block_invoke, 
                       ____ZN9TCGAccess4InitEv_block_invoke, ____ZNK10TnameTable12GetSomeNamesER12TSimpleArrayI15TFontNameStringE_block_invoke, 
                       ____ZNK13TTrueTypeFont12GetCJKScriptEv_block_invoke, 
                       ____ZNK14TFragmentCache8GetCacheEv_block_invoke, 
                       ___block_descriptor_tmp, ___block_descriptor_tmp, 
                       ___block_descriptor_tmp, ___block_descriptor_tmp, 
                       ___block_descriptor_tmp, ___block_descriptor_tmp, 
                       ___block_descriptor_tmp, ___block_descriptor_tmp, 
                       ___block_descriptor_tmp.4621, ___block_literal_global, 
                       ___block_literal_global, ___block_literal_global, 
                       ___block_literal_global, ___block_literal_global, 
                       ___block_literal_global, ___block_literal_global.4622, 
                       _cmpTab, _dFPPrintTTableCache, _gGlyphNamesUnicodeSequences, 
                       _gGlyphNamesUnicodeTaxonomy, _gLatinCharacterEncode, 
                       _gMacCustomEncode, _kBitMask, _kBlockLengthPrefixCode, 
                       _kBrotliDictionary, _kBrotliDictionaryOffsetsByLength, 
                       _kBrotliDictionarySizeBitsByLength, _kCmdLut, _kCodeLengthCodeOrder, 
                       _kCodeLengthPrefixLength, _kCodeLengthPrefixValue, 
                       _kContextLookup, _kContextLookupOffsets, _kFPFontCopyrightName, 
                       _kFPFontFamilyName, _kFPFontFullName, _kFPFontMetricsKey, 
                       _kFPFontNameKey, _kFPFontNamesArrayKey, _kFPFontPostscriptName, 
                       _kFPFontStyleName, _kFPFontTrademarkName, _kFPFontUniqueName, 
                       _kFPFontVersionName, _kFPLanguageKey, _kFPNameKindKey, 
                       _kFPNameLanguageKey, _kFPNameStringKey, _kFPStringKey, 
                       _kFPTypeKey, _kMaxHuffmanTableSize, _kNumStdStrs, 
                       _kPrefixSuffix, _kReverseBits, _kStdStrs, _kTransforms, 
                       _stripTab, _upperTab ]
    weak-def-symbols: [ __ZN12TStackBufferIcLm1024EEC2Em, __ZN10TFontCache5PurgeEPKc, 
                        __ZN10TFontCache8AddFontsEPKcRK12TSimpleArrayIP5TFontE, 
                        __ZN10TFontCache9CopyFontsEPKcsR12TSimpleArrayIP5TFontE, 
                        __ZN10THashTableILj892EttED0Ev, __ZN10THashTableILj892EttED1Ev, 
                        __ZN10TNameEntry8AddItemsEtPK10__CFStringS2_, __ZN10TNameEntryC2EPK10__CFStringS2_S2_b, 
                        __ZN10TNameEntryC2EPK10__CFStringlP19CGFontVariationAxisP15CGFontVariationS2_, 
                        __ZN10TNameEntryC2EtPK10__CFStringS2_, __ZN10TStringRefC2EPKc, 
                        __ZN10TStringRefC2EPKh, __ZN10TStringRefC2EPKvmb, 
                        __ZN10TStringRefC2Ev, __ZN10TStringRefeqERKS_, 
                        __ZN11TCFRetainedIPK10__CFStringED2Ev, __ZN11TCFRetainedIPK9__CFArrayED2Ev, 
                        __ZN11TCharStringC2ERKS_, __ZN11TFontScalerD0Ev, 
                        __ZN11TFontScalerD1Ev, __ZN11TTableCache5PurgeEPKc, 
                        __ZN11TTableCache8AddTableEPK5TFontjPK8__CFData, 
                        __ZN11TTableCache9CopyTableEPK5TFontjPPK8__CFData, 
                        __ZN12TCFFFontInfoC2Ev, __ZN12TCFFFontInfoD2Ev, 
                        __ZN12TLRUCacheImpI14TFontCacheNodeLm32EE10PrintNodesEv, 
                        __ZN12TLRUCacheImpI14TFontCacheNodeLm32EE10RemoveNodeERKS0_, 
                        __ZN12TLRUCacheImpI14TFontCacheNodeLm32EE7AddNodeERKS0_, 
                        __ZN12TLRUCacheImpI14TFontCacheNodeLm32EE8FindNodeERKS0_, 
                        __ZN12TLRUCacheImpI14TFontCacheNodeLm32EEC2Ev, 
                        __ZN12TLRUCacheImpI15TTableCacheNodeLm16EE10PrintNodesEv, 
                        __ZN12TLRUCacheImpI15TTableCacheNodeLm16EE10RemoveNodeERKS0_, 
                        __ZN12TLRUCacheImpI15TTableCacheNodeLm16EE7AddNodeERKS0_, 
                        __ZN12TLRUCacheImpI15TTableCacheNodeLm16EE8FindNodeERKS0_, 
                        __ZN12TLRUCacheImpI15TTableCacheNodeLm16EEC2Ev, 
                        __ZN12TSimpleArrayI10TStringRefE6ResizeEmb, __ZN12TSimpleArrayI15TFontNameStringE6AppendERKS0_, 
                        __ZN12TSimpleArrayI15TFontNameStringE6ResizeEmb, 
                        __ZN12TSimpleArrayI15TFontNameStringED0Ev, __ZN12TSimpleArrayI15TFontNameStringED1Ev, 
                        __ZN12TSimpleArrayI21TFileFragmentCachableE6AppendERKS0_, 
                        __ZN12TSimpleArrayI21TFileFragmentCachableE6ResizeEmb, 
                        __ZN12TSimpleArrayI21TFileFragmentCachableED0Ev, 
                        __ZN12TSimpleArrayI21TFileFragmentCachableED1Ev, 
                        __ZN12TSimpleArrayI21TFileFragmentCachableED2Ev, 
                        __ZN12TSimpleArrayIP5TFontE6AppendERKS1_, __ZN12TSimpleArrayIP5TFontE6ResizeEmb, 
                        __ZN12TSimpleArrayIP5TFontEC2ERKS2_, __ZN12TSimpleArrayIP5TFontED0Ev, 
                        __ZN12TSimpleArrayIP5TFontED1Ev, __ZN12TSimpleArrayIP5TFontEaSERKS2_, 
                        __ZN12TSimpleArrayIjE6AppendERKj, __ZN12TSimpleArrayIjE6ResizeEmb, 
                        __ZN12TSimpleArrayIjED0Ev, __ZN12TSimpleArrayIjED1Ev, 
                        __ZN12TStackBufferIcLm256EEC2Em, __ZN12TStackBufferIcLm30EEC2Em, 
                        __ZN12TStackBufferIcLm64EE8SetCountEm, __ZN12TStackBufferIcLm64EEC2Em, 
                        __ZN12TStackBufferIcLm64EED1Ev, __ZN12TStackBufferIcLm64EEaSERKS0_, 
                        __ZN12TStackBufferIdLm4EEC2Em, __ZN12TStackBufferIhLm2048EE8SetCountEm, 
                        __ZN12TStackBufferIhLm2048EEC2Em, __ZN12TStackBufferItLm256EEC2Em, 
                        __ZN12TStackBufferItLm258EEC2Em, __ZN12TType1ScalerD0Ev, 
                        __ZN12TType1ScalerD1Ev, __ZN13TCFDictionaryD2Ev, 
                        __ZN13TCFMutableStr6AppendEPK10__CFString, __ZN13TCFMutableStr6AppendEPK10__CFStringd, 
                        __ZN13TCFMutableStrC2EPK10__CFString, __ZN13TScalerStrikeD0Ev, 
                        __ZN13TScalerStrikeD1Ev, __ZN14TCFMutableDictD2Ev, 
                        __ZN14TFontCacheNode5ResetEv, __ZN14TFontCacheNodeC2EPKcRK12TSimpleArrayIP5TFontE, 
                        __ZN14TFontCacheNodeC2EPKct, __ZN14TFontCacheNodeD0Ev, 
                        __ZN14TFontCacheNodeD1Ev, __ZN14TFontCacheNodeD2Ev, 
                        __ZN14TFontCacheNodeaSERKS_, __ZN14TFontCacheNodeeqERKS_, 
                        __ZN14TFragmentCache11RemoveByKeyEPKc, __ZN14TFragmentCache11RemoveValueEPK22TFileFragmentReference, 
                        __ZN14TFragmentCache8AddValueEP22TFileFragmentReference, 
                        __ZN14TFragmentCache9FindValueEPKcb, __ZN14TFragmentCache9RemoveAllEv, 
                        __ZN14TFragmentCacheC2Ev, __ZN14TFragmentCacheD0Ev, 
                        __ZN14TFragmentCacheD1Ev, __ZN14TFragmentCacheD2Ev, 
                        __ZN14TTTCMemoryFontC2EPKvm, __ZN15TCFCharacterSet16IsInUnicodeRangeE7CFRange, 
                        __ZN15TCFCharacterSetD2Ev, __ZN15TCFFFontSetInfoC2EP19TType1CFFDescriptor, 
                        __ZN15TCFFFontSetInfoD2Ev, __ZN15TCFMutableDequeD2Ev, 
                        __ZN15TFPInMemoryFontC2EPK5TFontPK8__CFDataS5_, 
                        __ZN15TFPInMemoryFontD0Ev, __ZN15TFPInMemoryFontD1Ev, 
                        __ZN15TFontNameStringC2EtRK14TDataReferencemttt, 
                        __ZN15TFontNameStringaSERKS_, __ZN15TFontNameStringeqERKS_, 
                        __ZN15TGrowableBufferC2Emb, __ZN15TKeyLookUpCacheILj892EE4CopyEt, 
                        __ZN15TKeyLookUpCacheILj892EE6RemoveEt, __ZN15TKeyLookUpCacheILj892EE7AddPairEtPK6CGPath, 
                        __ZN15TKeyLookUpCacheILj892EED0Ev, __ZN15TKeyLookUpCacheILj892EED1Ev, 
                        __ZN15TKeyLookUpCacheILj892EED2Ev, __ZN15TLockedLRUCacheI14TFontCacheNodeLm32EE11CreateCacheEv, 
                        __ZN15TLockedLRUCacheI14TFontCacheNodeLm32EE12sSharedCacheE, 
                        __ZN15TLockedLRUCacheI15TTableCacheNodeLm16EE11CreateCacheEv, 
                        __ZN15TLockedLRUCacheI15TTableCacheNodeLm16EE12sSharedCacheE, 
                        __ZN15TParsingContext10ParseErrorEi, __ZN15TParsingContext8GetTokenEv, 
                        __ZN15TTableCacheNode5ResetEv, __ZN15TTableCacheNodeD0Ev, 
                        __ZN15TTableCacheNodeD1Ev, __ZN15TTableCacheNodeD2Ev, 
                        __ZN15TTableCacheNodeaSERKS_, __ZN15TTableCacheNodeeqERKS_, 
                        __ZN15TTrueTypeScalerD0Ev, __ZN15TTrueTypeScalerD1Ev, 
                        __ZN16TCFFFontDictInfoC2Ev, __ZN17TFormat2cmapTableD0Ev, 
                        __ZN17TFormat2cmapTableD1Ev, __ZN17TFormat4cmapTableD0Ev, 
                        __ZN17TFormat4cmapTableD1Ev, __ZN17TOS2UnicodeRangesD0Ev, 
                        __ZN17TOS2UnicodeRangesD1Ev, __ZN17TSimpleDictionaryI19TStringKeyValuePairPKcjE11MakeOpeningEm, 
                        __ZN17TSimpleDictionaryI19TStringKeyValuePairPKcjE15AddKeyValuePairES2_j, 
                        __ZN17TSimpleDictionaryI19TStringKeyValuePairPKcjED0Ev, 
                        __ZN17TSimpleDictionaryI19TStringKeyValuePairPKcjED1Ev, 
                        __ZN17TSimpleDictionaryI21TIntegralKeyValuePairjjE11MakeOpeningEm, 
                        __ZN17TSimpleDictionaryI21TIntegralKeyValuePairjjE15AddKeyValuePairEjj, 
                        __ZN17TcmapTableDataRef17RangeSizePerTupleEjjjt, 
                        __ZN17TcmapTableDataRef25RangeSizePerFormat13TupleEjjjt, 
                        __ZN18TCFFParsingContext14ParseType1FontEv, __ZN18TFileFragmentCache11RemoveIndexEi, 
                        __ZN18TFileFragmentCache8PurgeOneEv, __ZN18TType1FileDataFont15IsType1DataFileERK14TDataReference, 
                        __ZN19TConcreteFontScalerD0Ev, __ZN19TConcreteFontScalerD1Ev, 
                        __ZN19TInterpreterContext5ResetEPKhmRS1_S2_, __ZN19TTrueTypeMemoryFont22IsTrueTypeMemoryStreamEPKvm, 
                        __ZN20TGlyphOutlineContextC2EPK17CGAffineTransform, 
                        __ZN20TGlyphOutlineContextD0Ev, __ZN20TGlyphOutlineContextD1Ev, 
                        __ZN20TGlyphOutlineContextD2Ev, __ZN20TMetricsTableContextC2ERK10ThmtxTable, 
                        __ZN20TMetricsTableContextD0Ev, __ZN20TMetricsTableContextD1Ev, 
                        __ZN21TFileFragmentCachable7CleanUpEv, __ZN21TFormat4_816cmapTableD0Ev, 
                        __ZN21TFormat4_816cmapTableD1Ev, __ZN21TPostScriptNameStringD1Ev, 
                        __ZN24TGlyphOutlineLookupCache13IsOfVariationEPK14TVariationsRef, 
                        __ZN24TType1InterpreterContext5ResetEPKhmRS1_S2_, 
                        __ZN24TType1InterpreterContextC2ERK10TType1Font, 
                        __ZN24TType1InterpreterContextD0Ev, __ZN24TType1InterpreterContextD1Ev, 
                        __ZN24TType1SFNTParsingContextD0Ev, __ZN24TType1SFNTParsingContextD1Ev, 
                        __ZN24TType2InterpreterContext5ResetEPKhmRS1_S2_, 
                        __ZN24TType2InterpreterContextC2ERK13TOpenTypeFont, 
                        __ZN24TType2InterpreterContextD0Ev, __ZN24TType2InterpreterContextD1Ev, 
                        __ZN27TGlyphOutlineHashTableCache4CopyEt, __ZN27TGlyphOutlineHashTableCache6RemoveEt, 
                        __ZN27TGlyphOutlineHashTableCache7AddPairEtPK6CGPath, 
                        __ZN27TGlyphOutlineHashTableCache9HashIndexEt, 
                        __ZN27TGlyphOutlineHashTableCacheC2Ej, __ZN27TType1CIDInterpreterContextC2ERK17TSFNTCIDType1FontRt, 
                        __ZN27TType1CIDInterpreterContextD0Ev, __ZN27TType1CIDInterpreterContextD1Ev, 
                        __ZN27TType2CFFInterpreterContextC2ERK13TOpenTypeFont, 
                        __ZN27TType2CFFInterpreterContextD0Ev, __ZN27TType2CFFInterpreterContextD1Ev, 
                        __ZN27TType2CIDInterpreterContext11SetFontDictEt, 
                        __ZN27TType2CIDInterpreterContextD0Ev, __ZN27TType2CIDInterpreterContextD1Ev, 
                        __ZN28TParseOpenCloseGetTokenScopeC2ER15TParsingContext, 
                        __ZN29TSparseCoordsListPerComposits8AddIndexEtt, 
                        __ZN29TSparseCoordsListPerComposits9AddCoordsEtt, 
                        __ZN29TSparseCoordsListPerCompositsC2EPK12EndianScalarIsL11EEndianness0EEPKvt, 
                        __ZN38TArrayOfFontsWithUniquePostscriptNames6AppendERKP5TFont, 
                        __ZN38TArrayOfFontsWithUniquePostscriptNamesD0Ev, 
                        __ZN38TArrayOfFontsWithUniquePostscriptNamesD1Ev, 
                        __ZN38TTrueTypeTransformedQuadOutlineContext37ConcatMatricesAndGetTransformFunctionERK27TTrueTypeQuadOutlineContexti, 
                        __ZN38TTrueTypeTransformedQuadOutlineContextC2ERK27TTrueTypeQuadOutlineContextddddiib, 
                        __ZN38TTrueTypeTransformedQuadOutlineContextC2ERK27TTrueTypeQuadOutlineContextddiib, 
                        __ZN38TTrueTypeTransformedQuadOutlineContextC2ERK27TTrueTypeQuadOutlineContextdiib, 
                        __ZN5woff214WOFF2StringOut4SizeEv, __ZN5woff214WOFF2StringOutD0Ev, 
                        __ZN5woff214WOFF2StringOutD1Ev, __ZN7TCFDataD2Ev, 
                        __ZN7TFPFont6RetainEPK13__CFAllocatorPKv, __ZN7TFPFont7ReleaseEPK13__CFAllocatorPKv, 
                        __ZN7TVector2_xEi, __ZN7TVector2_yEi, __ZN7TVector3_xyEii, 
                        __ZN7TVectorD0Ev, __ZN7TVectorD1Ev, __ZN8TElement19CFStringGetHexValueEPK10__CFString, 
                        __ZN8TElement26CFStringGetUnicodeHexValueEPK10__CFString, 
                        __ZN9TCFSInt16D2Ev, __ZN9TCFStringD2Ev, __ZN9TFONDData14GetFATMaxIndexERK19FontFamilyRecord_BEPKvS4_, 
                        __ZN9TFONDData28GetFontAssociationTableEntryERK19FontFamilyRecord_BEiPKvS4_, 
                        __ZN9TFONDDataC2ERK13TFONDResource, __ZN9TSFNTFontC2Ev, 
                        __ZN9TUVSTableD0Ev, __ZN9TUVSTableD1Ev, __ZNK10TFontCache15DebugPrintCacheEv, 
                        __ZNK10TType1Font12GetSomeNamesER12TSimpleArrayI15TFontNameStringE, 
                        __ZNK10TType1Font7GetHFMXEv, __ZNK10TType1Font7GetVFMXEv, 
                        __ZNK10TheadTable13GetUnitsPerEmEv, __ZNK10TheadTable7GetHeadEv, 
                        __ZNK10TheadTable8GetFlagsEv, __ZNK10TheadTable8IsItalicEv, 
                        __ZNK10TheadTable9GetBoundsERdS0_S0_S0_, __ZNK10ThmtxTable12GetCaretInfoERsS0_Rt, 
                        __ZNK10ThmtxTable16GetHmtxTableDataEv, __ZNK10ThmtxTable7GetHheaEv, 
                        __ZNK10TmaxpTable7GetMaxpEv, __ZNK10TpostTable7GetPostEv, 
                        __ZNK10TsfntTable11GetFontEndPEv, __ZNK10TsfntTable11GetTableEndEv, 
                        __ZNK10TsfntTable8validateI12EndianScalarIjL11EEndianness0EEEEPKT_S6_m, 
                        __ZNK10TsfntTable8validateI12EndianScalarItL11EEndianness0EEEEPKT_S6_m, 
                        __ZNK10TsfntTable8validateI12blocTable_BEEEPKT_S4_m, 
                        __ZNK10TsfntTable8validateI16sfntMAXPTable_BEEEPKT_S4_m, 
                        __ZNK10TsfntTable8validateI18bitmapSizeTable_BEEEPKT_S4_m, 
                        __ZNK10TsfntTable8validateIaEEPKT_S3_m, __ZNK11TTableCache15DebugPrintCacheEv, 
                        __ZNK12TStackBufferIcLm256EEixEm, __ZNK12TStackBufferIcLm30EEixEm, 
                        __ZNK12TStackBufferIcLm64EEixEm, __ZNK12TStackBufferIdLm4EEixEm, 
                        __ZNK12TStackBufferIhLm2048EEixEm, __ZNK12TStackBufferItLm256EEixEm, 
                        __ZNK12TType1Scaler18GetNativeCurveTypeEv, __ZNK12TType1Scaler18GetNeedsPix4BitmapEv, 
                        __ZNK13MType1CIDFont6GetCIDEt, __ZNK13TBinarySearch13InThisSegmentEtPKcRt, 
                        __ZNK13TLRUCacheNode9PrintNodeEi, __ZNK13TOpenTypeFont11GetSFNTFontEv, 
                        __ZNK14TFileReference22GetSFNTDirectoryOffsetEv, 
                        __ZNK14TFontCacheNode9CopyFontsER12TSimpleArrayIP5TFontE, 
                        __ZNK14TFragmentCache10DebugPrintEv, __ZNK14TTTCMemoryFont10GetFontRefEv, 
                        __ZNK14TTTCMemoryFont12GetTTCHeaderEv, __ZNK14TTTCMemoryFont7GetKindEv, 
                        __ZNK15TFontNameString29CopyCStringWithMinusForSpacesEPcRm, 
                        __ZNK15TFontNameString34CopyCStringWithUnderscoreForSpacesEPcRm, 
                        __ZNK15TFontNameString7IsValidEv, __ZNK15TTableCacheNode8IsOfPathEPKc, 
                        __ZNK15TTrueTypeScaler18GetNativeCurveTypeEv, __ZNK15TTrueTypeScaler18GetNeedsPix4BitmapEv, 
                        __ZNK15TXMLSplicedFont9GetRefConEv, __ZNK16TOpenTypeCIDFont15GetStringBufferEv, 
                        __ZNK17MReferenceCounted12AddReferenceEv, __ZNK17MReferenceCounted15RemoveReferenceEv, 
                        __ZNK17MReferenceCounted8GetCountEv, __ZNK17TFormat4cmapTable12ComputeIndexEt, 
                        __ZNK17TSFNTCIDType1Font15GetStringBufferEv, __ZNK17TSFNTOpenTypeFont11GetSFNTFontEv, 
                        __ZNK17TSimpleDictionaryI19TStringKeyValuePairPKcjE12BinarySearchES2_im, 
                        __ZNK17TSimpleDictionaryI19TStringKeyValuePairPKcjE8GetValueES2_Rj, 
                        __ZNK17TSimpleDictionaryI21TIntegralKeyValuePairjjE12BinarySearchEjim, 
                        __ZNK17TSimpleDictionaryI21TIntegralKeyValuePairjjE8GetValueEjRj, 
                        __ZNK17TUTF1632cmapTable14ComputeIndex32ILb0EEEtPK12EndianScalarIjL11EEndianness0EEjjt, 
                        __ZNK17TUTF1632cmapTable14ComputeIndex32ILb1EEEtPK12EndianScalarIjL11EEndianness0EEjjt, 
                        __ZNK17TUTF1632cmapTable18CopyCharacterSet12ILb0EEEPK16__CFCharacterSetPK12EndianScalarIjL11EEndianness0EEt, 
                        __ZNK17TUTF1632cmapTable18CopyCharacterSet12ILb1EEEPK16__CFCharacterSetPK12EndianScalarIjL11EEndianness0EEt, 
                        __ZNK17TUTF1632cmapTable18InverseMapString12ILb0EEEvPK12EndianScalarIjL11EEndianness0EEPjP14__CFDictionaryt, 
                        __ZNK17TUTF1632cmapTable18InverseMapString12ILb1EEEvPK12EndianScalarIjL11EEndianness0EEPjP14__CFDictionaryt, 
                        __ZNK17TcmapTableDataRef13validateArrayI12EndianScalarIjL11EEndianness0EEEEPKT_S6_m, 
                        __ZNK17TcmapTableDataRef13validateArrayI12EndianScalarItL11EEndianness0EEEEPKT_S6_m, 
                        __ZNK17TcmapTableDataRef8validateEPK12EndianScalarItL11EEndianness0EE, 
                        __ZNK18TFileDataSurrogate7GetPathEv, __ZNK18TFileFragmentCache10DebugPrintEv, 
                        __ZNK18TFileFragmentCache7FindKeyEPKc, __ZNK18TFileFragmentCache9FindByKeyEPKc, 
                        __ZNK18TcmapEncodingTable9IsUnicodeEv, __ZNK19TBinarySingleSearch13InThisSegmentEtPKcRt, 
                        __ZNK19TConcreteFontScaler11GetFontInfoEP10FPFontInfo, 
                        __ZNK19TConcreteFontScaler18GetNativeCurveTypeEv, 
                        __ZNK19TConcreteFontScaler18GetNeedsPix4BitmapEv, 
                        __ZNK19TConcreteFontScaler23GetATSCompatibleMetricsERiS0_S0_S0_S0_S0_S0_, 
                        __ZNK20TMetricsTableContext10GetAdvanceEt, __ZNK20TMetricsTableContext13GetRawMetricsEtRs, 
                        __ZNK20TSFNTOpenTypeCIDFont11GetSFNTFontEv, __ZNK20TcmapTableFileData167GetHeadEv, 
                        __ZNK20TcmapTableFileData168GetDataPEim, __ZNK21TRenderingHeaderTable19GetIndexToLocFormatEv, 
                        __ZNK22TFileFragmentReference14IsResourceFileEv, 
                        __ZNK22TFormat4UTF16cmapTable4MapTILb0EEEjPKtPtRj, 
                        __ZNK22TFormat4UTF16cmapTable4MapTILb1EEEjPKtPtRj, 
                        __ZNK22TInMemoryDataReference22GetSFNTDirectoryOffsetEv, 
                        __ZNK22TInMemoryDataReference7GetPathEv, __ZNK22TType1RenderingContext14xxSetY1CurveToEiiiiR7TVector, 
                        __ZNK22TType1RenderingContext14xySetX2CurveToEiiiiiiR7TVector, 
                        __ZNK22TType1RenderingContext14xySetY2CurveToEiiiiiiR7TVector, 
                        __ZNK22TType1RenderingContext7hMoveToEPiR7TVector, 
                        __ZNK22TType1RenderingContext7rMoveToEPiR7TVector, 
                        __ZNK22TType1RenderingContext7vMoveToEPiR7TVector, 
                        __ZNK22TType1RenderingContext9hvCurveToEPiR7TVectorb, 
                        __ZNK22TType1RenderingContext9vhCurveToEPiR7TVectorb, 
                        __ZNK23TFormat12UTF16cmapTable4MapTILb0EEEjPKtPtRj, 
                        __ZNK23TFormat12UTF16cmapTable4MapTILb1EEEjPKtPtRj, 
                        __ZNK23TType1LWFNResourceChain15GetNextResourceEv, 
                        __ZNK24TType1SFNTParsingContext18GetType1DataOffsetEv, 
                        __ZNK26TDataForkFileDataReference22GetSFNTDirectoryOffsetEv, 
                        __ZNK28TParseOpenCloseGetTokenScope5CloseEv, __ZNK29TSparseCoordsListPerComposits9FindIndexEtt, 
                        __ZNK29TSparseCoordsListPerComposits9GetCoordsEttRK14TDataReference, 
                        __ZNK5TFont16GetFontFamilyRefEv, __ZNK5TFont18HasValidGlyphNamesEv, 
                        __ZNK5TFont9GetRefConEv, __ZNK7TFPFont13GetUnitsPerEmEv, 
                        __ZNK7TFPFont16GetEmSpaceScalerEv, __ZNK7TFPFont17GetNumberOfGlyphsEv, 
                        __ZNK9TFONDData19GetFontFamilyRecordEv, __ZNK9TFONDData19GetStyleMappingNameERK17FontStyleTable_BE, 
                        __ZNK9TFONDData20GetStyleMappingTableERK19FontFamilyRecord_BE, 
                        __ZNK9TFONDData6ValidPEPKv, __ZNK9TSFNTFont9GetFormatEv, 
                        __ZNK9TUVSTable7GetHeadEv, __ZNK9TUVSTable8GetDataPEim, 
                        __ZNKSt3__120__shared_ptr_pointerIP10MCacheDataNS_14default_deleteIS1_EENS_9allocatorIS1_EEE13__get_deleterERKSt9type_info, 
                        __ZNSt3__110shared_ptrI10MCacheDataEC2IS1_EEPT_NS_9enable_ifIXsr14is_convertibleIS5_PS1_EE5valueENS2_5__natEE4typeE, 
                        __ZNSt3__113__equal_rangeIRNS_6__lessI15TLanguageStringtEEPKS2_tEENS_4pairIT0_S8_EES8_S8_RKT1_T_, 
                        __ZNSt3__113__equal_rangeIRNS_6__lessIN17TFormat14UVSTable10UVSMappingEiEEPKS3_iEENS_4pairIT0_S9_EES9_S9_RKT1_T_, 
                        __ZNSt3__113__equal_rangeIRNS_6__lessIN17TFormat14UVSTable17UnicodeValueRangeEiEEPKS3_iEENS_4pairIT0_S9_EES9_S9_RKT1_T_, 
                        __ZNSt3__113__equal_rangeIRNS_6__lessIN17TFormat14UVSTable17VarSelectorRecordEiEEPKS3_iEENS_4pairIT0_S9_EES9_S9_RKT1_T_, 
                        __ZNSt3__113__lower_boundIRNS_6__lessIN17TFormat14UVSTable10UVSMappingEiEEPKS3_iEET0_S8_S8_RKT1_T_, 
                        __ZNSt3__113__lower_boundIRNS_6__lessIN17TFormat14UVSTable17UnicodeValueRangeEiEEPKS3_iEET0_S8_S8_RKT1_T_, 
                        __ZNSt3__113__lower_boundIRNS_6__lessIN17TFormat14UVSTable17VarSelectorRecordEiEEPKS3_iEET0_S8_S8_RKT1_T_, 
                        __ZNSt3__113__upper_boundIRNS_6__lessIN17TFormat14UVSTable10UVSMappingEiEEPKS3_iEET0_S8_S8_RKT1_T_, 
                        __ZNSt3__113__upper_boundIRNS_6__lessIN17TFormat14UVSTable17UnicodeValueRangeEiEEPKS3_iEET0_S8_S8_RKT1_T_, 
                        __ZNSt3__113__upper_boundIRNS_6__lessIN17TFormat14UVSTable17VarSelectorRecordEiEEPKS3_iEET0_S8_S8_RKT1_T_, 
                        __ZNSt3__113__vector_baseI14TVariationAxisNS_9allocatorIS1_EEED2Ev, 
                        __ZNSt3__113__vector_baseI16TScalerVariationNS_9allocatorIS1_EEED2Ev, 
                        __ZNSt3__113__vector_baseIN5woff25TableENS_9allocatorIS2_EEED2Ev, 
                        __ZNSt3__113__vector_baseINS_4pairIPKhmEENS_9allocatorIS4_EEED2Ev, 
                        __ZNSt3__113__vector_baseIdNS_9allocatorIdEEED2Ev, 
                        __ZNSt3__113__vector_baseIjNS_9allocatorIjEEED2Ev, 
                        __ZNSt3__113__vector_baseIsNS_9allocatorIsEEED2Ev, 
                        __ZNSt3__113__vector_baseItNS_9allocatorItEEED2Ev, 
                        __ZNSt3__114__split_bufferI14TVariationAxisRNS_9allocatorIS1_EEED2Ev, 
                        __ZNSt3__115atomic_exchangeI10MCacheDataEENS_10shared_ptrIT_EEPS4_S4_, 
                        __ZNSt3__118__insertion_sort_3IRNS_6__lessIN5woff25TableES3_EEPS3_EEvT0_S7_T_, 
                        __ZNSt3__118__tree_left_rotateIPNS_16__tree_node_baseIPvEEEEvT_, 
                        __ZNSt3__119__tree_right_rotateIPNS_16__tree_node_baseIPvEEEEvT_, 
                        __ZNSt3__120__shared_ptr_pointerIP10MCacheDataNS_14default_deleteIS1_EENS_9allocatorIS1_EEE16__on_zero_sharedEv, 
                        __ZNSt3__120__shared_ptr_pointerIP10MCacheDataNS_14default_deleteIS1_EENS_9allocatorIS1_EEE21__on_zero_shared_weakEv, 
                        __ZNSt3__120__shared_ptr_pointerIP10MCacheDataNS_14default_deleteIS1_EENS_9allocatorIS1_EEED0Ev, 
                        __ZNSt3__120__shared_ptr_pointerIP10MCacheDataNS_14default_deleteIS1_EENS_9allocatorIS1_EEED1Ev, 
                        __ZNSt3__127__insertion_sort_incompleteIRNS_6__lessIN5woff25TableES3_EEPS3_EEbT0_S7_T_, 
                        __ZNSt3__127__tree_balance_after_insertIPNS_16__tree_node_baseIPvEEEEvT_S5_, 
                        __ZNSt3__16__sortIRNS_6__lessIN5woff25TableES3_EEPS3_EEvT0_S7_T_, 
                        __ZNSt3__16__treeINS_12__value_typeINS_4pairIjjEEjEENS_19__map_value_compareIS3_S4_NS_4lessIS3_EELb1EEENS_9allocatorIS4_EEE12__find_equalIS3_EERPNS_16__tree_node_baseIPvEERPNS_15__tree_end_nodeISG_EERKT_, 
                        __ZNSt3__16__treeINS_12__value_typeINS_4pairIjjEEjEENS_19__map_value_compareIS3_S4_NS_4lessIS3_EELb1EEENS_9allocatorIS4_EEE16__insert_node_atEPNS_15__tree_end_nodeIPNS_16__tree_node_baseIPvEEEERSG_SG_, 
                        __ZNSt3__16__treeINS_12__value_typeINS_4pairIjjEEjEENS_19__map_value_compareIS3_S4_NS_4lessIS3_EELb1EEENS_9allocatorIS4_EEE25__emplace_unique_key_argsIS3_JRKNS_21piecewise_construct_tENS_5tupleIJRKS3_EEENSG_IJEEEEEENS2_INS_15__tree_iteratorIS4_PNS_11__tree_nodeIS4_PvEElEEbEERKT_DpOT0_, 
                        __ZNSt3__16__treeINS_12__value_typeINS_4pairIjjEEjEENS_19__map_value_compareIS3_S4_NS_4lessIS3_EELb1EEENS_9allocatorIS4_EEE4findIS3_EENS_15__tree_iteratorIS4_PNS_11__tree_nodeIS4_PvEElEERKT_, 
                        __ZNSt3__16__treeINS_12__value_typeINS_4pairIjjEEjEENS_19__map_value_compareIS3_S4_NS_4lessIS3_EELb1EEENS_9allocatorIS4_EEE7destroyEPNS_11__tree_nodeIS4_PvEE, 
                        __ZNSt3__16__treeINS_12__value_typeIjjEENS_19__map_value_compareIjS2_NS_4lessIjEELb1EEENS_9allocatorIS2_EEE16__insert_node_atEPNS_15__tree_end_nodeIPNS_16__tree_node_baseIPvEEEERSE_SE_, 
                        __ZNSt3__16__treeINS_12__value_typeIjjEENS_19__map_value_compareIjS2_NS_4lessIjEELb1EEENS_9allocatorIS2_EEE25__emplace_unique_key_argsIjJRKNS_21piecewise_construct_tENS_5tupleIJRKjEEENSE_IJEEEEEENS_4pairINS_15__tree_iteratorIS2_PNS_11__tree_nodeIS2_PvEElEEbEERKT_DpOT0_, 
                        __ZNSt3__16__treeINS_12__value_typeIjjEENS_19__map_value_compareIjS2_NS_4lessIjEELb1EEENS_9allocatorIS2_EEE7destroyEPNS_11__tree_nodeIS2_PvEE, 
                        __ZNSt3__16__treeINS_12__value_typeIjtEENS_19__map_value_compareIjS2_NS_4lessIjEELb1EEENS_9allocatorIS2_EEE16__insert_node_atEPNS_15__tree_end_nodeIPNS_16__tree_node_baseIPvEEEERSE_SE_, 
                        __ZNSt3__16__treeINS_12__value_typeIjtEENS_19__map_value_compareIjS2_NS_4lessIjEELb1EEENS_9allocatorIS2_EEE25__emplace_unique_key_argsIjJRKNS_21piecewise_construct_tENS_5tupleIJRKjEEENSE_IJEEEEEENS_4pairINS_15__tree_iteratorIS2_PNS_11__tree_nodeIS2_PvEElEEbEERKT_DpOT0_, 
                        __ZNSt3__16__treeINS_12__value_typeIjtEENS_19__map_value_compareIjS2_NS_4lessIjEELb1EEENS_9allocatorIS2_EEE7destroyEPNS_11__tree_nodeIS2_PvEE, 
                        __ZNSt3__16vectorI14TVariationAxisNS_9allocatorIS1_EEE24__emplace_back_slow_pathIJjitdddEEEvDpOT_, 
                        __ZNSt3__16vectorI14TVariationAxisNS_9allocatorIS1_EEE24__emplace_back_slow_pathIJjttdddEEEvDpOT_, 
                        __ZNSt3__16vectorI14TVariationAxisNS_9allocatorIS1_EEE5eraseENS_11__wrap_iterIPKS1_EES8_, 
                        __ZNSt3__16vectorI16TScalerVariationNS_9allocatorIS1_EEE26__swap_out_circular_bufferERNS_14__split_bufferIS1_RS3_EE, 
                        __ZNSt3__16vectorI16TScalerVariationNS_9allocatorIS1_EEE6resizeEm, 
                        __ZNSt3__16vectorI16TScalerVariationNS_9allocatorIS1_EEE8__appendEm, 
                        __ZNSt3__16vectorI16TScalerVariationNS_9allocatorIS1_EEE8allocateEm, 
                        __ZNSt3__16vectorI16TScalerVariationNS_9allocatorIS1_EEEC2ERKS4_, 
                        __ZNSt3__16vectorI18TVariationInstanceNS_9allocatorIS1_EEE21__push_back_slow_pathIRKS1_EEvOT_, 
                        __ZNSt3__16vectorI18TVariationInstanceNS_9allocatorIS1_EEE5eraseENS_11__wrap_iterIPKS1_EES8_, 
                        __ZNSt3__16vectorI18TVariationInstanceNS_9allocatorIS1_EEE7reserveEm, 
                        __ZNSt3__16vectorIN5woff25TableENS_9allocatorIS2_EEE6resizeEm, 
                        __ZNSt3__16vectorIN5woff25TableENS_9allocatorIS2_EEE8__appendEm, 
                        __ZNSt3__16vectorIN5woff25TableENS_9allocatorIS2_EEE8allocateEm, 
                        __ZNSt3__16vectorIN5woff25TableENS_9allocatorIS2_EEEC2ERKS5_, 
                        __ZNSt3__16vectorINS_4pairIPKhmEENS_9allocatorIS4_EEE8allocateEm, 
                        __ZNSt3__16vectorINS_4pairIPKhmEENS_9allocatorIS4_EEEC2Em, 
                        __ZNSt3__16vectorIPN5woff25TableENS_9allocatorIS3_EEE21__push_back_slow_pathIS3_EEvOT_, 
                        __ZNSt3__16vectorIPN5woff25TableENS_9allocatorIS3_EEE26__swap_out_circular_bufferERNS_14__split_bufferIS3_RS5_EE, 
                        __ZNSt3__16vectorIcNS_9allocatorIcEEE6assignIPKcEENS_9enable_ifIXaasr21__is_forward_iteratorIT_EE5valuesr16is_constructibleIcNS_15iterator_traitsIS8_E9referenceEEE5valueEvE4typeES8_S8_, 
                        __ZNSt3__16vectorIcNS_9allocatorIcEEE6assignIPcEENS_9enable_ifIXaasr21__is_forward_iteratorIT_EE5valuesr16is_constructibleIcNS_15iterator_traitsIS7_E9referenceEEE5valueEvE4typeES7_S7_, 
                        __ZNSt3__16vectorIcNS_9allocatorIcEEE6resizeEm, 
                        __ZNSt3__16vectorIcNS_9allocatorIcEEE8__appendEm, 
                        __ZNSt3__16vectorIcNS_9allocatorIcEEE8allocateEm, 
                        __ZNSt3__16vectorIdNS_9allocatorIdEEE26__swap_out_circular_bufferERNS_14__split_bufferIdRS2_EE, 
                        __ZNSt3__16vectorIdNS_9allocatorIdEEE6resizeEm, 
                        __ZNSt3__16vectorIdNS_9allocatorIdEEE8__appendEm, 
                        __ZNSt3__16vectorIhNS_9allocatorIhEEE6assignIPhEENS_9enable_ifIXaasr21__is_forward_iteratorIT_EE5valuesr16is_constructibleIhNS_15iterator_traitsIS7_E9referenceEEE5valueEvE4typeES7_S7_, 
                        __ZNSt3__16vectorIhNS_9allocatorIhEEE6resizeEm, 
                        __ZNSt3__16vectorIhNS_9allocatorIhEEE8__appendEm, 
                        __ZNSt3__16vectorIhNS_9allocatorIhEEE8allocateEm, 
                        __ZNSt3__16vectorIhNS_9allocatorIhEEEC2Em, __ZNSt3__16vectorIhNS_9allocatorIhEEEC2EmRKh, 
                        __ZNSt3__16vectorIjNS_9allocatorIjEEE21__push_back_slow_pathIRKjEEvOT_, 
                        __ZNSt3__16vectorIjNS_9allocatorIjEEE26__swap_out_circular_bufferERNS_14__split_bufferIjRS2_EE, 
                        __ZNSt3__16vectorIjNS_9allocatorIjEEE8allocateEm, 
                        __ZNSt3__16vectorIjNS_9allocatorIjEEEC2Em, __ZNSt3__16vectorIsNS_9allocatorIsEEE21__push_back_slow_pathIRKsEEvOT_, 
                        __ZNSt3__16vectorIsNS_9allocatorIsEEE26__swap_out_circular_bufferERNS_14__split_bufferIsRS2_EE, 
                        __ZNSt3__16vectorIsNS_9allocatorIsEEE6resizeEm, 
                        __ZNSt3__16vectorIsNS_9allocatorIsEEE8__appendEm, 
                        __ZNSt3__16vectorItNS_9allocatorItEEE21__push_back_slow_pathIRKtEEvOT_, 
                        __ZNSt3__16vectorItNS_9allocatorItEEE26__swap_out_circular_bufferERNS_14__split_bufferItRS2_EE, 
                        __ZNSt3__16vectorItNS_9allocatorItEEE6resizeEm, 
                        __ZNSt3__16vectorItNS_9allocatorItEEE8__appendEm, 
                        __ZNSt3__17__sort3IRNS_6__lessIN5woff25TableES3_EEPS3_EEjT0_S7_S7_T_, 
                        __ZNSt3__17__sort4IRNS_6__lessIN5woff25TableES3_EEPS3_EEjT0_S7_S7_S7_T_, 
                        __ZNSt3__17__sort5IRNS_6__lessIN5woff25TableES3_EEPS3_EEjT0_S7_S7_S7_S7_T_, 
                        __ZTI10THashTableILj892EttE, __ZTI11TFixedPoint, 
                        __ZTI11TFontScaler, __ZTI12TSimpleArrayI15TFontNameStringE, 
                        __ZTI12TSimpleArrayI21TFileFragmentCachableE, __ZTI12TSimpleArrayIP5TFontE, 
                        __ZTI12TSimpleArrayIjE, __ZTI13TLRUCacheNode, __ZTI13TScalerStrike, 
                        __ZTI14TFontCacheNode, __ZTI14TFragmentCache, __ZTI15TFPInMemoryFont, 
                        __ZTI15TKeyLookUpCacheILj892EE, __ZTI15TLockedLRUCacheI14TFontCacheNodeLm32EE, 
                        __ZTI15TLockedLRUCacheI15TTableCacheNodeLm16EE, 
                        __ZTI15TTableCacheNode, __ZTI17MHeapNonAllocable, 
                        __ZTI17TOS2UnicodeRanges, __ZTI17TSimpleDictionaryI19TStringKeyValuePairPKcjE, 
                        __ZTI17TSimpleDictionaryI21TIntegralKeyValuePairjjE, 
                        __ZTI17TcmapTableDataRef, __ZTI18TGlyphOutlineBatch, 
                        __ZTI20TMetricsTableContext, __ZTI21TFormat4_816cmapTable, 
                        __ZTI24TType1SFNTParsingContext, __ZTI24TType2InterpreterContext, 
                        __ZTI27TType1CIDInterpreterContext, __ZTI27TType2CFFInterpreterContext, 
                        __ZTI27TType2CIDInterpreterContext, __ZTI38TArrayOfFontsWithUniquePostscriptNames, 
                        __ZTI6TCacheItPK6CGPathE, __ZTI7TVector, __ZTI9TUVSTable, 
                        __ZTIN5woff28WOFF2OutE, __ZTINSt3__120__shared_ptr_pointerIP10MCacheDataNS_14default_deleteIS1_EENS_9allocatorIS1_EEEE, 
                        __ZTS10THashTableILj892EttE, __ZTS11TFixedPoint, 
                        __ZTS11TFontScaler, __ZTS12TSimpleArrayI15TFontNameStringE, 
                        __ZTS12TSimpleArrayI21TFileFragmentCachableE, __ZTS12TSimpleArrayIP5TFontE, 
                        __ZTS12TSimpleArrayIjE, __ZTS13TLRUCacheNode, __ZTS13TScalerStrike, 
                        __ZTS14TFontCacheNode, __ZTS14TFragmentCache, __ZTS15TFPInMemoryFont, 
                        __ZTS15TKeyLookUpCacheILj892EE, __ZTS15TLockedLRUCacheI14TFontCacheNodeLm32EE, 
                        __ZTS15TLockedLRUCacheI15TTableCacheNodeLm16EE, 
                        __ZTS15TTableCacheNode, __ZTS17MHeapNonAllocable, 
                        __ZTS17TOS2UnicodeRanges, __ZTS17TSimpleDictionaryI19TStringKeyValuePairPKcjE, 
                        __ZTS17TSimpleDictionaryI21TIntegralKeyValuePairjjE, 
                        __ZTS17TcmapTableDataRef, __ZTS18TGlyphOutlineBatch, 
                        __ZTS20TMetricsTableContext, __ZTS21TFormat4_816cmapTable, 
                        __ZTS24TType1SFNTParsingContext, __ZTS24TType2InterpreterContext, 
                        __ZTS27TType1CIDInterpreterContext, __ZTS27TType2CFFInterpreterContext, 
                        __ZTS27TType2CIDInterpreterContext, __ZTS38TArrayOfFontsWithUniquePostscriptNames, 
                        __ZTS6TCacheItPK6CGPathE, __ZTS7TVector, __ZTS9TUVSTable, 
                        __ZTSN5woff28WOFF2OutE, __ZTSNSt3__114default_deleteI10MCacheDataEE, 
                        __ZTSNSt3__120__shared_ptr_pointerIP10MCacheDataNS_14default_deleteIS1_EENS_9allocatorIS1_EEEE, 
                        __ZTV10THashTableILj892EttE, __ZTV11TFontScaler, 
                        __ZTV12TSimpleArrayI15TFontNameStringE, __ZTV12TSimpleArrayI21TFileFragmentCachableE, 
                        __ZTV12TSimpleArrayIP5TFontE, __ZTV12TSimpleArrayIjE, 
                        __ZTV13TScalerStrike, __ZTV14TFontCacheNode, __ZTV14TFragmentCache, 
                        __ZTV15TFPInMemoryFont, __ZTV15TKeyLookUpCacheILj892EE, 
                        __ZTV15TTableCacheNode, __ZTV17TOS2UnicodeRanges, 
                        __ZTV17TSimpleDictionaryI19TStringKeyValuePairPKcjE, 
                        __ZTV20TMetricsTableContext, __ZTV21TFormat4_816cmapTable, 
                        __ZTV24TType1SFNTParsingContext, __ZTV24TType2InterpreterContext, 
                        __ZTV27TType1CIDInterpreterContext, __ZTV27TType2CFFInterpreterContext, 
                        __ZTV27TType2CIDInterpreterContext, __ZTV38TArrayOfFontsWithUniquePostscriptNames, 
                        __ZTV7TVector, __ZTV9TUVSTable, __ZTVNSt3__120__shared_ptr_pointerIP10MCacheDataNS_14default_deleteIS1_EENS_9allocatorIS1_EEEE, 
                        __ZThn224_NK17TSFNTCIDType1Font15GetStringBufferEv, 
                        __ZThn272_NK16TOpenTypeCIDFont15GetStringBufferEv, 
                        __ZThn7152_N27TGlyphOutlineHashTableCache9HashIndexEt, 
                        __ZZN15TLockedLRUCacheI14TFontCacheNodeLm32EE8GetCacheEvE4once, 
                        __ZZN15TLockedLRUCacheI15TTableCacheNodeLm16EE8GetCacheEvE4once, 
                        __ZZN7TFPFont17GetArrayCallBacksEvE17sCFArrayCallBacks, 
                        __ZZNK14TFragmentCache8GetCacheEvE18gFileFragmentCache, 
                        __ZZNK14TFragmentCache8GetCacheEvE4once, ___clang_call_terminate ]
...
