---
archs:           [ armv7, armv7s, arm64 ]
platform:        ios
install-name:    /System/Library/PrivateFrameworks/FontServices.framework/libType1Scaler.dylib
exports:         
  - archs:           [ armv7, armv7s, arm64 ]
    symbols:         [ _T1GetPSFontEncoding, GCC_except_table0, GCC_except_table0, 
                       GCC_except_table0, GCC_except_table0, GCC_except_table0, 
                       GCC_except_table0, GCC_except_table0, GCC_except_table0, 
                       GCC_except_table1, GCC_except_table1, GCC_except_table1, 
                       GCC_except_table10, GCC_except_table10, GCC_except_table10, 
                       GCC_except_table10, GCC_except_table10, GCC_except_table10, 
                       GCC_except_table10, GCC_except_table10, GCC_except_table10, 
                       GCC_except_table10, GCC_except_table100, GCC_except_table101, 
                       GCC_except_table103, GCC_except_table104, GCC_except_table105, 
                       GCC_except_table109, GCC_except_table109, GCC_except_table11, 
                       GCC_except_table11, GCC_except_table11, GCC_except_table11, 
                       GCC_except_table11, GCC_except_table11, GCC_except_table11, 
                       GCC_except_table11, GCC_except_table11, GCC_except_table110, 
                       GCC_except_table112, GCC_except_table112, GCC_except_table112, 
                       GCC_except_table113, GCC_except_table113, GCC_except_table114, 
                       GCC_except_table115, GCC_except_table116, GCC_except_table117, 
                       GCC_except_table117, GCC_except_table12, GCC_except_table12, 
                       GCC_except_table12, GCC_except_table12, GCC_except_table12, 
                       GCC_except_table12, GCC_except_table12, GCC_except_table12, 
                       GCC_except_table123, GCC_except_table123, GCC_except_table123, 
                       GCC_except_table125, GCC_except_table126, GCC_except_table126, 
                       GCC_except_table128, GCC_except_table13, GCC_except_table13, 
                       GCC_except_table13, GCC_except_table13, GCC_except_table13, 
                       GCC_except_table130, GCC_except_table131, GCC_except_table132, 
                       GCC_except_table133, GCC_except_table133, GCC_except_table134, 
                       GCC_except_table134, GCC_except_table136, GCC_except_table139, 
                       GCC_except_table14, GCC_except_table14, GCC_except_table14, 
                       GCC_except_table14, GCC_except_table14, GCC_except_table14, 
                       GCC_except_table142, GCC_except_table15, GCC_except_table15, 
                       GCC_except_table15, GCC_except_table15, GCC_except_table15, 
                       GCC_except_table15, GCC_except_table154, GCC_except_table16, 
                       GCC_except_table16, GCC_except_table16, GCC_except_table16, 
                       GCC_except_table160, GCC_except_table166, GCC_except_table167, 
                       GCC_except_table168, GCC_except_table17, GCC_except_table17, 
                       GCC_except_table17, GCC_except_table17, GCC_except_table17, 
                       GCC_except_table17, GCC_except_table17, GCC_except_table18, 
                       GCC_except_table18, GCC_except_table18, GCC_except_table18, 
                       GCC_except_table18, GCC_except_table18, GCC_except_table18, 
                       GCC_except_table19, GCC_except_table19, GCC_except_table19, 
                       GCC_except_table191, GCC_except_table192, GCC_except_table193, 
                       GCC_except_table199, GCC_except_table2, GCC_except_table2, 
                       GCC_except_table2, GCC_except_table2, GCC_except_table20, 
                       GCC_except_table20, GCC_except_table20, GCC_except_table21, 
                       GCC_except_table21, GCC_except_table21, GCC_except_table22, 
                       GCC_except_table22, GCC_except_table22, GCC_except_table22, 
                       GCC_except_table23, GCC_except_table23, GCC_except_table23, 
                       GCC_except_table23, GCC_except_table23, GCC_except_table23, 
                       GCC_except_table24, GCC_except_table24, GCC_except_table24, 
                       GCC_except_table25, GCC_except_table25, GCC_except_table25, 
                       GCC_except_table25, GCC_except_table25, GCC_except_table26, 
                       GCC_except_table26, GCC_except_table26, GCC_except_table27, 
                       GCC_except_table27, GCC_except_table27, GCC_except_table28, 
                       GCC_except_table28, GCC_except_table28, GCC_except_table28, 
                       GCC_except_table29, GCC_except_table29, GCC_except_table3, 
                       GCC_except_table3, GCC_except_table3, GCC_except_table3, 
                       GCC_except_table3, GCC_except_table30, GCC_except_table30, 
                       GCC_except_table31, GCC_except_table31, GCC_except_table31, 
                       GCC_except_table31, GCC_except_table32, GCC_except_table32, 
                       GCC_except_table32, GCC_except_table32, GCC_except_table33, 
                       GCC_except_table33, GCC_except_table34, GCC_except_table34, 
                       GCC_except_table34, GCC_except_table35, GCC_except_table35, 
                       GCC_except_table35, GCC_except_table36, GCC_except_table36, 
                       GCC_except_table37, GCC_except_table37, GCC_except_table37, 
                       GCC_except_table38, GCC_except_table38, GCC_except_table38, 
                       GCC_except_table39, GCC_except_table4, GCC_except_table4, 
                       GCC_except_table4, GCC_except_table4, GCC_except_table4, 
                       GCC_except_table4, GCC_except_table40, GCC_except_table40, 
                       GCC_except_table41, GCC_except_table41, GCC_except_table41, 
                       GCC_except_table42, GCC_except_table43, GCC_except_table44, 
                       GCC_except_table44, GCC_except_table45, GCC_except_table45, 
                       GCC_except_table45, GCC_except_table46, GCC_except_table47, 
                       GCC_except_table47, GCC_except_table47, GCC_except_table47, 
                       GCC_except_table48, GCC_except_table48, GCC_except_table48, 
                       GCC_except_table48, GCC_except_table49, GCC_except_table49, 
                       GCC_except_table49, GCC_except_table49, GCC_except_table5, 
                       GCC_except_table5, GCC_except_table5, GCC_except_table5, 
                       GCC_except_table5, GCC_except_table5, GCC_except_table5, 
                       GCC_except_table5, GCC_except_table50, GCC_except_table50, 
                       GCC_except_table50, GCC_except_table51, GCC_except_table51, 
                       GCC_except_table51, GCC_except_table52, GCC_except_table53, 
                       GCC_except_table54, GCC_except_table55, GCC_except_table56, 
                       GCC_except_table57, GCC_except_table57, GCC_except_table58, 
                       GCC_except_table58, GCC_except_table59, GCC_except_table6, 
                       GCC_except_table6, GCC_except_table61, GCC_except_table61, 
                       GCC_except_table62, GCC_except_table62, GCC_except_table63, 
                       GCC_except_table64, GCC_except_table64, GCC_except_table64, 
                       GCC_except_table65, GCC_except_table65, GCC_except_table65, 
                       GCC_except_table65, GCC_except_table66, GCC_except_table66, 
                       GCC_except_table66, GCC_except_table67, GCC_except_table67, 
                       GCC_except_table69, GCC_except_table7, GCC_except_table7, 
                       GCC_except_table7, GCC_except_table7, GCC_except_table7, 
                       GCC_except_table7, GCC_except_table7, GCC_except_table7, 
                       GCC_except_table7, GCC_except_table7, GCC_except_table7, 
                       GCC_except_table70, GCC_except_table72, GCC_except_table72, 
                       GCC_except_table72, GCC_except_table75, GCC_except_table76, 
                       GCC_except_table78, GCC_except_table8, GCC_except_table8, 
                       GCC_except_table8, GCC_except_table8, GCC_except_table8, 
                       GCC_except_table8, GCC_except_table8, GCC_except_table8, 
                       GCC_except_table82, GCC_except_table82, GCC_except_table83, 
                       GCC_except_table84, GCC_except_table84, GCC_except_table85, 
                       GCC_except_table85, GCC_except_table86, GCC_except_table86, 
                       GCC_except_table86, GCC_except_table87, GCC_except_table88, 
                       GCC_except_table89, GCC_except_table9, GCC_except_table9, 
                       GCC_except_table9, GCC_except_table9, GCC_except_table9, 
                       GCC_except_table9, GCC_except_table9, GCC_except_table90, 
                       GCC_except_table90, GCC_except_table91, GCC_except_table93, 
                       GCC_except_table94, GCC_except_table94, GCC_except_table94, 
                       GCC_except_table96, GCC_except_table96, GCC_except_table96, 
                       GCC_except_table97, GCC_except_table98, GCC_except_table98, 
                       _ATMInternal, _BCMAIN_inst, _CSIdealBase, _CSIdealOffset, 
                       _CS_bandingBBox, _CS_currentCross, _CS_firstCross, 
                       _CS_havePathCross, _CS_limitCross, _CS_pathMaxX, 
                       _CS_pathMinX, _CS_pointArray, _CS_pointCount, _CS_saveHorizDir, 
                       _CS_savePrevCross, _CS_savePrevPoint, _CS_saveVertDir, 
                       _CS_xPathMax, _CS_xPathMin, _CS_yCross, _CS_yPathMax, 
                       _CS_yPathMin, _DTransform, _IDTransform, _ITransform, 
                       _SUBR0, _SUBR1, _SUBR2, _SUBR3, _SUBR4V1, _SUBR4V2, 
                       _SUBR_END, _T1GetSynthesisData, _T1ReleaseSynthesisData, 
                       _Transform, _Type1ScalerInfo, _Type1ScalerOpen, 
                       __Exc_Header, __Z10ATMQReducejP9_t_RunRecP10_t_FCdBBoxP13_t_DevBBoxRecPv, 
                       __Z10ApproxDLenP6_t_FCd, __Z10CFFGetFontP13_t_CFFSetInfoP9ArrayInfotP11CFFFontInfo, 
                       __Z10CSNewPointP6_t_FCdP9CScanArgs, __Z10CS_RunPairP8_t_Cross, 
                       __Z10FreeMemoryPKv, __Z10FxlToFixed3Fxl, __Z10GrowMemoryPvj, 
                       __Z10Int32ToFxli, __Z10InvertBodyP6FixMtxS0_, __Z10LinesPerEmP6FixMtxiPiS1_, 
                       __Z10PStringCatPhPKh, __Z10ResetCScanP9CScanArgs, 
                       __Z10StoreBytesPhii, __Z10erectToDev6_t_FCdPS_P11_t_FontInst, 
                       __Z11BCParsePathP14_t_PathDataPtrP10_t_BCProcsP12_t_PathProcsP10_t_FCdBBoxjjPv, 
                       __Z11BytesToCardPKhj, __Z11CS_NewCrossii, __Z11ConvertFracPc, 
                       __Z11ConvertRunsP9_t_RunRecP12_t_BitMapRecP10_t_BCProcsjPv, 
                       __Z11GrowRunBuffjP9_t_RunRecjPv, __Z11SetGSMatrixP6FixMtxj, 
                       __Z11StringToIntPKc, __Z11StringToIntPKhj, __Z12ATMBuildInitP10_t_BCProcsPvtP9_t_CharIOP10RegistrantjS1_, 
                       __Z12ATMQNewPointP6_t_FCdPv, __Z12ATMQRdcClosePv, 
                       __Z12CS_YCrossingP8_t_CrossS0_i, __Z12ConvertFixedPc, 
                       __Z12DecryptBytesPhPKhii, __Z12FixMtxInvertP6FixMtxS0_, 
                       __Z12GCFixOnePathP5_gclrPP9_gcountermi, __Z12GetBlockSizePv, 
                       __Z12IntToPStringiPh, __Z13BCSetUpValuesP11_t_FontDescP6FixMtxPiP13_t_BCRendPropPFiS2_iS2_S5_PjS6_S6_EP10_t_BCProcsP11_t_FontInstPv, 
                       __Z13CFFGetFontSetP13_t_CFFSetInfo, __Z13CFFGet_StringP11CFFFontInfotPj, 
                       __Z13CacheAllocatejb, __Z13DecryptStringPcs, __Z13EncryptBufferPKhPhmRt, 
                       __Z13GetGrowBufferj, __Z13adz_fixed_tfm6_t_FCdPS_, 
                       __Z13bcz_fixed_tfm6_t_FCdPS_, __Z13gen_fixed_tfm6_t_FCdPS_, 
                       __Z14ATMXlateCoordsPK11DesignSpacePK9BlendInfoPKiPiP12_t_ASZoneRecPv, 
                       __Z14AllocateMemoryjP11TMemoryHeapb, __Z14BlendHintBlockPK8FontDescPKiP10FontValues, 
                       __Z14CFFGetFontNameP13_t_CFFSetInfotPPcPjP6DictID, 
                       __Z14CFFReleaseFontP11CFFFontInfo, __Z14CS_PathUpCrossP8_t_Cross, 
                       __Z14FixedToPStringisPh, __Z14FractToPStringisPh, 
                       __Z14GetRenderProcsv, __Z14GlobalColoringP5_gclrP9_gcounterP17_t_GrowableBufferiiiPv, 
                       __Z14GrowGrowBufferjm, __Z14Is3x3TransformRK15StrikeTransform, 
                       __Z15ATMQRedCharRunsP11_t_FontInstP10_t_BCProcsPvP9_t_CharIOP13_t_DevBBoxRecP9_t_RunRecS3_16_t_BCRenderProcs, 
                       __Z15ATMSharedInitBCP16_t_BCRenderProcs, __Z15CS_BuildCrossesP6_t_FCdijj, 
                       __Z15CS_CSPathPointsP6_t_FCdij, __Z15CS_NewXtraCrossii, 
                       __Z15CS_PathXtraOrigP8_t_Cross7PathDir, __Z15GetWeightVectorPK11DesignSpacePiS2_PKitPKhtS6_tS4_jP12_t_ASZoneRecPv, 
                       __Z15MakeDesignSpaceiiPFPviS_ES_, __Z15d_adz_fixed_tfm6_t_FCdPS_, 
                       __Z15d_bcz_fixed_tfm6_t_FCdPS_, __Z15d_gen_fixed_tfm6_t_FCdPS_, 
                       __Z15parseBCDtoASCIIPPhPc, __Z16ATMQResetReducerPv, 
                       __Z16CFFGetDict_Int16PhPsm, __Z16CFFGetDict_Int32PhPim, 
                       __Z16CFFGetRandomFontP13_t_CFFSetInfoP9ArrayInfotP17CFFRandomFontInfo, 
                       __Z16CS_BackPathCrossP8_t_Cross, __Z16CS_ForwPathCrossP8_t_Cross, 
                       __Z16CS_PathXtraCrossP8_t_Cross7PathDir, __Z16GetDVSubroutinesPK9BlendInfoPPKhPtS4_S5_S5_, 
                       __Z16GlobalColoringGCP5_gclrP17_t_GrowableBufferiiPv, 
                       __Z16ReturnGrowBufferi, __Z17BCSetWeightVectorPijP11_t_FontInst, 
                       __Z17BCSupportsFeature13BCFeatureType, __Z17CFFReleaseFontSetP13_t_CFFSetInfo, 
                       __Z17EvaluateRenderingi, __Z17Type1GetFontSpecsPK5TFontP9FontSpecs, 
                       __Z17Type1RenderGlyphsjPK18TStrikeDescriptionPK21TRenderingDescriptionjPKtPvjP16GlyphDataResults, 
                       __Z17UnsignedToPStringjPh, __Z17inv_adz_fixed_tfm6_t_FCdPS_, 
                       __Z17inv_bcz_fixed_tfm6_t_FCdPS_, __Z17inv_gen_fixed_tfm6_t_FCdPS_, 
                       __Z18ATMGetWeightVectorPK11DesignSpacePK9BlendInfoPKiPiS7_tP12_t_ASZoneRecPv, 
                       __Z18T1CFFEnumerateDictP11CFFFontInfo6DictIDPvPFiPhtsS2_E, 
                       __Z18Type1StreamFlattenPK18TStrikeDescriptionPjPKvPKcPKj, 
                       __Z19FractionalToPStringjsPh, __Z19GCAlignIsolatedStemiij, 
                       __Z19Type1GetMetricSpecsjPK18TStrikeDescriptionPK21TRenderingDescriptionP14GlyphDataSpecs, 
                       __Z19Type1GetStrikeSpecsjPK18TStrikeDescriptionP11StrikeSpecs, 
                       __Z19Type1RegisterStrikePK18TStrikeDescriptionPj, 
                       __Z19Type1StreamDownloadPK18TStrikeDescriptionPjPKvPKcS6_PKjPKtbSA_P9__CFArray, 
                       __Z19Type1StreamEncodingPK18TStrikeDescriptionPjPKvPKjPKtb, 
                       __Z19inv_d_adz_fixed_tfm6_t_FCdPS_, __Z19inv_d_bcz_fixed_tfm6_t_FCdPS_, 
                       __Z19inv_d_gen_fixed_tfm6_t_FCdPS_, __Z20CFFReleaseRandomFontP17CFFRandomFontInfo, 
                       __Z20Type1GetGlyphMetricsjPK18TStrikeDescriptionPK21TRenderingDescriptionjPKtPvj, 
                       __Z20Type1StreamSizeQueryPK18TStrikeDescriptionPjPKcPKjS2_, 
                       __Z20Type1StreamTypeQueryPK18TStrikeDescriptionPj, 
                       __Z21Type1StreamPrereqItemPK18TStrikeDescriptionPjPKvPKcj, 
                       __Z22T1CFFEnumerateDefaultsP11CFFFontInfo6DictIDPvPFiPhtsS2_E, 
                       __Z22Type1GetRenderingSpecsjPK18TStrikeDescriptionPK21TRenderingDescriptionP14GlyphDataSpecs, 
                       __Z22Type1StreamPrereqQueryPK18TStrikeDescriptionPjPvjS2_, 
                       __Z23SetMasterDesignPositionP11DesignSpacejPi, __Z23Type1FontRenderingQueryPK5TFontjP18RenderingQueryItemPj, 
                       __Z24Type1GetQuickDrawMetricsPK18TStrikeDescriptionP14QDMetricsInputP15QDMetricsOutput, 
                       __Z24Type1InterpretCharStringP11_t_FontInstP10_t_BCProcsP17_t_T1CharDataDescP9_t_CharIOP9_t_RunRecP12_t_PathProcsP6T1Args, 
                       __Z24Type1ResetFontReferencesv, __Z25Type1StreamVariationQueryPK18TStrikeDescriptionPjPKcS2_, 
                       __Z28GCAlignIsolatedStem_Postpassiij, __Z28Type1GetGlyphIDFromGlyphNamePK5TFontPcPjPt, 
                       __Z28Type1GetGlyphNameFromGlyphIDPK5TFontjPKtPjPc, 
                       __Z28Type1StreamVariationOperatorPK18TStrikeDescriptionPjPKv, 
                       __Z29T1CFFEnumerateDictAndDefaultsP11CFFFontInfo6DictIDPvPFiPhtsS2_E, 
                       __Z5CScanP9_t_RunRecP10_t_FCdBBoxP10_t_BCProcsPv, 
                       __Z6BCTfmPP11_t_FontInst6_t_FCdPS1_, __Z6fxladd3FxlS_, 
                       __Z6fxlmul3FxlS_, __Z7CSCloseP9CScanArgs, __Z7ErodeSWiij, 
                       __Z8BCSetMtxP6FixMtx, __Z8FlexProcP6_t_FCdiS0_PFvS0_PvEPFvS0_S0_S0_S0_S1_ES1_iij, 
                       __Z8HexToIntPKc, __Z8HexToIntPKhj, __Z8IniCScanP17_t_GrowableBuffer, 
                       __Z8SureGrowPvj, __Z8os_raiseiPKc, __Z9ATMInitBCP16_t_BCRenderProcs, 
                       __Z9BCCnctMtxP7FracMtxP6FixMtxS2_, __Z9BlendHintPvS_S_, 
                       __Z9CSNewLineP6_t_FCdP9CScanArgs, __Z9FixedFltnP6_t_FCdS0_S0_S0_P9CScanArgs, 
                       __Z9FlexProc2P6_t_FCdS0_PFvS0_S0_S0_S0_PvES1_, __Z9FxlToFrac3Fxl, 
                       __Z9GetASZonev, __Z9GetEmSizeP7FracMtxPi, __Z9MergeRunsP8_t_BCRunS0_iiP9_t_RunRecP10_t_BCProcsPv, 
                       __ZGVZ15Type1ScalerInfoE7ourInfo, __ZL10ASSureGrowP12_t_ASZoneRecPvm, 
                       __ZL10CFFGetDataPvjPjS_, __ZL10DoTriXLockiiPiS_Pv, 
                       __ZL10DoTriYLockiiPiS_Pv, __ZL10FixOnePathP5_gclrPP9_gcounterii, 
                       __ZL10GCCalcLocsP5_gclr, __ZL10GCFindLocsP5_gclri, 
                       __ZL10GSortStemsP5_gclrPS0_, __ZL10InitSlopesii, 
                       __ZL10InsertEdgeP7edgerecPv, __ZL10InsertLockP8EdgeListP7_t_Edge, 
                       __ZL10PathLineToP6_t_FCdPv, __ZL10PathMoveToP6_t_FCdPv, 
                       __ZL10SetUpStemWPijijjS_PjS_j, __ZL10TfmLockPt1P6_t_FCdS0_, 
                       __ZL10TfmLockPt3P6_t_FCdS0_, __ZL10doFixupMap, __ZL10endRunBuff, 
                       __ZL10firstPoint, __ZL10index_flex, __ZL10nGlbColors, 
                       __ZL10oldRunBuff, __ZL10otherSubrs, __ZL10pGCPathBuf, 
                       __ZL10powersof10, __ZL11ATMSetUpMtxP6FixMtxiS0_P13_t_BCRendPropPjS3_S3_, 
                       __ZL11FillInPairsP8_t_CrossS0_S0_7PathDirj, __ZL11FillInRangeP8_t_Cross7PathDiriij, 
                       __ZL11FlexCurveTo6_t_FCdS_S_PS_PFvS0_S0_S0_S0_PvES1_, 
                       __ZL11GetRuleDescP8RuleDescP8_t_CrossiS2_i, __ZL11OutlineSeacP6_t_FCdP10OutlineArg, 
                       __ZL11PathCurveToP6_t_FCdS0_S0_S0_Pv, __ZL11PathNewPathPv, 
                       __ZL11SetLeftFlagP8_t_Cross, __ZL11SlopesArray, 
                       __ZL11UseStdWidthiPiS_ji, __ZL11WriteNumberPPhPs, 
                       __ZL11XlateCoordsPK9BlendInfosbPKiPi, __ZL11crossBuffer, 
                       __ZL11endEdgeBuff, __ZL11endScanBuff, __ZL11glcrFailure, 
                       __ZL11index_flex1, __ZL11index_hflex, __ZL11kCRAndSlash, 
                       __ZL11kCharHeader, __ZL11kEndDataStr, __ZL11kPST3Footer, 
                       __ZL11qred_bprocs, __ZL11spliceStart, __ZL11stdStrTable, 
                       __ZL12ASSureMallocP12_t_ASZoneRecm, __ZL12ATMBuildRunsP11_t_FontInstP10_t_BCProcsPvP9_t_CharIOP13_t_DevBBoxRecP9_t_RunRecS3_, 
                       __ZL12ATM_GrowBuffP17_t_GrowableBufferijP10_t_BCProcs, 
                       __ZL12FillInColumnP8_t_Cross7PathDirijj, __ZL12GetArrayInfoP13_t_CFFSetInfoP9ArrayInfoj, 
                       __ZL12GetCFFWindowP6WindowP13_t_CFFSetInfo, __ZL12GrowScanListPv, 
                       __ZL12PatternArray, __ZL12PixelIsBlackii, __ZL12SamplePixelshhhhi, 
                       __ZL12ScanLineCxtnP8_t_CrossS0_iij, __ZL12dictCallbackPhtsPv, 
                       __ZL12gGrowBuffers, __ZL12index_hflex1, __ZL12kStdHWString, 
                       __ZL12kStdVWString, __ZL12lockFixMapOk, __ZL12lockFixedMap, 
                       __ZL12nGlbCounters, __ZL12nextFreeEdge, __ZL12nextFreeScan, 
                       __ZL12oldStartLink, __ZL12pGblColorBuf, __ZL12spliceInsert, 
                       __ZL13BlendHintDataP11_t_FontDescPiP13_t_FontValues, 
                       __ZL13ClumpCountersPP9_gcounterii, __ZL13Default_lenIV, 
                       __ZL13DoFixupActionP8RuleDescP11FixupActionP8_t_Crossi, 
                       __ZL13FindEncoRangePKhjRjS1_, __ZL13FixCrossFlagsP8_t_CrossS0_, 
                       __ZL13LocalStreamerPvjS_, __ZL13NewGlbCounterPv, 
                       __ZL13OutlineLineToP6_t_FCdP10OutlineArg, __ZL13OutlineMoveToP6_t_FCdP10OutlineArg, 
                       __ZL13PathClosePathPv, __ZL13ReadOffsetIncP6Windowh, 
                       __ZL13SGetRunMemoryjP9_t_RunRecjPv, __ZL13SelectionSortPP5_gclrii, 
                       __ZL13e_LineTo_BnnnP6_t_FCdP14erectToDev_Arg, __ZL13e_LineTo_BnnpP6_t_FCdP14erectToDev_Arg, 
                       __ZL13e_LineTo_BnpnP6_t_FCdP14erectToDev_Arg, __ZL13e_LineTo_BnppP6_t_FCdP14erectToDev_Arg, 
                       __ZL13e_LineTo_BpnnP6_t_FCdP14erectToDev_Arg, __ZL13e_LineTo_BpnpP6_t_FCdP14erectToDev_Arg, 
                       __ZL13e_LineTo_BppnP6_t_FCdP14erectToDev_Arg, __ZL13e_LineTo_BpppP6_t_FCdP14erectToDev_Arg, 
                       __ZL13e_LineTo_CnnnP6_t_FCdP14erectToDev_Arg, __ZL13e_LineTo_CnnpP6_t_FCdP14erectToDev_Arg, 
                       __ZL13e_LineTo_CnpnP6_t_FCdP14erectToDev_Arg, __ZL13e_LineTo_CnppP6_t_FCdP14erectToDev_Arg, 
                       __ZL13e_LineTo_CpnnP6_t_FCdP14erectToDev_Arg, __ZL13e_LineTo_CpnpP6_t_FCdP14erectToDev_Arg, 
                       __ZL13e_LineTo_CppnP6_t_FCdP14erectToDev_Arg, __ZL13e_LineTo_CpppP6_t_FCdP14erectToDev_Arg, 
                       __ZL13e_MoveTo_BnnnP6_t_FCdP14erectToDev_Arg, __ZL13e_MoveTo_BnnpP6_t_FCdP14erectToDev_Arg, 
                       __ZL13e_MoveTo_BnpnP6_t_FCdP14erectToDev_Arg, __ZL13e_MoveTo_BnppP6_t_FCdP14erectToDev_Arg, 
                       __ZL13e_MoveTo_BpnnP6_t_FCdP14erectToDev_Arg, __ZL13e_MoveTo_BpnpP6_t_FCdP14erectToDev_Arg, 
                       __ZL13e_MoveTo_BppnP6_t_FCdP14erectToDev_Arg, __ZL13e_MoveTo_BpppP6_t_FCdP14erectToDev_Arg, 
                       __ZL13e_MoveTo_CnnnP6_t_FCdP14erectToDev_Arg, __ZL13e_MoveTo_CnnpP6_t_FCdP14erectToDev_Arg, 
                       __ZL13e_MoveTo_CnpnP6_t_FCdP14erectToDev_Arg, __ZL13e_MoveTo_CnppP6_t_FCdP14erectToDev_Arg, 
                       __ZL13e_MoveTo_CpnnP6_t_FCdP14erectToDev_Arg, __ZL13e_MoveTo_CpnpP6_t_FCdP14erectToDev_Arg, 
                       __ZL13e_MoveTo_CppnP6_t_FCdP14erectToDev_Arg, __ZL13e_MoveTo_CpppP6_t_FCdP14erectToDev_Arg, 
                       __ZL13fakePrevCross, __ZL13kBeginDataStr, __ZL13kRestoreVMStr, 
                       __ZL13qred_flatness, __ZL14ATMBuildBitMapP11_t_FontInstP10_t_BCProcsPvP9_t_CharIOP13_t_DevBBoxRecP12_t_BitMapRecS3_, 
                       __ZL14ATMCharOutlineP11_t_FontInstP10_t_BCProcsPvP9_t_CharIOP12_t_PathProcsjS3_, 
                       __ZL14ATMSetUpValuesP11_t_FontDescP6FixMtxPiP13_t_BCRendPropP10_t_BCProcsPP11_t_FontInstPv, 
                       __ZL14ATMTerminateBCP10_t_BCProcsPv, __ZL14CFFReleaseDataPvS_, 
                       __ZL14CalcEdgeOffsetj, __ZL14CheckBlackDownP8_t_CrossS0_, 
                       __ZL14EditBlackHorizP8_t_Cross7PathDir, __ZL14EditWhiteHorizP8_t_Cross7PathDir, 
                       __ZL14ExpandCharBBoxii, __ZL14FixFltnCurveToP6_t_FCdS0_S0_S0_Pv, 
                       __ZL14OutlineCurveToP6_t_FCdS0_S0_S0_P10OutlineArg, 
                       __ZL14OutlineEndPathP10OutlineArg, __ZL14OutlineNewPathP10OutlineArg, 
                       __ZL14SManageCString22ManageCStringIndexTypePvS0_, 
                       __ZL14freeGlbCounter, __ZL14kEncoEndString, __ZL14kVMusageString, 
                       __ZL14keepPointsFlag, __ZL14pGblCounterBuf, __ZL14whiteFixupFlag, 
                       __ZL15ATMFreeFontInstP11_t_FontInstP10_t_BCProcsPv, 
                       __ZL15ATM_DoOtherSubrjPiPv, __ZL15ActionListArray, 
                       __ZL15AllocatePerHeapiPv, __ZL15Default_charset, 
                       __ZL15EnterGlbCounterP5_gclrS0_Pv, __ZL15FixPixelProblemP8_t_CrossiS0_i, 
                       __ZL15FixupExtendLeftii, __ZL15SlopesArrayInit, 
                       __ZL15TfmLockPt_noTfmP6_t_FCdS0_, __ZL15firstPathBuffer, 
                       __ZL15kADOEndFontDict, __ZL15kArrayDefString, __ZL15kBlueFuzzString, 
                       __ZL15kComponentCodes, __ZL15kFindCIDFontStr, __ZL15kPSStandardEnco, 
                       __ZL15maxXInflections, __ZL15minXInflections, __ZL15pPathListBuffer, 
                       __ZL16ATMMemoryBufSizePjS_S_S_S_S_S_, __ZL16ActionClassArray, 
                       __ZL16CheckDeletePixelP8_t_Crossi, __ZL16Default_BlueFuzz, 
                       __ZL16Default_CIDCount, __ZL16Default_Encoding, 
                       __ZL16Default_FontBBox, __ZL16Default_UniqueID, 
                       __ZL16ExtendRunDropOutiiP12Intersection, __ZL16FillInInflectionP8_t_Cross7PathDiri, 
                       __ZL16FixupExtendRightii, __ZL16OutlineClosePathP10OutlineArg, 
                       __ZL16OutlineGetMemoryP10OutlineArg, __ZL16PixelToCxtnArray, 
                       __ZL16PixelToPixNumAry, __ZL16ReleaseCFFWindowP6Window, 
                       __ZL16SGetBitMapMemoryjP12_t_BitMapRecPv, __ZL16SortGroupsByFracPP9_gcounteri, 
                       __ZL16T1globalColoring, __ZL16kBlueScaleString, 
                       __ZL16kBlueShiftString, __ZL16kStemSnapHString, 
                       __ZL16kStemSnapVString, __ZL16lockSlopesInited, 
                       __ZL16offsetCenterFlag, __ZL17ATM_ManageCString22ManageCStringIndexTypePvS0_, 
                       __ZL17AdjustToStdWidthsv, __ZL17ConnectWhitePairsP8_t_CrossS0_, 
                       __ZL17Default_BlueScale, __ZL17Default_BlueShift, 
                       __ZL17Default_ForceBold, __ZL17Default_PaintType, 
                       __ZL17EnumerateFontDictP11CFFFontInfo6DictIDPvPFiPhtsS2_E, 
                       __ZL17GetBitmapFromSBITRK15TType1TransformRK11_t_FontInsttP12_t_BitMapRecRK20TFontObjectSurrogateP21GlyphRenderingMetrics, 
                       __ZL17OutlineCallMoveToP10OutlineArg, __ZL17ReleaseTempWindowP6Window, 
                       __ZL17SetPixelInDropOutiP12IntersectionS0_j, __ZL17endGlbCounterList, 
                       __ZL17gOutlinePathProcs, __ZL17kADOBeginFontDict, 
                       __ZL17kASCII85FilterStr, __ZL17kBlueValuesString, 
                       __ZL17kDefaultVerString, __ZL17kEncoHeaderString, 
                       __ZL17kOtherBluesString, __ZL18AlignIsolatedStemsPP5_gclri, 
                       __ZL18Default_FontMatrix, __ZL18Default_VToHOrigin, 
                       __ZL18ExtractCFFEncodingPhtsPv, __ZL18MakeFontNameFromIDPhPKht, 
                       __ZL18callbackCFFGetFontPhtsPv, __ZL18defaultOpCodes_CID, 
                       __ZL18erectToDev_EndCharP14erectToDev_Arg, __ZL18erectToDev_NewPathP14erectToDev_Arg, 
                       __ZL18indexedArrayOffsetP6WindowP13_t_CFFSetInfoP9ArrayInfoj, 
                       __ZL18kFamilyBluesString, __ZL18kSaveVMIfExistsStr, 
                       __ZL19ATM_GetBitMapMemoryjP12_t_BitMapRecPv, __ZL19AbandonHeldDataKeysP13_t_CFFSetInfo, 
                       __ZL19Default_CIDFontType, __ZL19Default_ItalicAngle, 
                       __ZL19Default_StrokeWidth, __ZL19EncodeType1ShortIntsPh, 
                       __ZL19PixelScanLineValue4, __ZL19TransformRenderPathP11_t_FontInstP10_t_BCProcsPvP9_t_CharIOP12_t_PathProcsjS3_, 
                       __ZL19defaultOpCodesArray, __ZL19defaultOpCodes_Font, 
                       __ZL19kBeginDictFontType3, __ZL20ATMGetCStringMetricsP11_t_FontInstP10_t_BCProcsPvP9_t_CharIOS3_, 
                       __ZL20CFF_ScanToNextOpCodePPhS_PiPt, __ZL20ConnectedRunOppositeP8_t_Crossj, 
                       __ZL20Default_isFixedPitch, __ZL20erectToDev_ClosePathP14erectToDev_Arg, 
                       __ZL20kForceBoldTrueString, __ZL21Default_LanguageGroup, 
                       __ZL21Default_defaultWidthX, __ZL21Default_defaultWidthY, 
                       __ZL21Default_nominalWidthX, __ZL21kBuildCharFromOutline, 
                       __ZL21kForceBoldFalseString, __ZL21kRedirectFontTemplate, 
                       __ZL22Default_CIDFontVersion, __ZL22Default_CharstringType, 
                       __ZL22Default_HBaselineShift, __ZL22defaultOpCodes_CIDFont, 
                       __ZL22defaultOpCodes_Private, __ZL22kReencodeFontPrefixStr, 
                       __ZL23Default_CIDFontRevision, __ZL23Default_ExpansionFactor, 
                       __ZL23kFamilyOtherBluesString, __ZL23kGetOriginalIfExistsStr, 
                       __ZL23kReencodeFontPostfixStr, __ZL24CFFEnumerateEncodingDictP11CFFFontInfoP6WindowPFtP13CFontPrivate_S2_tEPvPFiPhtsS7_E, 
                       __ZL24specialGlyphIDToStringIDP13CFontPrivate_P6Windowt, 
                       __ZL25ATMGetVerticalMetricsInfoP11_t_FontInstP10_t_BCProcsPvP10_t_VertMtxS3_, 
                       __ZL25Default_UnderlinePosition, __ZL25Default_initialRandomSeed, 
                       __ZL25EnumerateFontDictDefaultsP11CFFFontInfo6DictIDPvPFiPhtsS2_E, 
                       __ZL25ExpertGlyphID_to_StringID, __ZL25erectToDev_CurveTo_clientP6_t_FCdS0_S0_S0_P14erectToDev_Arg, 
                       __ZL25standardGlyphIDToStringIDP13CFontPrivate_P6Windowt, 
                       __ZL26Default_ForceBoldThreshold, __ZL26Default_UnderlineThickness, 
                       __ZL26DoType1InterpretCharStringP11_t_FontInstP10_t_BCProcsP17_t_T1CharDataDescP9_t_CharIOP9_t_RunRecP12_t_PathProcsP6T1Args, 
                       __ZL27AdobeExpertCode_to_StringID, __ZL27DoType13InterpretCharStringP11_t_FontInstP10_t_BCProcsP17_t_T1CharDataDescP9_t_CharIOP9_t_RunRecP12_t_PathProcsP6T1Args, 
                       __ZL28erectToDev_CurveTo_FixedFltnP6_t_FCdS0_S0_S0_P14erectToDev_Arg, 
                       __ZL29AdobeStandardCode_to_StringID, __ZL30CFFIndexedArrayOffsetAndLengthP13_t_CFFSetInfoP9ArrayInfojPjS3_, 
                       __ZL31ExpertSubsetGlyphID_to_StringID, __ZL32CFFEnumerateCompiledEncodingDictP11CFFFontInfoP6WindowPFtP13CFontPrivate_S2_tEPvPFiPhtsS7_E, 
                       __ZL32StandardRomanGlyphID_to_StringID, __ZL33AdobeExpertSubsetCode_to_StringID, 
                       __ZL3MapP8EdgeListi, __ZL3px0, __ZL3py0, __ZL3scn, 
                       __ZL4pxNP, __ZL4pyNP, __ZL5GCNewPP5_gclrS1_Pv, __ZL5GetWVPK11DesignSpacePiS2_, 
                       __ZL5mkfxlii, __ZL5stdhw, __ZL5stdvw, __ZL5xList, 
                       __ZL5yList, __ZL6ASFreeP12_t_ASZoneRecPv, __ZL6ASGrowP12_t_ASZoneRecPvm, 
                       __ZL6Adjustiiii, __ZL6GCFindiij, __ZL6GCLine6_t_FCdS_, 
                       __ZL6RBLockPiiP11_t_FontInstPv, __ZL6RMLockPiiPv, 
                       __ZL6RVLockPiiPv, __ZL6RXLockPiiPv, __ZL6freeGC, 
                       __ZL6gPSEnd, __ZL7CCBuildPiP6CCInfoiiP11_t_FontInst, 
                       __ZL7CalcHW2iiij, __ZL7DoBlendPiS_ii, __ZL7FindKeyPKcjRPKh, 
                       __ZL7FixRunsP8_t_CrossS0_, __ZL7FntTfmYiPi, __ZL7GCEnteriijiPv, 
                       __ZL7GrowRunP9_t_RunRecP10_t_BCProcsPv, __ZL7PathEndPv, 
                       __ZL7TriLockPiiPFiiiS_S_PvEPFviijiiS0_ES0_, __ZL7kPrefix, 
                       __ZL7kSuffix, __ZL7noCurPt, __ZL7runBuff, __ZL7xBoxMax, 
                       __ZL7xBoxMin, __ZL7yBoxMax, __ZL7yBoxMin, __ZL8ASMallocP12_t_ASZoneRecm, 
                       __ZL8BlueLockiiiP5_gclrP11_t_FontInstPv, __ZL8GCDoLockiijPv, 
                       __ZL8GetDTfmXiPi, __ZL8GetDTfmYiPi, __ZL8PreXLockiiPiS_Pv, 
                       __ZL8PreYLockiiPiS_Pv, __ZL8SetXLockiijiiPv, __ZL8SetYLockiijiiPv, 
                       __ZL8edgeBuff, __ZL8edgeGrow, __ZL8fixupmapP8EdgeList, 
                       __ZL8fxlpow103Fxli, __ZL8gPSStart, __ZL8kOneBits, 
                       __ZL8numStdHW, __ZL8numStdVW, __ZL8scanBuff, __ZL8scanGrow, 
                       __ZL8scanList, __ZL8strtofxlPh, __ZL9AddYCrossP8_t_Cross, 
                       __ZL9BuildCxtnP8_t_Crossij, __ZL9BuildEdgeiiiiPv, 
                       __ZL9BuildRunsP11_t_FontInstPvP9_t_CharIOP13_t_DevBBoxRecP9_t_RunRecP10_t_BCProcsS1_j, 
                       __ZL9CScanFillP11_t_FontInstP9_t_RunRecP9_t_CharIO8_t_DevCdP10_t_BCProcsPv, 
                       __ZL9ClearMarkP13_t_CFFSetInfo, __ZL9GCFix1LocP5_gclr, 
                       __ZL9GCProcessP11_t_FontInstP17_t_GrowableBufferiPv, 
                       __ZL9MatchStemPij, __ZL9RaiseTopsP17_t_PrivBlueValRecjjij, 
                       __ZL9SortStemsjPi, __ZL9TfmWidthsPijjjS_, __ZL9devsweven, 
                       __ZL9endGCList, __ZL9initslopeP8EdgeListi, __ZL9isoutline, 
                       __ZL9nPathData, __ZL9pPathData, __ZL9startLink, 
                       __ZN10TALMXTableD0Ev, __ZN10TALMXTableD1Ev, __ZN10TCFFHeaderC1Ehhh, 
                       __ZN10TROTATableD0Ev, __ZN10TROTATableD1Ev, __ZN11TCFFFontSet10AddCharSetEjP14TBigEndianTypeItE, 
                       __ZN11TCFFFontSet11AddEncodingEPK16TCFFEncodingData, 
                       __ZN11TCFFFontSet11AddStemSnapEtjPKi, __ZN11TCFFFontSet13AddBlueValuesEtjPK12BlueValueRecjb, 
                       __ZN11TCFFFontSet14AddSubrsToDictEhtPKhS1_mRP9TCFFArrayR8TCFFDictb, 
                       __ZN11TCFFFontSet17AddStemSnapToDictEtjPKiR8TCFFDict, 
                       __ZN11TCFFFontSet19AddBlueValuesToDictEtjPK12BlueValueRecjbR8TCFFDict, 
                       __ZN11TCFFFontSet8AddSubrsEhtPKhS1_m, __ZN11TCFFFontSetC2EhhhPKc, 
                       __ZN11TCFFFontSetD0Ev, __ZN11TCFFFontSetD1Ev, __ZN11TCFFFontSetD2Ev, 
                       __ZN11TMemoryHeap10MallocSizeEPKv, __ZN11TMemoryHeap4FreeEPv, 
                       __ZN11TMemoryHeap6CallocEmm, __ZN11TMemoryHeap6MallocEm, 
                       __ZN11TMemoryHeap7ReallocEPvm, __ZN11TMemoryHeapD0Ev, 
                       __ZN11TMemoryHeapD1Ev, __ZN11TVFMX2TableD0Ev, __ZN11TVFMX2TableD1Ev, 
                       __ZN12TCFFCharSet0D0Ev, __ZN12TCFFCharSet0D1Ev, 
                       __ZN12TCFFCharSet0D2Ev, __ZN12TCFFEncodingD0Ev, 
                       __ZN12TCFFEncodingD1Ev, __ZN12TCFFEncodingD2Ev, 
                       __ZN12TType1PSFont10GetVMUsageEPKcj, __ZN12TType1PSFont10ScanForKeyEPKcPKhRjS4_S4_, 
                       __ZN12TType1PSFont10ScanForKeyEPKcjPKh, __ZN12TType1PSFont11SetEncodingEjPKjPt, 
                       __ZN12TType1PSFont12PrinterIsBadEPKc, __ZN12TType1PSFont13FindNameRangeEPKcjRjS2_, 
                       __ZN12TType1PSFont14ConvertCharNumEi, __ZN12TType1PSFont14CountGlyphBitsEPKjj, 
                       __ZN12TType1PSFont15FindValueForKeyEPKcS1_jRjS2_, 
                       __ZN12TType1PSFont16EvaluateCharCodeEhRPKhS1_, __ZN12TType1PSFont16SMakeDesignSpaceEPK9BlendInfoj, 
                       __ZN12TType1PSFont30AllocateTranslateArrayIfNeededEP6_t_FCdjRS1_, 
                       __ZN12TType1PSFont33EvaluateAntiAliasRenderingMetricsEiR21GlyphRenderingMetrics, 
                       __ZN12TType1PSFont7GetFontEPK5TFont, __ZN12TType1PSFontC2EPK10TType1Font, 
                       __ZN12TType1PSFontD0Ev, __ZN12TType1PSFontD1Ev, 
                       __ZN12TType1PSFontD2Ev, __ZN12TType1Strike9GetStrikeERK18TStrikeDescription, 
                       __ZN12TType1StrikeC2EPK5TFontjPK13FontVariationRK15StrikeTransform, 
                       __ZN12TType1StrikeD0Ev, __ZN12TType1StrikeD1Ev, 
                       __ZN12TType1StrikeD2Ev, __ZN13TBinarySearchD0Ev, 
                       __ZN13TBinarySearchD1Ev, __ZN13TCFFDictArray3AddERK8TCFFDict, 
                       __ZN13TCFFDictArray3AddEjPKh, __ZN13TCFFDictArrayC1ERK8TCFFDict, 
                       __ZN13TCFFDictArrayC1Ev, __ZN13TCFFDictArrayC2ERK8TCFFDict, 
                       __ZN13TCFFDictArrayD0Ev, __ZN13TCFFDictArrayD1Ev, 
                       __ZN13TCFFEncoding0D0Ev, __ZN13TCFFEncoding0D1Ev, 
                       __ZN13TCFFEncoding0D2Ev, __ZN13TCFFFDSelect0D0Ev, 
                       __ZN13TCFFFDSelect0D1Ev, __ZN13TCFFFDSelect0D2Ev, 
                       __ZN13TType1CIDFont11GetCIDBytesERPht, __ZN13TType1CIDFont12DetermineROSEPKhS1_, 
                       __ZN13TType1CIDFont13GetCIDFDIndexEPhiiRjS1_, __ZN13TType1CIDFontC1EPK10TType1Font, 
                       __ZN13TType1CIDFontC2EPK10TType1Font, __ZN13TType1CIDFontC2EPK10TType1Fontb, 
                       __ZN13TType1CIDFontD0Ev, __ZN13TType1CIDFontD1Ev, 
                       __ZN13TType1CIDFontD2Ev, __ZN13TType1OTFFontC1EPK10TType1Font, 
                       __ZN13TType1OTFFontC2EPK10TType1Font, __ZN13TType1OTFFontD0Ev, 
                       __ZN13TType1OTFFontD1Ev, __ZN13TType1OTFFontD2Ev, 
                       __ZN13TType1PFAFontC1EPK10TType1Font, __ZN13TType1PFAFontC2EPK10TType1Font, 
                       __ZN13TType1PFAFontD0Ev, __ZN13TType1PFAFontD1Ev, 
                       __ZN14TCFFDescriptor10CleanupAllEv, __ZN14TCFFDescriptor6gMutexE, 
                       __ZN14TCFFDescriptorC2EPK5TFontj, __ZN14TCFFDescriptorD0Ev, 
                       __ZN14TCFFDescriptorD1Ev, __ZN14TCFFDescriptorD2Ev, 
                       __ZN14TCIDCFFFontSet11AddEncodingEPK16TCFFEncodingData, 
                       __ZN14TCIDCFFFontSet11AddStemSnapEtjPKi, __ZN14TCIDCFFFontSet13AddBlueValuesEtjPK12BlueValueRecjb, 
                       __ZN14TCIDCFFFontSet8AddSubrsEhtPKhS1_m, __ZN14TCIDCFFFontSetC2EhhhPKcs, 
                       __ZN14TCIDCFFFontSetD0Ev, __ZN14TCIDCFFFontSetD1Ev, 
                       __ZN14TCIDCFFFontSetD2Ev, __ZN14TOTFCFFFontSet13AddCharStringERK12TType1PSFontt, 
                       __ZN14TOTFCFFFontSet14AddGlobalSubrsERK12TType1PSFonthPKhS4_m, 
                       __ZN14TOTFCFFFontSetD0Ev, __ZN14TOTFCFFFontSetD1Ev, 
                       __ZN14TType1LWFNFontC1EPK10TType1Font, __ZN14TType1LWFNFontC2EPK10TType1Font, 
                       __ZN14TType1LWFNFontD0Ev, __ZN14TType1LWFNFontD1Ev, 
                       __ZN14TType1PDC0FontC1EPK10TType1Font, __ZN14TType1PDC0FontD0Ev, 
                       __ZN14TType1PDC0FontD1Ev, __ZN14TType1PDT1FontC1EPK10TType1Font, 
                       __ZN14TType1PDT1FontC2EPK10TType1Font, __ZN14TType1PDT1FontD0Ev, 
                       __ZN14TType1PDT1FontD1Ev, __ZN14TType1PDTCFontC1EPK10TType1Font, 
                       __ZN14TType1PDTCFontD0Ev, __ZN14TType1PDTCFontD1Ev, 
                       __ZN14TType1SFNTFontC1EPK10TType1Font, __ZN14TType1SFNTFontC2EPK10TType1Font, 
                       __ZN14TType1SFNTFontC2EPK10TType1Fontb, __ZN14TType1SFNTFontD0Ev, 
                       __ZN14TType1SFNTFontD1Ev, __ZN14TType1SFNTFontD2Ev, 
                       __ZN14TType1Streamer11GetStreamerERK18TStrikeDescription, 
                       __ZN14TType1StreamerC2EPK5TFontjPK13FontVariation, 
                       __ZN14TType1StreamerD0Ev, __ZN14TType1StreamerD1Ev, 
                       __ZN14TType1StreamerD2Ev, __ZN15TCFFStringArray9AddStringEPKc, 
                       __ZN15TCFFStringArray9AddStringEPKh, __ZN15TCFFStringArray9AddStringEjPKc, 
                       __ZN15TCFFStringArrayD0Ev, __ZN15TCFFStringArrayD1Ev, 
                       __ZN15TFlexConversion11GetArgumentEtRi, __ZN15TFlexConversion12AddFlexDepthEiii, 
                       __ZN15TFlexConversion13ConvertValuesEv, __ZN15TFlexConversion17GetNumOfArgumentsEv, 
                       __ZN15TFlexConversion8AddValueEii, __ZN15TFlexConversion8FinalizeEv, 
                       __ZN15TFlexConversionD0Ev, __ZN15TFlexConversionD1Ev, 
                       __ZN15TFlexConversionD2Ev, __ZN15TType1ExceptionC1ERKS_, 
                       __ZN15TType1ExceptionC1Es, __ZN15TType1ExceptionD0Ev, 
                       __ZN15TType1ExceptionD1Ev, __ZN15TType1HFMXTableC2Ev, 
                       __ZN15TType1HFMXTableD0Ev, __ZN15TType1HFMXTableD1Ev, 
                       __ZN15TType1HFMXTableD2Ev, __ZN15TType1TransformC2ERKS_, 
                       __ZN15TType1TransformD0Ev, __ZN15TType1TransformD1Ev, 
                       __ZN15TType1TransformD2Ev, __ZN15TType1VFMXTableC2Ev, 
                       __ZN15TType1VFMXTableD0Ev, __ZN15TType1VFMXTableD1Ev, 
                       __ZN15TType1VFMXTableD2Ev, __ZN16TCIDMetricsTableC2ERK20TFontObjectSurrogatejjjtib, 
                       __ZN16TCIDMetricsTableD0Ev, __ZN16TCIDMetricsTableD1Ev, 
                       __ZN16TFontObjectTableC1ERK20TFontObjectSurrogatej, 
                       __ZN16TFontObjectTableC1ERK20TFontObjectSurrogatejjj, 
                       __ZN16TFontObjectTableC1ERK20TFontObjectSurrogatejjjj, 
                       __ZN16TFontObjectTableC2ERK20TFontObjectSurrogatej, 
                       __ZN16TFontObjectTableC2ERK20TFontObjectSurrogatejjj, 
                       __ZN16TFontObjectTableC2ERK20TFontObjectSurrogatejjjj, 
                       __ZN16TFontObjectTableD1Ev, __ZN16TType1CFFFontSet13AddCharStringERK12TType1PSFontt, 
                       __ZN16TType1CFFFontSet14AddGlobalSubrsERK12TType1PSFonthPKhS4_m, 
                       __ZN16TType1CFFFontSet8AddSubrsEhtPKhS1_m, __ZN16TType1CFFFontSetC1EhhhPKc, 
                       __ZN16TType1CFFFontSetD0Ev, __ZN16TType1CFFFontSetD1Ev, 
                       __ZN16TType1OTFCIDFontC1EPK10TType1Font, __ZN16TType1OTFCIDFontC2EPK10TType1Font, 
                       __ZN16TType1OTFCIDFontD0Ev, __ZN16TType1OTFCIDFontD1Ev, 
                       __ZN16TType1OTFCIDFontD2Ev, __ZN17MScratchAlloationdlEPv, 
                       __ZN17MScratchAlloationnwEm, __ZN17TOTFCIDCFFFontSet13AddCharStringERK12TType1PSFontt, 
                       __ZN17TOTFCIDCFFFontSet14AddGlobalSubrsERK12TType1PSFonthPKhS4_m, 
                       __ZN17TOTFCIDCFFFontSetD0Ev, __ZN17TOTFCIDCFFFontSetD1Ev, 
                       __ZN17TRenderingContext10gRenderingE, __ZN17TRenderingContext13GetBuildProcsEv, 
                       __ZN17TRenderingContext15gRenderingMutexE, __ZN17TRenderingContextC1EPK12TType1PSFont, 
                       __ZN17TRenderingContextC2EPK12TType1PSFontPKhtb, 
                       __ZN17TRenderingContextD0Ev, __ZN17TRenderingContextD1Ev, 
                       __ZN17TRenderingContextD2Ev, __ZN17TStreamingContext21StreamEmptyCharStringEPKhj, 
                       __ZN17TStreamingContextD0Ev, __ZN17TStreamingContextD1Ev, 
                       __ZN18MPathTransformable13UpdateMetricsER10FixedPointS1_S1_R10_t_FCdBBox, 
                       __ZN18MPathTransformable21TransformControlPointERK6_t_FCdRS0_, 
                       __ZN18MPathTransformableC2ERK15TType1Transform, 
                       __ZN18MPathTransformableD0Ev, __ZN18MPathTransformableD1Ev, 
                       __ZN18MPathTransformableD2Ev, __ZN18TCharStringContextC2Ev, 
                       __ZN18TCharStringContextD0Ev, __ZN18TCharStringContextD1Ev, 
                       __ZN18TCharStringContextD2Ev, __ZN18TType1CIDVFMXTableC2ERK13TType1CIDFont, 
                       __ZN18TType1CIDVFMXTableD0Ev, __ZN18TType1CIDVFMXTableD1Ev, 
                       __ZN18TType1FontInstanceC1ERK12TType1PSFontPKiRK6FixMtxRK10FixedPointj, 
                       __ZN18TType1FontInstanceC2Ev, __ZN18TType1FontInstanceD0Ev, 
                       __ZN18TType1FontInstanceD1Ev, __ZN18TType1FontInstanceD2Ev, 
                       __ZN18TType1OTFHFMXTableC1ERK14TType1SFNTFontsi, 
                       __ZN18TType1OTFHFMXTableC2ERK14TType1SFNTFontsi, 
                       __ZN18TType1OTFHFMXTableD0Ev, __ZN18TType1OTFHFMXTableD1Ev, 
                       __ZN18TType1OTFVFMXTableC1ERK14TType1SFNTFonts, 
                       __ZN18TType1OTFVFMXTableC2ERK14TType1SFNTFonts, 
                       __ZN18TType1OTFVFMXTableD0Ev, __ZN18TType1OTFVFMXTableD1Ev, 
                       __ZN18TType1Transform2x2C1ERK12TType1PSFontPKiRK15StrikeTransformj, 
                       __ZN18TType1Transform2x2C2ERK12TType1PSFontPKiRK15StrikeTransformj, 
                       __ZN18TType1Transform2x2C2ERK15StrikeTransform, 
                       __ZN18TType1Transform2x2D0Ev, __ZN18TType1Transform2x2D1Ev, 
                       __ZN18TType1Transform3x3C1ERK12TType1PSFontPKiRK15StrikeTransformj, 
                       __ZN18TType1Transform3x3C2ERK12TType1PSFontPKiRK15StrikeTransformj, 
                       __ZN18TType1Transform3x3D0Ev, __ZN18TType1Transform3x3D1Ev, 
                       __ZN19MPathFlattenContextC2ERK10FixedPointssP12_t_PathProcs, 
                       __ZN19MPathFlattenContextD0Ev, __ZN19MPathFlattenContextD1Ev, 
                       __ZN19MPathFlattenContextD2Ev, __ZN19MType1HeapAllocabledlEPv, 
                       __ZN19MType1HeapAllocablenwEm, __ZN19MType1HeapAllocablenwEmP11TMemoryHeapb, 
                       __ZN19TBinarySingleSearchD0Ev, __ZN19TBinarySingleSearchD1Ev, 
                       __ZN19TCFFEncodingContextD0Ev, __ZN19TCFFEncodingContextD1Ev, 
                       __ZN19TCFFEncodingContextD2Ev, __ZN19THintCntrConversion11GetArgumentEtRit, 
                       __ZN19THintCntrConversion17GetNumOfArgumentsEt, 
                       __ZN19THintCntrConversion21RemoveDuplicatedValueEv, 
                       __ZN19THintCntrConversion24GetMaskDataBytesForHintsEPht, 
                       __ZN19THintCntrConversion27GetMaskDataBytesForCountersEPht, 
                       __ZN19THintCntrConversion8AddValueEiitt, __ZN19THintCntrConversion8FinalizeEv, 
                       __ZN19THintCntrConversionC2Ev, __ZN19THintCntrConversionD0Ev, 
                       __ZN19THintCntrConversionD1Ev, __ZN19THintCntrConversionD2Ev, 
                       __ZN19TType1CIDCFFFontSet13AddCharStringERK12TType1PSFontt, 
                       __ZN19TType1CIDCFFFontSet14AddGlobalSubrsERK12TType1PSFonthPKhS4_m, 
                       __ZN19TType1CIDCFFFontSet8AddSubrsEhtPKhS1_m, __ZN19TType1CIDCFFFontSetD0Ev, 
                       __ZN19TType1CIDCFFFontSetD1Ev, __ZN19TType1LWFNVFMXTableD0Ev, 
                       __ZN19TType1LWFNVFMXTableD1Ev, __ZN19TType1SFNTHFMXTableC2ERK14TType1SFNTFont, 
                       __ZN19TType1SFNTHFMXTableD0Ev, __ZN19TType1SFNTHFMXTableD1Ev, 
                       __ZN19TType1SFNTVFMXTableC2ERK14TType1SFNTFont, 
                       __ZN19TType1SFNTVFMXTableD0Ev, __ZN19TType1SFNTVFMXTableD1Ev, 
                       __ZN20TFontObjectSurrogateD0Ev, __ZN20TFontObjectSurrogateD1Ev, 
                       __ZN20TFontObjectSurrogateD2Ev, __ZN21MPathRenderingContext12GetPathProcsEv, 
                       __ZN21MPathRenderingContext12ProcessPointERK6_t_FCdRS0_, 
                       __ZN21MPathRenderingContext13RenderOutlineERK11_t_FontInstb, 
                       __ZN21MPathRenderingContext7EndPathEv, __ZN21MPathRenderingContextC2EPK12TType1PSFontPKhtb, 
                       __ZN21MPathRenderingContextD0Ev, __ZN21MPathRenderingContextD1Ev, 
                       __ZN21MPathRenderingContextD2Ev, __ZN21TOTFCharStringContextC2ERK13TType1OTFFontt, 
                       __ZN21TOTFCharStringContextD0Ev, __ZN21TOTFCharStringContextD1Ev, 
                       __ZN21TPathRenderingContextD2Ev, __ZN21TType1CIDFontInstanceC2ERK13TType1CIDFontPKiRK6FixMtxRK10FixedPointj, 
                       __ZN21TType1CIDFontInstanceD0Ev, __ZN21TType1CIDFontInstanceD1Ev, 
                       __ZN21TType1CIDFontInstanceD2Ev, __ZN22MStreamSnapShotContext10BlendValueEP35TBufferedCharStringStreamingContextPis, 
                       __ZN22MStreamSnapShotContext7StoreWVEPii, __ZN22MStreamSnapShotContextC2ERK12TType1PSFontsPKiP10FontValues, 
                       __ZN22MStreamSnapShotContextD0Ev, __ZN22MStreamSnapShotContextD1Ev, 
                       __ZN22MStreamSnapShotContextD2Ev, __ZN22TCFFGetEncodingContext20EnumerateCFFEncodingEit, 
                       __ZN22TCFFGetEncodingContextD0Ev, __ZN22TCFFGetEncodingContextD1Ev, 
                       __ZN22TGlyphRenderingContext10RenderRunsERK11_t_FontInstb, 
                       __ZN22TGlyphRenderingContextC2EPK12TType1PSFontRK15TType1TransformPKht, 
                       __ZN22TGlyphRenderingContextD0Ev, __ZN22TGlyphRenderingContextD1Ev, 
                       __ZN22TGlyphRenderingContextD2Ev, __ZN22TLWFNCharStringContextD0Ev, 
                       __ZN22TLWFNCharStringContextD1Ev, __ZN22TLWFNCharStringContextD2Ev, 
                       __ZN22TPDT1CharStringContextD0Ev, __ZN22TPDT1CharStringContextD1Ev, 
                       __ZN22TPDT1CharStringContextD2Ev, __ZN22TStreamEncodingContext14DumpPSEncodingEv, 
                       __ZN22TStreamEncodingContext15AddEncodingTextEiPh, 
                       __ZN22TStreamEncodingContextC1EP16OpaqueStreamSpecb, 
                       __ZN22TStreamEncodingContextC1EP16OpaqueStreamSpecbb, 
                       __ZN22TStreamEncodingContextC2EP16OpaqueStreamSpecb, 
                       __ZN22TStreamEncodingContextC2EP16OpaqueStreamSpecbb, 
                       __ZN22TStreamEncodingContextD0Ev, __ZN22TStreamEncodingContextD1Ev, 
                       __ZN23TType1CharStringContextC2ERK14TType1SFNTFontt, 
                       __ZN23TType1CharStringContextD0Ev, __ZN23TType1CharStringContextD1Ev, 
                       __ZN23TType1CharStringContextD2Ev, __ZN24TLWFNFontObjectSurrogateC2EPK5TFont, 
                       __ZN24TLWFNFontObjectSurrogateD0Ev, __ZN24TLWFNFontObjectSurrogateD1Ev, 
                       __ZN24TType1HFMXTableSurrogateC1ERK12TType1PSFont, 
                       __ZN24TType1HFMXTableSurrogateD0Ev, __ZN24TType1HFMXTableSurrogateD1Ev, 
                       __ZN24TType1VFMXTableSurrogateC1ERK12TType1PSFont, 
                       __ZN24TType1VFMXTableSurrogateD0Ev, __ZN24TType1VFMXTableSurrogateD1Ev, 
                       __ZN25T3x3GlyphRenderingContext10RenderRunsERK11_t_FontInstb, 
                       __ZN25T3x3GlyphRenderingContextD0Ev, __ZN25T3x3GlyphRenderingContextD1Ev, 
                       __ZN25TBufferedStreamingContext10BeginEexecEbb, 
                       __ZN25TBufferedStreamingContext10BufferCharEh, __ZN25TBufferedStreamingContext11BufferFixedEis, 
                       __ZN25TBufferedStreamingContext12BufferStringEPKhm, 
                       __ZN25TBufferedStreamingContext12StreamBufferEv, 
                       __ZN25TBufferedStreamingContext13BufferPStringEPKh, 
                       __ZN25TBufferedStreamingContext14BufferPSStringEPKhj, 
                       __ZN25TBufferedStreamingContext17BufferUnitEmFixedEi, 
                       __ZN25TBufferedStreamingContext29StreamSubstituteHeaderCommentEPKcPKhRj, 
                       __ZN25TBufferedStreamingContext29StreamTillSubstitutedFontNameEPKcRPKhRj, 
                       __ZN25TBufferedStreamingContext8EndEexecEv, __ZN25TBufferedStreamingContext9BufferIntEi, 
                       __ZN25TBufferedStreamingContext9BufferIntEj, __ZN25TBufferedStreamingContextC1ERK12TType1PSFontPKjP16OpaqueStreamSpec, 
                       __ZN25TBufferedStreamingContextC2ERK12TType1PSFontPKjP16OpaqueStreamSpec, 
                       __ZN25TBufferedStreamingContextD0Ev, __ZN25TBufferedStreamingContextD1Ev, 
                       __ZN25TBufferedStreamingContextD2Ev, __ZN25TCFFStreamEncodingContext20EnumerateCFFEncodingEit, 
                       __ZN25TCFFStreamEncodingContextD0Ev, __ZN25TCFFStreamEncodingContextD1Ev, 
                       __ZN25TCFFStreamEncodingContextD2Ev, __ZN25TType1CIDRenderingContext13gCIDRenderingE, 
                       __ZN25TType1CIDRenderingContext18gCIDRenderingMutexE, 
                       __ZN25TType1CIDRenderingContextC1ERK13TType1CIDFontRtb, 
                       __ZN25TType1CIDRenderingContextC2ERK13TType1CIDFontRtb, 
                       __ZN25TType1CIDRenderingContextD0Ev, __ZN25TType1CIDRenderingContextD1Ev, 
                       __ZN25TType1CIDRenderingContextD2Ev, __ZN26MCharStringConvertionStateC2ERK14TType1SFNTFont, 
                       __ZN26MCharStringConvertionStateD0Ev, __ZN26MCharStringConvertionStateD1Ev, 
                       __ZN26TCubicPathRenderingContext13RenderOutlineERK11_t_FontInstb, 
                       __ZN26TCubicPathRenderingContext6LineToEP6_t_FCd, 
                       __ZN26TCubicPathRenderingContext6MoveToEP6_t_FCd, 
                       __ZN26TCubicPathRenderingContext7CurveToEP6_t_FCdS1_S1_S1_, 
                       __ZN26TCubicPathRenderingContext7NewPathEv, __ZN26TCubicPathRenderingContext9ClosePathEv, 
                       __ZN26TCubicPathRenderingContextC2EPK12TType1PSFontPKhtPvj, 
                       __ZN26TCubicPathRenderingContextD0Ev, __ZN26TCubicPathRenderingContextD1Ev, 
                       __ZN26TCubicPathRenderingContextD2Ev, __ZN28TCharStringConversionContext10WriteFixedERi, 
                       __ZN28TCharStringConversionContext11WriteOpCodeEt, 
                       __ZN28TCharStringConversionContext12IntToCharstrEiPh, 
                       __ZN28TCharStringConversionContext14FixedToCharstrEiPh, 
                       __ZN28TCharStringConversionContext15ConvertFixedDivEiPhi, 
                       __ZN28TCharStringConversionContext17CalculateDataSizeEj, 
                       __ZN28TCharStringConversionContext9WriteDataEPKhj, 
                       __ZN28TCharStringConversionContextC2Ev, __ZN28TCharStringConversionContextD0Ev, 
                       __ZN28TCharStringConversionContextD1Ev, __ZN28TCharStringConversionContextD2Ev, 
                       __ZN28TPathMetricsRenderingContext11MakeOutlineERK11_t_FontInstbR10FixedPointS4_S4_, 
                       __ZN28TPathMetricsRenderingContext12ProcessPointERK6_t_FCdRS0_, 
                       __ZN28TPathMetricsRenderingContext6LineToEP6_t_FCd, 
                       __ZN28TPathMetricsRenderingContext6MoveToEP6_t_FCd, 
                       __ZN28TPathMetricsRenderingContext7CurveToEP6_t_FCdS1_S1_S1_, 
                       __ZN28TPathMetricsRenderingContext7NewPathEv, __ZN28TPathMetricsRenderingContext9ClosePathEv, 
                       __ZN28TPathMetricsRenderingContextC1EPK12TType1PSFontPKht, 
                       __ZN28TPathMetricsRenderingContextC2EPK12TType1PSFontRK15TType1TransformPKht, 
                       __ZN28TPathMetricsRenderingContextD0Ev, __ZN28TPathMetricsRenderingContextD1Ev, 
                       __ZN29Type1TableSythesisDataContextD0Ev, __ZN29Type1TableSythesisDataContextD1Ev, 
                       __ZN29Type1TableSythesisDataContextD2Ev, __ZN30TQuadraticPathRenderingContext6LineToEP6_t_FCd, 
                       __ZN30TQuadraticPathRenderingContext6MoveToEP6_t_FCd, 
                       __ZN30TQuadraticPathRenderingContext7CurveToEP6_t_FCdS1_S1_S1_, 
                       __ZN30TQuadraticPathRenderingContext7NewPathEv, 
                       __ZN30TQuadraticPathRenderingContext8AddPointERK6_t_FCdb, 
                       __ZN30TQuadraticPathRenderingContext8PathGrowEv, 
                       __ZN30TQuadraticPathRenderingContext9ClosePathEv, 
                       __ZN30TQuadraticPathRenderingContextC2EPK12TType1PSFontPKhtPvj, 
                       __ZN30TQuadraticPathRenderingContextD0Ev, __ZN30TQuadraticPathRenderingContextD1Ev, 
                       __ZN30TQuadraticPathRenderingContextD2Ev, __ZN31TFractionalMetricsRenderContext22GetMetricPerCharStringEPK11_t_FontInstR10_t_CharSBW, 
                       __ZN31TFractionalMetricsRenderContextC2EPK12TType1PSFontPKht, 
                       __ZN31TFractionalMetricsRenderContextD0Ev, __ZN31TFractionalMetricsRenderContextD1Ev, 
                       __ZN31TFractionalMetricsRenderContextD2Ev, __ZN31TLWFNMMSnapShotStreamingContext11StoreWVCodeEi, 
                       __ZN31TLWFNMMSnapShotStreamingContext8BlendValEPis, 
                       __ZN31TLWFNMMSnapShotStreamingContextD0Ev, __ZN31TLWFNMMSnapShotStreamingContextD1Ev, 
                       __ZN31TTransformedRunRenderingContext10RenderRunsERK11_t_FontInstb, 
                       __ZN31TTransformedRunRenderingContextC2EPK12TType1PSFontRK15TType1TransformPKht, 
                       __ZN31TTransformedRunRenderingContextD0Ev, __ZN31TTransformedRunRenderingContextD1Ev, 
                       __ZN31TType1LWFNSingleMasterHFMXTableC2ERK20TFontObjectSurrogateis, 
                       __ZN31TType1LWFNSingleMasterHFMXTableD0Ev, __ZN31TType1LWFNSingleMasterHFMXTableD1Ev, 
                       __ZN32TTransformedPathRenderingContext6LineToEP6_t_FCd, 
                       __ZN32TTransformedPathRenderingContext6MoveToEP6_t_FCd, 
                       __ZN32TTransformedPathRenderingContext7CurveToEP6_t_FCdS1_S1_S1_, 
                       __ZN32TTransformedPathRenderingContext7EndPathEv, 
                       __ZN32TTransformedPathRenderingContext7NewPathEv, 
                       __ZN32TTransformedPathRenderingContext9ClosePathEv, 
                       __ZN32TTransformedPathRenderingContextD0Ev, __ZN32TTransformedPathRenderingContextD1Ev, 
                       __ZN32TType1MMSnapShotStreamingContext11StoreWVCodeEi, 
                       __ZN32TType1MMSnapShotStreamingContext8BlendValEPis, 
                       __ZN32TType1MMSnapShotStreamingContextC2ERK14TType1SFNTFontPKjsPKiP16OpaqueStreamSpec, 
                       __ZN32TType1MMSnapShotStreamingContextD0Ev, __ZN32TType1MMSnapShotStreamingContextD1Ev, 
                       __ZN33TType1LWFNMultipleMasterHFMXTableC2ERK20TFontObjectSurrogateissPi, 
                       __ZN33TType1LWFNMultipleMasterHFMXTableD0Ev, __ZN33TType1LWFNMultipleMasterHFMXTableD1Ev, 
                       __ZN35TBufferedCharStringStreamingContext10BufferStdWEv, 
                       __ZN35TBufferedCharStringStreamingContext11BufferSubrsEv, 
                       __ZN35TBufferedCharStringStreamingContext11StoreWVCodeEi, 
                       __ZN35TBufferedCharStringStreamingContext11StreamCharsEPi, 
                       __ZN35TBufferedCharStringStreamingContext12DoCharStringERK18TCharStringContextPKhPi, 
                       __ZN35TBufferedCharStringStreamingContext14BufferCharDataEhsPi, 
                       __ZN35TBufferedCharStringStreamingContext14BufferFontBBoxEv, 
                       __ZN35TBufferedCharStringStreamingContext14BufferStemSnapEv, 
                       __ZN35TBufferedCharStringStreamingContext15BeginCharBufferEst, 
                       __ZN35TBufferedCharStringStreamingContext15BufferBlueStuffEv, 
                       __ZN35TBufferedCharStringStreamingContext15BufferForceBoldEv, 
                       __ZN35TBufferedCharStringStreamingContext16BufferBlueValuesEPKhb, 
                       __ZN35TBufferedCharStringStreamingContext16BufferCharBufferEv, 
                       __ZN35TBufferedCharStringStreamingContext16BufferFontMatrixEv, 
                       __ZN35TBufferedCharStringStreamingContext16CharBufferStringEPKhj, 
                       __ZN35TBufferedCharStringStreamingContext16StreamCharHeaderERK18TCharStringContextj, 
                       __ZN35TBufferedCharStringStreamingContext17BufferFamilyBluesEPKhb, 
                       __ZN35TBufferedCharStringStreamingContext17ProcessCharStringEPKhjs, 
                       __ZN35TBufferedCharStringStreamingContext18GetStreamCharCountEv, 
                       __ZN35TBufferedCharStringStreamingContext20CharBufferAndEncryptEPKhj, 
                       __ZN35TBufferedCharStringStreamingContext21GetStreamableSubrDataEiRj, 
                       __ZN35TBufferedCharStringStreamingContext8BlendValEPis, 
                       __ZN35TBufferedCharStringStreamingContextC2ERK12TType1PSFontPKjP16OpaqueStreamSpec, 
                       __ZN35TBufferedCharStringStreamingContextD0Ev, __ZN35TBufferedCharStringStreamingContextD1Ev, 
                       __ZN35TBufferedCharStringStreamingContextD2Ev, __ZN35TType1ResolutionRestrictedTransformD0Ev, 
                       __ZN35TType1ResolutionRestrictedTransformD1Ev, __ZN36TCIDASCII85EncodableStreamingContext12BufferStringEPKhj, 
                       __ZN36TCIDASCII85EncodableStreamingContext16EndASCII85EncodeEv, 
                       __ZN36TCIDASCII85EncodableStreamingContext24EndCharBufferAndStreamItEv, 
                       __ZN36TCIDASCII85EncodableStreamingContextC2ERK13TType1CIDFontPKjP16OpaqueStreamSpecb, 
                       __ZN36TCIDASCII85EncodableStreamingContextD0Ev, 
                       __ZN36TCIDASCII85EncodableStreamingContextD1Ev, 
                       __ZN36TCIDASCII85EncodableStreamingContextD2Ev, 
                       __ZN37TTransformedCubicPathRenderingContext12ProcessPointERK6_t_FCdRS0_, 
                       __ZN37TTransformedCubicPathRenderingContext13RenderOutlineERK11_t_FontInstb, 
                       __ZN37TTransformedCubicPathRenderingContextC2EPK12TType1PSFontRK15TType1TransformPKhtPvj, 
                       __ZN37TTransformedCubicPathRenderingContextD0Ev, 
                       __ZN37TTransformedCubicPathRenderingContextD1Ev, 
                       __ZN39TBufferedLWFNCharStringStreamingContext25StreamDecryptedCharStringERK12TType1PSFonttPKhPi, 
                       __ZN39TBufferedLWFNCharStringStreamingContextD0Ev, 
                       __ZN39TBufferedLWFNCharStringStreamingContextD1Ev, 
                       __ZN39TBufferedPDT1CharStringStreamingContext25StreamDecryptedCharStringERK12TType1PSFonttPKhPi, 
                       __ZN39TBufferedPDT1CharStringStreamingContextD0Ev, 
                       __ZN39TBufferedPDT1CharStringStreamingContextD1Ev, 
                       __ZN39TT2T1ConvertingBufferedStreamingContext16StreamCharStringERK14TType1SFNTFonttPKhPi, 
                       __ZN39TT2T1ConvertingBufferedStreamingContextC2ERK14TType1SFNTFontPKjP16OpaqueStreamSpec, 
                       __ZN39TT2T1ConvertingBufferedStreamingContextD0Ev, 
                       __ZN39TT2T1ConvertingBufferedStreamingContextD1Ev, 
                       __ZN39TT2T1ConvertingBufferedStreamingContextD2Ev, 
                       __ZN39TTransformedPathMetricsRenderingContext11MakeOutlineERK11_t_FontInstbR10FixedPointS4_S4_, 
                       __ZN39TTransformedPathMetricsRenderingContext12ProcessPointERK6_t_FCdRS0_, 
                       __ZN39TTransformedPathMetricsRenderingContext13UpdateMetricsER10FixedPointS1_S1_R10_t_FCdBBox, 
                       __ZN39TTransformedPathMetricsRenderingContext6LineToEP6_t_FCd, 
                       __ZN39TTransformedPathMetricsRenderingContext6MoveToEP6_t_FCd, 
                       __ZN39TTransformedPathMetricsRenderingContext7CurveToEP6_t_FCdS1_S1_S1_, 
                       __ZN39TTransformedPathMetricsRenderingContextC1EPK12TType1PSFontRK15TType1TransformPKht, 
                       __ZN39TTransformedPathMetricsRenderingContextD0Ev, 
                       __ZN39TTransformedPathMetricsRenderingContextD1Ev, 
                       __ZN40TBufferedType1CharStringStreamingContext16StreamCharStringERK14TType1SFNTFonttPKhPi, 
                       __ZN40TBufferedType1CharStringStreamingContext25StreamDecryptedCharStringERK12TType1PSFonttPKhPi, 
                       __ZN40TBufferedType1CharStringStreamingContextC2ERK14TType1SFNTFontPKjP16OpaqueStreamSpec, 
                       __ZN40TBufferedType1CharStringStreamingContextD0Ev, 
                       __ZN40TBufferedType1CharStringStreamingContextD1Ev, 
                       __ZN40TBufferedType1CharStringStreamingContextD2Ev, 
                       __ZN40TType1ToType2CharStringConversionContext11WriteLineToERiS0_, 
                       __ZN40TType1ToType2CharStringConversionContext11WriteMoveToERiS0_, 
                       __ZN40TType1ToType2CharStringConversionContext12WriteEndCharEv, 
                       __ZN40TType1ToType2CharStringConversionContext13WriteAllHintsEv, 
                       __ZN40TType1ToType2CharStringConversionContext13WriteHintMaskEt, 
                       __ZN40TType1ToType2CharStringConversionContext14WriteHVCurveToERiS0_S0_S0_, 
                       __ZN40TType1ToType2CharStringConversionContext14WriteRRCurveToERiS0_S0_S0_S0_S0_, 
                       __ZN40TType1ToType2CharStringConversionContext14WriteVHCurveToERiS0_S0_S0_, 
                       __ZN40TType1ToType2CharStringConversionContext17FlattenSubroutineEttRb, 
                       __ZN40TType1ToType2CharStringConversionContext18GetHintCntrContextEv, 
                       __ZN40TType1ToType2CharStringConversionContext18StoreCounterValuesEv, 
                       __ZN40TType1ToType2CharStringConversionContext23ConvertT1ToT2CharStringEtRb, 
                       __ZN40TType1ToType2CharStringConversionContext8SetHintsEv, 
                       __ZN40TType1ToType2CharStringConversionContextC1ERK14TType1SFNTFontt, 
                       __ZN40TType1ToType2CharStringConversionContextC2ERK14TType1SFNTFont, 
                       __ZN40TType1ToType2CharStringConversionContextC2ERK14TType1SFNTFontt, 
                       __ZN40TType1ToType2CharStringConversionContextD0Ev, 
                       __ZN40TType1ToType2CharStringConversionContextD1Ev, 
                       __ZN40TType1ToType2CharStringConversionContextD2Ev, 
                       __ZN40TType2ToType1CharStringConvertionContext10BCDToFixedEPKhb, 
                       __ZN40TType2ToType1CharStringConvertionContext10WriteFlex1Ev, 
                       __ZN40TType2ToType1CharStringConvertionContext10WriteHFlexEv, 
                       __ZN40TType2ToType1CharStringConvertionContext10WriteHintsEb, 
                       __ZN40TType2ToType1CharStringConvertionContext11FlattenSubrEtRb, 
                       __ZN40TType2ToType1CharStringConvertionContext11SetCountersEv, 
                       __ZN40TType2ToType1CharStringConvertionContext11StateChangeE18PenStateTransition19HintStateTransitionbj, 
                       __ZN40TType2ToType1CharStringConvertionContext11WriteHFlex1Ev, 
                       __ZN40TType2ToType1CharStringConvertionContext12AddToHintMapEt, 
                       __ZN40TType2ToType1CharStringConvertionContext12WriteEndCharEv, 
                       __ZN40TType2ToType1CharStringConvertionContext12WriteHMoveToEv, 
                       __ZN40TType2ToType1CharStringConvertionContext12WriteRLineToEv, 
                       __ZN40TType2ToType1CharStringConvertionContext12WriteRMoveToEv, 
                       __ZN40TType2ToType1CharStringConvertionContext12WriteVMoveToEv, 
                       __ZN40TType2ToType1CharStringConvertionContext13ArgPtrToFixedEPPKhb, 
                       __ZN40TType2ToType1CharStringConvertionContext13WriteHintMaskEv, 
                       __ZN40TType2ToType1CharStringConvertionContext14WriteHHCurveToEv, 
                       __ZN40TType2ToType1CharStringConvertionContext14WriteRRCurveToEv, 
                       __ZN40TType2ToType1CharStringConvertionContext14WriteVVCurveToEv, 
                       __ZN40TType2ToType1CharStringConvertionContext15WriteDotSectionEv, 
                       __ZN40TType2ToType1CharStringConvertionContext15WriteRCurveLineEv, 
                       __ZN40TType2ToType1CharStringConvertionContext15WriteRLineCurveEv, 
                       __ZN40TType2ToType1CharStringConvertionContext17FlattenGlobalSubrEtRb, 
                       __ZN40TType2ToType1CharStringConvertionContext18WriteHVorVHCurveToEb, 
                       __ZN40TType2ToType1CharStringConvertionContext19WriteFlexCoordinateERiS0_, 
                       __ZN40TType2ToType1CharStringConvertionContext22WriteHLineToAndVLineToEb, 
                       __ZN40TType2ToType1CharStringConvertionContext23ConvertT2ToT1CharStringEtRb, 
                       __ZN40TType2ToType1CharStringConvertionContext24WriteExpandedFlexCurveToERiS0_S0_S0_S0_S0_S0_S0_S0_S0_S0_S0_S0_, 
                       __ZN40TType2ToType1CharStringConvertionContext4FlexERiS0_S0_S0_S0_S0_S0_S0_S0_S0_S0_S0_S0_S0_S0_S0_S0_, 
                       __ZN40TType2ToType1CharStringConvertionContext6HStem3ERiS0_S0_S0_S0_S0_, 
                       __ZN40TType2ToType1CharStringConvertionContext6VStem3ERiS0_S0_S0_S0_S0_, 
                       __ZN40TType2ToType1CharStringConvertionContext7RLineToERiS0_, 
                       __ZN40TType2ToType1CharStringConvertionContext7RMoveToERiS0_, 
                       __ZN40TType2ToType1CharStringConvertionContext9RRCurveToERiS0_S0_S0_S0_S0_, 
                       __ZN40TType2ToType1CharStringConvertionContext9WriteFlexEv, 
                       __ZN40TType2ToType1CharStringConvertionContextC2ERK14TType1SFNTFont, 
                       __ZN40TType2ToType1CharStringConvertionContextC2ERK14TType1SFNTFontt, 
                       __ZN40TType2ToType1CharStringConvertionContextD0Ev, 
                       __ZN40TType2ToType1CharStringConvertionContextD1Ev, 
                       __ZN40TType2ToType1CharStringConvertionContextD2Ev, 
                       __ZN41TTransformedQuadraticPathRenderingContext12ProcessPointERK6_t_FCdRS0_, 
                       __ZN41TTransformedQuadraticPathRenderingContext13RenderOutlineERK11_t_FontInstb, 
                       __ZN41TTransformedQuadraticPathRenderingContextD0Ev, 
                       __ZN41TTransformedQuadraticPathRenderingContextD1Ev, 
                       __ZN42TT2T1CIDConvertingBufferedStreamingContext12DoCharStringERK18TCharStringContextPKhPi, 
                       __ZN42TT2T1CIDConvertingBufferedStreamingContext14StreamCIDCharsERsPi, 
                       __ZN42TT2T1CIDConvertingBufferedStreamingContext16StreamCharStringERK14TType1SFNTFonttPKhPi, 
                       __ZN42TT2T1CIDConvertingBufferedStreamingContextC2ERK14TType1SFNTFontPKjP16OpaqueStreamSpec, 
                       __ZN42TT2T1CIDConvertingBufferedStreamingContextD0Ev, 
                       __ZN42TT2T1CIDConvertingBufferedStreamingContextD1Ev, 
                       __ZN42TT2T1CIDConvertingBufferedStreamingContextD2Ev, 
                       __ZN43TType1ToType2CIDCharStringConversionContext17FlattenSubroutineEttRb, 
                       __ZN43TType1ToType2CIDCharStringConversionContextC2ERK14TType1SFNTFontt, 
                       __ZN43TType1ToType2CIDCharStringConversionContextD0Ev, 
                       __ZN43TType1ToType2CIDCharStringConversionContextD1Ev, 
                       __ZN43TType1ToType2CIDCharStringConversionContextD2Ev, 
                       __ZN43TType2CIDToType1CharStringConvertionContext11FlattenSubrEtRb, 
                       __ZN43TType2CIDToType1CharStringConvertionContextC2ERK14TType1SFNTFontt, 
                       __ZN43TType2CIDToType1CharStringConvertionContextD0Ev, 
                       __ZN43TType2CIDToType1CharStringConvertionContextD1Ev, 
                       __ZN43TType2CIDToType1CharStringConvertionContextD2Ev, 
                       __ZN46TResolutionRestrictedCubicPathRenderingContext7CurveToEP6_t_FCdS1_S1_S1_, 
                       __ZN46TResolutionRestrictedCubicPathRenderingContextD0Ev, 
                       __ZN46TResolutionRestrictedCubicPathRenderingContextD1Ev, 
                       __ZN50TResolutionRestrictedPolygonalPathStreamingContext6LineToEP6_t_FCd, 
                       __ZN50TResolutionRestrictedPolygonalPathStreamingContext6MoveToEP6_t_FCd, 
                       __ZN50TResolutionRestrictedPolygonalPathStreamingContext7CurveToEP6_t_FCdS1_S1_S1_, 
                       __ZN50TResolutionRestrictedPolygonalPathStreamingContext7NewPathEv, 
                       __ZN50TResolutionRestrictedPolygonalPathStreamingContext9ClosePathEv, 
                       __ZN50TResolutionRestrictedPolygonalPathStreamingContextD0Ev, 
                       __ZN50TResolutionRestrictedPolygonalPathStreamingContextD1Ev, 
                       __ZN50TResolutionRestrictedQuadraticPathRenderingContext7CurveToEP6_t_FCdS1_S1_S1_, 
                       __ZN50TResolutionRestrictedQuadraticPathRenderingContextD0Ev, 
                       __ZN50TResolutionRestrictedQuadraticPathRenderingContextD1Ev, 
                       __ZN57TTransformedResolutionRestrictedCubicPathRenderingContextD0Ev, 
                       __ZN57TTransformedResolutionRestrictedCubicPathRenderingContextD1Ev, 
                       __ZN61TTransformedResolutionRestrictedQuadraticPathRenderingContextD0Ev, 
                       __ZN61TTransformedResolutionRestrictedQuadraticPathRenderingContextD1Ev, 
                       __ZN8TCFFDict12EncodeNumberEdPh, __ZN8TCFFDict12EncodeNumberEhiPh, 
                       __ZN8TCFFDict12EncodeNumberEiPh, __ZN8TCFFDict12EncodeNumberEijPh, 
                       __ZN8TCFFDict14AddNumberArrayEjjPKij, __ZN8TCFFDict15AddNumericEntryEti, 
                       __ZN8TCFFDict15AddNumericEntryEtij, __ZN8TCFFDict16AddStringIDEntryEtPKhR15TCFFStringArray, 
                       __ZN8TCFFDict20AddNumericArrayEntryEtjPKij, __ZN8TCFFDict21GetSizeOfEncodeNumberEi, 
                       __ZN8TCFFDict21GetSizeOfEncodeOffsetEj, __ZN8TCFFDict8AddEntryEt, 
                       __ZN8TCFFDict8AddEntryEth, __ZN8TCFFDict8AddEntryEtjPKh, 
                       __ZN8TCFFDict8AddEntryEtt, __ZN8TCFFDict9AddOpcodeEt, 
                       __ZN8TCFFDictC1Ev, __ZN8TCFFDictC2Ev, __ZN8TCFFDictD0Ev, 
                       __ZN8TCFFDictD1Ev, __ZN8TCFFDictD2Ev, __ZN9TCFFArray10AppendDataEjjPKh, 
                       __ZN9TCFFArray12AppendOffsetEj, __ZN9TCFFArray18GetINDEXOffsetSizeEj, 
                       __ZN9TCFFArray19StreamOutEmptyArrayER25TBufferedStreamingContext, 
                       __ZN9TCFFArray3AddEjPKh, __ZN9TCFFArrayC1EhtPKhS1_mb, 
                       __ZN9TCFFArrayC2Eht, __ZN9TCFFArrayC2EjPKh, __ZN9TCFFArrayD0Ev, 
                       __ZN9TCFFArrayD1Ev, __ZN9TCFFArrayD2Ev, __ZNK11TCFFCharSet18GetStreamOutFormatEv, 
                       __ZNK11TCFFFontSet9StreamOutER25TBufferedStreamingContext, 
                       __ZNK12TCFFCharSet09GetLengthEv, __ZNK12TCFFCharSet09StreamOutER25TBufferedStreamingContext, 
                       __ZNK12TCFFEncoding18GetStreamOutFormatEv, __ZNK12TCFFFDSelect18GetStreamOutFormatEv, 
                       __ZNK12TType1PSFont10CheckSubrsERj, __ZNK12TType1PSFont10GetGlyphIDEPKc, 
                       __ZNK12TType1PSFont10GetGlyphIDEPKhj, __ZNK12TType1PSFont10GetVersionEv, 
                       __ZNK12TType1PSFont11GetCharDataERK18TType1FontInstanceRtS3_, 
                       __ZNK12TType1PSFont11GetFontDescEv, __ZNK12TType1PSFont11GetFontNameEv, 
                       __ZNK12TType1PSFont11GetFullNameEv, __ZNK12TType1PSFont11GetGlyphIDsEjPKcPt, 
                       __ZNK12TType1PSFont11GetMMCoordsEjPK13FontVariationPK9BlendInfojPi, 
                       __ZNK12TType1PSFont12GetGlyphNameEtjPc, __ZNK12TType1PSFont12GetQDMetricsERK15TType1TransformRK14QDMetricsInputP15QDMetricsOutput, 
                       __ZNK12TType1PSFont12GetStreamMapEPKjsPj, __ZNK12TType1PSFont13GetFamilyNameEv, 
                       __ZNK12TType1PSFont13GetFontObjectEv, __ZNK12TType1PSFont13GetGlyphNamesEjPKtjPcRj, 
                       __ZNK12TType1PSFont13GetRawMetricsERK18TType1FontInstancePKhtR10_t_CharSBW, 
                       __ZNK12TType1PSFont13ManageCStringE22ManageCStringIndexTypePvS1_, 
                       __ZNK12TType1PSFont14CreateFontInstEPKiRK6FixMtxRK10FixedPointjRP6_t_FCd, 
                       __ZNK12TType1PSFont14GetGlyphBitMapERK15TType1TransformtP21GlyphRenderingMetricsjPvRj, 
                       __ZNK12TType1PSFont14GetGlyphBitMapERK15TType1TransformtjPvRj, 
                       __ZNK12TType1PSFont14SetupGlyphBitsEjPKj, __ZNK12TType1PSFont14StreamCharDataEPK8FontDescR35TBufferedCharStringStreamingContext, 
                       __ZNK12TType1PSFont14StreamEncodingEPKtbP16OpaqueStreamSpec, 
                       __ZNK12TType1PSFont15BuildCFFFontSetEPKjPKtR11TCFFFontSeth, 
                       __ZNK12TType1PSFont15CreateTransformEPKiRK15StrikeTransformj, 
                       __ZNK12TType1PSFont15GetCapabilitiesEjPK18RenderingQueryItemPj, 
                       __ZNK12TType1PSFont15GetFontEncodingEPt, __ZNK12TType1PSFont15GetORUTransformER6FixMtx, 
                       __ZNK12TType1PSFont15GetPSStreamTypeEj, __ZNK12TType1PSFont15StreamType1FontEPK8FontDescPKcS4_PKtbbR35TBufferedCharStringStreamingContext, 
                       __ZNK12TType1PSFont16CalculateVMusageEv, __ZNK12TType1PSFont16GetBitmapMetricsERK15TType1TransformtP21GlyphRenderingMetrics, 
                       __ZNK12TType1PSFont16GetQDLineMetricsERK15TType1TransformRiS3_S3_, 
                       __ZNK12TType1PSFont16StreamPSEncodingEPKtPKjbRjP16OpaqueStreamSpec, 
                       __ZNK12TType1PSFont17FastSearchForSeacEPKhiPsS2_, 
                       __ZNK12TType1PSFont17GetNumberOfGlyphsEv, __ZNK12TType1PSFont17GetOutlineMetricsERK15TType1TransformtP21GlyphRenderingMetrics, 
                       __ZNK12TType1PSFont17GetPSPrerequisiteEjPvRj, __ZNK12TType1PSFont17OutputGlyphBitMapERK11_t_FontInstRK12_t_BitMapRecjRjPv, 
                       __ZNK12TType1PSFont18CreateFontInstanceEPKiRK6FixMtxRK10FixedPointj, 
                       __ZNK12TType1PSFont18GetOverrideMetricsEPK11_t_FontInstR10_t_CharSBW, 
                       __ZNK12TType1PSFont18GetPSVariationFlagEPKcRjS2_, 
                       __ZNK12TType1PSFont18GetVerticalMetricsEtRK15TType1TransformPKhtR10FixedPointS6_S6_S6_, 
                       __ZNK12TType1PSFont18MakeMMWeightVectorEjPK13FontVariationb, 
                       __ZNK12TType1PSFont18StreamEncodingDataEPKtbP16OpaqueStreamSpec, 
                       __ZNK12TType1PSFont18StreamReEncodeFontEPKtPKhS3_P16OpaqueStreamSpec, 
                       __ZNK12TType1PSFont19GetCharStringSavingEPKj, __ZNK12TType1PSFont19GetFontInstanceSpecERK15TType1TransformR10FixedPointS4_S4_S4_S4_R14FixedRectangleR11FontMetrics, 
                       __ZNK12TType1PSFont19GetStandardEncodingEPt, __ZNK12TType1PSFont19RenderBitmapMetricsERK15TType1TransformtPKhtR21GlyphRenderingMetrics, 
                       __ZNK12TType1PSFont20CreateMMWeightVectorEjPK13FontVariationb, 
                       __ZNK12TType1PSFont20GetCubicPathOutlinesERK15TType1TransformtjPvRj, 
                       __ZNK12TType1PSFont20GetFractionalMetricsERK15TType1TransformtP22GlyphFractionalMetrics, 
                       __ZNK12TType1PSFont20GetTableSythesisDataERsS0_S0_S0_S0_S0_S0_RtRPKtRPKhS7_RPKs, 
                       __ZNK12TType1PSFont20RenderOutlineMetricsERK15TType1TransformtPKhtR21GlyphRenderingMetrics, 
                       __ZNK12TType1PSFont21GetGlyphHeightMetricsERK15TType1TransformRiS3_, 
                       __ZNK12TType1PSFont21GetPSPrerequisiteSizeERj, __ZNK12TType1PSFont21MakeTemperaryFontInstEPK8FontDescPKiRK6FixMtxRK10FixedPointjR6_t_FCd, 
                       __ZNK12TType1PSFont21StreamPrivateFontDictEPK8FontDescR35TBufferedCharStringStreamingContext, 
                       __ZNK12TType1PSFont23RenderFractionalMetricsERK15TType1TransformtPKhtR22GlyphFractionalMetrics, 
                       __ZNK12TType1PSFont24CalculateVerticalMetricsEtRK15TType1TransformPKiibRK9FixedRectiR10FixedPointS9_S9_S9_, 
                       __ZNK12TType1PSFont24GetQuadraticPathOutlinesERK15TType1TransformtjPvRj, 
                       __ZNK12TType1PSFont24StreamPSPrerequisiteItemEPKcRjjP16OpaqueStreamSpec, 
                       __ZNK12TType1PSFont25StreamPSVariationOperatorEPKiRjP16OpaqueStreamSpec, 
                       __ZNK12TType1PSFont28RenderGlyphBitMapAndMetricssERK15TType1TransformRK11_t_FontInsttPKhtP21GlyphRenderingMetricsjPvRj, 
                       __ZNK12TType1PSFont29GetORUOutlineMetricsParametreERK15TType1TransformPKhtR10FixedPointS6_S6_RiS7_R9FixedRectRb, 
                       __ZNK12TType1PSFont35CalculateVerticalMetricsTranslationEtbPKiiRK9FixedRectiR6_t_FCdS6_S6_S6_, 
                       __ZNK12TType1PSFont8GetSpecsER9FontSpecs, __ZNK12TType1PSFont9GetNoticeEv, 
                       __ZNK12TType1PSFont9GetWeightEv, __ZNK12TType1Strike10GetMetricsERK21TRenderingDescriptionjPKtRK19TDestinationMapping, 
                       __ZNK12TType1Strike12GetQDMetricsERK14QDMetricsInputP15QDMetricsOutput, 
                       __ZNK12TType1Strike15GetMetricsSpecsERK21TRenderingDescriptionP14GlyphDataSpecs, 
                       __ZNK12TType1Strike17GetRenderingSpecsERK21TRenderingDescriptionP14GlyphDataSpecs, 
                       __ZNK12TType1Strike8GetSpecsER11StrikeSpecs, __ZNK12TType1Strike9GetGlyphsERK21TRenderingDescriptionjPKtRK19TDestinationMappingP16GlyphDataResults, 
                       __ZNK13TBinarySearch14DoBinarySearchEt, __ZNK13TBinarySearch7DoRangeEttt, 
                       __ZNK13TCFFDictArray9StreamOutER25TBufferedStreamingContext, 
                       __ZNK13TCFFEncoding09GetLengthEv, __ZNK13TCFFEncoding09StreamOutER25TBufferedStreamingContext, 
                       __ZNK13TCFFFDSelect09GetLengthEv, __ZNK13TCFFFDSelect09StreamOutER25TBufferedStreamingContext, 
                       __ZNK13TType1CIDFont10GetFDCountEv, __ZNK13TType1CIDFont10GetGlyphIDEPKhj, 
                       __ZNK13TType1CIDFont11GetCharDataERK18TType1FontInstanceRtS3_, 
                       __ZNK13TType1CIDFont11GetFontDescEs, __ZNK13TType1CIDFont11GetFontDescEv, 
                       __ZNK13TType1CIDFont11GetOrderingEv, __ZNK13TType1CIDFont11GetRegistryEv, 
                       __ZNK13TType1CIDFont11GetSubrDataERPKhRsRm, __ZNK13TType1CIDFont11LoadCIDSubrEiRPcRiP17_t_T1CharDataDesc, 
                       __ZNK13TType1CIDFont12FindCharNameEtPh, __ZNK13TType1CIDFont12GetSubrCountEv, 
                       __ZNK13TType1CIDFont12LookupCIDMapEt, __ZNK13TType1CIDFont12LookupCIDMapEtRjS0_, 
                       __ZNK13TType1CIDFont12StreamPSFontEPKcbbPKtPKiS1_PKjRjP16OpaqueStreamSpec, 
                       __ZNK13TType1CIDFont13GetLocalSubrsEsRtRPKhRsRm, 
                       __ZNK13TType1CIDFont13GetOneSubrMapERK13FDArrayEntityiRj, 
                       __ZNK13TType1CIDFont13ManageCStringE22ManageCStringIndexTypePvS1_, 
                       __ZNK13TType1CIDFont14CreateFontInstEPKiRK6FixMtxRK10FixedPointjRP6_t_FCd, 
                       __ZNK13TType1CIDFont14EncodeCIDGlyphEtPh, __ZNK13TType1CIDFont14GetCharOutlineEtRt, 
                       __ZNK13TType1CIDFont14GetGlyphBitMapERK15TType1TransformtP21GlyphRenderingMetricsjPvRj, 
                       __ZNK13TType1CIDFont14GetGlyphBitMapERK15TType1TransformtjPvRj, 
                       __ZNK13TType1CIDFont14SetupGlyphBitsEjPKj, __ZNK13TType1CIDFont14StreamEncodingEPKtbP16OpaqueStreamSpec, 
                       __ZNK13TType1CIDFont15BuildCFFFontSetEPKjPKtR11TCFFFontSeth, 
                       __ZNK13TType1CIDFont15CreateVFMXTableEv, __ZNK13TType1CIDFont15GetCIDGlyphNameE9TAdobeROStPh, 
                       __ZNK13TType1CIDFont15GetFontEncodingEPt, __ZNK13TType1CIDFont15GetORUTransformER6FixMtx, 
                       __ZNK13TType1CIDFont15GetPSStreamTypeEj, __ZNK13TType1CIDFont15StreamCharProcsEP10CompFDInfoR35TBufferedCharStringStreamingContext, 
                       __ZNK13TType1CIDFont16GetBitmapMetricsERK15TType1TransformtP21GlyphRenderingMetrics, 
                       __ZNK13TType1CIDFont16GetMappedFDIndexERt, __ZNK13TType1CIDFont16GetNextZapCIDMapERK20TFontObjectSurrogatePKjRtRjS6_, 
                       __ZNK13TType1CIDFont16StreamPSEncodingEPKtPKjbRjP16OpaqueStreamSpec, 
                       __ZNK13TType1CIDFont17GetFontDataLengthERjS0_, __ZNK13TType1CIDFont17GetOutlineMetricsERK15TType1TransformtP21GlyphRenderingMetrics, 
                       __ZNK13TType1CIDFont17GetPSDownloadSizeEPKcbPKjRj, 
                       __ZNK13TType1CIDFont17GetPSPrerequisiteEjPvRj, __ZNK13TType1CIDFont17GetRotatedMetricsERK15TType1TransformiRK9FixedRectR10FixedPointS7_S7_S7_, 
                       __ZNK13TType1CIDFont18CreateFontInstanceEPKiRK6FixMtxRK10FixedPointj, 
                       __ZNK13TType1CIDFont18GetAltGlyphFDIndexERt, __ZNK13TType1CIDFont18GetOverrideMetricsEPK11_t_FontInstR10_t_CharSBW, 
                       __ZNK13TType1CIDFont18GetPSVariationFlagEPKcRjS2_, 
                       __ZNK13TType1CIDFont18MakeSquareFontInstEs, __ZNK13TType1CIDFont18StreamCIDCharsAsT1ERK20TFontObjectSurrogatesR35TBufferedCharStringStreamingContext, 
                       __ZNK13TType1CIDFont18StreamCIDFontDictsER35TBufferedCharStringStreamingContextbPKtPKcPKjRjP10CompFDInfo, 
                       __ZNK13TType1CIDFont19GetFontDataTableTagEv, __ZNK13TType1CIDFont19StreamSparseCIDFontERK20TFontObjectSurrogatejbPKhR36TCIDASCII85EncodableStreamingContext, 
                       __ZNK13TType1CIDFont20GetCubicPathOutlinesERK15TType1TransformtjPvRj, 
                       __ZNK13TType1CIDFont20GetDecryptedSubrDataEjjPcii, 
                       __ZNK13TType1CIDFont20GetFractionalMetricsERK15TType1TransformtP22GlyphFractionalMetrics, 
                       __ZNK13TType1CIDFont20GetTableSythesisDataERsS0_S0_S0_S0_S0_S0_RtRPKtRPKhS7_RPKs, 
                       __ZNK13TType1CIDFont21GetFontDataHeaderSizeEv, __ZNK13TType1CIDFont21GetPSPrerequisiteSizeERj, 
                       __ZNK13TType1CIDFont21StreamPrivateFontDictEPK8FontDescR35TBufferedCharStringStreamingContext, 
                       __ZNK13TType1CIDFont22AddMetricsToCharStringER35TBufferedCharStringStreamingContextsjj, 
                       __ZNK13TType1CIDFont22GetCIDCharStringSavingERK20TFontObjectSurrogatePKj, 
                       __ZNK13TType1CIDFont22GetCIDDecryptedOutlineEsjj, 
                       __ZNK13TType1CIDFont22GetEmbeddedCharMetricsEsPKhjRiS2_, 
                       __ZNK13TType1CIDFont22LoadSubrArrayDataPerFDEiRPh, 
                       __ZNK13TType1CIDFont23StreamCodeToFindCIDFontEPKhtR35TBufferedCharStringStreamingContext, 
                       __ZNK13TType1CIDFont24GetQuadraticPathOutlinesERK15TType1TransformtjPvRj, 
                       __ZNK13TType1CIDFont25CountGlyphForEachFontDictEPKjP10CompFDInfo, 
                       __ZNK13TType1CIDFont25GetGlyphCountForStreamingEv, 
                       __ZNK13TType1CIDFont25StreamPSVariationOperatorEPKiRjP16OpaqueStreamSpec, 
                       __ZNK13TType1CIDFont27CheckPrinterCubeFontSupportEPKc, 
                       __ZNK13TType1CIDFont28GetAltGlyphMetricsParametresERtRiS1_S1_S1_S1_S1_S1_S1_S1_, 
                       __ZNK13TType1CIDFont32CheckFontProtectionAndStreamTypeEPKjj, 
                       __ZNK13TType1CIDFont35CalculateVerticalMetricsTranslationEtbPKiiRK9FixedRectiR6_t_FCdS6_S6_S6_, 
                       __ZNK13TType1CIDFont38GetORUMetricsForRotatedGlyphAndStashItERK15TType1TransformPKht, 
                       __ZNK13TType1OTFFont10CheckSubrsERj, __ZNK13TType1OTFFont10GetGlyphIDEPKhj, 
                       __ZNK13TType1OTFFont11GetCharDataERK18TType1FontInstanceRtS3_, 
                       __ZNK13TType1OTFFont11GetGlyphIDsEjPKcPt, __ZNK13TType1OTFFont11GetSubrDataERPKhRsRm, 
                       __ZNK13TType1OTFFont12FindCharNameEtPh, __ZNK13TType1OTFFont12GetGlyphNameEtjPc, 
                       __ZNK13TType1OTFFont12StreamPSFontEPKcbbPKtPKiS1_PKjRjP16OpaqueStreamSpec, 
                       __ZNK13TType1OTFFont15CreateHFMXTableEv, __ZNK13TType1OTFFont15CreateVFMXTableEv, 
                       __ZNK13TType1OTFFont15GetFontEncodingEPt, __ZNK13TType1OTFFont15GetPSStreamTypeEj, 
                       __ZNK13TType1OTFFont17FastSearchForSeacEPKhiPsS2_, 
                       __ZNK13TType1OTFFont17GetGlobalSubrDataERPKhRsRm, 
                       __ZNK13TType1OTFFont17GetPSDownloadSizeEPKcbPKjRj, 
                       __ZNK13TType1OTFFont18GetGlobalSubrCountEv, __ZNK13TType1OTFFont18GetPSVariationFlagEPKcRjS2_, 
                       __ZNK13TType1OTFFont18StreamFontEncodingEP16OpaqueStreamSpec, 
                       __ZNK13TType1OTFFont19GetFontDataTableTagEv, __ZNK13TType1OTFFont19GetStandardEncodingEPt, 
                       __ZNK13TType1OTFFont25StreamPSVariationOperatorEPKiRjP16OpaqueStreamSpec, 
                       __ZNK14TCFFDescriptor10GetCFFDataEjRj, __ZNK14TCIDCFFFontSet9StreamOutER25TBufferedStreamingContext, 
                       __ZNK14TType1LWFNFont11GetMMCoordsEjPK13FontVariationPK9BlendInfojPi, 
                       __ZNK14TType1LWFNFont11GetSubrDataERPKhRsRm, __ZNK14TType1LWFNFont12FindCharNameEtPh, 
                       __ZNK14TType1LWFNFont12GetGlyphNameEtjPc, __ZNK14TType1LWFNFont12GetSubrCountEv, 
                       __ZNK14TType1LWFNFont12StreamPSFontEPKcbbPKtPKiS1_PKjRjP16OpaqueStreamSpec, 
                       __ZNK14TType1LWFNFont13GetFontObjectEv, __ZNK14TType1LWFNFont14GetCharOutlineEtRt, 
                       __ZNK14TType1LWFNFont14SetupGlyphBitsEjPKj, __ZNK14TType1LWFNFont15CreateHFMXTableEv, 
                       __ZNK14TType1LWFNFont15CreateVFMXTableEv, __ZNK14TType1LWFNFont15GetFontEncodingEPt, 
                       __ZNK14TType1LWFNFont17GetCharStringDataEtR18TCharStringContextPh, 
                       __ZNK14TType1LWFNFont17GetGlobalSubrDataERPKhRsRm, 
                       __ZNK14TType1LWFNFont17GetPSDownloadSizeEPKcbPKjRj, 
                       __ZNK14TType1LWFNFont18GetGlobalSubrCountEv, __ZNK14TType1LWFNFont18StreamFontEncodingEP16OpaqueStreamSpec, 
                       __ZNK14TType1LWFNFont19GetFontDataTableTagEv, __ZNK14TType1LWFNFont20GetTableSythesisDataERsS0_S0_S0_S0_S0_S0_RtRPKtRPKhS7_RPKs, 
                       __ZNK14TType1PDC0Font19GetFontDataTableTagEv, __ZNK14TType1PDT1Font10GetGlyphIDEPKhj, 
                       __ZNK14TType1PDT1Font11GetCharDataERK18TType1FontInstanceRtS3_, 
                       __ZNK14TType1PDT1Font12FindCharNameEtPh, __ZNK14TType1PDT1Font12StreamPSFontEPKcbbPKtPKiS1_PKjRjP16OpaqueStreamSpec, 
                       __ZNK14TType1PDT1Font14GetCharOutlineEtRt, __ZNK14TType1PDT1Font17GetCharStringDataEtR18TCharStringContextPh, 
                       __ZNK14TType1PDT1Font17GetFontDataLengthERjS0_, 
                       __ZNK14TType1PDT1Font17GetPSDownloadSizeEPKcbPKjRj, 
                       __ZNK14TType1PDT1Font19GetFontDataTableTagEv, __ZNK14TType1PDT1Font21GetFontDataHeaderSizeEv, 
                       __ZNK14TType1PDTCFont19GetFontDataTableTagEv, __ZNK14TType1SFNTFont11GetCharDataERK18TType1FontInstanceRtS3_, 
                       __ZNK14TType1SFNTFont11GetSubrDataERPKhRsRm, __ZNK14TType1SFNTFont12FindCharNameEtPh, 
                       __ZNK14TType1SFNTFont12GetSubrCountEv, __ZNK14TType1SFNTFont12StreamPSFontEPKcbbPKtPKiS1_PKjRjP16OpaqueStreamSpec, 
                       __ZNK14TType1SFNTFont14GetCharOutlineEtRt, __ZNK14TType1SFNTFont15CreateHFMXTableEv, 
                       __ZNK14TType1SFNTFont15CreateVFMXTableEv, __ZNK14TType1SFNTFont16GetNextSparseSegEPKjjjRjS2_RtS2_, 
                       __ZNK14TType1SFNTFont17DecryptCharStringEPKhj, __ZNK14TType1SFNTFont17GetFontDataLengthERjS0_, 
                       __ZNK14TType1SFNTFont17GetGlobalSubrDataERPKhRsRm, 
                       __ZNK14TType1SFNTFont17GetPSDownloadSizeEPKcbPKjRj, 
                       __ZNK14TType1SFNTFont18GetGlobalSubrCountEv, __ZNK14TType1SFNTFont18GetPSVariationFlagEPKcRjS2_, 
                       __ZNK14TType1SFNTFont18StreamFontEncodingEP16OpaqueStreamSpec, 
                       __ZNK14TType1SFNTFont19GetCharStringRecordEtPs, 
                       __ZNK14TType1SFNTFont19GetFontDataTableTagEv, __ZNK14TType1SFNTFont20MakeNotdefCharStringERK18TType1FontInstanceRPhRtR10_t_CharSBW, 
                       __ZNK14TType1SFNTFont21GetFontDataHeaderSizeEv, 
                       __ZNK14TType1SFNTFont25StreamPSVariationOperatorEPKiRjP16OpaqueStreamSpec, 
                       __ZNK14TType1SFNTFont26StreamEncodingPerENCOTableEPKvbP16OpaqueStreamSpec, 
                       __ZNK14TType1SFNTFont35CalculateVerticalMetricsTranslationEtbPKiiRK9FixedRectiR6_t_FCdS6_S6_S6_, 
                       __ZNK14TType1Streamer12StreamPSFontEPKcbbPKtS1_PKjRjP16OpaqueStreamSpec, 
                       __ZNK14TType1Streamer16StreamPSEncodingERjPKtPKjbP16OpaqueStreamSpec, 
                       __ZNK14TType1Streamer17GetFlatteningSizeEPKjRj, 
                       __ZNK14TType1Streamer17GetPSDownloadSizeEPKcbPKjRj, 
                       __ZNK14TType1Streamer17GetPSPrerequisiteERK19TDestinationMappingRj, 
                       __ZNK14TType1Streamer18GetPSVariationFlagEPKcRjS2_, 
                       __ZNK14TType1Streamer20DoFlatteningDownloadEPKjP16OpaqueStreamSpec, 
                       __ZNK14TType1Streamer21GetPSPrerequisiteSizeERj, 
                       __ZNK14TType1Streamer24StreamPSPrerequisiteItemEPKcRjjP16OpaqueStreamSpec, 
                       __ZNK14TType1Streamer25StreamPSVariationOperatorERjP16OpaqueStreamSpec, 
                       __ZNK14TType1Streamer26GetFlatteningRequiredFontsERjRK19TDestinationMapping, 
                       __ZNK15TType1Exception11GetOFAErrorEv, __ZNK15TType1Transform12GetPointSizeEv, 
                       __ZNK15TType1Transform14BitmapsAllowedEv, __ZNK15TType1Transform14VerticalLayoutEv, 
                       __ZNK15TType1Transform9HintingOnEv, __ZNK16TType1OTFCIDFont10CheckSubrsERj, 
                       __ZNK16TType1OTFCIDFont10GetGlyphIDEPKhj, __ZNK16TType1OTFCIDFont11GetSubrDataERPKhRsRm, 
                       __ZNK16TType1OTFCIDFont12LookupCIDMapEt, __ZNK16TType1OTFCIDFont12LookupCIDMapEtRjS0_, 
                       __ZNK16TType1OTFCIDFont12StreamPSFontEPKcbbPKtPKiS1_PKjRjP16OpaqueStreamSpec, 
                       __ZNK16TType1OTFCIDFont13GetLocalSubrsEsRtRPKhRsRm, 
                       __ZNK16TType1OTFCIDFont13GetOneSubrMapERK13FDArrayEntityiRj, 
                       __ZNK16TType1OTFCIDFont14EncodeCIDGlyphEtPh, __ZNK16TType1OTFCIDFont14StreamCharDataEPK8FontDescR35TBufferedCharStringStreamingContext, 
                       __ZNK16TType1OTFCIDFont15CreateHFMXTableEv, __ZNK16TType1OTFCIDFont15CreateVFMXTableEv, 
                       __ZNK16TType1OTFCIDFont15GetPSStreamTypeEj, __ZNK16TType1OTFCIDFont15ParseGlobalSubrEPKhstPiRtRbRiS5_, 
                       __ZNK16TType1OTFCIDFont17GetGlobalSubrDataERPKhRsRm, 
                       __ZNK16TType1OTFCIDFont17GetPSDownloadSizeEPKcbPKjRj, 
                       __ZNK16TType1OTFCIDFont18GetGlobalSubrCountEv, __ZNK16TType1OTFCIDFont19GetFontDataTableTagEv, 
                       __ZNK16TType1OTFCIDFont20GetDecryptedSubrDataEjjPcii, 
                       __ZNK16TType1OTFCIDFont20ParseType2CharStringEsPKhS1_jtPiRtRbRiS5_, 
                       __ZNK16TType1OTFCIDFont21StreamPrivateFontDictEPK8FontDescR35TBufferedCharStringStreamingContext, 
                       __ZNK16TType1OTFCIDFont22GetCIDDecryptedOutlineEsjj, 
                       __ZNK16TType1OTFCIDFont22GetEmbeddedCharMetricsEsPKhjRiS2_, 
                       __ZNK16TType1OTFCIDFont22LoadSubrArrayDataPerFDEiRPh, 
                       __ZNK16TType1OTFCIDFont25GetGlyphCountForStreamingEv, 
                       __ZNK16TType1OTFCIDFont28GetAltGlyphMetricsParametresERtRiS1_S1_S1_S1_S1_S1_S1_S1_, 
                       __ZNK16TType1OTFCIDFont8GetSpecsER9FontSpecs, __ZNK16TType1OTFCIDFont9ParseSubrEPKhstPiRtRbRiS5_, 
                       __ZNK18TType1CIDVFMXTable9GetBeforeEv, __ZNK18TType1FontInstance11GetFontInstEv, 
                       __ZNK18TType1FontInstance12GetTranslateEv, __ZNK18TType1OTFHFMXTable9GetAscentEv, 
                       __ZNK18TType1OTFVFMXTable9GetBeforeEv, __ZNK18TType1Transform2x214TransformPointERK6_t_FCdRS0_, 
                       __ZNK18TType1Transform2x215GetFontInstanceEv, __ZNK18TType1Transform2x218TransformFontPointERK6_t_FCdRS0_, 
                       __ZNK18TType1Transform2x222GetTransformResolutionER10FixedPoint, 
                       __ZNK18TType1Transform2x25Is3x3Ev, __ZNK18TType1Transform2x29GetMatrixER6FixMtx, 
                       __ZNK18TType1Transform3x314TransformPointERK6_t_FCdRS0_, 
                       __ZNK18TType1Transform3x318TransformFontPointERK6_t_FCdRS0_, 
                       __ZNK18TType1Transform3x322GetTransformResolutionER10FixedPoint, 
                       __ZNK18TType1Transform3x35Is3x3Ev, __ZNK18TType1Transform3x39GetMatrixER6FixMtx, 
                       __ZNK19MPathFlattenContext7FlattenEP6_t_FCdS1_S1_S1_, 
                       __ZNK19TType1LWFNVFMXTable9GetBeforeEv, __ZNK19TType1SFNTHFMXTable9GetAscentEv, 
                       __ZNK19TType1SFNTVFMXTable9GetBeforeEv, __ZNK20TFontObjectSurrogate12GetTablePartEjjjRj, 
                       __ZNK20TFontObjectSurrogate13GetTableIndexEjPj, 
                       __ZNK20TFontObjectSurrogate14GetTableOffsetEjPj, 
                       __ZNK20TFontObjectSurrogate16GetFontTableSizeEj, 
                       __ZNK20TFontObjectSurrogate9GetFormatEv, __ZNK21TLWFNFontTableContext7GetDataEjRjS0_, 
                       __ZNK21TPathRenderingContext17GetBufferUsedSizeEv, 
                       __ZNK21TType1CIDFontInstance11GetFontInstEv, __ZNK21TType1CIDFontInstance12GetTranslateEv, 
                       __ZNK22MStreamSnapShotContext16MakeInstanceNameEPc, 
                       __ZNK22TGlyphRenderingContext14ExtractBitRunsEjPvRj, 
                       __ZNK22TGlyphRenderingContext17GetMetricsPerRunsER21GlyphRenderingMetrics, 
                       __ZNK22TGlyphRenderingContext21ExtractMetricsPerRunsEjR21GlyphRenderingMetrics, 
                       __ZNK24TLWFNFontObjectSurrogate14GetTableOffsetEjPj, 
                       __ZNK24TLWFNFontObjectSurrogate8GetTableEjjPj, __ZNK24TType1HFMXTableSurrogate14GetLineMetricsEsPKiRiS2_S2_, 
                       __ZNK24TType1HFMXTableSurrogate16GetLayoutMetricsEsPKiRiS2_S2_S2_S2_S2_, 
                       __ZNK24TType1HFMXTableSurrogate9GetAscentEsPKi, 
                       __ZNK24TType1VFMXTableSurrogate16GetLayoutMetricsEsPKiRiS2_S2_S2_S2_, 
                       __ZNK28TPathMetricsRenderingContext25GetRectForVerticalMetricsER9FixedRect, 
                       __ZNK28TPathMetricsRenderingContext9GetBoundsER10FixedPointRtS2_, 
                       __ZNK30TQuadraticPathRenderingContext17GetBufferUsedSizeEv, 
                       __ZNK31TType1LWFNSingleMasterHFMXTable9GetAscentEv, 
                       __ZNK33TType1LWFNMultipleMasterHFMXTable9GetAscentEv, 
                       __ZNK35TType1ResolutionRestrictedTransform14TransformPointERK6_t_FCdRS0_, 
                       __ZNK35TType1ResolutionRestrictedTransform15GetFontInstanceEv, 
                       __ZNK35TType1ResolutionRestrictedTransform18RescaleGlyphBitmapEP21GlyphRenderingMetricsjPvRj, 
                       __ZNK35TType1ResolutionRestrictedTransform18TransformFontPointERK6_t_FCdRS0_, 
                       __ZNK35TType1ResolutionRestrictedTransform22GetTransformResolutionER10FixedPoint, 
                       __ZNK35TType1ResolutionRestrictedTransform25RescaleGlyphBitmapMetricsEP21GlyphRenderingMetrics, 
                       __ZNK35TType1ResolutionRestrictedTransform5Is3x3Ev, 
                       __ZNK35TType1ResolutionRestrictedTransform9GetMatrixER6FixMtx, 
                       __ZNK37TTransformedCubicPathRenderingContext25GetRectForVerticalMetricsER9FixedRect, 
                       __ZNK39TTransformedPathMetricsRenderingContext25GetRectForVerticalMetricsER9FixedRect, 
                       __ZNK41TTransformedQuadraticPathRenderingContext25GetRectForVerticalMetricsER9FixedRect, 
                       __ZNK50TResolutionRestrictedPolygonalPathStreamingContext28StreamPSBuildCharOutlineDataEsb, 
                       __ZNK8TCFFDict9GetLengthEv, __ZNK8TCFFDict9StreamOutER25TBufferedStreamingContext, 
                       __ZNK9TCFFArray9GetLengthEv, __ZNK9TCFFArray9StreamOutER25TBufferedStreamingContext, 
                       __ZTI10TALMXTable, __ZTI10TROTATable, __ZTI11TCFFCharSet, 
                       __ZTI11TCFFFontSet, __ZTI11TMemoryHeap, __ZTI11TVFMX2Table, 
                       __ZTI12TCFFCharSet0, __ZTI12TCFFEncoding, __ZTI12TCFFFDSelect, 
                       __ZTI12TType1PSFont, __ZTI12TType1Strike, __ZTI13TBinarySearch, 
                       __ZTI13TCFFDictArray, __ZTI13TCFFEncoding0, __ZTI13TCFFFDSelect0, 
                       __ZTI13TType1CIDFont, __ZTI13TType1OTFFont, __ZTI13TType1PFAFont, 
                       __ZTI14TCFFDescriptor, __ZTI14TCIDCFFFontSet, __ZTI14TOTFCFFFontSet, 
                       __ZTI14TType1LWFNFont, __ZTI14TType1PDC0Font, __ZTI14TType1PDT1Font, 
                       __ZTI14TType1PDTCFont, __ZTI14TType1SFNTFont, __ZTI14TType1Streamer, 
                       __ZTI15TCFFStringArray, __ZTI15TFlexConversion, 
                       __ZTI15TType1Exception, __ZTI15TType1HFMXTable, 
                       __ZTI15TType1Transform, __ZTI15TType1VFMXTable, 
                       __ZTI16TCIDMetricsTable, __ZTI16TType1CFFFontSet, 
                       __ZTI16TType1OTFCIDFont, __ZTI17MScratchAlloation, 
                       __ZTI17TOTFCIDCFFFontSet, __ZTI17TRenderingContext, 
                       __ZTI17TStreamingContext, __ZTI18MPathTransformable, 
                       __ZTI18TCharStringContext, __ZTI18TType1CIDVFMXTable, 
                       __ZTI18TType1FontInstance, __ZTI18TType1OTFHFMXTable, 
                       __ZTI18TType1OTFVFMXTable, __ZTI18TType1Transform2x2, 
                       __ZTI18TType1Transform3x3, __ZTI19MPathFlattenContext, 
                       __ZTI19TBinarySingleSearch, __ZTI19TCFFEncodingContext, 
                       __ZTI19THintCntrConversion, __ZTI19TType1CIDCFFFontSet, 
                       __ZTI19TType1LWFNVFMXTable, __ZTI19TType1SFNTHFMXTable, 
                       __ZTI19TType1SFNTVFMXTable, __ZTI20TFontObjectSurrogate, 
                       __ZTI21MPathRenderingContext, __ZTI21TOTFCharStringContext, 
                       __ZTI21TPathRenderingContext, __ZTI21TType1CIDFontInstance, 
                       __ZTI22MStreamSnapShotContext, __ZTI22TCFFGetEncodingContext, 
                       __ZTI22TGlyphRenderingContext, __ZTI22TLWFNCharStringContext, 
                       __ZTI22TPDT1CharStringContext, __ZTI22TStreamEncodingContext, 
                       __ZTI23TType1CharStringContext, __ZTI24TLWFNFontObjectSurrogate, 
                       __ZTI24TType1HFMXTableSurrogate, __ZTI24TType1VFMXTableSurrogate, 
                       __ZTI25T3x3GlyphRenderingContext, __ZTI25TBufferedStreamingContext, 
                       __ZTI25TCFFStreamEncodingContext, __ZTI25TType1CIDRenderingContext, 
                       __ZTI26MCharStringConvertionState, __ZTI26TCubicPathRenderingContext, 
                       __ZTI28TCharStringConversionContext, __ZTI28TPathMetricsRenderingContext, 
                       __ZTI29Type1TableSythesisDataContext, __ZTI30TQuadraticPathRenderingContext, 
                       __ZTI31TFractionalMetricsRenderContext, __ZTI31TLWFNMMSnapShotStreamingContext, 
                       __ZTI31TTransformedRunRenderingContext, __ZTI31TType1LWFNSingleMasterHFMXTable, 
                       __ZTI32TTransformedPathRenderingContext, __ZTI32TType1MMSnapShotStreamingContext, 
                       __ZTI33TType1LWFNMultipleMasterHFMXTable, __ZTI35TBufferedCharStringStreamingContext, 
                       __ZTI35TType1ResolutionRestrictedTransform, __ZTI36TCIDASCII85EncodableStreamingContext, 
                       __ZTI37TTransformedCubicPathRenderingContext, __ZTI39TBufferedLWFNCharStringStreamingContext, 
                       __ZTI39TBufferedPDT1CharStringStreamingContext, 
                       __ZTI39TT2T1ConvertingBufferedStreamingContext, 
                       __ZTI39TTransformedPathMetricsRenderingContext, 
                       __ZTI40TBufferedType1CharStringStreamingContext, 
                       __ZTI40TType1ToType2CharStringConversionContext, 
                       __ZTI40TType2ToType1CharStringConvertionContext, 
                       __ZTI41TTransformedQuadraticPathRenderingContext, 
                       __ZTI42TT2T1CIDConvertingBufferedStreamingContext, 
                       __ZTI43TType1ToType2CIDCharStringConversionContext, 
                       __ZTI43TType2CIDToType1CharStringConvertionContext, 
                       __ZTI46TResolutionRestrictedCubicPathRenderingContext, 
                       __ZTI50TResolutionRestrictedPolygonalPathStreamingContext, 
                       __ZTI50TResolutionRestrictedQuadraticPathRenderingContext, 
                       __ZTI57TTransformedResolutionRestrictedCubicPathRenderingContext, 
                       __ZTI61TTransformedResolutionRestrictedQuadraticPathRenderingContext, 
                       __ZTI8TCFFDict, __ZTI9TCFFArray, __ZTS10TALMXTable, 
                       __ZTS10TROTATable, __ZTS11TCFFCharSet, __ZTS11TCFFFontSet, 
                       __ZTS11TMemoryHeap, __ZTS11TVFMX2Table, __ZTS12TCFFCharSet0, 
                       __ZTS12TCFFEncoding, __ZTS12TCFFFDSelect, __ZTS12TType1PSFont, 
                       __ZTS12TType1Strike, __ZTS13TBinarySearch, __ZTS13TCFFDictArray, 
                       __ZTS13TCFFEncoding0, __ZTS13TCFFFDSelect0, __ZTS13TType1CIDFont, 
                       __ZTS13TType1OTFFont, __ZTS13TType1PFAFont, __ZTS14TCFFDescriptor, 
                       __ZTS14TCIDCFFFontSet, __ZTS14TOTFCFFFontSet, __ZTS14TType1LWFNFont, 
                       __ZTS14TType1PDC0Font, __ZTS14TType1PDT1Font, __ZTS14TType1PDTCFont, 
                       __ZTS14TType1SFNTFont, __ZTS14TType1Streamer, __ZTS15TCFFStringArray, 
                       __ZTS15TFlexConversion, __ZTS15TType1Exception, 
                       __ZTS15TType1HFMXTable, __ZTS15TType1Transform, 
                       __ZTS15TType1VFMXTable, __ZTS16TCIDMetricsTable, 
                       __ZTS16TType1CFFFontSet, __ZTS16TType1OTFCIDFont, 
                       __ZTS17MScratchAlloation, __ZTS17TOTFCIDCFFFontSet, 
                       __ZTS17TRenderingContext, __ZTS17TStreamingContext, 
                       __ZTS18MPathTransformable, __ZTS18TCharStringContext, 
                       __ZTS18TType1CIDVFMXTable, __ZTS18TType1FontInstance, 
                       __ZTS18TType1OTFHFMXTable, __ZTS18TType1OTFVFMXTable, 
                       __ZTS18TType1Transform2x2, __ZTS18TType1Transform3x3, 
                       __ZTS19MPathFlattenContext, __ZTS19TBinarySingleSearch, 
                       __ZTS19TCFFEncodingContext, __ZTS19THintCntrConversion, 
                       __ZTS19TType1CIDCFFFontSet, __ZTS19TType1LWFNVFMXTable, 
                       __ZTS19TType1SFNTHFMXTable, __ZTS19TType1SFNTVFMXTable, 
                       __ZTS20TFontObjectSurrogate, __ZTS21MPathRenderingContext, 
                       __ZTS21TOTFCharStringContext, __ZTS21TPathRenderingContext, 
                       __ZTS21TType1CIDFontInstance, __ZTS22MStreamSnapShotContext, 
                       __ZTS22TCFFGetEncodingContext, __ZTS22TGlyphRenderingContext, 
                       __ZTS22TLWFNCharStringContext, __ZTS22TPDT1CharStringContext, 
                       __ZTS22TStreamEncodingContext, __ZTS23TType1CharStringContext, 
                       __ZTS24TLWFNFontObjectSurrogate, __ZTS24TType1HFMXTableSurrogate, 
                       __ZTS24TType1VFMXTableSurrogate, __ZTS25T3x3GlyphRenderingContext, 
                       __ZTS25TBufferedStreamingContext, __ZTS25TCFFStreamEncodingContext, 
                       __ZTS25TType1CIDRenderingContext, __ZTS26MCharStringConvertionState, 
                       __ZTS26TCubicPathRenderingContext, __ZTS28TCharStringConversionContext, 
                       __ZTS28TPathMetricsRenderingContext, __ZTS29Type1TableSythesisDataContext, 
                       __ZTS30TQuadraticPathRenderingContext, __ZTS31TFractionalMetricsRenderContext, 
                       __ZTS31TLWFNMMSnapShotStreamingContext, __ZTS31TTransformedRunRenderingContext, 
                       __ZTS31TType1LWFNSingleMasterHFMXTable, __ZTS32TTransformedPathRenderingContext, 
                       __ZTS32TType1MMSnapShotStreamingContext, __ZTS33TType1LWFNMultipleMasterHFMXTable, 
                       __ZTS35TBufferedCharStringStreamingContext, __ZTS35TType1ResolutionRestrictedTransform, 
                       __ZTS36TCIDASCII85EncodableStreamingContext, __ZTS37TTransformedCubicPathRenderingContext, 
                       __ZTS39TBufferedLWFNCharStringStreamingContext, 
                       __ZTS39TBufferedPDT1CharStringStreamingContext, 
                       __ZTS39TT2T1ConvertingBufferedStreamingContext, 
                       __ZTS39TTransformedPathMetricsRenderingContext, 
                       __ZTS40TBufferedType1CharStringStreamingContext, 
                       __ZTS40TType1ToType2CharStringConversionContext, 
                       __ZTS40TType2ToType1CharStringConvertionContext, 
                       __ZTS41TTransformedQuadraticPathRenderingContext, 
                       __ZTS42TT2T1CIDConvertingBufferedStreamingContext, 
                       __ZTS43TType1ToType2CIDCharStringConversionContext, 
                       __ZTS43TType2CIDToType1CharStringConvertionContext, 
                       __ZTS46TResolutionRestrictedCubicPathRenderingContext, 
                       __ZTS50TResolutionRestrictedPolygonalPathStreamingContext, 
                       __ZTS50TResolutionRestrictedQuadraticPathRenderingContext, 
                       __ZTS57TTransformedResolutionRestrictedCubicPathRenderingContext, 
                       __ZTS61TTransformedResolutionRestrictedQuadraticPathRenderingContext, 
                       __ZTS8TCFFDict, __ZTS9TCFFArray, __ZTV10TALMXTable, 
                       __ZTV10TROTATable, __ZTV11TCFFFontSet, __ZTV11TMemoryHeap, 
                       __ZTV11TVFMX2Table, __ZTV12TCFFCharSet0, __ZTV12TCFFEncoding, 
                       __ZTV12TType1PSFont, __ZTV12TType1Strike, __ZTV13TBinarySearch, 
                       __ZTV13TCFFDictArray, __ZTV13TCFFEncoding0, __ZTV13TCFFFDSelect0, 
                       __ZTV13TType1CIDFont, __ZTV13TType1OTFFont, __ZTV13TType1PFAFont, 
                       __ZTV14TCFFDescriptor, __ZTV14TCIDCFFFontSet, __ZTV14TOTFCFFFontSet, 
                       __ZTV14TType1LWFNFont, __ZTV14TType1PDC0Font, __ZTV14TType1PDT1Font, 
                       __ZTV14TType1PDTCFont, __ZTV14TType1SFNTFont, __ZTV14TType1Streamer, 
                       __ZTV15TCFFStringArray, __ZTV15TFlexConversion, 
                       __ZTV15TType1Exception, __ZTV15TType1HFMXTable, 
                       __ZTV15TType1Transform, __ZTV15TType1VFMXTable, 
                       __ZTV16TCIDMetricsTable, __ZTV16TType1CFFFontSet, 
                       __ZTV16TType1OTFCIDFont, __ZTV17TOTFCIDCFFFontSet, 
                       __ZTV17TRenderingContext, __ZTV17TStreamingContext, 
                       __ZTV18MPathTransformable, __ZTV18TCharStringContext, 
                       __ZTV18TType1CIDVFMXTable, __ZTV18TType1FontInstance, 
                       __ZTV18TType1OTFHFMXTable, __ZTV18TType1OTFVFMXTable, 
                       __ZTV18TType1Transform2x2, __ZTV18TType1Transform3x3, 
                       __ZTV19MPathFlattenContext, __ZTV19TBinarySingleSearch, 
                       __ZTV19TCFFEncodingContext, __ZTV19THintCntrConversion, 
                       __ZTV19TType1CIDCFFFontSet, __ZTV19TType1LWFNVFMXTable, 
                       __ZTV19TType1SFNTHFMXTable, __ZTV19TType1SFNTVFMXTable, 
                       __ZTV20TFontObjectSurrogate, __ZTV21MPathRenderingContext, 
                       __ZTV21TOTFCharStringContext, __ZTV21TType1CIDFontInstance, 
                       __ZTV22MStreamSnapShotContext, __ZTV22TCFFGetEncodingContext, 
                       __ZTV22TGlyphRenderingContext, __ZTV22TLWFNCharStringContext, 
                       __ZTV22TPDT1CharStringContext, __ZTV22TStreamEncodingContext, 
                       __ZTV23TType1CharStringContext, __ZTV24TLWFNFontObjectSurrogate, 
                       __ZTV24TType1HFMXTableSurrogate, __ZTV24TType1VFMXTableSurrogate, 
                       __ZTV25T3x3GlyphRenderingContext, __ZTV25TBufferedStreamingContext, 
                       __ZTV25TCFFStreamEncodingContext, __ZTV25TType1CIDRenderingContext, 
                       __ZTV26MCharStringConvertionState, __ZTV26TCubicPathRenderingContext, 
                       __ZTV28TCharStringConversionContext, __ZTV28TPathMetricsRenderingContext, 
                       __ZTV29Type1TableSythesisDataContext, __ZTV30TQuadraticPathRenderingContext, 
                       __ZTV31TFractionalMetricsRenderContext, __ZTV31TLWFNMMSnapShotStreamingContext, 
                       __ZTV31TTransformedRunRenderingContext, __ZTV31TType1LWFNSingleMasterHFMXTable, 
                       __ZTV32TTransformedPathRenderingContext, __ZTV32TType1MMSnapShotStreamingContext, 
                       __ZTV33TType1LWFNMultipleMasterHFMXTable, __ZTV35TBufferedCharStringStreamingContext, 
                       __ZTV35TType1ResolutionRestrictedTransform, __ZTV36TCIDASCII85EncodableStreamingContext, 
                       __ZTV37TTransformedCubicPathRenderingContext, __ZTV39TBufferedLWFNCharStringStreamingContext, 
                       __ZTV39TBufferedPDT1CharStringStreamingContext, 
                       __ZTV39TT2T1ConvertingBufferedStreamingContext, 
                       __ZTV39TTransformedPathMetricsRenderingContext, 
                       __ZTV40TBufferedType1CharStringStreamingContext, 
                       __ZTV40TType1ToType2CharStringConversionContext, 
                       __ZTV40TType2ToType1CharStringConvertionContext, 
                       __ZTV41TTransformedQuadraticPathRenderingContext, 
                       __ZTV42TT2T1CIDConvertingBufferedStreamingContext, 
                       __ZTV43TType1ToType2CIDCharStringConversionContext, 
                       __ZTV43TType2CIDToType1CharStringConvertionContext, 
                       __ZTV46TResolutionRestrictedCubicPathRenderingContext, 
                       __ZTV50TResolutionRestrictedPolygonalPathStreamingContext, 
                       __ZTV50TResolutionRestrictedQuadraticPathRenderingContext, 
                       __ZTV57TTransformedResolutionRestrictedCubicPathRenderingContext, 
                       __ZTV61TTransformedResolutionRestrictedQuadraticPathRenderingContext, 
                       __ZTV8TCFFDict, __ZTV9TCFFArray, __ZThn272_N32TTransformedPathRenderingContextD0Ev, 
                       __ZThn272_N32TTransformedPathRenderingContextD1Ev, 
                       __ZThn272_N50TResolutionRestrictedPolygonalPathStreamingContextD0Ev, 
                       __ZThn272_N50TResolutionRestrictedPolygonalPathStreamingContextD1Ev, 
                       __ZThn288_N39TTransformedPathMetricsRenderingContext13UpdateMetricsER10FixedPointS1_S1_R10_t_FCdBBox, 
                       __ZThn288_N39TTransformedPathMetricsRenderingContextD0Ev, 
                       __ZThn288_N39TTransformedPathMetricsRenderingContextD1Ev, 
                       __ZThn304_N37TTransformedCubicPathRenderingContextD0Ev, 
                       __ZThn304_N37TTransformedCubicPathRenderingContextD1Ev, 
                       __ZThn304_N46TResolutionRestrictedCubicPathRenderingContextD0Ev, 
                       __ZThn304_N46TResolutionRestrictedCubicPathRenderingContextD1Ev, 
                       __ZThn304_N57TTransformedResolutionRestrictedCubicPathRenderingContextD0Ev, 
                       __ZThn304_N57TTransformedResolutionRestrictedCubicPathRenderingContextD1Ev, 
                       __ZThn328_N41TTransformedQuadraticPathRenderingContextD0Ev, 
                       __ZThn328_N41TTransformedQuadraticPathRenderingContextD1Ev, 
                       __ZThn328_N50TResolutionRestrictedQuadraticPathRenderingContextD0Ev, 
                       __ZThn328_N50TResolutionRestrictedQuadraticPathRenderingContextD1Ev, 
                       __ZThn328_N61TTransformedResolutionRestrictedQuadraticPathRenderingContextD0Ev, 
                       __ZThn328_N61TTransformedResolutionRestrictedQuadraticPathRenderingContextD1Ev, 
                       __ZThn376_N57TTransformedResolutionRestrictedCubicPathRenderingContextD0Ev, 
                       __ZThn376_N57TTransformedResolutionRestrictedCubicPathRenderingContextD1Ev, 
                       __ZThn400_N61TTransformedResolutionRestrictedQuadraticPathRenderingContextD0Ev, 
                       __ZThn400_N61TTransformedResolutionRestrictedQuadraticPathRenderingContextD1Ev, 
                       __ZThn40_N40TType2ToType1CharStringConvertionContextD0Ev, 
                       __ZThn40_N40TType2ToType1CharStringConvertionContextD1Ev, 
                       __ZThn40_N43TType2CIDToType1CharStringConvertionContextD0Ev, 
                       __ZThn40_N43TType2CIDToType1CharStringConvertionContextD1Ev, 
                       __ZThn680_N31TLWFNMMSnapShotStreamingContextD0Ev, 
                       __ZThn680_N31TLWFNMMSnapShotStreamingContextD1Ev, 
                       __ZThn680_N32TType1MMSnapShotStreamingContextD0Ev, 
                       __ZThn680_N32TType1MMSnapShotStreamingContextD1Ev, 
                       __ZZ14GetRenderProcsvE12gRenderProcs, __ZZ14GetRenderProcsvE23gRenderProcsInitialised, 
                       __ZZ15Type1ScalerInfoE10ourFormats, __ZZ15Type1ScalerInfoE10ourMetrics, 
                       __ZZ15Type1ScalerInfoE13ourRenderings, __ZZ15Type1ScalerInfoE15ourCapabilities, 
                       __ZZ15Type1ScalerInfoE7ourInfo, __ZZ15Type1ScalerInfoE7ourName, 
                       __ZZ15Type1ScalerOpenE4once, __ZZ19Type1ScalerGetProtoE8theThing, 
                       __ZZ9GetASZonevE12gASZoneProcs, __ZZ9GetASZonevE7gASZone, 
                       __ZZL14MakeFontNameIDvE14nextFontNameID, __ZZL16DarkenGrayPixelshiE13gCurrentRatio, 
                       __ZZL16DarkenGrayPixelshiE16gGrayPixelLookup, __ZZL17GetBitmapFromSBITRK15TType1TransformRK11_t_FontInsttP12_t_BitMapRecRK20TFontObjectSurrogateP21GlyphRenderingMetricsE10hasChecked, 
                       __ZZL17GetBitmapFromSBITRK15TType1TransformRK11_t_FontInsttP12_t_BitMapRecRK20TFontObjectSurrogateP21GlyphRenderingMetricsE11dontTrySBIT, 
                       __ZZN12TType1PSFont12PrinterIsBadEPKcE13gMMBugPrinter, 
                       __ZZN17TRenderingContext13GetBuildProcsEvE11gBuildProcs, 
                       __ZZN17TRenderingContext13GetBuildProcsEvE22gBuildProcsInitialised, 
                       __ZZNK12TType1PSFont21GetGlyphHeightMetricsERK15TType1TransformRiS3_E5chars, 
                       __ZZNK13TType1OTFFont19GetStandardEncodingEPtE8gStdSIDs, 
                       ___Type1ScalerOpen_block_invoke, ___block_descriptor_tmp, 
                       ___block_literal_global, _atmparse_chartab, _bprocs, 
                       _erectToDev_LineTo, _erectToDev_MoveTo, _erosion, 
                       _fracsqrt, _gCacheHeap, _gScratchHeap, _gcList, 
                       _glbCounterList, _gsmat, _gsmatrix, _kBeginDict, 
                       _kDefString, _kEexecDict, _kEexecEnd, _kEexecHeader, 
                       _kEexecMark, _kEexecZeroes, _kEnd, _kEndChar, _kEndDict, 
                       _kHexChar, _kMMFooter, _kMMHeader, _kPSFindFont, 
                       _kPSReEncProc, _k_NumStdStrs, _k_StdStrs, _k_notdef, 
                       _leftBitArray, _rightBitArray ]
    weak-def-symbols: [ __ZNK15TType1Transform18TransformFontPointERK11TFixedPointR6_t_FCd, 
                        __ZN12TSafePointerD2Ev, __ZN16TCIDMetricsTable21TCIDMetricsSetupParamC2ERK20TFontObjectSurrogatejjj, 
                        __ZN17TStreamingContextC2ERK12TType1PSFontPKjP16OpaqueStreamSpecs, 
                        __ZN19THintCntrConversion14SetSidebearingEii, __ZN19THintCntrConversion21SetNumOfCounterGroupsEt, 
                        __ZN19TType1ScratchMemoryC2Ejb, __ZN19TType1ScratchMemoryD1Ev, 
                        __ZN19TType1ScratchMemoryD2Ev, __ZN20TScratchMemoryStream13ReceiveStreamEjPc, 
                        __ZN20TScratchMemoryStream21ParsePSEncodingStreamERK12TType1PSFontPt, 
                        __ZN21TGrowingScratchMemory13GetPointerForEj, __ZN21TLWFNFontTableContextC2ERK24TLWFNFontObjectSurrogatej, 
                        __ZN21TOTFCharStringContext24TOTFCharStringParametresC2ERK13TType1OTFFontt, 
                        __ZN22TLWFNCharStringContextC2ERK14TType1LWFNFontt, 
                        __ZN22TLWFNResourceReferenceC2ERK22TResourceForkSurrogatejs, 
                        __ZN22TLWFNResourceReferenceD0Ev, __ZN22TLWFNResourceReferenceD1Ev, 
                        __ZN22TPDT1CharStringContextC2ERK14TType1PDT1Fontt, 
                        __ZN23TEexecEncryptionContextD2Ev, __ZN23TType1CharStringContext21TCharStringParametresC2ERK14TType1SFNTFontt, 
                        __ZN23TType1LWFNResourceChainC2ERK24TLWFNFontObjectSurrogate, 
                        __ZN25TCFFStreamEncodingContextC2ERK13TType1OTFFontP16OpaqueStreamSpec, 
                        __ZN29Type1TableSythesisDataContext16GetSynthesisDataEv, 
                        __ZN31TLWFNMMSnapShotStreamingContextC2ERK14TType1LWFNFontPKjsPKiP16OpaqueStreamSpec, 
                        __ZN35TType1ResolutionRestrictedTransformC2ERK12TType1PSFontRK15TType1Transformj, 
                        __ZN46TResolutionRestrictedCubicPathRenderingContextC2EPK13TType1CIDFontRK15TType1TransformsPKhtPvj, 
                        __ZN50TResolutionRestrictedPolygonalPathStreamingContext10NewContourEv, 
                        __ZN50TResolutionRestrictedPolygonalPathStreamingContext24GetPointerToCurNumPointsEv, 
                        __ZN50TResolutionRestrictedPolygonalPathStreamingContext7AddPairEss, 
                        __ZN50TResolutionRestrictedPolygonalPathStreamingContextC2EPK13TType1CIDFont10FixedPointsPKhtR25TBufferedStreamingContext, 
                        __ZN50TResolutionRestrictedQuadraticPathRenderingContextC2EPK13TType1CIDFontRK15TType1TransformsPKhtPvj, 
                        __ZN57TTransformedResolutionRestrictedCubicPathRenderingContextC2EPK13TType1CIDFontRK15TType1TransformsPKhtPvj, 
                        __ZN61TTransformedResolutionRestrictedQuadraticPathRenderingContextC2EPK13TType1CIDFontRK15TType1TransformsPKhtPvj, 
                        __ZNK13TBinarySearch13InThisSegmentEtPKcRt, __ZNK13TType1CIDFont10GetCIDFontEv, 
                        __ZNK13TType1OTFFont13FindGlyphNameEtPcRj, __ZNK15TFlexConversion12GetFlexDepthEv, 
                        __ZNK15TFlexConversion9GetOpcodeEv, __ZNK16TType1OTFCIDFont10GetCIDFontEv, 
                        __ZNK19TBinarySingleSearch13InThisSegmentEtPKcRt, 
                        __ZNK19THintCntrConversion21GetNumOfCounterGroupsEv, 
                        __ZNK23TType1LWFNResourceChain13ResetResourceEv, 
                        __ZNK23TType1LWFNResourceChain15GetNextResourceEv, 
                        __ZNSt3__110shared_ptrI12TType1PSFontED1Ev, __ZTI19MType1HeapAllocable, 
                        __ZTI22MType1HeapNonAllocable, __ZTI22TLWFNResourceReference, 
                        __ZTS19MType1HeapAllocable, __ZTS22MType1HeapNonAllocable, 
                        __ZTS22TLWFNResourceReference, __ZTV22TLWFNResourceReference, 
                        ___clang_call_terminate ]
...
