---
archs:           [ armv7, armv7s, arm64 ]
platform:        ios
install-name:    /System/Library/PrivateFrameworks/SafariShared.framework/SafariShared
current-version: 602.2.9
compatibility-version: 0.0.0
exports:
  - archs:            [ armv7, armv7s, arm64 ]
    symbols:          [ _WBSABPropertyFirstName,
                        _WBSABProxyPropertyFullName, _WBSAddressBookMatchKeyKey,
                        _WBSAddressBookMatchPropertyKey, _WBSAddressBookMatchValueKey,
                        _WBSAutoFillGetSavedDataClasses, _WBSAutomaticReadingListAppExtensionsDidChangeNotification,
                        _WBSAutomaticReadingListOriginatorProfileImageKeyPath, _WBSAutomaticReadingListRequestStarted,
                        _WBSAutomaticReadingListWebFeedSubscriptionsDidChangeNotification, _WBSCloudHistoryConfigurationChangedNotification,
                        _WBSCloudHistoryConfigurationMultipleDeviceFetchChangesThrottlingPolicyStringKey, _WBSCloudHistoryConfigurationSingleDeviceFetchChangesThrottlingPolicyStringKey,
                        _WBSCloudHistoryItemsWereRemovedNotification, _WBSCloudHistoryPushAgentServiceName,
                        _WBSCloudHistorySaveChangesAttemptDidCompleteNotification, _WBSCloudTabDictionaryTypeKey,
                        _WBSCreditCardAutoFillKeychainService, _WBSCreditCardCompositeExpirationDateFieldLabels,
                        _WBSCreditCardSecurityCodeFieldLabels, _WBSCreditCardTypeFromNumber,
                        _WBSCreditCardTypeLocalizedName, _WBSExpirationDateWithDayMonthYear,
                        _WBSFeedFinderFeedURLKey, _WBSFeedFinderObjectName,
                        _WBSFieldLabelPatternMatcherArrayGetCount, _WBSFieldLabelPatternMatcherFindLongestMatch,
                        _WBSFormAnnotationContactIDKey, _WBSFormAnnotationNewPasswordKey,
                        _WBSFormMetadataAddressBookLabelKey, _WBSFormMetadataAnnotationsKey,
                        _WBSFormMetadataAutocompleteTokensKey, _WBSFormMetadataContainsActiveElementKey,
                        _WBSFormMetadataControlClaimsToBeNewPasswordViaAutocompleteAttribute, _WBSFormMetadataControlFieldClassKey,
                        _WBSFormMetadataControlFieldNameKey, _WBSFormMetadataControlIsAutoFilledTextFieldKey,
                        _WBSFormMetadataControlIsLabeledUsernameField, _WBSFormMetadataControlIsSecureTextFieldKey,
                        _WBSFormMetadataControlIsUserEditedTextFieldKey, _WBSFormMetadataControlLooksLikeCreditCardCompositeExpirationDateFieldKey,
                        _WBSFormMetadataControlLooksLikeCreditCardSecurityCodeFieldKey, _WBSFormMetadataControlLooksLikeDayFieldKey,
                        _WBSFormMetadataControlLooksLikeMonthFieldKey, _WBSFormMetadataControlMaxLengthKey,
                        _WBSFormMetadataControlRectHeightKey, _WBSFormMetadataControlRectTopKey,
                        _WBSFormMetadataControlSizeKey, _WBSFormMetadataControlUniqueIDKey,
                        _WBSFormMetadataFirstCreditCardCardholderFieldOrCreditCardNumberFieldUniqueIDKey, _WBSFormMetadataFormControlsKey,
                        _WBSFormMetadataFormIsBestForCredentialPreFill, _WBSFormMetadataFormIsSearchFormKey,
                        _WBSFormMetadataFormUsesRelAsync, _WBSFormMetadataPasswordElementUniqueIDKey,
                        _WBSFormMetadataRequestTypeKey, _WBSFormMetadataSelectionLengthKey,
                        _WBSFormMetadataTextSampleKey, _WBSFormMetadataUsesGeneratedPasswordKey,
                        _WBSFrequentlyVisitedSitesDidChangeNotification, _WBSGetKeychainPassword,
                        _WBSHistoryItemDidChangeNotification, _WBSHistoryItemSynchronizationQueue,
                        _WBSHistoryItemWillChangeNotification, _WBSHistoryItemsWereAddedNotification,
                        _WBSHistoryItemsWereRemovedDuringLoadingNotification, _WBSHistoryItemsWereRemovedNotification,
                        _WBSHistorySQLiteStoreURLHashKey, _WBSHistorySQLiteStoreURLSaltKey,
                        _WBSHistorySessionsDidChangeNotification, _WBSHistoryVisitWasAddedNotification,
                        _WBSHistoryVisitsWereRemovedFromDatabaseNotification, _WBSHistoryWasLoadedNotification,
                        _WBSKeychainItemExists, _WBSModerateTimeSinceLastVisitPenalty,
                        _WBSNormalizedCreditCardNumber, _WBSOpenSearchDescriptionUserInfoKey,
                        _WBSOpenSearchSearchTermsParameterName, _WBSParsecAuxiliaryInfoTextColorGreen,
                        _WBSParsecCardSectionErrorDomain, _WBSParsecDomainSafariAddressBox,
                        _WBSParsecDomainSafariBaiduSearch, _WBSParsecDomainSafariBingSearch,
                        _WBSParsecDomainSafariDuckDuckGoCompletion, _WBSParsecDomainSafariFindOnPage,
                        _WBSParsecDomainSafariGoogleCompletion, _WBSParsecDomainSafariHistory,
                        _WBSParsecDomainSafariICloudTab, _WBSParsecDomainSafariOther,
                        _WBSParsecDomainSafariURL, _WBSParsecDomainSafariYahooSearch,
                        _WBSParsecDomainServerITunes, _WBSParsecDomainServerMovie,
                        _WBSParsecDomainServerSport, _WBSParsecDomainServerTopSite,
                        _WBSParsecDomainServerWeather, _WBSParsecDomainServerWikipedia,
                        _WBSParsecEngagementActionAreaCard, _WBSParsecEngagementActionCardType,
                        _WBSParsecEngagementActionTarget, _WBSParsecEngagementActionType,
                        _WBSParsecITunesMediaKindAlbum, _WBSParsecITunesMediaKindBook,
                        _WBSParsecITunesMediaKindDesktopApp, _WBSParsecITunesMediaKindIOSSoftware,
                        _WBSParsecITunesMediaKindMusicVideo, _WBSParsecITunesMediaKindPodcast,
                        _WBSParsecITunesMediaKindShortFilm, _WBSParsecITunesMediaKindTVEpisode,
                        _WBSParsecImageAlignmentFromString, _WBSParsecMovieCardSectionErrorDomain,
                        _WBSParsecRowCardSectionErrorDomain, _WBSParsecSearchCompletionResultSetStatusCached,
                        _WBSParsecSearchCompletionResultSetStatusError, _WBSParsecSearchCompletionResultSetStatusNoResults,
                        _WBSParsecSearchCompletionResultSetStatusRemote, _WBSParsecSearchMapsResultInCardBusinessMoreInfoAction,
                        _WBSParsecSearchMapsResultInCardBusinessReportAProblemAction, _WBSParsecSearchMapsResultInCardBusinessWriteAReviewAction,
                        _WBSParsecSearchMapsResultInCardDirectionsToHereAction, _WBSParsecSearchMapsResultInCardPhoneAction,
                        _WBSParsecSportsImageErrorDomain, _WBSParsecTitleCardSectionErrorDomain,
                        _WBSParsecTrailersCardSectionErrorDomain, _WBSQuickWebsiteSearchControllerDidFinishLoadingNotification,
                        _WBSQuickWebsiteSearchProviderWasAddedNotification, _WBSRecentlyUsedAutoFillSetArrayKey,
                        _WBSRecentlyUsedAutoFillSetDoNotFillIdentifier, _WBSRectCenteredWithinRect,
                        _WBSRemoveKeychainDataIfExists, _WBSRemoveKeychainPasswordIfExists,
                        _WBSSetIsStringForUserTypedDomainExpansionInHistoryFunction, _WBSSetKeychainPassword,
                        _WBSSharedParsecBag, _WBSShortTimeSinceLastVisitPenalty,
                        _WBSTopSitesCachedScoreIsStale, _WBSTopSitesMinimumVisitCountThresholdOnHistoryQueue,
                        _WBSTopSitesScoreForCaching, _WBSTouchIconCacheWillPurgeUnneededImagesNotification,
                        _WBSUnifiedFieldInputTypeForString, __WBSABAddressCityKey,
                        __WBSABAddressLabelHome, __WBSABAddressStateKey,
                        __WBSABAddressZIPKey, __WBSABEmailProperty,
                        __WBSABOrganizationProperty, __WBSABPhoneLabelMobile,
                        __WBSABPhoneLabeliPhone, __WBSChineseCharacterForCity,
                        __WBSLocalizedString, __WBSSocialResponseWebFeedFeedURLStringKey,
                        __WBSSocialResponseWebFeedTitleKey, __ZN12SafariShared11JSUtilities10toNSStringEPK15OpaqueJSContextPK13OpaqueJSValue19WBSNullStringPolicy,
                        __ZN12SafariShared11JSUtilities20functionObjectByNameEPK15OpaqueJSContextP13OpaqueJSValuePKc, __ZN12SafariShared11JSUtilities20logExceptionInternalEPK15OpaqueJSContextPK13OpaqueJSValue,
                        __ZN12SafariShared11JSUtilities25callJSMethodWithArgumentsEPK15OpaqueJSContextP13OpaqueJSValuePKcPKPKS4_mNS0_21ReportExceptionsOrNotE, __ZN12SafariShared11JSUtilities8jsStringEP8NSString,
                        __ZN12SafariShared11JSUtilities8nsStringEP14OpaqueJSString, __ZN12SafariShared12JSController10setContextEP15OpaqueJSContext,
                        __ZN12SafariShared12JSController12staticValuesERN3WTF6VectorI13JSStaticValueLm0ENS1_15CrashOnOverflowELm16EEE, __ZN12SafariShared12JSController13protectObjectEP13OpaqueJSValue,
                        __ZN12SafariShared12JSController15staticFunctionsERN3WTF6VectorI16JSStaticFunctionLm0ENS1_15CrashOnOverflowELm16EEE, __ZN12SafariShared12JSController17scriptObjectReadyEPK15OpaqueJSContext,
                        __ZN12SafariShared12JSControllerC2Ev, __ZN12SafariShared12JSControllerD1Ev,
                        __ZN12SafariShared13FrameMetadata12staticValuesERN3WTF6VectorI13JSStaticValueLm0ENS1_15CrashOnOverflowELm16EEE, __ZN12SafariShared13FrameMetadata15staticFunctionsERN3WTF6VectorI16JSStaticFunctionLm0ENS1_15CrashOnOverflowELm16EEE,
                        __ZN12SafariShared13FrameMetadataC2EPU31objcproto20WBSFormAutoFillFrame11objc_objectP25WBSFormMetadataController, __ZN12SafariShared18ReaderJSController14loadNewArticleEv,
                        __ZN12SafariShared18ReaderJSController16scriptObjectNameEv, __ZN12SafariShared18ReaderJSController21activateWithAnimationEb,
                        __ZN12SafariShared18ReaderJSController23readerEnteredBackgroundEv, __ZN12SafariShared18ReaderJSController26clearNextPageArticleFinderEv,
                        __ZN12SafariShared19ReaderConfiguration14sharedUIScriptEPK15OpaqueJSContext, __ZN12SafariShared19ReaderConfiguration19readerHTMLSourceURLEv,
                        __ZN12SafariShared22weightForMatchLocationE29WBSURLCompletionMatchLocation, __ZN12SafariShared24FieldLabelPatternMatcher15isWordCharacterEt,
                        __ZN12SafariShared24FieldLabelPatternMatcherC2ERKNS0_3DFAEPKtl, __ZN12SafariShared25ArticleFinderJSController13staticJSClassEv,
                        __ZN12SafariShared25ArticleFinderJSController16scriptObjectNameEv, __ZN12SafariShared25ArticleFinderJSController27prepareToTransitionToReaderEv,
                        __ZN12SafariShared25SuddenTerminationDisabler23enableSuddenTerminationEv, __ZN12SafariShared25TranslatedFileURLProtocol16registerProtocolEPKNS0_12ProtocolInfoE,
                        __ZN12SafariShared27CoalescedAsynchronousWriter10timerFiredEP7NSTimer, __ZN12SafariShared27CoalescedAsynchronousWriter13scheduleWriteEv,
                        __ZN12SafariShared27CoalescedAsynchronousWriter22startScheduledWriteNowEv, __ZN12SafariShared27CoalescedAsynchronousWriter23writeDataAsynchronouslyEP6NSData,
                        __ZN12SafariShared27CoalescedAsynchronousWriter33completePendingWriteSynchronouslyEv, __ZN12SafariShared27CoalescedAsynchronousWriter5writeEP6NSData,
                        __ZN12SafariShared27CoalescedAsynchronousWriter7getDataEv, __ZN12SafariShared27CoalescedAsynchronousWriterC1EP8NSStringP5NSURLU13block_pointerFvP6NSDataEU13block_pointerFS6_vE,
                        __ZN12SafariShared27CoalescedAsynchronousWriterC2EP8NSStringP5NSURLU13block_pointerFP6NSDatavE, __ZN12SafariShared27CoalescedAsynchronousWriterC2EP8NSStringU13block_pointerFvP6NSDataEU13block_pointerFS4_vE,
                        __ZN12SafariShared27CoalescedAsynchronousWriterD2Ev, __ZN12SafariShared28ReaderAvailabilityController19detectionTimerFiredEP16__CFRunLoopTimerPv,
                        __ZN12SafariShared28ReaderAvailabilityController21detectAvailabilityNowEv, __ZN12SafariShared28ReaderAvailabilityController21doneWithArticleFinderEv,
                        __ZN12SafariShared28ReaderAvailabilityController24invalidateDetectionTimerEv, __ZN12SafariShared28ReaderAvailabilityController27cancelAvailabilityDetectionEv,
                        __ZN12SafariShared28ReaderAvailabilityController28detectAvailabilityAfterDelayEdNS_34LoadEventTriggeringReaderDetectionE, __ZN12SafariShared28ReaderAvailabilityController37sameDocumentNavigationDetectionDelaysEv,
                        __ZN12SafariShared28ReaderAvailabilityController45detectAvailabilityAfterSameDocumentNavigationEv, __ZN12SafariShared28ReaderAvailabilityControllerD0Ev,
                        __ZN12SafariShared28ReaderAvailabilityControllerD2Ev, __ZN12SafariShared33BookmarkAndHistoryCompletionMatch20computeMatchLocationEP8NSStringS2_P31WBSURLCompletionUserTypedString,
                        __ZN12SafariShared33BookmarkAndHistoryCompletionMatch23computeURLMatchLocationEPU36objcproto25WBSURLCompletionMatchData11objc_objectP31WBSURLCompletionUserTypedStringRm, __ZN12SafariShared33BookmarkAndHistoryCompletionMatchC1EPU36objcproto25WBSURLCompletionMatchData11objc_objectmd29WBSURLCompletionMatchLocationm,
                        __ZN12SafariShared34AddressBookAutoCompleteMappingData13fieldLabelMapE, __ZN12SafariShared34AddressBookAutoCompleteMappingData30emailFieldLabelPatternMatchersE,
                        __ZN12SafariShared34AddressBookAutoCompleteMappingData8synonymsE, __ZNK12SafariShared13FrameMetadata15metadataForFormEP13OpaqueJSValue26WBSFormMetadataRequestType,
                        __ZNK12SafariShared13FrameMetadata19getFormsAndMetadataE26WBSFormMetadataRequestTypeRP13OpaqueJSValueRPKS2_, __ZNK12SafariShared13FrameMetadata19metadataForAllFormsE26WBSFormMetadataRequestType,
                        __ZNK12SafariShared13FrameMetadata22currentMetadataForFormEP13OpaqueJSValue26WBSFormMetadataRequestType, __ZNK12SafariShared18ReaderJSController16userVisibleWidthEv,
                        __ZNK12SafariShared18ReaderJSController21cachedTopScrollOffsetEv, __ZNK12SafariShared18ReaderJSController29maxDistanceForLoadingNextPageEv,
                        __ZNK12SafariShared24FieldLabelPatternMatcher10isEndStateERKNS0_3DFA5StateEPKt, __ZNK12SafariShared24FieldLabelPatternMatcher13checkForMatchEPKtS2_,
                        __ZNK12SafariShared24FieldLabelPatternMatcher14isWordBoundaryEPKt, __ZNK12SafariShared24FieldLabelPatternMatcher6searchEPKtS2_,
                        __ZNK12SafariShared25ArticleFinderJSController13mainImageNodeEv, __ZNK12SafariShared28ReaderAvailabilityController33originalArticleFinderJSControllerEv,
                        __ZNK12SafariShared33BookmarkAndHistoryCompletionMatch20userVisibleURLStringEv, __ZNK12SafariShared33BookmarkAndHistoryCompletionMatch4dataEv,
                        __ZNK12SafariShared33BookmarkAndHistoryCompletionMatch7compareEPS0_, __ZTVN12SafariShared13FrameMetadataE,
                        __ZTVN12SafariShared25ArticleFinderJSControllerE, __ZTVN12SafariShared28ReaderAvailabilityControllerE,
                        _WBSABPropertyLastName, _WBSAddressBookMatchLabelKey,
                        _WBSAllowedCreditCardNumberSeparatorCharacters, _WBSAutomaticReadingListItemsChangedNotification,
                        _WBSAutomaticReadingListSocialAccountDidChangeNotification, _WBSCloudHistoryConfigurationMaximumRequestLimitCharacterCountKey,
                        _WBSCloudHistoryConfigurationSingleDeviceSaveChangesThrottlingPolicyStringKey, _WBSCloudHistoryPushNotificationReceivedNotificationName,
                        _WBSCreditCardAutoFillAccessGroup, _WBSCreditCardNumberFieldLabels,
                        _WBSCreditCardTypeFromNumberAllowingPartialMatch, _WBSFeedFinderFeedTitleKey,
                        _WBSFieldLabelPatternMatcherArrayFree, _WBSFieldLabelPatternMatcherSearchReverse,
                        _WBSFormAnnotationUsernameKey, _WBSFormMetadataAutoFillFormTypeKey,
                        _WBSFormMetadataControlClaimsToBeCurrentPasswordViaAutocompleteAttribute, _WBSFormMetadataControlFieldIDKey,
                        _WBSFormMetadataControlIsDisabledKey, _WBSFormMetadataControlIsTextFieldKey,
                        _WBSFormMetadataControlLooksLikeCreditCardNumberFieldKey, _WBSFormMetadataControlLooksLikeIgnoredDataTypeFieldKey,
                        _WBSFormMetadataControlNextFieldUniqueIDKey, _WBSFormMetadataControlRectWidthKey,
                        _WBSFormMetadataControlValueKey, _WBSFormMetadataFormIDKey,
                        _WBSFormMetadataFormIsVisibleKey, _WBSFormMetadataRadioButtonInfoKey,
                        _WBSFormMetadataSelectionStartKey, _WBSFrequentlyVisitedSitesAlgorithmVersion,
                        _WBSHistoryCurrentDatabaseSchemaVersion, _WBSHistoryItemUnvisitedTimeInterval,
                        _WBSHistoryItemsWereLoadedNotification, _WBSHistorySHA512,
                        _WBSHistoryServiceMain, _WBSHistoryVisitsKey,
                        _WBSKeychainAccountSafari, _WBSNonCreditCardCardNumberFieldLabels,
                        _WBSOpenSearchSchemaFetcherDidCollectDescriptionNotificationName, _WBSParsecAuxiliaryInfoTextColorRed,
                        _WBSParsecDomainSafariBaiduCompletion, _WBSParsecDomainSafariBookmark,
                        _WBSParsecDomainSafariGoToSite, _WBSParsecDomainSafariHistorySearch,
                        _WBSParsecDomainSafariTopHit, _WBSParsecDomainServerApp,
                        _WBSParsecDomainServerNews, _WBSParsecDomainServerTwitter,
                        _WBSParsecEngagementActionArea, _WBSParsecEngagementActionDestination,
                        _WBSParsecEngagementActionTypeEnterKey, _WBSParsecITunesMediaKindCourse,
                        _WBSParsecITunesMediaKindMovie, _WBSParsecITunesMediaKindPodcastEpisode,
                        _WBSParsecITunesMediaKindTVSeason, _WBSParsecRichTitleCardSectionErrorDomain,
                        _WBSParsecSearchCompletionResultSetStatusDebug, _WBSParsecSearchCompletionResultSetStatusOK,
                        _WBSParsecSearchMapsResultInCardBusinessPhotoAction, _WBSParsecSearchMapsResultInCardDirectionsFromHereAction,
                        _WBSParsecSearchResultErrorDomain, _WBSParsecTrailerErrorDomain,
                        _WBSQuickWebsiteSearchProviderKey, _WBSRecentlyUsedAutoFillSetDoNotFillArrayKey,
                        _WBSRemoveKeychainData, _WBSSavedPasswordStoreDidChangeNotification,
                        _WBSSetParsecGlobalFeedbackDispatcherEnabledBlock, _WBSSiteMetadataImageCacheWillPurgeUnneededImagesNotification,
                        _WBSTopSitesScore, _WBSTouchIconWebViewConfigurationGroupIdentifier,
                        __WBSABAddressCountryKey, __WBSABAddressStreetKey,
                        __WBSABInstantMessageProperty, __WBSABPhoneLabelWork,
                        __WBSChineseCharacterForProvince, __WBSSocialResponseWebFeedHomepageURLKey,
                        __ZN12SafariShared11JSUtilities11arrayLengthEPK15OpaqueJSContextP13OpaqueJSValuePPKS4_, __ZN12SafariShared11JSUtilities20translateNSToJSValueEPK15OpaqueJSContextP11objc_object,
                        __ZN12SafariShared11JSUtilities8jsStringEPKc, __ZN12SafariShared12JSController12jsControllerEP13OpaqueJSValue,
                        __ZN12SafariShared12JSController14controllerNameEv, __ZN12SafariShared12JSController29addScriptObjectToGlobalObjectEPK15OpaqueJSContext,
                        __ZN12SafariShared12JSControllerD2Ev, __ZN12SafariShared13FrameMetadataC1EPU31objcproto20WBSFormAutoFillFrame11objc_objectP25WBSFormMetadataController,
                        __ZN12SafariShared18ReaderJSController15staticFunctionsERN3WTF6VectorI16JSStaticFunctionLm0ENS1_15CrashOnOverflowELm16EEE, __ZN12SafariShared18ReaderJSController21nextPageArticleFinderEv,
                        __ZN12SafariShared18ReaderJSController36getArticleScrollPositionAsDictionaryEv, __ZN12SafariShared19ReaderConfiguration6sharedEv,
                        __ZN12SafariShared24FieldLabelPatternMatcherC1ERKNS0_3DFAEPKtl, __ZN12SafariShared25ArticleFinderJSController15staticFunctionsERN3WTF6VectorI16JSStaticFunctionLm0ENS1_15CrashOnOverflowELm16EEE,
                        __ZN12SafariShared25ArticleFinderJSController33collectReadingListItemInformationEv, __ZN12SafariShared25computeTitleMatchLocationEP8NSStringP31WBSURLCompletionUserTypedString,
                        __ZN12SafariShared27CoalescedAsynchronousWriter15invalidateTimerEv, __ZN12SafariShared27CoalescedAsynchronousWriter31cancelPendingWriteSynchronouslyEv,
                        __ZN12SafariShared27CoalescedAsynchronousWriter61cancelPendingWriteSynchronouslyLeavingSuddenTerminationIntactEv, __ZN12SafariShared27CoalescedAsynchronousWriterC1EP8NSStringU13block_pointerFvP6NSDataEU13block_pointerFS4_vE,
                        __ZN12SafariShared27CoalescedAsynchronousWriterD1Ev, __ZN12SafariShared28ReaderAvailabilityController20prepareArticleFinderEv,
                        __ZN12SafariShared28ReaderAvailabilityController22scheduleDetectionTimerEd, __ZN12SafariShared28ReaderAvailabilityController27prepareToTransitionToReaderEv,
                        __ZN12SafariShared28ReaderAvailabilityController39scheduleSameDocumentNavigationDetectionEv, __ZN12SafariShared28ReaderAvailabilityControllerD1Ev,
                        __ZN12SafariShared33BookmarkAndHistoryCompletionMatch20computeMatchLocationEPU36objcproto25WBSURLCompletionMatchData11objc_objectP31WBSURLCompletionUserTypedStringRj, __ZN12SafariShared33BookmarkAndHistoryCompletionMatch25computeTitleMatchLocationEPU36objcproto25WBSURLCompletionMatchData11objc_objectP31WBSURLCompletionUserTypedStringRj,
                        __ZN12SafariShared33BookmarkAndHistoryCompletionMatchC2EPU36objcproto25WBSURLCompletionMatchData11objc_objectmd29WBSURLCompletionMatchLocationj, __ZN12SafariShared34AddressBookAutoCompleteMappingData36addressBookFieldLabelPatternMatchersE,
                        __ZNK12SafariShared13FrameMetadata17jsMetadataForFormEP13OpaqueJSValue26WBSFormMetadataRequestType, __ZNK12SafariShared13FrameMetadata21lockedMetadataForFormEP13OpaqueJSValue,
                        __ZNK12SafariShared18ReaderJSController18canLoadFromNetworkEv, __ZNK12SafariShared18ReaderJSController29printingMailingFrameElementIdEv,
                        __ZNK12SafariShared24FieldLabelPatternMatcher13searchReverseEv, __ZNK12SafariShared24FieldLabelPatternMatcher7toRangeERKNS0_5MatchE,
                        __ZNK12SafariShared33BookmarkAndHistoryCompletionMatch17originalURLStringEv, __ZNK12SafariShared33BookmarkAndHistoryCompletionMatch5titleEv,
                        __ZTVN12SafariShared18ReaderJSControllerE ]
    objc-classes:     [ _WBSAWDLogger,
                        _WBSAddressBookMatchMarker, _WBSAsynchronousRequestHelper,
                        _WBSAutomaticReadingListAppExtensionSource, _WBSAutomaticReadingListRecordRange,
                        _WBSAutomaticReadingListSinaWeiboSource, _WBSAutomaticReadingListTrackedRecordsInfo,
                        _WBSAutomaticReadingListTwitterSource, _WBSAutomaticReadingListWebFeedSource,
                        _WBSCache, _WBSCleanupHandler,
                        _WBSCloudHistoryConfiguration, _WBSCloudHistoryMergeOperation,
                        _WBSCloudHistoryPushAgentProxy, _WBSCloudHistoryThrottler,
                        _WBSCloudHistoryVisitIdentifier, _WBSCloudTabCloseRequest,
                        _WBSCloudTabStore, _WBSCompletionQuery,
                        _WBSCreditCardData, _WBSCreditCardFormatter,
                        _WBSEncryptedCloudKeyValueStore, _WBSFeedEntry,
                        _WBSFeedMetadata, _WBSFeedSource,
                        _WBSFluidProgressController, _WBSFormAutoFillClassificationToCorrectionsTransformer,
                        _WBSFormAutoFillCorrectionsDomainNormalizer, _WBSFormAutoFillCorrectionsSQLiteStore,
                        _WBSFormAutoFillMetadataCorrector, _WBSFormAutoFillParsecDomainPolicyProvider,
                        _WBSFormDataController, _WBSFormFieldFingerprinter,
                        _WBSFormMetadataController, _WBSFrequentlyVisitedSiteCandidate,
                        _WBSFrequentlyVisitedSitesController, _WBSHistoryAccessSession,
                        _WBSHistoryAgeAndItemCountLimitEnforcementPlan, _WBSHistoryConnectionProxy,
                        _WBSHistoryDatabaseSchemaMigrator, _WBSHistoryItem,
                        _WBSHistoryPropertyListLoader, _WBSHistoryService,
                        _WBSHistorySessionController, _WBSHistoryTombstone,
                        _WBSHistoryURLCompletionMatchData, _WBSHistoryVisit,
                        _WBSImageUtilities, _WBSJavaScriptDialogManager,
                        _WBSMultiRoundAutoFillManager, _WBSOpenSearchSchemaFetcher,
                        _WBSOpenSearchURLTemplateParameter, _WBSParsecAuxiliaryInfo,
                        _WBSParsecCardSection, _WBSParsecDescriptionCardSection,
                        _WBSParsecHiddenResultInfo, _WBSParsecKeyValueDataCardSection,
                        _WBSParsecMovieCardDetailSection, _WBSParsecPunchout,
                        _WBSParsecRichText, _WBSParsecRowCardSection,
                        _WBSParsecSearchCompletionResultSet, _WBSParsecSearchMapsResult,
                        _WBSParsecSearchMapsResultFeedbackSender, _WBSParsecSearchMoviesResult,
                        _WBSParsecSearchResponse, _WBSParsecSearchResultCache,
                        _WBSParsecSearchSportsAttributionExtraCompletionItem, _WBSParsecSearchTwitterResult,
                        _WBSParsecSportsImage, _WBSParsecSportsScoreSummaryCardSection,
                        _WBSParsecSubscriptionManager, _WBSParsecTableRowCardSection,
                        _WBSParsecTrailer, _WBSPasswordAutoFillUtilities,
                        _WBSPeriodicActivityScheduler, _WBSQuickWebsiteSearchProvider,
                        _WBSReaderFontManager, _WBSRecentWebSearchEntry,
                        _WBSRemoteHistoryItem, _WBSRemoteHistoryVisit,
                        _WBSSQLiteRow, _WBSSQLiteStatement,
                        _WBSSavedPassword, _WBSSearchHelperConnectionManager,
                        _WBSSiteIconKeyColorExtractor, _WBSSiteMetadataImageCache,
                        _WBSSiteMetadataManager, _WBSSiteMetadataResponse,
                        _WBSTabDialogInformation, _WBSTemplateIconMonogramConfiguration,
                        _WBSTopHitCompletionMatch, _WBSTouchIconCacheSettingsEntry,
                        _WBSTouchIconFetchOperation, _WBSTouchIconRequest,
                        _WBSTouchIconWebProcessPlugInPageController, _WBSURLCompletionHistorySnapshot,
                        _WBSURLCompletionMatchSnapshot, _WBSURLCompletionUserTypedString,
                        _WBSUserTypedFormString, _WBSWebProcessPlugInPageController,
                        __WBSFieldLabelPatternMatcherFactory, __WBSParsecDictionarySchema,
                        __WBSSiteMetadataRequestInfo, __WBSSiteMetadataToken,
                        _WBSAddressBookMatch, _WBSAutomaticReadingListAppExtensionItem,
                        _WBSAutomaticReadingListSinaWeiboItem, _WBSAutomaticReadingListTwitterItem,
                        _WBSBookmarkAndHistoryCompletionMatch, _WBSCloudHistory,
                        _WBSCloudHistoryPushAgent, _WBSCloudHistoryVisit,
                        _WBSCloudTabDevice, _WBSCredentialMatch,
                        _WBSDuetSession, _WBSFeedFinderController,
                        _WBSFluidProgressAnimation, _WBSFormAutoFillCorrectionManager,
                        _WBSFormAutoFillItem, _WBSFormAutoFillParsecFeedbackProcessor,
                        _WBSFormMetadata, _WBSFrequentlyVisitedSitesBannedURLStore,
                        _WBSHistoryAccessSessionProxy, _WBSHistoryDatabaseAccessBroker,
                        _WBSHistoryNotification, _WBSHistorySession,
                        _WBSHistoryURLCompletionDataStore, _WBSImageFetchingURLSessionTaskManager,
                        _WBSMetadataExtractor, _WBSOpenSearchURLTemplate,
                        _WBSParsecBuyButton, _WBSParsecFormattedText,
                        _WBSParsecModel, _WBSParsecResultSetPattern,
                        _WBSParsecSchema, _WBSParsecSearchMapsResultExtraCompletionItem,
                        _WBSParsecSearchNewsResult, _WBSParsecSearchSimpleResult,
                        _WBSParsecSearchUtilities, _WBSParsecSubscriptionInfo,
                        _WBSParsecTitleCardSection, _WBSPasswordGeneration,
                        _WBSReaderFont, _WBSRecentWebSearchesController,
                        _WBSSQLiteDatabase, _WBSSameDocumentNavigationToHistoryVisitCorrelator,
                        _WBSSearchProvider, _WBSSiteMetadataImageCacheSettingsSQLiteStore,
                        _WBSTabDialogCompletionHandler, _WBSTemplateIconMonogramGenerator,
                        _WBSTouchIconCacheSettingsSQLiteStore, _WBSTouchIconResponse,
                        _WBSURLCompletionMatch, _WBSURLSuffixChecker,
                        _WBSWebViewMetadataFetchOperation, __WBSSearchFoundationFeedbackGenerator ]
    objc-ivars:       [ _WBSFrequentlyVisitedSitesController._bannedURLStore,
                        _WBSHistory._entriesByURLStringAccessQueue, _WBSHistory._stringsForUserTypedDomainExpansion,
                        _WBSHistoryItem._urlString, _WBSHistoryItem._visitsPendingWriteToDataStore,
                        _WBSHistory._entriesByURLString, _WBSHistoryItem._lastVisit ]
...
