---
archs:           [ armv7, armv7s, arm64 ]
platform:        ios
install-name:    /System/Library/PrivateFrameworks/NotesShared.framework/NotesShared
current-version: 1.0.0
compatibility-version: 1.0.0
exports:
  - archs:            [ armv7, armv7s, arm64 ]
    symbols:          [ _HSBfromRGB,
                        _ICAccessibilityLocalizedPercent, _ICAccessibilityNeedsAccessibilityElements,
                        _ICAccessibilityPostAnnouncementNotification, _ICAccessibilityPostHighPriorityAnnouncementNotification,
                        _ICAccountEntityName, _ICAccountsDidChangeNotification,
                        _ICAttachmentDidChangeSizeNotification, _ICAttachmentPreviewImagesDidUpdateNotification,
                        _ICAttachmentUTTypeDrawingLegacy, _ICAttachmentWasUndeletedNotification,
                        _ICCFTypeCast, _ICCheckedProtocolCast,
                        _ICCloudBatchIntervalDidChangeNotification, _ICCloudContextErrorDomain,
                        _ICCloudContextErrorSyncingDisabled, _ICCloudContextFetchOperationsPendingKey,
                        _ICCloudContextFetchRecordChangeOperationDidFinishNotification, _ICCloudRecordTypeFolder,
                        _ICCloudRecordTypeNote, _ICCloudSyncingObjectEntityName,
                        _ICCloudSyncingObjectRecordKeyAssetCryptoTag, _ICCloudSyncingObjectRecordKeyCryptoTag,
                        _ICCryptorDidClearMasterKeysNotification, _ICCryptorMasterKeysDidChangeNotification,
                        _ICCryptorWillClearMasterKeysNotification, _ICDeviceMigrationStateRecordType,
                        _ICDidAddAttachmentForNoteNotification, _ICDrawingOrientationIsLandscape,
                        _ICDrawingUndoStackDidChangeNotification, _ICErrorAttachmentCountKey,
                        _ICErrorFailureReasonKey, _ICFolderWillBeDeletedNotification,
                        _ICInternalPreferencesChangedNotification, _ICInternalSettingsDrawingEraserForceStylusSmoothing,
                        _ICInternalSettingsDrawingEraserMaxForceTouch, _ICInternalSettingsDrawingEraserMaxStylusRadius,
                        _ICInternalSettingsDrawingEraserMidStylusRadius, _ICInternalSettingsDrawingEraserMinForceTouchRadius,
                        _ICInternalSettingsDrawingEraserMinWidth, _ICInternalSettingsDrawingEraserStylusWidth,
                        _ICInternalSettingsDrawingMarkerBlendOpacity, _ICInternalSettingsDrawingMarkerEndCapTime,
                        _ICInternalSettingsDrawingMarkerMaxForceStylusOpacity, _ICInternalSettingsDrawingMarkerMaxForceTouchOpacity,
                        _ICInternalSettingsDrawingMarkerMinForceStylusOpacity, _ICInternalSettingsDrawingMarkerMinForceTouchOpacity,
                        _ICInternalSettingsDrawingMarkerSpacing, _ICInternalSettingsDrawingMarkerStartCapTime,
                        _ICInternalSettingsDrawingMarkerTarget, _ICInternalSettingsDrawingOutsideDrawMargin,
                        _ICInternalSettingsDrawingPenMaxForceStylusRadius, _ICInternalSettingsDrawingPenMaxForceTouchRadius,
                        _ICInternalSettingsDrawingPenMinForceStylus, _ICInternalSettingsDrawingPenMinForceTouch,
                        _ICInternalSettingsDrawingPenMinVelocity, _ICInternalSettingsDrawingPenOpacity,
                        _ICInternalSettingsDrawingPenStylusWidth, _ICInternalSettingsDrawingPencilEndCapFade,
                        _ICInternalSettingsDrawingPencilMaxEdgeAngle, _ICInternalSettingsDrawingPencilMaxForceStylus,
                        _ICInternalSettingsDrawingPencilMaxForceTouch, _ICInternalSettingsDrawingPencilMaxOpacity,
                        _ICInternalSettingsDrawingPencilMidForceStylusOpacity, _ICInternalSettingsDrawingPencilMinForceStylus,
                        _ICInternalSettingsDrawingPencilMinForceTouch, _ICInternalSettingsDrawingPencilMinOpacity,
                        _ICInternalSettingsDrawingPencilPhoneWidth, _ICInternalSettingsDrawingPencilStylusWidth,
                        _ICInternalSettingsDrawingSmoothingPencilThreshold, _ICInternalSettingsDrawingSmoothingThreshold,
                        _ICInternalSettingsGetBundleBoolSettingValue, _ICInternalSettingsIsTracingEnabled,
                        _ICInternalSettingsTailFixDistance, _ICInternalSettingsTailFixEnableStart,
                        _ICInternalSettingsTailFixMinCurveLength, _ICKeychainErrorDomain,
                        _ICLegacyTombstoneEntityName, _ICMediaDidLoadNotification,
                        _ICNoteAddOrRemovePasswordInfoOriginalNoteKey, _ICNoteAttachmentsExceededNotification,
                        _ICNoteCurrentlyBeingEditedChangedNotification, _ICNoteEntityName,
                        _ICNoteFoundUnsupportedAttachmentNotification, _ICNoteHTMLConverterBundleIdentifier,
                        _ICNoteRecoveredFromRecentlyDeletedNoteKey, _ICNoteRecoveredFromRecentlyDeletedSelectedRangeValueKey,
                        _ICNoteWillBeDeletedNotification, _ICNoteWillMoveFromRecentlyDeletedFolderNotification,
                        _ICNotesAppURLScheme, _ICPasswordNoteStatusDidChangeNotification,
                        _ICProtocolCast, _ICRectEdgeToIndex,
                        _ICServerChangeTokenEntityName, _ICTextControllerAdditionalOffsetForList,
                        _ICUserRecordKeyDidChooseToMigrate, _ICUserRecordKeyDidMigrateOnMac,
                        _TSDAddPoints, _TSDAffineTransformForFlips,
                        _TSDAliasRound, _TSDAliasRoundedRectForScale,
                        _TSDAveragePoints, _TSDCenterOfRect,
                        _TSDClampPointInRect, _TSDComplexMultiplyPoint,
                        _TSDCrossPoints, _TSDDeltaFromAngle,
                        _TSDDistanceBetweenAnglesInRadians, _TSDDistanceToRect,
                        _TSDDotPoints, _TSDFitOrFillSizeInRect,
                        _TSDFlipRect, _TSDFlooredPoint,
                        _TSDGrowRectToPoint, _TSDInterpolatePoints,
                        _TSDIsTransformAxisAligned, _TSDIsTransformAxisAlignedWithObjectSize,
                        _TSDIsTransformFlipped, _TSDMixAnglesInDegrees,
                        _TSDMixBOOLs, _TSDMixPoints,
                        _TSDMixSizes, _TSDMultiplyPointScalar,
                        _TSDMultiplySizeScalar, _TSDNearlyCollinearPoints,
                        _TSDNearlyEqualPoints, _TSDNearlyEqualSizes,
                        _TSDNiceAngleFromDelta, _TSDNormalizeAngleInDegrees,
                        _TSDNormalizeDifferenceAngleInDegrees, _TSDNormalizeSignedDifferenceAngleInDegrees,
                        _TSDNormalizedSubrectInRect, _TSDOriginRotate,
                        _TSDPercentRectInsideRect, _TSDPointHasNaNComponents,
                        _TSDPointInfinity, _TSDPointOne,
                        _TSDRectByExpandingBoundingRectToContentRect, _TSDRectFromNormalizedSubrect,
                        _TSDRectHasNaNComponents, _TSDRectSubtractingRect,
                        _TSDRectWithCenterAndSize, _TSDRectWithOriginAndSize,
                        _TSDRectWithSize, _TSDRectsOverlapHorizontally,
                        _TSDRotatePoint90Degrees, _TSDRoundedMaxX,
                        _TSDRoundedMidX, _TSDRoundedMinX,
                        _TSDRoundedPoint, _TSDRoundedRect,
                        _TSDRoundedSize, _TSDScaleSizeWithinSize,
                        _TSDShiftConstrainDeltaToAngle, _TSDSizeExpandedToMatchAspectRatio,
                        _TSDSizeIsEmpty, _TSDSizeWithMaxArea,
                        _TSDSubtractSizes, _TSDTransform3DNearlyEqualToTransform,
                        _TSDTransformAngle, _TSDTransformConvertingRectToRect,
                        _TSDTransformDecompose, _TSDTransformHasNaNComponents,
                        _TSDTransformIsValid, _TSDTransformMakeFree,
                        _TSDTransformNormalizeScale, _TSDTransformXYScale,
                        _TSDTransformsDifferOnlyByTranslation, _TSDUnionRect,
                        _TSDVisibleUnscaledRectForNewScale, _TSD_CGAffineTransformDecompose,
                        _TSUCGColorCreateDeviceGray, _TSUCGColorCreatePatternWithImage,
                        _TSUCGColorCreateWithUIColor, _TSUCGPatternCreateWithImageAndTransform,
                        _TSUClamp, _TSUColorLightness,
                        _TSUCreateCGColorFromHSBInColorSpace, _TSUCreateRGBABitmapContext,
                        _TSUDeviceGrayColorSpace, _TSUFractionalPart,
                        _TSUHSBToRGB, _TSUPatternColorFromGradient,
                        _TSURandom, _TSUReverseSquare,
                        _TSUSineMap, _TTAttributeNameFontHints,
                        _TTAttributeNameParagraphStyle, _TTAttributeNameSuperscript,
                        _TTAttributeNameUnderline, _TTMergeableUndoStringDidAddUndoNotification,
                        _TTParagraphStyleAlignmentLeft, _TTPresentationAttributeNameItemNumber,
                        _TTTextStorageDidProcessEndEditingNotification, __Z12updateTopoIDRK6TopoIDRK11TopoIDRangeS4_,
                        __Z17traverseRecursiveP13TopoSubstringU13block_pointerFvS0_PbE, __Z17updateTopoIDRangeRK11TopoIDRangeS1_S1_RNSt3__16vectorIS_NS2_9allocatorIS_EEEE,
                        __Z19ICDrawingSmoothstepddddd, __Z23traverseUnorderedSimpleP13TopoSubstringU13block_pointerFvS0_PbE,
                        __Z7hasLoopP13TopoSubstring, __ZN14peernetworking10Attachment10SharedCtorEv,
                        __ZN14peernetworking10Attachment15kUrlFieldNumberE, __ZN14peernetworking10Attachment17default_instance_E,
                        __ZN14peernetworking10Attachment20kNoteUUIDFieldNumberE, __ZN14peernetworking10Attachment21InitAsDefaultInstanceEv,
                        __ZN14peernetworking10Attachment27kMediaIdentifierFieldNumberE, __ZN14peernetworking10Attachment4SwapEPS0_,
                        __ZN14peernetworking10Attachment8CopyFromERKS0_, __ZN14peernetworking10AttachmentC1ERKS0_,
                        __ZN14peernetworking10AttachmentC2ERKS0_, __ZN14peernetworking10AttachmentD0Ev,
                        __ZN14peernetworking10AttachmentD2Ev, __ZN14peernetworking11InviteReply10SharedDtorEv,
                        __ZN14peernetworking11InviteReply17default_instance_E, __ZN14peernetworking11InviteReply20kNoteUUIDFieldNumberE,
                        __ZN14peernetworking11InviteReply21InitAsDefaultInstanceEv, __ZN14peernetworking11InviteReply4SwapEPS0_,
                        __ZN14peernetworking11InviteReply8CopyFromERKS0_, __ZN14peernetworking11InviteReplyC1ERKS0_,
                        __ZN14peernetworking11InviteReplyC2ERKS0_, __ZN14peernetworking11InviteReplyD0Ev,
                        __ZN14peernetworking11InviteReplyD2Ev, __ZN14peernetworking11RequestNote10SharedDtorEv,
                        __ZN14peernetworking11RequestNote17default_instance_E, __ZN14peernetworking11RequestNote21CheckTypeAndMergeFromERKN6google8protobuf11MessageLiteE,
                        __ZN14peernetworking11RequestNote27MergePartialFromCodedStreamEPN6google8protobuf2io16CodedInputStreamE, __ZN14peernetworking11RequestNote5ClearEv,
                        __ZN14peernetworking11RequestNote9MergeFromERKS0_, __ZN14peernetworking11RequestNoteC1Ev,
                        __ZN14peernetworking11RequestNoteC2Ev, __ZN14peernetworking11RequestNoteD1Ev,
                        __ZN14peernetworking12RequestMedia10SharedCtorEv, __ZN14peernetworking12RequestMedia16default_instanceEv,
                        __ZN14peernetworking12RequestMedia21CheckTypeAndMergeFromERKN6google8protobuf11MessageLiteE, __ZN14peernetworking12RequestMedia27MergePartialFromCodedStreamEPN6google8protobuf2io16CodedInputStreamE,
                        __ZN14peernetworking12RequestMedia4SwapEPS0_, __ZN14peernetworking12RequestMedia8CopyFromERKS0_,
                        __ZN14peernetworking12RequestMediaC1ERKS0_, __ZN14peernetworking12RequestMediaC2ERKS0_,
                        __ZN14peernetworking12RequestMediaD0Ev, __ZN14peernetworking12RequestMediaD2Ev,
                        __ZN14peernetworking16UnavailableMedia10SharedDtorEv, __ZN14peernetworking16UnavailableMedia17default_instance_E,
                        __ZN14peernetworking16UnavailableMedia21InitAsDefaultInstanceEv, __ZN14peernetworking16UnavailableMedia27kMediaIdentifierFieldNumberE,
                        __ZN14peernetworking16UnavailableMedia5ClearEv, __ZN14peernetworking16UnavailableMedia9MergeFromERKS0_,
                        __ZN14peernetworking16UnavailableMediaC1Ev, __ZN14peernetworking16UnavailableMediaC2Ev,
                        __ZN14peernetworking16UnavailableMediaD1Ev, __ZN14peernetworking17RequestAttachment10SharedCtorEv,
                        __ZN14peernetworking17RequestAttachment16default_instanceEv, __ZN14peernetworking17RequestAttachment20kNoteUUIDFieldNumberE,
                        __ZN14peernetworking17RequestAttachment21InitAsDefaultInstanceEv, __ZN14peernetworking17RequestAttachment32kAttachmentIdentifierFieldNumberE,
                        __ZN14peernetworking17RequestAttachment5ClearEv, __ZN14peernetworking17RequestAttachment9MergeFromERKS0_,
                        __ZN14peernetworking17RequestAttachmentC1Ev, __ZN14peernetworking17RequestAttachmentC2Ev,
                        __ZN14peernetworking17RequestAttachmentD1Ev, __ZN14peernetworking18PeerNetworkMessage10SharedCtorEv,
                        __ZN14peernetworking18PeerNetworkMessage16default_instanceEv, __ZN14peernetworking18PeerNetworkMessage17default_instance_E,
                        __ZN14peernetworking18PeerNetworkMessage18kInviteFieldNumberE, __ZN14peernetworking18PeerNetworkMessage21CheckTypeAndMergeFromERKN6google8protobuf11MessageLiteE,
                        __ZN14peernetworking18PeerNetworkMessage21kKeepAliveFieldNumberE, __ZN14peernetworking18PeerNetworkMessage22kAttachmentFieldNumberE,
                        __ZN14peernetworking18PeerNetworkMessage23kRequestNoteFieldNumberE, __ZN14peernetworking18PeerNetworkMessage27MergePartialFromCodedStreamEPN6google8protobuf2io16CodedInputStreamE,
                        __ZN14peernetworking18PeerNetworkMessage28kUnavailableMediaFieldNumberE, __ZN14peernetworking18PeerNetworkMessage4SwapEPS0_,
                        __ZN14peernetworking18PeerNetworkMessage8CopyFromERKS0_, __ZN14peernetworking18PeerNetworkMessageC1ERKS0_,
                        __ZN14peernetworking18PeerNetworkMessageC2ERKS0_, __ZN14peernetworking18PeerNetworkMessageD0Ev,
                        __ZN14peernetworking18PeerNetworkMessageD2Ev, __ZN14peernetworking44protobuf_AddDesc_peernetworking_2eproto_implEv,
                        __ZN14peernetworking45protobuf_AddDesc_peernetworking_2eproto_once_E, __ZN14peernetworking4Note10SharedDtorEv,
                        __ZN14peernetworking4Note17default_instance_E, __ZN14peernetworking4Note20kNoteUUIDFieldNumberE,
                        __ZN14peernetworking4Note21InitAsDefaultInstanceEv, __ZN14peernetworking4Note4SwapEPS0_,
                        __ZN14peernetworking4Note8CopyFromERKS0_, __ZN14peernetworking4NoteC1ERKS0_,
                        __ZN14peernetworking4NoteC2ERKS0_, __ZN14peernetworking4NoteD0Ev,
                        __ZN14peernetworking4NoteD2Ev, __ZN14peernetworking5Media10SharedDtorEv,
                        __ZN14peernetworking5Media16kDataFieldNumberE, __ZN14peernetworking5Media21CheckTypeAndMergeFromERKN6google8protobuf11MessageLiteE,
                        __ZN14peernetworking5Media27MergePartialFromCodedStreamEPN6google8protobuf2io16CodedInputStreamE, __ZN14peernetworking5Media4SwapEPS0_,
                        __ZN14peernetworking5Media8CopyFromERKS0_, __ZN14peernetworking5MediaC1ERKS0_,
                        __ZN14peernetworking5MediaC2ERKS0_, __ZN14peernetworking5MediaD0Ev,
                        __ZN14peernetworking5MediaD2Ev, __ZN14peernetworking6Invite10SharedDtorEv,
                        __ZN14peernetworking6Invite16kNameFieldNumberE, __ZN14peernetworking6Invite20kNoteUUIDFieldNumberE,
                        __ZN14peernetworking6Invite21InitAsDefaultInstanceEv, __ZN14peernetworking6Invite4SwapEPS0_,
                        __ZN14peernetworking6Invite8CopyFromERKS0_, __ZN14peernetworking6InviteC1ERKS0_,
                        __ZN14peernetworking6InviteC2ERKS0_, __ZN14peernetworking6InviteD0Ev,
                        __ZN14peernetworking6InviteD2Ev, __ZN14peernetworking8Identity10SharedDtorEv,
                        __ZN14peernetworking8Identity16kNameFieldNumberE, __ZN14peernetworking8Identity21CheckTypeAndMergeFromERKN6google8protobuf11MessageLiteE,
                        __ZN14peernetworking8Identity22kDeviceUUIDFieldNumberE, __ZN14peernetworking8Identity24kPngImageDataFieldNumberE,
                        __ZN14peernetworking8Identity4SwapEPS0_, __ZN14peernetworking8Identity8CopyFromERKS0_,
                        __ZN14peernetworking8IdentityC1ERKS0_, __ZN14peernetworking8IdentityC2ERKS0_,
                        __ZN14peernetworking8IdentityD0Ev, __ZN14peernetworking8IdentityD2Ev,
                        __ZN14peernetworking9KeepAlive10SharedDtorEv, __ZN14peernetworking9KeepAlive17default_instance_E,
                        __ZN14peernetworking9KeepAlive21InitAsDefaultInstanceEv, __ZN14peernetworking9KeepAlive4SwapEPS0_,
                        __ZN14peernetworking9KeepAlive8CopyFromERKS0_, __ZN14peernetworking9KeepAliveC1ERKS0_,
                        __ZN14peernetworking9KeepAliveC2ERKS0_, __ZN14peernetworking9KeepAliveD0Ev,
                        __ZN14peernetworking9KeepAliveD2Ev, __ZN14peernetworking9ShareInfo10SharedDtorEv,
                        __ZN14peernetworking9ShareInfo17default_instance_E, __ZN14peernetworking9ShareInfo21CheckTypeAndMergeFromERKN6google8protobuf11MessageLiteE,
                        __ZN14peernetworking9ShareInfo21kTimestampFieldNumberE, __ZN14peernetworking9ShareInfo27MergePartialFromCodedStreamEPN6google8protobuf2io16CodedInputStreamE,
                        __ZN14peernetworking9ShareInfo5ClearEv, __ZN14peernetworking9ShareInfo9MergeFromERKS0_,
                        __ZN14peernetworking9ShareInfoC1Ev, __ZN14peernetworking9ShareInfoC2Ev,
                        __ZN14peernetworking9ShareInfoD1Ev, __ZN16airdrop_document10WebArchive10SharedCtorEv,
                        __ZN16airdrop_document10WebArchive16default_instanceEv, __ZN16airdrop_document10WebArchive17default_instance_E,
                        __ZN16airdrop_document10WebArchive21InitAsDefaultInstanceEv, __ZN16airdrop_document10WebArchive4SwapEPS0_,
                        __ZN16airdrop_document10WebArchive8CopyFromERKS0_, __ZN16airdrop_document10WebArchiveC1ERKS0_,
                        __ZN16airdrop_document10WebArchiveC2ERKS0_, __ZN16airdrop_document10WebArchiveD0Ev,
                        __ZN16airdrop_document10WebArchiveD2Ev, __ZN16airdrop_document12NoteDocument10SharedDtorEv,
                        __ZN16airdrop_document12NoteDocument17default_instance_E, __ZN16airdrop_document12NoteDocument21InitAsDefaultInstanceEv,
                        __ZN16airdrop_document12NoteDocument27MergePartialFromCodedStreamEPN6google8protobuf2io16CodedInputStreamE, __ZN16airdrop_document12NoteDocument5ClearEv,
                        __ZN16airdrop_document12NoteDocument9MergeFromERKS0_, __ZN16airdrop_document12NoteDocumentC1Ev,
                        __ZN16airdrop_document12NoteDocumentC2Ev, __ZN16airdrop_document12NoteDocumentD1Ev,
                        __ZN16airdrop_document15NoteDocument1_010SharedCtorEv, __ZN16airdrop_document15NoteDocument1_016default_instanceEv,
                        __ZN16airdrop_document15NoteDocument1_021CheckTypeAndMergeFromERKN6google8protobuf11MessageLiteE, __ZN16airdrop_document15NoteDocument1_027MergePartialFromCodedStreamEPN6google8protobuf2io16CodedInputStreamE,
                        __ZN16airdrop_document15NoteDocument1_04SwapEPS0_, __ZN16airdrop_document15NoteDocument1_08CopyFromERKS0_,
                        __ZN16airdrop_document15NoteDocument1_0C1ERKS0_, __ZN16airdrop_document15NoteDocument1_0C2ERKS0_,
                        __ZN16airdrop_document15NoteDocument1_0D0Ev, __ZN16airdrop_document15NoteDocument1_0D2Ev,
                        __ZN16airdrop_document16AttributedString10SharedDtorEv, __ZN16airdrop_document16AttributedString16kDataFieldNumberE,
                        __ZN16airdrop_document16AttributedString21CheckTypeAndMergeFromERKN6google8protobuf11MessageLiteE, __ZN16airdrop_document16AttributedString27MergePartialFromCodedStreamEPN6google8protobuf2io16CodedInputStreamE,
                        __ZN16airdrop_document16AttributedString5ClearEv, __ZN16airdrop_document16AttributedString9MergeFromERKS0_,
                        __ZN16airdrop_document16AttributedStringC1Ev, __ZN16airdrop_document16AttributedStringC2Ev,
                        __ZN16airdrop_document16AttributedStringD1Ev, __ZN16airdrop_document18LegacyNoteDocument10SharedCtorEv,
                        __ZN16airdrop_document18LegacyNoteDocument16default_instanceEv, __ZN16airdrop_document18LegacyNoteDocument21CheckTypeAndMergeFromERKN6google8protobuf11MessageLiteE,
                        __ZN16airdrop_document18LegacyNoteDocument21kVersion10FieldNumberE, __ZN16airdrop_document18LegacyNoteDocument4SwapEPS0_,
                        __ZN16airdrop_document18LegacyNoteDocument8CopyFromERKS0_, __ZN16airdrop_document18LegacyNoteDocumentC1ERKS0_,
                        __ZN16airdrop_document18LegacyNoteDocumentC2ERKS0_, __ZN16airdrop_document18LegacyNoteDocumentD0Ev,
                        __ZN16airdrop_document18LegacyNoteDocumentD2Ev, __ZN16airdrop_document21LegacyNoteDocument1_010SharedDtorEv,
                        __ZN16airdrop_document21LegacyNoteDocument1_017default_instance_E, __ZN16airdrop_document21LegacyNoteDocument1_021InitAsDefaultInstanceEv,
                        __ZN16airdrop_document21LegacyNoteDocument1_027MergePartialFromCodedStreamEPN6google8protobuf2io16CodedInputStreamE, __ZN16airdrop_document21LegacyNoteDocument1_05ClearEv,
                        __ZN16airdrop_document21LegacyNoteDocument1_09MergeFromERKS0_, __ZN16airdrop_document21LegacyNoteDocument1_0C1Ev,
                        __ZN16airdrop_document21LegacyNoteDocument1_0C2Ev, __ZN16airdrop_document21LegacyNoteDocument1_0D1Ev,
                        __ZN16airdrop_document43protobuf_AddDesc_airdrop_2ddocument_2eprotoEv, __ZN16airdrop_document48protobuf_ShutdownFile_airdrop_2ddocument_2eprotoEv,
                        __ZN16airdrop_document8Document10SharedCtorEv, __ZN16airdrop_document8Document16default_instanceEv,
                        __ZN16airdrop_document8Document21CheckTypeAndMergeFromERKN6google8protobuf11MessageLiteE, __ZN16airdrop_document8Document24kNoteDocumentFieldNumberE,
                        __ZN16airdrop_document8Document30kLegacyNoteDocumentFieldNumberE, __ZN16airdrop_document8Document5ClearEv,
                        __ZN16airdrop_document8Document9MergeFromERKS0_, __ZN16airdrop_document8DocumentC1Ev,
                        __ZN16airdrop_document8DocumentC2Ev, __ZN16airdrop_document8DocumentD1Ev,
                        __ZN18versioned_document45protobuf_AddDesc_versioned_2ddocument_2eprotoEv, __ZN18versioned_document50protobuf_ShutdownFile_versioned_2ddocument_2eprotoEv,
                        __ZN18versioned_document7Version10SharedCtorEv, __ZN18versioned_document7Version16default_instanceEv,
                        __ZN18versioned_document7Version17default_instance_E, __ZN18versioned_document7Version21InitAsDefaultInstanceEv,
                        __ZN18versioned_document7Version32kSerializationVersionFieldNumberE, __ZN18versioned_document7Version4SwapEPS0_,
                        __ZN18versioned_document7Version8CopyFromERKS0_, __ZN18versioned_document7VersionC1ERKS0_,
                        __ZN18versioned_document7VersionC2ERKS0_, __ZN18versioned_document7VersionD0Ev,
                        __ZN18versioned_document7VersionD2Ev, __ZN18versioned_document8Document10SharedDtorEv,
                        __ZN18versioned_document8Document17default_instance_E, __ZN18versioned_document8Document21CheckTypeAndMergeFromERKN6google8protobuf11MessageLiteE,
                        __ZN18versioned_document8Document27MergePartialFromCodedStreamEPN6google8protobuf2io16CodedInputStreamE, __ZN18versioned_document8Document4SwapEPS0_,
                        __ZN18versioned_document8Document8CopyFromERKS0_, __ZN18versioned_document8DocumentC1ERKS0_,
                        __ZN18versioned_document8DocumentC2ERKS0_, __ZN18versioned_document8DocumentD0Ev,
                        __ZN18versioned_document8DocumentD2Ev, __ZN22ICDrawingInputSmoother24smoothCurvaturesDistanceERNSt3__16vectorI16ICSmoothingPointNS0_9allocatorIS2_EEEE,
                        __ZN27ICDrawingRulerExtremaFilter10isReversalEv, __ZN27ICDrawingRulerExtremaFilter25copyUpdatedRangeFromIndexEmPNSt3__16vectorI20ICDrawingOutputPointNS0_9allocatorIS2_EEEE,
                        __ZN29ICDrawingInputProviderInitial24getUpdatedRangeFromIndexEPm, __ZN29ICDrawingInputProviderInitial5resetEv,
                        __ZN6google8protobuf11LogSilencerC2Ev, __ZN6google8protobuf11LogSilencerD2Ev,
                        __ZN6google8protobuf11MessageLite15ParseFromStringERKNSt3__112basic_stringIcNS2_11char_traitsIcEENS2_9allocatorIcEEEE, __ZN6google8protobuf11MessageLite20ParseFromCodedStreamEPNS0_2io16CodedInputStreamE,
                        __ZN6google8protobuf11MessageLite22ParsePartialFromStringERKNSt3__112basic_stringIcNS2_11char_traitsIcEENS2_9allocatorIcEEEE, __ZN6google8protobuf11MessageLite27ParsePartialFromCodedStreamEPNS0_2io16CodedInputStreamE,
                        __ZN6google8protobuf11MessageLite30ParsePartialFromZeroCopyStreamEPNS0_2io19ZeroCopyInputStreamE, __ZN6google8protobuf11MessageLiteD0Ev,
                        __ZN6google8protobuf11MessageLiteD2Ev, __ZN6google8protobuf14FatalExceptionD0Ev,
                        __ZN6google8protobuf14FatalExceptionD2Ev, __ZN6google8protobuf23ShutdownProtobufLibraryEv,
                        __ZN6google8protobuf2io15FileInputStream22CopyingFileInputStream4SkipEi, __ZN6google8protobuf2io15FileInputStream22CopyingFileInputStreamC1Ei,
                        __ZN6google8protobuf2io15FileInputStream22CopyingFileInputStreamD0Ev, __ZN6google8protobuf2io15FileInputStream22CopyingFileInputStreamD2Ev,
                        __ZN6google8protobuf2io15FileInputStream4SkipEi, __ZN6google8protobuf2io15FileInputStream6BackUpEi,
                        __ZN6google8protobuf2io15FileInputStreamC2Eii, __ZN6google8protobuf2io15FileInputStreamD1Ev,
                        __ZN6google8protobuf2io16ArrayInputStream4NextEPPKvPi, __ZN6google8protobuf2io16ArrayInputStream6BackUpEi,
                        __ZN6google8protobuf2io16ArrayInputStreamC2EPKvii, __ZN6google8protobuf2io16ArrayInputStreamD1Ev,
                        __ZN6google8protobuf2io16CodedInputStream10ReadStringEPNSt3__112basic_stringIcNS3_11char_traitsIcEENS3_9allocatorIcEEEEi, __ZN6google8protobuf2io16CodedInputStream15ReadTagFallbackEv,
                        __ZN6google8protobuf2io16CodedInputStream16ReadVarint64SlowEPy, __ZN6google8protobuf2io16CodedInputStream18SetTotalBytesLimitEii,
                        __ZN6google8protobuf2io16CodedInputStream20ReadVarint64FallbackEPy, __ZN6google8protobuf2io16CodedInputStream24default_recursion_limit_E,
                        __ZN6google8protobuf2io16CodedInputStream26ReadLittleEndian32FallbackEPj, __ZN6google8protobuf2io16CodedInputStream28BackUpInputToCurrentPositionEv,
                        __ZN6google8protobuf2io16CodedInputStream7ReadRawEPvi, __ZN6google8protobuf2io16CodedInputStream8PopLimitEi,
                        __ZN6google8protobuf2io16CodedInputStreamD1Ev, __ZN6google8protobuf2io16FileOutputStream23CopyingFileOutputStream5CloseEv,
                        __ZN6google8protobuf2io16FileOutputStream23CopyingFileOutputStreamC1Ei, __ZN6google8protobuf2io16FileOutputStream23CopyingFileOutputStreamD0Ev,
                        __ZN6google8protobuf2io16FileOutputStream23CopyingFileOutputStreamD2Ev, __ZN6google8protobuf2io16FileOutputStream5CloseEv,
                        __ZN6google8protobuf2io16FileOutputStream6BackUpEi, __ZN6google8protobuf2io16FileOutputStreamC2Eii,
                        __ZN6google8protobuf2io16FileOutputStreamD1Ev, __ZN6google8protobuf2io17ArrayOutputStream4NextEPPvPi,
                        __ZN6google8protobuf2io17ArrayOutputStreamC1EPvii, __ZN6google8protobuf2io17ArrayOutputStreamD0Ev,
                        __ZN6google8protobuf2io17ArrayOutputStreamD2Ev, __ZN6google8protobuf2io17CodedOutputStream13WriteVarint32Ej,
                        __ZN6google8protobuf2io17CodedOutputStream14EnableAliasingEb, __ZN6google8protobuf2io17CodedOutputStream15WriteRawToArrayEPKviPh,
                        __ZN6google8protobuf2io17CodedOutputStream19WriteLittleEndian64Ey, __ZN6google8protobuf2io17CodedOutputStream20WriteVarint64ToArrayEyPh,
                        __ZN6google8protobuf2io17CodedOutputStream26WriteStringWithSizeToArrayERKNSt3__112basic_stringIcNS3_11char_traitsIcEENS3_9allocatorIcEEEEPh, __ZN6google8protobuf2io17CodedOutputStream4SkipEi,
                        __ZN6google8protobuf2io17CodedOutputStream8WriteRawEPKvi, __ZN6google8protobuf2io17CodedOutputStreamC2EPNS1_20ZeroCopyOutputStreamE,
                        __ZN6google8protobuf2io17CodedOutputStreamD2Ev, __ZN6google8protobuf2io18CopyingInputStreamD0Ev,
                        __ZN6google8protobuf2io18CopyingInputStreamD2Ev, __ZN6google8protobuf2io18IstreamInputStream25CopyingIstreamInputStreamC1EPNSt3__113basic_istreamIcNS4_11char_traitsIcEEEE,
                        __ZN6google8protobuf2io18IstreamInputStream25CopyingIstreamInputStreamD0Ev, __ZN6google8protobuf2io18IstreamInputStream25CopyingIstreamInputStreamD2Ev,
                        __ZN6google8protobuf2io18IstreamInputStream4SkipEi, __ZN6google8protobuf2io18IstreamInputStreamC1EPNSt3__113basic_istreamIcNS3_11char_traitsIcEEEEi,
                        __ZN6google8protobuf2io18IstreamInputStreamD0Ev, __ZN6google8protobuf2io18IstreamInputStreamD2Ev,
                        __ZN6google8protobuf2io18StringOutputStream6BackUpEi, __ZN6google8protobuf2io18StringOutputStreamC2EPNSt3__112basic_stringIcNS3_11char_traitsIcEENS3_9allocatorIcEEEE,
                        __ZN6google8protobuf2io18StringOutputStreamD1Ev, __ZN6google8protobuf2io19CopyingOutputStreamD0Ev,
                        __ZN6google8protobuf2io19CopyingOutputStreamD2Ev, __ZN6google8protobuf2io19LimitingInputStream4SkipEi,
                        __ZN6google8protobuf2io19LimitingInputStreamC1EPNS1_19ZeroCopyInputStreamEx, __ZN6google8protobuf2io19LimitingInputStreamD0Ev,
                        __ZN6google8protobuf2io19LimitingInputStreamD2Ev, __ZN6google8protobuf2io19OstreamOutputStream26CopyingOstreamOutputStreamC1EPNSt3__113basic_ostreamIcNS4_11char_traitsIcEEEE,
                        __ZN6google8protobuf2io19OstreamOutputStream26CopyingOstreamOutputStreamD0Ev, __ZN6google8protobuf2io19OstreamOutputStream26CopyingOstreamOutputStreamD2Ev,
                        __ZN6google8protobuf2io19OstreamOutputStream6BackUpEi, __ZN6google8protobuf2io19OstreamOutputStreamC2EPNSt3__113basic_ostreamIcNS3_11char_traitsIcEEEEi,
                        __ZN6google8protobuf2io19OstreamOutputStreamD1Ev, __ZN6google8protobuf2io19ZeroCopyInputStreamD0Ev,
                        __ZN6google8protobuf2io19ZeroCopyInputStreamD2Ev, __ZN6google8protobuf2io20ZeroCopyOutputStreamD0Ev,
                        __ZN6google8protobuf2io20ZeroCopyOutputStreamD2Ev, __ZN6google8protobuf2io24ConcatenatingInputStream4SkipEi,
                        __ZN6google8protobuf2io24ConcatenatingInputStreamC1EPKPNS1_19ZeroCopyInputStreamEi, __ZN6google8protobuf2io24ConcatenatingInputStreamD0Ev,
                        __ZN6google8protobuf2io24ConcatenatingInputStreamD2Ev, __ZN6google8protobuf2io25CopyingInputStreamAdaptor22AllocateBufferIfNeededEv,
                        __ZN6google8protobuf2io25CopyingInputStreamAdaptor4SkipEi, __ZN6google8protobuf2io25CopyingInputStreamAdaptorC1EPNS1_18CopyingInputStreamEi,
                        __ZN6google8protobuf2io25CopyingInputStreamAdaptorD0Ev, __ZN6google8protobuf2io25CopyingInputStreamAdaptorD2Ev,
                        __ZN6google8protobuf2io26CopyingOutputStreamAdaptor11WriteBufferEv, __ZN6google8protobuf2io26CopyingOutputStreamAdaptor4NextEPPvPi,
                        __ZN6google8protobuf2io26CopyingOutputStreamAdaptor6BackUpEi, __ZN6google8protobuf2io26CopyingOutputStreamAdaptorC2EPNS1_19CopyingOutputStreamEi,
                        __ZN6google8protobuf2io26CopyingOutputStreamAdaptorD1Ev, __ZN6google8protobuf6ghtonlEj,
                        __ZN6google8protobuf7ClosureD1Ev, __ZN6google8protobuf8internal10LogMessage6FinishEv,
                        __ZN6google8protobuf8internal10LogMessageC2ENS0_8LogLevelEPKci, __ZN6google8protobuf8internal10LogMessageD2Ev,
                        __ZN6google8protobuf8internal10LogMessagelsERKNSt3__112basic_stringIcNS3_11char_traitsIcEENS3_9allocatorIcEEEE, __ZN6google8protobuf8internal10LogMessagelsEd,
                        __ZN6google8protobuf8internal10LogMessagelsEj, __ZN6google8protobuf8internal10LogMessagelsEm,
                        __ZN6google8protobuf8internal11LogFinisheraSERNS1_10LogMessageE, __ZN6google8protobuf8internal12FieldSkipper15SkipUnknownEnumEii,
                        __ZN6google8protobuf8internal13VerifyVersionEiiPKc, __ZN6google8protobuf8internal13empty_string_E,
                        __ZN6google8protobuf8internal14WireFormatLite10ReadStringEPNS0_2io16CodedInputStreamEPNSt3__112basic_stringIcNS6_11char_traitsIcEENS6_9allocatorIcEEEE, __ZN6google8protobuf8internal14WireFormatLite10WriteFloatEifPNS0_2io17CodedOutputStreamE,
                        __ZN6google8protobuf8internal14WireFormatLite10WriteInt32EiiPNS0_2io17CodedOutputStreamE, __ZN6google8protobuf8internal14WireFormatLite11SkipMessageEPNS0_2io16CodedInputStreamE,
                        __ZN6google8protobuf8internal14WireFormatLite11WriteDoubleEidPNS0_2io17CodedOutputStreamE, __ZN6google8protobuf8internal14WireFormatLite11WriteSInt64EixPNS0_2io17CodedOutputStreamE,
                        __ZN6google8protobuf8internal14WireFormatLite11WriteUInt32EijPNS0_2io17CodedOutputStreamE, __ZN6google8protobuf8internal14WireFormatLite12WriteFixed32EijPNS0_2io17CodedOutputStreamE,
                        __ZN6google8protobuf8internal14WireFormatLite12WriteMessageEiRKNS0_11MessageLiteEPNS0_2io17CodedOutputStreamE, __ZN6google8protobuf8internal14WireFormatLite13WriteSFixed64EixPNS0_2io17CodedOutputStreamE,
                        __ZN6google8protobuf8internal14WireFormatLite21kMessageSetItemEndTagE, __ZN6google8protobuf8internal14WireFormatLite21kWireTypeForFieldTypeE,
                        __ZN6google8protobuf8internal14WireFormatLite22WriteBytesMaybeAliasedEiRKNSt3__112basic_stringIcNS3_11char_traitsIcEENS3_9allocatorIcEEEEPNS0_2io17CodedOutputStreamE, __ZN6google8protobuf8internal14WireFormatLite22kFieldTypeToCppTypeMapE,
                        __ZN6google8protobuf8internal14WireFormatLite23kMessageSetItemStartTagE, __ZN6google8protobuf8internal14WireFormatLite24WriteMessageMaybeToArrayEiRKNS0_11MessageLiteEPNS0_2io17CodedOutputStreamE,
                        __ZN6google8protobuf8internal14WireFormatLite9SkipFieldEPNS0_2io16CodedInputStreamEj, __ZN6google8protobuf8internal14WireFormatLite9WriteBoolEibPNS0_2io17CodedOutputStreamE,
                        __ZN6google8protobuf8internal15InitEmptyStringEv, __ZN6google8protobuf8internal16FunctionClosure0D1Ev,
                        __ZN6google8protobuf8internal17DefaultLogHandlerENS0_8LogLevelEPKciRKNSt3__112basic_stringIcNS5_11char_traitsIcEENS5_9allocatorIcEEEE, __ZN6google8protobuf8internal18shutdown_functionsE,
                        __ZN6google8protobuf8internal20RepeatedPtrFieldBase4SwapEPS2_, __ZN6google8protobuf8internal21InitShutdownFunctionsEv,
                        __ZN6google8protobuf8internal21StringTypeHandlerBase6DeleteEPNSt3__112basic_stringIcNS3_11char_traitsIcEENS3_9allocatorIcEEEE, __ZN6google8protobuf8internal23empty_string_once_init_E,
                        __ZN6google8protobuf8internal24InitLogSilencerCountOnceEv, __ZN6google8protobuf8internal24shutdown_functions_mutexE,
                        __ZN6google8protobuf8internal29CodedOutputStreamFieldSkipper15SkipUnknownEnumEii, __ZN6google8protobuf8internal3NaNEv,
                        __ZN6google8protobuf8internal5Mutex4LockEv, __ZN6google8protobuf8internal5MutexC1Ev,
                        __ZN6google8protobuf8internal5MutexD1Ev, __ZN6google8protobuf8internal8InfinityEv,
                        __ZN7drawing10Parameters10SharedCtorEv, __ZN7drawing10Parameters16default_instanceEv,
                        __ZN7drawing10Parameters21CheckTypeAndMergeFromERKN6google8protobuf11MessageLiteE, __ZN7drawing10Parameters21kBaseAlphaFieldNumberE,
                        __ZN7drawing10Parameters26kTargetMultipleFieldNumberE, __ZN7drawing10Parameters4SwapEPS0_,
                        __ZN7drawing10Parameters8CopyFromERKS0_, __ZN7drawing10ParametersC1ERKS0_,
                        __ZN7drawing10ParametersC2ERKS0_, __ZN7drawing10ParametersD0Ev,
                        __ZN7drawing10ParametersD2Ev, __ZN7drawing37protobuf_AddDesc_drawing_2eproto_implEv,
                        __ZN7drawing38protobuf_AddDesc_drawing_2eproto_once_E, __ZN7drawing5Color10SharedDtorEv,
                        __ZN7drawing5Color16default_instanceEv, __ZN7drawing5Color17default_instance_E,
                        __ZN7drawing5Color17kGreenFieldNumberE, __ZN7drawing5Color21InitAsDefaultInstanceEv,
                        __ZN7drawing5Color4SwapEPS0_, __ZN7drawing5Color8CopyFromERKS0_,
                        __ZN7drawing5ColorC1ERKS0_, __ZN7drawing5ColorC2ERKS0_,
                        __ZN7drawing5ColorD0Ev, __ZN7drawing5ColorD2Ev,
                        __ZN7drawing5Point10SharedDtorEv, __ZN7drawing5Point13kYFieldNumberE,
                        __ZN7drawing5Point17default_instance_E, __ZN7drawing5Point19kAzimuthFieldNumberE,
                        __ZN7drawing5Point21CheckTypeAndMergeFromERKN6google8protobuf11MessageLiteE, __ZN7drawing5Point21kEdgeWidthFieldNumberE,
                        __ZN7drawing5Point27MergePartialFromCodedStreamEPN6google8protobuf2io16CodedInputStreamE, __ZN7drawing5Point5ClearEv,
                        __ZN7drawing5Point9MergeFromERKS0_, __ZN7drawing5PointC1Ev,
                        __ZN7drawing5PointC2Ev, __ZN7drawing5PointD1Ev,
                        __ZN7drawing7Command10SharedCtorEv, __ZN7drawing7Command14kIdFieldNumberE,
                        __ZN7drawing7Command16kPathFieldNumberE, __ZN7drawing7Command17default_instance_E,
                        __ZN7drawing7Command18kBoundsFieldNumberE, __ZN7drawing7Command21InitAsDefaultInstanceEv,
                        __ZN7drawing7Command22kBaseValuesFieldNumberE, __ZN7drawing7Command22kClipOriginFieldNumberE,
                        __ZN7drawing7Command27MergePartialFromCodedStreamEPN6google8protobuf2io16CodedInputStreamE, __ZN7drawing7Command5ClearEv,
                        __ZN7drawing7Command9MergeFromERKS0_, __ZN7drawing7CommandC1Ev,
                        __ZN7drawing7CommandC2Ev, __ZN7drawing7CommandD1Ev,
                        __ZN7drawing7Drawing10SharedCtorEv, __ZN7drawing7Drawing16default_instanceEv,
                        __ZN7drawing7Drawing19kCommandFieldNumberE, __ZN7drawing7Drawing21InitAsDefaultInstanceEv,
                        __ZN7drawing7Drawing23kOrientationFieldNumberE, __ZN7drawing7Drawing27kUnrotatedBoundsFieldNumberE,
                        __ZN7drawing7Drawing32kSerializationVersionFieldNumberE, __ZN7drawing7Drawing5ClearEv,
                        __ZN7drawing7Drawing9MergeFromERKS0_, __ZN7drawing7DrawingC1Ev,
                        __ZN7drawing7DrawingC2Ev, __ZN7drawing7DrawingD1Ev,
                        __ZN7drawing9CommandID10SharedCtorEv, __ZN7drawing9CommandID16default_instanceEv,
                        __ZN7drawing9CommandID17kClockFieldNumberE, __ZN7drawing9CommandID21CheckTypeAndMergeFromERKN6google8protobuf11MessageLiteE,
                        __ZN7drawing9CommandID21kReplicaIDFieldNumberE, __ZN7drawing9CommandID4SwapEPS0_,
                        __ZN7drawing9CommandID8CopyFromERKS0_, __ZN7drawing9CommandIDC1ERKS0_,
                        __ZN7drawing9CommandIDC2ERKS0_, __ZN7drawing9CommandIDD0Ev,
                        __ZN7drawing9CommandIDD2Ev, __ZN7drawing9Rectangle10SharedDtorEv,
                        __ZN7drawing9Rectangle17default_instance_E, __ZN7drawing9Rectangle18kHeightFieldNumberE,
                        __ZN7drawing9Rectangle19kOriginYFieldNumberE, __ZN7drawing9Rectangle21InitAsDefaultInstanceEv,
                        __ZN7drawing9Rectangle4SwapEPS0_, __ZN7drawing9Rectangle8CopyFromERKS0_,
                        __ZN7drawing9RectangleC1ERKS0_, __ZN7drawing9RectangleC2ERKS0_,
                        __ZN7drawing9RectangleD0Ev, __ZN7drawing9RectangleD2Ev,
                        __ZN8topotext10Attachment10SharedDtorEv, __ZN8topotext10Attachment17default_instance_E,
                        __ZN8topotext10Attachment17kTitleFieldNumberE, __ZN8topotext10Attachment19kOriginYFieldNumberE,
                        __ZN8topotext10Attachment19kSummaryFieldNumberE, __ZN8topotext10Attachment20kDurationFieldNumberE,
                        __ZN8topotext10Attachment20kLocationFieldNumberE, __ZN8topotext10Attachment21InitAsDefaultInstanceEv,
                        __ZN8topotext10Attachment21kUrlStringFieldNumberE, __ZN8topotext10Attachment22kSizeHeightFieldNumberE,
                        __ZN8topotext10Attachment25kMergeableDataFieldNumberE, __ZN8topotext10Attachment27MergePartialFromCodedStreamEPN6google8protobuf2io16CodedInputStreamE,
                        __ZN8topotext10Attachment29kPreviewUpdateDateFieldNumberE, __ZN8topotext10Attachment4SwapEPS0_,
                        __ZN8topotext10Attachment8CopyFromERKS0_, __ZN8topotext10AttachmentC1ERKS0_,
                        __ZN8topotext10AttachmentC2ERKS0_, __ZN8topotext10AttachmentD0Ev,
                        __ZN8topotext10AttachmentD2Ev, __ZN8topotext12AttributeRun10SharedDtorEv,
                        __ZN8topotext12AttributeRun11RightToLeftE, __ZN8topotext12AttributeRun16default_instanceEv,
                        __ZN8topotext12AttributeRun16kLinkFieldNumberE, __ZN8topotext12AttributeRun17kColorFieldNumberE,
                        __ZN8topotext12AttributeRun19LeftToRightOverrideE, __ZN8topotext12AttributeRun20WritingDirection_MAXE,
                        __ZN8topotext12AttributeRun21CheckTypeAndMergeFromERKN6google8protobuf11MessageLiteE, __ZN8topotext12AttributeRun21kFontHintsFieldNumberE,
                        __ZN8topotext12AttributeRun21kUnderlineFieldNumberE, __ZN8topotext12AttributeRun25kStrikethroughFieldNumberE,
                        __ZN8topotext12AttributeRun26kAttachmentInfoFieldNumberE, __ZN8topotext12AttributeRun27MergePartialFromCodedStreamEPN6google8protobuf2io16CodedInputStreamE,
                        __ZN8topotext12AttributeRun4SwapEPS0_, __ZN8topotext12AttributeRun8CopyFromERKS0_,
                        __ZN8topotext12AttributeRunC1ERKS0_, __ZN8topotext12AttributeRunC2ERKS0_,
                        __ZN8topotext12AttributeRunD0Ev, __ZN8topotext12AttributeRunD2Ev,
                        __ZN8topotext12PreviewImage10SharedDtorEv, __ZN8topotext12PreviewImage16kDataFieldNumberE,
                        __ZN8topotext12PreviewImage17kScaleFieldNumberE, __ZN8topotext12PreviewImage21CheckTypeAndMergeFromERKN6google8protobuf11MessageLiteE,
                        __ZN8topotext12PreviewImage27MergePartialFromCodedStreamEPN6google8protobuf2io16CodedInputStreamE, __ZN8topotext12PreviewImage4SwapEPS0_,
                        __ZN8topotext12PreviewImage8CopyFromERKS0_, __ZN8topotext12PreviewImageC1ERKS0_,
                        __ZN8topotext12PreviewImageC2ERKS0_, __ZN8topotext12PreviewImageD0Ev,
                        __ZN8topotext12PreviewImageD2Ev, __ZN8topotext14AttachmentInfo10SharedDtorEv,
                        __ZN8topotext14AttachmentInfo17default_instance_E, __ZN8topotext14AttachmentInfo21CheckTypeAndMergeFromERKN6google8protobuf11MessageLiteE,
                        __ZN8topotext14AttachmentInfo27MergePartialFromCodedStreamEPN6google8protobuf2io16CodedInputStreamE, __ZN8topotext14AttachmentInfo4SwapEPS0_,
                        __ZN8topotext14AttachmentInfo8CopyFromERKS0_, __ZN8topotext14AttachmentInfoC1ERKS0_,
                        __ZN8topotext14AttachmentInfoC2ERKS0_, __ZN8topotext14AttachmentInfoD0Ev,
                        __ZN8topotext14AttachmentInfoD2Ev, __ZN8topotext14ParagraphStyle10SharedDtorEv,
                        __ZN8topotext14ParagraphStyle13Alignment_MINE, __ZN8topotext14ParagraphStyle16kTodoFieldNumberE,
                        __ZN8topotext14ParagraphStyle17kStyleFieldNumberE, __ZN8topotext14ParagraphStyle19Alignment_ARRAYSIZEE,
                        __ZN8topotext14ParagraphStyle21InitAsDefaultInstanceEv, __ZN8topotext14ParagraphStyle26kParagraphHintsFieldNumberE,
                        __ZN8topotext14ParagraphStyle28kWritingDirectionFieldNumberE, __ZN8topotext14ParagraphStyle4LeftE,
                        __ZN8topotext14ParagraphStyle5ClearEv, __ZN8topotext14ParagraphStyle6CenterE,
                        __ZN8topotext14ParagraphStyle8CopyFromERKS0_, __ZN8topotext14ParagraphStyle9MergeFromERKS0_,
                        __ZN8topotext14ParagraphStyleC1Ev, __ZN8topotext14ParagraphStyleC2Ev,
                        __ZN8topotext14ParagraphStyleD1Ev, __ZN8topotext15Selection_Range10SharedCtorEv,
                        __ZN8topotext15Selection_Range16default_instanceEv, __ZN8topotext15Selection_Range18kToCharFieldNumberE,
                        __ZN8topotext15Selection_Range21CheckTypeAndMergeFromERKN6google8protobuf11MessageLiteE, __ZN8topotext15Selection_Range27MergePartialFromCodedStreamEPN6google8protobuf2io16CodedInputStreamE,
                        __ZN8topotext15Selection_Range5ClearEv, __ZN8topotext15Selection_Range9MergeFromERKS0_,
                        __ZN8topotext15Selection_RangeC1Ev, __ZN8topotext15Selection_RangeC2Ev,
                        __ZN8topotext15Selection_RangeD1Ev, __ZN8topotext15VectorTimestamp10SharedCtorEv,
                        __ZN8topotext15VectorTimestamp16default_instanceEv, __ZN8topotext15VectorTimestamp17kClockFieldNumberE,
                        __ZN8topotext15VectorTimestamp21InitAsDefaultInstanceEv, __ZN8topotext15VectorTimestamp4SwapEPS0_,
                        __ZN8topotext15VectorTimestamp8CopyFromERKS0_, __ZN8topotext15VectorTimestampC1ERKS0_,
                        __ZN8topotext15VectorTimestampC2ERKS0_, __ZN8topotext15VectorTimestampD0Ev,
                        __ZN8topotext15VectorTimestampD2Ev, __ZN8topotext21VectorTimestamp_Clock10SharedDtorEv,
                        __ZN8topotext21VectorTimestamp_Clock17default_instance_E, __ZN8topotext21VectorTimestamp_Clock21InitAsDefaultInstanceEv,
                        __ZN8topotext21VectorTimestamp_Clock24kReplicaClockFieldNumberE, __ZN8topotext21VectorTimestamp_Clock4SwapEPS0_,
                        __ZN8topotext21VectorTimestamp_Clock8CopyFromERKS0_, __ZN8topotext21VectorTimestamp_ClockC1ERKS0_,
                        __ZN8topotext21VectorTimestamp_ClockC2ERKS0_, __ZN8topotext21VectorTimestamp_ClockD0Ev,
                        __ZN8topotext21VectorTimestamp_ClockD2Ev, __ZN8topotext32ParagraphStyle_Alignment_IsValidEi,
                        __ZN8topotext34VectorTimestamp_Clock_ReplicaClock10SharedCtorEv, __ZN8topotext34VectorTimestamp_Clock_ReplicaClock16default_instanceEv,
                        __ZN8topotext34VectorTimestamp_Clock_ReplicaClock17kClockFieldNumberE, __ZN8topotext34VectorTimestamp_Clock_ReplicaClock21CheckTypeAndMergeFromERKN6google8protobuf11MessageLiteE,
                        __ZN8topotext34VectorTimestamp_Clock_ReplicaClock27MergePartialFromCodedStreamEPN6google8protobuf2io16CodedInputStreamE, __ZN8topotext34VectorTimestamp_Clock_ReplicaClock5ClearEv,
                        __ZN8topotext34VectorTimestamp_Clock_ReplicaClock9MergeFromERKS0_, __ZN8topotext34VectorTimestamp_Clock_ReplicaClockC1Ev,
                        __ZN8topotext34VectorTimestamp_Clock_ReplicaClockC2Ev, __ZN8topotext34VectorTimestamp_Clock_ReplicaClockD1Ev,
                        __ZN8topotext37AttributeRun_WritingDirection_IsValidEi, __ZN8topotext38protobuf_ShutdownFile_topotext_2eprotoEv,
                        __ZN8topotext4Font10SharedCtorEv, __ZN8topotext4Font16default_instanceEv,
                        __ZN8topotext4Font17default_instance_E, __ZN8topotext4Font21InitAsDefaultInstanceEv,
                        __ZN8topotext4Font21kPointSizeFieldNumberE, __ZN8topotext4Font4SwapEPS0_,
                        __ZN8topotext4Font8CopyFromERKS0_, __ZN8topotext4FontC1ERKS0_,
                        __ZN8topotext4FontC2ERKS0_, __ZN8topotext4FontD0Ev,
                        __ZN8topotext4FontD2Ev, __ZN8topotext4Todo10SharedDtorEv,
                        __ZN8topotext4Todo16kDoneFieldNumberE, __ZN8topotext4Todo20kTodoUUIDFieldNumberE,
                        __ZN8topotext4Todo21InitAsDefaultInstanceEv, __ZN8topotext4Todo4SwapEPS0_,
                        __ZN8topotext4Todo8CopyFromERKS0_, __ZN8topotext4TodoC1ERKS0_,
                        __ZN8topotext4TodoC2ERKS0_, __ZN8topotext4TodoD0Ev,
                        __ZN8topotext4TodoD2Ev, __ZN8topotext5Color10SharedDtorEv,
                        __ZN8topotext5Color16default_instanceEv, __ZN8topotext5Color17default_instance_E,
                        __ZN8topotext5Color17kGreenFieldNumberE, __ZN8topotext5Color21InitAsDefaultInstanceEv,
                        __ZN8topotext5Color4SwapEPS0_, __ZN8topotext5Color8CopyFromERKS0_,
                        __ZN8topotext5ColorC1ERKS0_, __ZN8topotext5ColorC2ERKS0_,
                        __ZN8topotext5ColorD0Ev, __ZN8topotext5ColorD2Ev,
                        __ZN8topotext5Media10SharedDtorEv, __ZN8topotext5Media16kDataFieldNumberE,
                        __ZN8topotext5Media20kFilenameFieldNumberE, __ZN8topotext5Media21InitAsDefaultInstanceEv,
                        __ZN8topotext5Media27MergePartialFromCodedStreamEPN6google8protobuf2io16CodedInputStreamE, __ZN8topotext5Media4SwapEPS0_,
                        __ZN8topotext5Media8CopyFromERKS0_, __ZN8topotext5MediaC1ERKS0_,
                        __ZN8topotext5MediaC2ERKS0_, __ZN8topotext5MediaD0Ev,
                        __ZN8topotext5MediaD2Ev, __ZN8topotext6CharID10SharedDtorEv,
                        __ZN8topotext6CharID17default_instance_E, __ZN8topotext6CharID21CheckTypeAndMergeFromERKN6google8protobuf11MessageLiteE,
                        __ZN8topotext6CharID21kReplicaIDFieldNumberE, __ZN8topotext6CharID4SwapEPS0_,
                        __ZN8topotext6CharID8CopyFromERKS0_, __ZN8topotext6CharIDC1ERKS0_,
                        __ZN8topotext6CharIDC2ERKS0_, __ZN8topotext6CharIDD0Ev,
                        __ZN8topotext6CharIDD2Ev, __ZN8topotext6String10SharedDtorEv,
                        __ZN8topotext6String17default_instance_E, __ZN8topotext6String21CheckTypeAndMergeFromERKN6google8protobuf11MessageLiteE,
                        __ZN8topotext6String21kSubstringFieldNumberE, __ZN8topotext6String22kAttachmentFieldNumberE,
                        __ZN8topotext6String27MergePartialFromCodedStreamEPN6google8protobuf2io16CodedInputStreamE, __ZN8topotext6String5ClearEv,
                        __ZN8topotext6String9MergeFromERKS0_, __ZN8topotext6StringC1Ev,
                        __ZN8topotext6StringC2Ev, __ZN8topotext6StringD1Ev,
                        __ZN8topotext8Location10SharedCtorEv, __ZN8topotext8Location16default_instanceEv,
                        __ZN8topotext8Location20kLatitudeFieldNumberE, __ZN8topotext8Location21InitAsDefaultInstanceEv,
                        __ZN8topotext8Location21kPlacemarkFieldNumberE, __ZN8topotext8Location27MergePartialFromCodedStreamEPN6google8protobuf2io16CodedInputStreamE,
                        __ZN8topotext8Location5ClearEv, __ZN8topotext8Location9MergeFromERKS0_,
                        __ZN8topotext8LocationC1Ev, __ZN8topotext8LocationC2Ev,
                        __ZN8topotext8LocationD1Ev, __ZN8topotext9Selection10SharedCtorEv,
                        __ZN8topotext9Selection12Affinity_MAXE, __ZN8topotext9Selection16default_instanceEv,
                        __ZN8topotext9Selection17kRangeFieldNumberE, __ZN8topotext9Selection20kAffinityFieldNumberE,
                        __ZN8topotext9Selection21InitAsDefaultInstanceEv, __ZN8topotext9Selection27MergePartialFromCodedStreamEPN6google8protobuf2io16CodedInputStreamE,
                        __ZN8topotext9Selection5ClearEv, __ZN8topotext9Selection8BackwardE,
                        __ZN8topotext9Selection9MergeFromERKS0_, __ZN8topotext9SelectionC1Ev,
                        __ZN8topotext9SelectionC2Ev, __ZN8topotext9SelectionD1Ev,
                        __ZN8topotext9Substring10SharedCtorEv, __ZN8topotext9Substring16default_instanceEv,
                        __ZN8topotext9Substring17kChildFieldNumberE, __ZN8topotext9Substring18kLengthFieldNumberE,
                        __ZN8topotext9Substring21InitAsDefaultInstanceEv, __ZN8topotext9Substring21kTombstoneFieldNumberE,
                        __ZN8topotext9Substring4SwapEPS0_, __ZN8topotext9Substring8CopyFromERKS0_,
                        __ZN8topotext9SubstringC1ERKS0_, __ZN8topotext9SubstringC2ERKS0_,
                        __ZN8topotext9SubstringD0Ev, __ZN8topotext9SubstringD2Ev,
                        __ZNK14peernetworking10Attachment13IsInitializedEv, __ZNK14peernetworking10Attachment24SerializeWithCachedSizesEPN6google8protobuf2io17CodedOutputStreamE,
                        __ZNK14peernetworking10Attachment8ByteSizeEv, __ZNK14peernetworking11InviteReply13IsInitializedEv,
                        __ZNK14peernetworking11InviteReply24SerializeWithCachedSizesEPN6google8protobuf2io17CodedOutputStreamE, __ZNK14peernetworking11InviteReply8ByteSizeEv,
                        __ZNK14peernetworking11RequestNote13IsInitializedEv, __ZNK14peernetworking11RequestNote24SerializeWithCachedSizesEPN6google8protobuf2io17CodedOutputStreamE,
                        __ZNK14peernetworking11RequestNote8ByteSizeEv, __ZNK14peernetworking12RequestMedia13IsInitializedEv,
                        __ZNK14peernetworking12RequestMedia24SerializeWithCachedSizesEPN6google8protobuf2io17CodedOutputStreamE, __ZNK14peernetworking12RequestMedia8ByteSizeEv,
                        __ZNK14peernetworking16UnavailableMedia13IsInitializedEv, __ZNK14peernetworking16UnavailableMedia24SerializeWithCachedSizesEPN6google8protobuf2io17CodedOutputStreamE,
                        __ZNK14peernetworking16UnavailableMedia8ByteSizeEv, __ZNK14peernetworking17RequestAttachment13IsInitializedEv,
                        __ZNK14peernetworking17RequestAttachment24SerializeWithCachedSizesEPN6google8protobuf2io17CodedOutputStreamE, __ZNK14peernetworking17RequestAttachment8ByteSizeEv,
                        __ZNK14peernetworking18PeerNetworkMessage13IsInitializedEv, __ZNK14peernetworking18PeerNetworkMessage24SerializeWithCachedSizesEPN6google8protobuf2io17CodedOutputStreamE,
                        __ZNK14peernetworking18PeerNetworkMessage8ByteSizeEv, __ZNK14peernetworking4Note13IsInitializedEv,
                        __ZNK14peernetworking4Note24SerializeWithCachedSizesEPN6google8protobuf2io17CodedOutputStreamE, __ZNK14peernetworking4Note8ByteSizeEv,
                        __ZNK14peernetworking5Media13IsInitializedEv, __ZNK14peernetworking5Media24SerializeWithCachedSizesEPN6google8protobuf2io17CodedOutputStreamE,
                        __ZNK14peernetworking5Media8ByteSizeEv, __ZNK14peernetworking6Invite13IsInitializedEv,
                        __ZNK14peernetworking6Invite24SerializeWithCachedSizesEPN6google8protobuf2io17CodedOutputStreamE, __ZNK14peernetworking6Invite8ByteSizeEv,
                        __ZNK14peernetworking8Identity13IsInitializedEv, __ZNK14peernetworking8Identity24SerializeWithCachedSizesEPN6google8protobuf2io17CodedOutputStreamE,
                        __ZNK14peernetworking8Identity8ByteSizeEv, __ZNK14peernetworking9KeepAlive13IsInitializedEv,
                        __ZNK14peernetworking9KeepAlive24SerializeWithCachedSizesEPN6google8protobuf2io17CodedOutputStreamE, __ZNK14peernetworking9KeepAlive8ByteSizeEv,
                        __ZNK14peernetworking9ShareInfo13IsInitializedEv, __ZNK14peernetworking9ShareInfo24SerializeWithCachedSizesEPN6google8protobuf2io17CodedOutputStreamE,
                        __ZNK14peernetworking9ShareInfo8ByteSizeEv, __ZNK16airdrop_document10WebArchive13IsInitializedEv,
                        __ZNK16airdrop_document10WebArchive24SerializeWithCachedSizesEPN6google8protobuf2io17CodedOutputStreamE, __ZNK16airdrop_document10WebArchive8ByteSizeEv,
                        __ZNK16airdrop_document12NoteDocument13IsInitializedEv, __ZNK16airdrop_document12NoteDocument24SerializeWithCachedSizesEPN6google8protobuf2io17CodedOutputStreamE,
                        __ZNK16airdrop_document12NoteDocument8ByteSizeEv, __ZNK16airdrop_document15NoteDocument1_013IsInitializedEv,
                        __ZNK16airdrop_document15NoteDocument1_024SerializeWithCachedSizesEPN6google8protobuf2io17CodedOutputStreamE, __ZNK16airdrop_document15NoteDocument1_08ByteSizeEv,
                        __ZNK16airdrop_document16AttributedString13IsInitializedEv, __ZNK16airdrop_document16AttributedString24SerializeWithCachedSizesEPN6google8protobuf2io17CodedOutputStreamE,
                        __ZNK16airdrop_document16AttributedString8ByteSizeEv, __ZNK16airdrop_document18LegacyNoteDocument13IsInitializedEv,
                        __ZNK16airdrop_document18LegacyNoteDocument24SerializeWithCachedSizesEPN6google8protobuf2io17CodedOutputStreamE, __ZNK16airdrop_document18LegacyNoteDocument8ByteSizeEv,
                        __ZNK16airdrop_document21LegacyNoteDocument1_013IsInitializedEv, __ZNK16airdrop_document21LegacyNoteDocument1_024SerializeWithCachedSizesEPN6google8protobuf2io17CodedOutputStreamE,
                        __ZNK16airdrop_document21LegacyNoteDocument1_08ByteSizeEv, __ZNK16airdrop_document8Document13IsInitializedEv,
                        __ZNK16airdrop_document8Document24SerializeWithCachedSizesEPN6google8protobuf2io17CodedOutputStreamE, __ZNK16airdrop_document8Document8ByteSizeEv,
                        __ZNK18versioned_document7Version13IsInitializedEv, __ZNK18versioned_document7Version24SerializeWithCachedSizesEPN6google8protobuf2io17CodedOutputStreamE,
                        __ZNK18versioned_document7Version8ByteSizeEv, __ZNK18versioned_document8Document13IsInitializedEv,
                        __ZNK18versioned_document8Document24SerializeWithCachedSizesEPN6google8protobuf2io17CodedOutputStreamE, __ZNK18versioned_document8Document8ByteSizeEv,
                        __ZNK6google8protobuf11MessageLite16SerializeToArrayEPvi, __ZNK6google8protobuf11MessageLite17SerializeToStringEPNSt3__112basic_stringIcNS2_11char_traitsIcEENS2_9allocatorIcEEEE,
                        __ZNK6google8protobuf11MessageLite22SerializeToCodedStreamEPNS0_2io17CodedOutputStreamE, __ZNK6google8protobuf11MessageLite24SerializePartialAsStringEv,
                        __ZNK6google8protobuf11MessageLite25InitializationErrorStringEv, __ZNK6google8protobuf11MessageLite29SerializePartialToCodedStreamEPNS0_2io17CodedOutputStreamE,
                        __ZNK6google8protobuf11MessageLite32SerializePartialToZeroCopyStreamEPNS0_2io20ZeroCopyOutputStreamE, __ZNK6google8protobuf2io15FileInputStream9ByteCountEv,
                        __ZNK6google8protobuf2io16CodedInputStream15BytesUntilLimitEv, __ZNK6google8protobuf2io16FileOutputStream9ByteCountEv,
                        __ZNK6google8protobuf2io18IstreamInputStream9ByteCountEv, __ZNK6google8protobuf2io19LimitingInputStream9ByteCountEv,
                        __ZNK6google8protobuf2io24ConcatenatingInputStream9ByteCountEv, __ZNK6google8protobuf2io26CopyingOutputStreamAdaptor9ByteCountEv,
                        __ZNK7drawing10Parameters13IsInitializedEv, __ZNK7drawing10Parameters24SerializeWithCachedSizesEPN6google8protobuf2io17CodedOutputStreamE,
                        __ZNK7drawing10Parameters8ByteSizeEv, __ZNK7drawing5Color13IsInitializedEv,
                        __ZNK7drawing5Color24SerializeWithCachedSizesEPN6google8protobuf2io17CodedOutputStreamE, __ZNK7drawing5Color8ByteSizeEv,
                        __ZNK7drawing5Point13IsInitializedEv, __ZNK7drawing5Point24SerializeWithCachedSizesEPN6google8protobuf2io17CodedOutputStreamE,
                        __ZNK7drawing5Point8ByteSizeEv, __ZNK7drawing7Command13IsInitializedEv,
                        __ZNK7drawing7Command24SerializeWithCachedSizesEPN6google8protobuf2io17CodedOutputStreamE, __ZNK7drawing7Command8ByteSizeEv,
                        __ZNK7drawing7Drawing13IsInitializedEv, __ZNK7drawing7Drawing24SerializeWithCachedSizesEPN6google8protobuf2io17CodedOutputStreamE,
                        __ZNK7drawing7Drawing8ByteSizeEv, __ZNK7drawing9CommandID13IsInitializedEv,
                        __ZNK7drawing9CommandID24SerializeWithCachedSizesEPN6google8protobuf2io17CodedOutputStreamE, __ZNK7drawing9CommandID8ByteSizeEv,
                        __ZNK7drawing9Rectangle13IsInitializedEv, __ZNK7drawing9Rectangle24SerializeWithCachedSizesEPN6google8protobuf2io17CodedOutputStreamE,
                        __ZNK7drawing9Rectangle8ByteSizeEv, __ZNK8topotext10Attachment13IsInitializedEv,
                        __ZNK8topotext10Attachment24SerializeWithCachedSizesEPN6google8protobuf2io17CodedOutputStreamE, __ZNK8topotext10Attachment8ByteSizeEv,
                        __ZNK8topotext12AttributeRun13IsInitializedEv, __ZNK8topotext12AttributeRun24SerializeWithCachedSizesEPN6google8protobuf2io17CodedOutputStreamE,
                        __ZNK8topotext12AttributeRun8ByteSizeEv, __ZNK8topotext12PreviewImage13IsInitializedEv,
                        __ZNK8topotext12PreviewImage24SerializeWithCachedSizesEPN6google8protobuf2io17CodedOutputStreamE, __ZNK8topotext12PreviewImage8ByteSizeEv,
                        __ZNK8topotext14AttachmentInfo13IsInitializedEv, __ZNK8topotext14AttachmentInfo24SerializeWithCachedSizesEPN6google8protobuf2io17CodedOutputStreamE,
                        __ZNK8topotext14AttachmentInfo8ByteSizeEv, __ZNK8topotext14ParagraphStyle13IsInitializedEv,
                        __ZNK8topotext14ParagraphStyle24SerializeWithCachedSizesEPN6google8protobuf2io17CodedOutputStreamE, __ZNK8topotext14ParagraphStyle8ByteSizeEv,
                        __ZNK8topotext15Selection_Range13IsInitializedEv, __ZNK8topotext15Selection_Range24SerializeWithCachedSizesEPN6google8protobuf2io17CodedOutputStreamE,
                        __ZNK8topotext15Selection_Range8ByteSizeEv, __ZNK8topotext15VectorTimestamp13IsInitializedEv,
                        __ZNK8topotext15VectorTimestamp24SerializeWithCachedSizesEPN6google8protobuf2io17CodedOutputStreamE, __ZNK8topotext15VectorTimestamp8ByteSizeEv,
                        __ZNK8topotext21VectorTimestamp_Clock13IsInitializedEv, __ZNK8topotext21VectorTimestamp_Clock24SerializeWithCachedSizesEPN6google8protobuf2io17CodedOutputStreamE,
                        __ZNK8topotext21VectorTimestamp_Clock8ByteSizeEv, __ZNK8topotext34VectorTimestamp_Clock_ReplicaClock13IsInitializedEv,
                        __ZNK8topotext34VectorTimestamp_Clock_ReplicaClock24SerializeWithCachedSizesEPN6google8protobuf2io17CodedOutputStreamE, __ZNK8topotext34VectorTimestamp_Clock_ReplicaClock8ByteSizeEv,
                        __ZNK8topotext4Font13IsInitializedEv, __ZNK8topotext4Font24SerializeWithCachedSizesEPN6google8protobuf2io17CodedOutputStreamE,
                        __ZNK8topotext4Font8ByteSizeEv, __ZNK8topotext4Todo13IsInitializedEv,
                        __ZNK8topotext4Todo24SerializeWithCachedSizesEPN6google8protobuf2io17CodedOutputStreamE, __ZNK8topotext4Todo8ByteSizeEv,
                        __ZNK8topotext5Color13IsInitializedEv, __ZNK8topotext5Color24SerializeWithCachedSizesEPN6google8protobuf2io17CodedOutputStreamE,
                        __ZNK8topotext5Color8ByteSizeEv, __ZNK8topotext5Media13IsInitializedEv,
                        __ZNK8topotext5Media24SerializeWithCachedSizesEPN6google8protobuf2io17CodedOutputStreamE, __ZNK8topotext5Media8ByteSizeEv,
                        __ZNK8topotext6CharID13IsInitializedEv, __ZNK8topotext6CharID24SerializeWithCachedSizesEPN6google8protobuf2io17CodedOutputStreamE,
                        __ZNK8topotext6CharID8ByteSizeEv, __ZNK8topotext6String13IsInitializedEv,
                        __ZNK8topotext6String24SerializeWithCachedSizesEPN6google8protobuf2io17CodedOutputStreamE, __ZNK8topotext6String8ByteSizeEv,
                        __ZNK8topotext8Location13IsInitializedEv, __ZNK8topotext8Location24SerializeWithCachedSizesEPN6google8protobuf2io17CodedOutputStreamE,
                        __ZNK8topotext8Location8ByteSizeEv, __ZNK8topotext9Selection13IsInitializedEv,
                        __ZNK8topotext9Selection24SerializeWithCachedSizesEPN6google8protobuf2io17CodedOutputStreamE, __ZNK8topotext9Selection8ByteSizeEv,
                        __ZNK8topotext9Substring13IsInitializedEv, __ZNK8topotext9Substring24SerializeWithCachedSizesEPN6google8protobuf2io17CodedOutputStreamE,
                        __ZNK8topotext9Substring8ByteSizeEv, __ZTI27ICDrawingRulerExtremaFilter,
                        __ZTIN14peernetworking10AttachmentE, __ZTIN14peernetworking11RequestNoteE,
                        __ZTIN14peernetworking16UnavailableMediaE, __ZTIN14peernetworking18PeerNetworkMessageE,
                        __ZTIN14peernetworking5MediaE, __ZTIN14peernetworking8IdentityE,
                        __ZTIN14peernetworking9ShareInfoE, __ZTIN16airdrop_document12NoteDocumentE,
                        __ZTIN16airdrop_document16AttributedStringE, __ZTIN16airdrop_document21LegacyNoteDocument1_0E,
                        __ZTIN18versioned_document7VersionE, __ZTIN6google8protobuf11MessageLiteE,
                        __ZTIN6google8protobuf2io15FileInputStream22CopyingFileInputStreamE, __ZTIN6google8protobuf2io16ArrayInputStreamE,
                        __ZTIN6google8protobuf2io16FileOutputStreamE, __ZTIN6google8protobuf2io18CopyingInputStreamE,
                        __ZTIN6google8protobuf2io18IstreamInputStreamE, __ZTIN6google8protobuf2io19CopyingOutputStreamE,
                        __ZTIN6google8protobuf2io19OstreamOutputStream26CopyingOstreamOutputStreamE, __ZTIN6google8protobuf2io19ZeroCopyInputStreamE,
                        __ZTIN6google8protobuf2io24ConcatenatingInputStreamE, __ZTIN6google8protobuf2io26CopyingOutputStreamAdaptorE,
                        __ZTIN6google8protobuf8internal12FieldSkipperE, __ZTIN6google8protobuf8internal29CodedOutputStreamFieldSkipperE,
                        __ZTIN7drawing5ColorE, __ZTIN7drawing7CommandE,
                        __ZTIN7drawing9CommandIDE, __ZTIN8topotext10AttachmentE,
                        __ZTIN8topotext12PreviewImageE, __ZTIN8topotext14ParagraphStyleE,
                        __ZTIN8topotext15VectorTimestampE, __ZTIN8topotext34VectorTimestamp_Clock_ReplicaClockE,
                        __ZTIN8topotext4TodoE, __ZTIN8topotext5MediaE,
                        __ZTIN8topotext6StringE, __ZTIN8topotext9SelectionE,
                        __ZTS22ICDrawingInputSmoother, __ZTS29ICDrawingInputProviderInitial,
                        __ZTSN14peernetworking11InviteReplyE, __ZTSN14peernetworking12RequestMediaE,
                        __ZTSN14peernetworking17RequestAttachmentE, __ZTSN14peernetworking4NoteE,
                        __ZTSN14peernetworking6InviteE, __ZTSN14peernetworking9KeepAliveE,
                        __ZTSN16airdrop_document10WebArchiveE, __ZTSN16airdrop_document15NoteDocument1_0E,
                        __ZTSN16airdrop_document18LegacyNoteDocumentE, __ZTSN16airdrop_document8DocumentE,
                        __ZTSN18versioned_document8DocumentE, __ZTSN6google8protobuf14FatalExceptionE,
                        __ZTSN6google8protobuf2io15FileInputStreamE, __ZTSN6google8protobuf2io16FileOutputStream23CopyingFileOutputStreamE,
                        __ZTSN6google8protobuf2io17ArrayOutputStreamE, __ZTSN6google8protobuf2io18IstreamInputStream25CopyingIstreamInputStreamE,
                        __ZTSN6google8protobuf2io18StringOutputStreamE, __ZTSN6google8protobuf2io19LimitingInputStreamE,
                        __ZTSN6google8protobuf2io19OstreamOutputStreamE, __ZTSN6google8protobuf2io20ZeroCopyOutputStreamE,
                        __ZTSN6google8protobuf2io25CopyingInputStreamAdaptorE, __ZTSN6google8protobuf7ClosureE,
                        __ZTSN6google8protobuf8internal16FunctionClosure0E, __ZTSN7drawing10ParametersE,
                        __ZTSN7drawing5PointE, __ZTSN7drawing7DrawingE,
                        __ZTSN7drawing9RectangleE, __ZTSN8topotext12AttributeRunE,
                        __ZTSN8topotext14AttachmentInfoE, __ZTSN8topotext15Selection_RangeE,
                        __ZTSN8topotext21VectorTimestamp_ClockE, __ZTSN8topotext4FontE,
                        __ZTSN8topotext5ColorE, __ZTSN8topotext6CharIDE,
                        __ZTSN8topotext8LocationE, __ZTSN8topotext9SubstringE,
                        __ZTV27ICDrawingRulerExtremaFilter, __ZTVN14peernetworking10AttachmentE,
                        __ZTVN14peernetworking11RequestNoteE, __ZTVN14peernetworking16UnavailableMediaE,
                        __ZTVN14peernetworking18PeerNetworkMessageE, __ZTVN14peernetworking5MediaE,
                        __ZTVN14peernetworking8IdentityE, __ZTVN14peernetworking9ShareInfoE,
                        __ZTVN16airdrop_document12NoteDocumentE, __ZTVN16airdrop_document16AttributedStringE,
                        __ZTVN16airdrop_document21LegacyNoteDocument1_0E, __ZTVN18versioned_document7VersionE,
                        __ZTVN6google8protobuf11MessageLiteE, __ZTVN6google8protobuf2io15FileInputStream22CopyingFileInputStreamE,
                        __ZTVN6google8protobuf2io16ArrayInputStreamE, __ZTVN6google8protobuf2io16FileOutputStreamE,
                        __ZTVN6google8protobuf2io18CopyingInputStreamE, __ZTVN6google8protobuf2io18IstreamInputStreamE,
                        __ZTVN6google8protobuf2io19CopyingOutputStreamE, __ZTVN6google8protobuf2io19OstreamOutputStream26CopyingOstreamOutputStreamE,
                        __ZTVN6google8protobuf2io19ZeroCopyInputStreamE, __ZTVN6google8protobuf2io24ConcatenatingInputStreamE,
                        __ZTVN6google8protobuf2io26CopyingOutputStreamAdaptorE, __ZTVN6google8protobuf8internal12FieldSkipperE,
                        __ZTVN6google8protobuf8internal29CodedOutputStreamFieldSkipperE, __ZTVN7drawing5ColorE,
                        __ZTVN7drawing7CommandE, __ZTVN7drawing9CommandIDE,
                        __ZTVN8topotext10AttachmentE, __ZTVN8topotext12PreviewImageE,
                        __ZTVN8topotext14ParagraphStyleE, __ZTVN8topotext15VectorTimestampE,
                        __ZTVN8topotext34VectorTimestamp_Clock_ReplicaClockE, __ZTVN8topotext4TodoE,
                        __ZTVN8topotext5MediaE, __ZTVN8topotext6StringE,
                        __ZTVN8topotext9SelectionE, ___ICAccessibilityStringForVariables,
                        _kCountOfAccounts, _kCountOfLocalFolders,
                        _kCountOfNotesInAccount, _kCountOfiCloudFolders,
                        _kExchange, _kICAddedSketchWithinSketchCount,
                        _kICBodyStyleFontSizeThreshold, _kICCountForAttachmentAddingUsage,
                        _kICCountForAudioRecordingUsage, _kICCountForEraserSketchingUsage,
                        _kICCountForPenSketchingUsage, _kICCountForRulerSketchingUsage,
                        _kICCountForSketchingUsage, _kICCountOfNotes,
                        _kICCountOfNotesInMAIDAccount, _kICDefaultFolderPrefix,
                        _kICDoNotPoll, _kICHasMAIDAccount,
                        _kICHintForOpeningPPNoteDisplayedCount, _kICInternalSettingsDefaultToElCapitanIsNotAvailable,
                        _kICInternalSettingsDisableTextViewClippingWorkaround, _kICInternalSettingsDrawingEraserDivisorKey,
                        _kICInternalSettingsDrawingEraserForceTouchSmoothingKey, _kICInternalSettingsDrawingEraserMaxForceTouchRadiusKey,
                        _kICInternalSettingsDrawingEraserMaxWidthKey, _kICInternalSettingsDrawingEraserMinForceTouchKey,
                        _kICInternalSettingsDrawingEraserMinStylusRadiusKey, _kICInternalSettingsDrawingEraserRulerSnappedRadiusKey,
                        _kICInternalSettingsDrawingEraserVelocitySmoothingKey, _kICInternalSettingsDrawingMarkerEndCapFadeKey,
                        _kICInternalSettingsDrawingMarkerImageKey, _kICInternalSettingsDrawingMarkerMaxForceStylusOpacityKey,
                        _kICInternalSettingsDrawingMarkerMaxForceTouchOpacityKey, _kICInternalSettingsDrawingMarkerMinForceStylusOpacityKey,
                        _kICInternalSettingsDrawingMarkerMinForceTouchOpacityKey, _kICInternalSettingsDrawingMarkerSpacingKey,
                        _kICInternalSettingsDrawingMarkerStartCapTimeKey, _kICInternalSettingsDrawingMarkerTargetKey,
                        _kICInternalSettingsDrawingOutsideDrawMarginKey, _kICInternalSettingsDrawingPenMaxForceStylusRadiusKey,
                        _kICInternalSettingsDrawingPenMaxForceTouchRadiusKey, _kICInternalSettingsDrawingPenMinForceStylusKey,
                        _kICInternalSettingsDrawingPenMinForceTouchKey, _kICInternalSettingsDrawingPenMinVelocityKey,
                        _kICInternalSettingsDrawingPenOpacityKey, _kICInternalSettingsDrawingPenStylusWidthKey,
                        _kICInternalSettingsDrawingPencilEndCapFadeKey, _kICInternalSettingsDrawingPencilImageKey,
                        _kICInternalSettingsDrawingPencilMaxEdgeWidthKey, _kICInternalSettingsDrawingPencilMaxForceStylusOpacityKey,
                        _kICInternalSettingsDrawingPencilMaxForceTouchOpacityKey, _kICInternalSettingsDrawingPencilMaxVelocityKey,
                        _kICInternalSettingsDrawingPencilMinEdgeAngleKey, _kICInternalSettingsDrawingPencilMinForceStylusOpacityKey,
                        _kICInternalSettingsDrawingPencilMinForceTouchOpacityKey, _kICInternalSettingsDrawingPencilMinVelocityKey,
                        _kICInternalSettingsDrawingPencilSpacingKey, _kICInternalSettingsDrawingPencilWidthKey,
                        _kICInternalSettingsDrawingRulerSnapAngle, _kICInternalSettingsDrawingScrollVertical,
                        _kICInternalSettingsDrawingSmoothingStylusThresholdKey, _kICInternalSettingsDrawingStylusOutsideDrawMarginKey,
                        _kICInternalSettingsForceDeviceListDownloadFailure, _kICInternalSettingsForceLetterpressRendering,
                        _kICInternalSettingsLogStateOnLaunchDefaultsKey, _kICInternalSettingsShowICloudIMAPAccountDefaultKey,
                        _kICInternalSettingsSlowDebugRendering, _kICInternalSettingsTailFixDistanceKey,
                        _kICInternalSettingsTailFixEnableStartKey, _kICInternalSettingsTailFixMinCurveLengthKey,
                        _kICInternalSettingsTraceEnabled, _kICIsUsingEducationMode,
                        _kICLengthOfLegacyNoteHTMLString, _kICNoBatchLimit,
                        _kICNoteTitleAbsoluteMaxLength, _kICPasswordNumberOfAttemptsForHint,
                        _kICResetPasswordUsageCount, _kICSketchingPortraitDirectionCount,
                        _kICTouchIDIsEnabled, _kICUnlockPPNoteCount,
                        _kImap, _kProtoBuffMaxBlobSize,
                        _kiCloud, _ICAccessibilityLocalizedNumber,
                        _ICAccessibilityPerformBlockOnMainThreadAfterDelay, _ICAccessibilitySystemDarkenedColor,
                        _ICAccountsWillChangeNotification, _ICAttachmentUTTypeDrawing,
                        _ICAttachmentWillBeDeletedNotification, _ICClassAndProtocolCast,
                        _ICCloudContextErrorMultipleErrors, _ICCloudContextFetchOperationsPendingNotification,
                        _ICCloudRecordTypeMedia, _ICCloudSyncingObjectRecordKeyAssetCryptoInitializationVector,
                        _ICCloudSyncingObjectRecordKeyCryptoWrappedKey, _ICCryptorPreWillClearMasterKeysNotification,
                        _ICDevicePasscodeTriggeringPlaceholderItem, _ICDrawingOutputPointZero,
                        _ICErrorDomain, _ICGenericError,
                        _ICInternalSettingsDrawingEraserForceTouchSmoothing, _ICInternalSettingsDrawingEraserMaxWidth,
                        _ICInternalSettingsDrawingEraserMinStylusRadius, _ICInternalSettingsDrawingEraserVelocitySmoothing,
                        _ICInternalSettingsDrawingMarkerMaxForceStylus, _ICInternalSettingsDrawingMarkerMinForceStylus,
                        _ICInternalSettingsDrawingMarkerOpacity, _ICInternalSettingsDrawingMarkerStylusScale,
                        _ICInternalSettingsDrawingPenMaxForceStylus, _ICInternalSettingsDrawingPenMaxVelocity,
                        _ICInternalSettingsDrawingPenMinForceTouchRadius, _ICInternalSettingsDrawingPenPhoneWidth,
                        _ICInternalSettingsDrawingPencilEndCapTime, _ICInternalSettingsDrawingPencilMaxForceStylusOpacity,
                        _ICInternalSettingsDrawingPencilMaxVelocity, _ICInternalSettingsDrawingPencilMinForceStylusOpacity,
                        _ICInternalSettingsDrawingPencilMinVelocity, _ICInternalSettingsDrawingPencilWidth,
                        _ICInternalSettingsDrawingStylusOutsideDrawMargin, _ICInternalSettingsTailFixAngle,
                        _ICInternalSettingsTailFixLag, _ICLegacyNoteExternalRecordUTI,
                        _ICNoteAddOrRemovePasswordInfoNewNoteKey, _ICNoteContextIdentifierForAccountLocal,
                        _ICNoteExternalRecordUTI, _ICNotePasteboardUTI,
                        _ICNoteWillAddOrRemovePasswordNotification, _ICNoteWillMoveToRecentlyDeletedFolderNotification,
                        _ICPasswordUtilitiesAuthenticationChangedNotification, _ICSearchResultsDidUpdateNotification,
                        _ICTextControllerPaddingForBullet, _ICWillAddAttachmentForNoteNotification,
                        _TSDAffineTransformShear, _TSDAngleFromDelta,
                        _TSDCenterRectOverRect, _TSDCreatePathFromTransformedRect,
                        _TSDDistance, _TSDDistanceToRectFromRect,
                        _TSDFitOrFillSizeInSize, _TSDGetCanvasSpaceCorners,
                        _TSDIntersectsRect, _TSDIsTransformAxisAlignedWithThreshold,
                        _TSDMixAnglesInRadians, _TSDMixRects,
                        _TSDMultiplyRectScalar, _TSDNearlyContainsRect,
                        _TSDNearlyEqualTransforms, _TSDNormalizeAngleInRadians,
                        _TSDNormalizedPointInRect, _TSDOrthogonalDistance,
                        _TSDPointInRectInclusive, _TSDPointSquaredLength,
                        _TSDRectGetMaxPoint, _TSDRectUnit,
                        _TSDRectWithPoints, _TSDRectsOverlapVertically,
                        _TSDRoundedMaxY, _TSDRoundedMinY,
                        _TSDRoundedRectForScale, _TSDShiftConstrainDelta,
                        _TSDSizeHasNaNComponents, _TSDSubtractPoints,
                        _TSDTransform3DNearlyEqualToTransformWithTolerance, _TSDTransformConvertingRectToRectAtPercent,
                        _TSDTransformInTransformSpace, _TSDTransformMixAffineTransforms,
                        _TSDTransformedCornersOfRect, _TSDVerticalSpacingRect,
                        _TSUBitmapGetAlignedBytesPerRow, _TSUCGColorCreatePatternWithImageAndTransform,
                        _TSUCMYKToRGB, _TSUCreateCGColorFromHSB,
                        _TSUDeviceCMYKColorSpace, _TSUHSBFromCGColorRef,
                        _TSURGBToHSB, _TSURound,
                        _TTAttributeNameForegroundColor, _TTAttributeNameTimestamp,
                        _TTParagraphStyleAlignmentRight, __Z11splinePointRKNSt3__16vectorI20ICDrawingOutputPointNS_9allocatorIS1_EEEEifPFfifE,
                        __Z17traverseUnorderedP13TopoSubstringU13block_pointerFvS0_PbE, __Z19ICDrawingSmoothstepfffff,
                        __Z28TSDNearestPointOnLineToPointP7CGPointS_, __ZN14peernetworking10Attachment10SharedDtorEv,
                        __ZN14peernetworking10Attachment19kTypeUTIFieldNumberE, __ZN14peernetworking10Attachment27MergePartialFromCodedStreamEPN6google8protobuf2io16CodedInputStreamE,
                        __ZN14peernetworking10Attachment5ClearEv, __ZN14peernetworking10AttachmentC1Ev,
                        __ZN14peernetworking10AttachmentD1Ev, __ZN14peernetworking11InviteReply16default_instanceEv,
                        __ZN14peernetworking11InviteReply21CheckTypeAndMergeFromERKN6google8protobuf11MessageLiteE, __ZN14peernetworking11InviteReply5ClearEv,
                        __ZN14peernetworking11InviteReplyC1Ev, __ZN14peernetworking11InviteReplyD1Ev,
                        __ZN14peernetworking11RequestNote16default_instanceEv, __ZN14peernetworking11RequestNote21InitAsDefaultInstanceEv,
                        __ZN14peernetworking11RequestNote8CopyFromERKS0_, __ZN14peernetworking11RequestNoteC2ERKS0_,
                        __ZN14peernetworking11RequestNoteD2Ev, __ZN14peernetworking12RequestMedia17default_instance_E,
                        __ZN14peernetworking12RequestMedia27kMediaIdentifierFieldNumberE, __ZN14peernetworking12RequestMedia9MergeFromERKS0_,
                        __ZN14peernetworking12RequestMediaC2Ev, __ZN14peernetworking16UnavailableMedia10SharedCtorEv,
                        __ZN14peernetworking16UnavailableMedia21CheckTypeAndMergeFromERKN6google8protobuf11MessageLiteE, __ZN14peernetworking16UnavailableMedia4SwapEPS0_,
                        __ZN14peernetworking16UnavailableMediaC1ERKS0_, __ZN14peernetworking16UnavailableMediaD0Ev,
                        __ZN14peernetworking17RequestAttachment10SharedDtorEv, __ZN14peernetworking17RequestAttachment21CheckTypeAndMergeFromERKN6google8protobuf11MessageLiteE,
                        __ZN14peernetworking17RequestAttachment4SwapEPS0_, __ZN14peernetworking17RequestAttachmentC1ERKS0_,
                        __ZN14peernetworking17RequestAttachmentD0Ev, __ZN14peernetworking18PeerNetworkMessage10SharedDtorEv,
                        __ZN14peernetworking18PeerNetworkMessage17kMediaFieldNumberE, __ZN14peernetworking18PeerNetworkMessage21InitAsDefaultInstanceEv,
                        __ZN14peernetworking18PeerNetworkMessage23kInviteReplyFieldNumberE, __ZN14peernetworking18PeerNetworkMessage27kProtocolVersionFieldNumberE,
                        __ZN14peernetworking18PeerNetworkMessage5ClearEv, __ZN14peernetworking18PeerNetworkMessageC1Ev,
                        __ZN14peernetworking18PeerNetworkMessageD1Ev, __ZN14peernetworking44protobuf_ShutdownFile_peernetworking_2eprotoEv,
                        __ZN14peernetworking4Note16default_instanceEv, __ZN14peernetworking4Note21CheckTypeAndMergeFromERKN6google8protobuf11MessageLiteE,
                        __ZN14peernetworking4Note5ClearEv, __ZN14peernetworking4NoteC1Ev,
                        __ZN14peernetworking4NoteD1Ev, __ZN14peernetworking5Media16default_instanceEv,
                        __ZN14peernetworking5Media21InitAsDefaultInstanceEv, __ZN14peernetworking5Media5ClearEv,
                        __ZN14peernetworking5MediaC1Ev, __ZN14peernetworking5MediaD1Ev,
                        __ZN14peernetworking6Invite16default_instanceEv, __ZN14peernetworking6Invite21CheckTypeAndMergeFromERKN6google8protobuf11MessageLiteE,
                        __ZN14peernetworking6Invite5ClearEv, __ZN14peernetworking6InviteC1Ev,
                        __ZN14peernetworking6InviteD1Ev, __ZN14peernetworking8Identity16default_instanceEv,
                        __ZN14peernetworking8Identity21InitAsDefaultInstanceEv, __ZN14peernetworking8Identity27MergePartialFromCodedStreamEPN6google8protobuf2io16CodedInputStreamE,
                        __ZN14peernetworking8Identity9MergeFromERKS0_, __ZN14peernetworking8IdentityC2Ev,
                        __ZN14peernetworking9KeepAlive10SharedCtorEv, __ZN14peernetworking9KeepAlive21CheckTypeAndMergeFromERKN6google8protobuf11MessageLiteE,
                        __ZN14peernetworking9KeepAlive5ClearEv, __ZN14peernetworking9KeepAliveC1Ev,
                        __ZN14peernetworking9KeepAliveD1Ev, __ZN14peernetworking9ShareInfo16default_instanceEv,
                        __ZN14peernetworking9ShareInfo21InitAsDefaultInstanceEv, __ZN14peernetworking9ShareInfo4SwapEPS0_,
                        __ZN14peernetworking9ShareInfoC1ERKS0_, __ZN14peernetworking9ShareInfoD0Ev,
                        __ZN16airdrop_document10WebArchive10SharedDtorEv, __ZN16airdrop_document10WebArchive21CheckTypeAndMergeFromERKN6google8protobuf11MessageLiteE,
                        __ZN16airdrop_document10WebArchive5ClearEv, __ZN16airdrop_document10WebArchiveC1Ev,
                        __ZN16airdrop_document10WebArchiveD1Ev, __ZN16airdrop_document12NoteDocument16default_instanceEv,
                        __ZN16airdrop_document12NoteDocument21kVersion10FieldNumberE, __ZN16airdrop_document12NoteDocument8CopyFromERKS0_,
                        __ZN16airdrop_document12NoteDocumentC2ERKS0_, __ZN16airdrop_document12NoteDocumentD2Ev,
                        __ZN16airdrop_document15NoteDocument1_017default_instance_E, __ZN16airdrop_document15NoteDocument1_028kAttributedStringFieldNumberE,
                        __ZN16airdrop_document15NoteDocument1_09MergeFromERKS0_, __ZN16airdrop_document15NoteDocument1_0C2Ev,
                        __ZN16airdrop_document16AttributedString10SharedCtorEv, __ZN16airdrop_document16AttributedString17default_instance_E,
                        __ZN16airdrop_document16AttributedString4SwapEPS0_, __ZN16airdrop_document16AttributedStringC1ERKS0_,
                        __ZN16airdrop_document16AttributedStringD0Ev, __ZN16airdrop_document18LegacyNoteDocument10SharedDtorEv,
                        __ZN16airdrop_document18LegacyNoteDocument21InitAsDefaultInstanceEv, __ZN16airdrop_document18LegacyNoteDocument5ClearEv,
                        __ZN16airdrop_document18LegacyNoteDocumentC1Ev, __ZN16airdrop_document18LegacyNoteDocumentD1Ev,
                        __ZN16airdrop_document21LegacyNoteDocument1_016default_instanceEv, __ZN16airdrop_document21LegacyNoteDocument1_022kWebArchiveFieldNumberE,
                        __ZN16airdrop_document21LegacyNoteDocument1_08CopyFromERKS0_, __ZN16airdrop_document21LegacyNoteDocument1_0C2ERKS0_,
                        __ZN16airdrop_document21LegacyNoteDocument1_0D2Ev, __ZN16airdrop_document49protobuf_AddDesc_airdrop_2ddocument_2eproto_once_E,
                        __ZN16airdrop_document8Document17default_instance_E, __ZN16airdrop_document8Document27MergePartialFromCodedStreamEPN6google8protobuf2io16CodedInputStreamE,
                        __ZN16airdrop_document8Document8CopyFromERKS0_, __ZN16airdrop_document8DocumentC2ERKS0_,
                        __ZN16airdrop_document8DocumentD2Ev, __ZN18versioned_document51protobuf_AddDesc_versioned_2ddocument_2eproto_once_E,
                        __ZN18versioned_document7Version16kDataFieldNumberE, __ZN18versioned_document7Version27MergePartialFromCodedStreamEPN6google8protobuf2io16CodedInputStreamE,
                        __ZN18versioned_document7Version5ClearEv, __ZN18versioned_document7VersionC1Ev,
                        __ZN18versioned_document7VersionD1Ev, __ZN18versioned_document8Document16default_instanceEv,
                        __ZN18versioned_document8Document21InitAsDefaultInstanceEv, __ZN18versioned_document8Document5ClearEv,
                        __ZN18versioned_document8DocumentC1Ev, __ZN18versioned_document8DocumentD1Ev,
                        __ZN22ICDrawingInputSmoother3runEv, __ZN27ICDrawingRulerExtremaFilter25copyUpdatedRangeFromIndexEjPNSt3__16vectorI20ICDrawingOutputPointNS0_9allocatorIS2_EEEE,
                        __ZN29ICDrawingInputProviderInitial24getUpdatedRangeFromIndexEPj, __ZN6google8protobuf11LogSilencerC1Ev,
                        __ZN6google8protobuf11MessageLite14ParseFromArrayEPKvi, __ZN6google8protobuf11MessageLite21ParsePartialFromArrayEPKvi,
                        __ZN6google8protobuf11MessageLite30ParseFromBoundedZeroCopyStreamEPNS0_2io19ZeroCopyInputStreamEi, __ZN6google8protobuf11MessageLiteD1Ev,
                        __ZN6google8protobuf14FatalExceptionD1Ev, __ZN6google8protobuf2io15FileInputStream22CopyingFileInputStream4ReadEPvi,
                        __ZN6google8protobuf2io15FileInputStream22CopyingFileInputStreamC2Ei, __ZN6google8protobuf2io15FileInputStream4NextEPPKvPi,
                        __ZN6google8protobuf2io15FileInputStreamC1Eii, __ZN6google8protobuf2io15FileInputStreamD2Ev,
                        __ZN6google8protobuf2io16ArrayInputStreamC1EPKvii, __ZN6google8protobuf2io16ArrayInputStreamD2Ev,
                        __ZN6google8protobuf2io16CodedInputStream16ReadVarint32SlowEPj, __ZN6google8protobuf2io16CodedInputStream20ReadVarint32FallbackEPj,
                        __ZN6google8protobuf2io16CodedInputStream25PrintTotalBytesLimitErrorEv, __ZN6google8protobuf2io16CodedInputStream4SkipEi,
                        __ZN6google8protobuf2io16CodedInputStream9PushLimitEi, __ZN6google8protobuf2io16FileOutputStream23CopyingFileOutputStream5WriteEPKvi,
                        __ZN6google8protobuf2io16FileOutputStream23CopyingFileOutputStreamD1Ev, __ZN6google8protobuf2io16FileOutputStream5FlushEv,
                        __ZN6google8protobuf2io16FileOutputStreamD0Ev, __ZN6google8protobuf2io17ArrayOutputStream6BackUpEi,
                        __ZN6google8protobuf2io17ArrayOutputStreamD1Ev, __ZN6google8protobuf2io17CodedOutputStream13WriteVarint64Ey,
                        __ZN6google8protobuf2io17CodedOutputStream19WriteLittleEndian32Ej, __ZN6google8protobuf2io17CodedOutputStream22GetDirectBufferPointerEPPvPi,
                        __ZN6google8protobuf2io17CodedOutputStream7RefreshEv, __ZN6google8protobuf2io17CodedOutputStreamD1Ev,
                        __ZN6google8protobuf2io18CopyingInputStreamD1Ev, __ZN6google8protobuf2io18IstreamInputStream25CopyingIstreamInputStreamC2EPNSt3__113basic_istreamIcNS4_11char_traitsIcEEEE,
                        __ZN6google8protobuf2io18IstreamInputStream4NextEPPKvPi, __ZN6google8protobuf2io18IstreamInputStreamC2EPNSt3__113basic_istreamIcNS3_11char_traitsIcEEEEi,
                        __ZN6google8protobuf2io18StringOutputStream4NextEPPvPi, __ZN6google8protobuf2io18StringOutputStreamD0Ev,
                        __ZN6google8protobuf2io19CopyingOutputStreamD1Ev, __ZN6google8protobuf2io19LimitingInputStream6BackUpEi,
                        __ZN6google8protobuf2io19LimitingInputStreamD1Ev, __ZN6google8protobuf2io19OstreamOutputStream26CopyingOstreamOutputStreamC2EPNSt3__113basic_ostreamIcNS4_11char_traitsIcEEEE,
                        __ZN6google8protobuf2io19OstreamOutputStream4NextEPPvPi, __ZN6google8protobuf2io19OstreamOutputStreamD0Ev,
                        __ZN6google8protobuf2io19ZeroCopyInputStreamD1Ev, __ZN6google8protobuf2io20ZeroCopyOutputStreamD1Ev,
                        __ZN6google8protobuf2io24ConcatenatingInputStream6BackUpEi, __ZN6google8protobuf2io24ConcatenatingInputStreamD1Ev,
                        __ZN6google8protobuf2io25CopyingInputStreamAdaptor4NextEPPKvPi, __ZN6google8protobuf2io25CopyingInputStreamAdaptorC2EPNS1_18CopyingInputStreamEi,
                        __ZN6google8protobuf2io26CopyingOutputStreamAdaptor10FreeBufferEv, __ZN6google8protobuf2io26CopyingOutputStreamAdaptor5FlushEv,
                        __ZN6google8protobuf2io26CopyingOutputStreamAdaptorD0Ev, __ZN6google8protobuf7ClosureD0Ev,
                        __ZN6google8protobuf8internal10LogMessageC1ENS0_8LogLevelEPKci, __ZN6google8protobuf8internal10LogMessagelsEPKc,
                        __ZN6google8protobuf8internal10LogMessagelsEi, __ZN6google8protobuf8internal10OnShutdownEPFvvE,
                        __ZN6google8protobuf8internal12FieldSkipper9SkipFieldEPNS0_2io16CodedInputStreamEj, __ZN6google8protobuf8internal14NullLogHandlerENS0_8LogLevelEPKciRKNSt3__112basic_stringIcNS5_11char_traitsIcEENS5_9allocatorIcEEEE,
                        __ZN6google8protobuf8internal14WireFormatLite10WriteGroupEiRKNS0_11MessageLiteEPNS0_2io17CodedOutputStreamE, __ZN6google8protobuf8internal14WireFormatLite11SkipMessageEPNS0_2io16CodedInputStreamEPNS3_17CodedOutputStreamE,
                        __ZN6google8protobuf8internal14WireFormatLite11WriteStringEiRKNSt3__112basic_stringIcNS3_11char_traitsIcEENS3_9allocatorIcEEEEPNS0_2io17CodedOutputStreamE, __ZN6google8protobuf8internal14WireFormatLite12WriteFixed64EiyPNS0_2io17CodedOutputStreamE,
                        __ZN6google8protobuf8internal14WireFormatLite20kMessageSetTypeIdTagE, __ZN6google8protobuf8internal14WireFormatLite22ReadPackedEnumNoInlineEPNS0_2io16CodedInputStreamEPFbiEPNS0_13RepeatedFieldIiEE,
                        __ZN6google8protobuf8internal14WireFormatLite23WriteStringMaybeAliasedEiRKNSt3__112basic_stringIcNS3_11char_traitsIcEENS3_9allocatorIcEEEEPNS0_2io17CodedOutputStreamE, __ZN6google8protobuf8internal14WireFormatLite9ReadBytesEPNS0_2io16CodedInputStreamEPNSt3__112basic_stringIcNS6_11char_traitsIcEENS6_9allocatorIcEEEE,
                        __ZN6google8protobuf8internal14WireFormatLite9WriteEnumEiiPNS0_2io17CodedOutputStreamE, __ZN6google8protobuf8internal16FunctionClosure0D2Ev,
                        __ZN6google8protobuf8internal20InitLogSilencerCountEv, __ZN6google8protobuf8internal21StringTypeHandlerBase3NewEv,
                        __ZN6google8protobuf8internal23shutdown_functions_initE, __ZN6google8protobuf8internal29CodedOutputStreamFieldSkipper11SkipMessageEPNS0_2io16CodedInputStreamE,
                        __ZN6google8protobuf8internal5Mutex10AssertHeldEv, __ZN6google8protobuf8internal5MutexC2Ev,
                        __ZN6google8protobuf9DoNothingEv, __ZN7drawing10Parameters17default_instance_E,
                        __ZN7drawing10Parameters22kBlendAlphaFieldNumberE, __ZN7drawing10Parameters5ClearEv,
                        __ZN7drawing10ParametersC1Ev, __ZN7drawing10ParametersD1Ev,
                        __ZN7drawing37protobuf_ShutdownFile_drawing_2eprotoEv, __ZN7drawing5Color15kRedFieldNumberE,
                        __ZN7drawing5Color17kAlphaFieldNumberE, __ZN7drawing5Color27MergePartialFromCodedStreamEPN6google8protobuf2io16CodedInputStreamE,
                        __ZN7drawing5Color9MergeFromERKS0_, __ZN7drawing5ColorC2Ev,
                        __ZN7drawing5Point10SharedCtorEv, __ZN7drawing5Point16default_instanceEv,
                        __ZN7drawing5Point19kOpacityFieldNumberE, __ZN7drawing5Point23kAspectRatioFieldNumberE,
                        __ZN7drawing5Point8CopyFromERKS0_, __ZN7drawing5PointC2ERKS0_,
                        __ZN7drawing5PointD2Ev, __ZN7drawing7Command16default_instanceEv,
                        __ZN7drawing7Command17kColorFieldNumberE, __ZN7drawing7Command21kTimestampFieldNumberE,
                        __ZN7drawing7Command22kParametersFieldNumberE, __ZN7drawing7Command8CopyFromERKS0_,
                        __ZN7drawing7CommandC2ERKS0_, __ZN7drawing7CommandD2Ev,
                        __ZN7drawing7Drawing17default_instance_E, __ZN7drawing7Drawing21kTimestampFieldNumberE,
                        __ZN7drawing7Drawing32kOrientationTimestampFieldNumberE, __ZN7drawing7Drawing8CopyFromERKS0_,
                        __ZN7drawing7DrawingC2ERKS0_, __ZN7drawing7DrawingD2Ev,
                        __ZN7drawing9CommandID17default_instance_E, __ZN7drawing9CommandID21InitAsDefaultInstanceEv,
                        __ZN7drawing9CommandID5ClearEv, __ZN7drawing9CommandIDC1Ev,
                        __ZN7drawing9CommandIDD1Ev, __ZN7drawing9Rectangle16default_instanceEv,
                        __ZN7drawing9Rectangle19kOriginXFieldNumberE, __ZN7drawing9Rectangle27MergePartialFromCodedStreamEPN6google8protobuf2io16CodedInputStreamE,
                        __ZN7drawing9Rectangle9MergeFromERKS0_, __ZN7drawing9RectangleC2Ev,
                        __ZN8topotext10Attachment10SharedCtorEv, __ZN8topotext10Attachment17kMediaFieldNumberE,
                        __ZN8topotext10Attachment19kPreviewFieldNumberE, __ZN8topotext10Attachment20kFileSizeFieldNumberE,
                        __ZN8topotext10Attachment21kSizeWidthFieldNumberE, __ZN8topotext10Attachment23kOrientationFieldNumberE,
                        __ZN8topotext10Attachment28kModificationDateFieldNumberE, __ZN8topotext10Attachment5ClearEv,
                        __ZN8topotext10AttachmentC1Ev, __ZN8topotext10AttachmentD1Ev,
                        __ZN8topotext12AttributeRun11LeftToRightE, __ZN8topotext12AttributeRun16kFontFieldNumberE,
                        __ZN8topotext12AttributeRun18kLengthFieldNumberE, __ZN8topotext12AttributeRun20WritingDirection_MINE,
                        __ZN8topotext12AttributeRun21kTimestampFieldNumberE, __ZN8topotext12AttributeRun26WritingDirection_ARRAYSIZEE,
                        __ZN8topotext12AttributeRun28kWritingDirectionFieldNumberE, __ZN8topotext12AttributeRun9MergeFromERKS0_,
                        __ZN8topotext12AttributeRunC2Ev, __ZN8topotext12PreviewImage10SharedCtorEv,
                        __ZN8topotext12PreviewImage17default_instance_E, __ZN8topotext12PreviewImage21InitAsDefaultInstanceEv,
                        __ZN8topotext12PreviewImage5ClearEv, __ZN8topotext12PreviewImageC1Ev,
                        __ZN8topotext12PreviewImageD1Ev, __ZN8topotext14AttachmentInfo16default_instanceEv,
                        __ZN8topotext14AttachmentInfo21InitAsDefaultInstanceEv, __ZN8topotext14AttachmentInfo5ClearEv,
                        __ZN8topotext14AttachmentInfoC1Ev, __ZN8topotext14AttachmentInfoD1Ev,
                        __ZN8topotext14ParagraphStyle13Alignment_MAXE, __ZN8topotext14ParagraphStyle17default_instance_E,
                        __ZN8topotext14ParagraphStyle21CheckTypeAndMergeFromERKN6google8protobuf11MessageLiteE, __ZN8topotext14ParagraphStyle27MergePartialFromCodedStreamEPN6google8protobuf2io16CodedInputStreamE,
                        __ZN8topotext14ParagraphStyle4SwapEPS0_, __ZN8topotext14ParagraphStyle7NaturalE,
                        __ZN8topotext14ParagraphStyleC1ERKS0_, __ZN8topotext14ParagraphStyleD0Ev,
                        __ZN8topotext15Selection_Range10SharedDtorEv, __ZN8topotext15Selection_Range20kFromCharFieldNumberE,
                        __ZN8topotext15Selection_Range4SwapEPS0_, __ZN8topotext15Selection_RangeC1ERKS0_,
                        __ZN8topotext15Selection_RangeD0Ev, __ZN8topotext15VectorTimestamp10SharedDtorEv,
                        __ZN8topotext15VectorTimestamp21CheckTypeAndMergeFromERKN6google8protobuf11MessageLiteE, __ZN8topotext15VectorTimestamp5ClearEv,
                        __ZN8topotext15VectorTimestampC1Ev, __ZN8topotext15VectorTimestampD1Ev,
                        __ZN8topotext21VectorTimestamp_Clock16default_instanceEv, __ZN8topotext21VectorTimestamp_Clock23kReplicaUUIDFieldNumberE,
                        __ZN8topotext21VectorTimestamp_Clock5ClearEv, __ZN8topotext21VectorTimestamp_ClockC1Ev,
                        __ZN8topotext21VectorTimestamp_ClockD1Ev, __ZN8topotext33protobuf_AddDesc_topotext_2eprotoEv,
                        __ZN8topotext34VectorTimestamp_Clock_ReplicaClock17default_instance_E, __ZN8topotext34VectorTimestamp_Clock_ReplicaClock21InitAsDefaultInstanceEv,
                        __ZN8topotext34VectorTimestamp_Clock_ReplicaClock8CopyFromERKS0_, __ZN8topotext34VectorTimestamp_Clock_ReplicaClockC2ERKS0_,
                        __ZN8topotext34VectorTimestamp_Clock_ReplicaClockD2Ev, __ZN8topotext39protobuf_AddDesc_topotext_2eproto_once_E,
                        __ZN8topotext4Font16kNameFieldNumberE, __ZN8topotext4Font21kFontHintsFieldNumberE,
                        __ZN8topotext4Font5ClearEv, __ZN8topotext4FontC1Ev,
                        __ZN8topotext4FontD1Ev, __ZN8topotext4Todo16default_instanceEv,
                        __ZN8topotext4Todo21CheckTypeAndMergeFromERKN6google8protobuf11MessageLiteE, __ZN8topotext4Todo5ClearEv,
                        __ZN8topotext4TodoC1Ev, __ZN8topotext4TodoD1Ev,
                        __ZN8topotext5Color15kRedFieldNumberE, __ZN8topotext5Color17kAlphaFieldNumberE,
                        __ZN8topotext5Color27MergePartialFromCodedStreamEPN6google8protobuf2io16CodedInputStreamE, __ZN8topotext5Color9MergeFromERKS0_,
                        __ZN8topotext5ColorC2Ev, __ZN8topotext5Media10SharedCtorEv,
                        __ZN8topotext5Media17default_instance_E, __ZN8topotext5Media22kIdentifierFieldNumberE,
                        __ZN8topotext5Media5ClearEv, __ZN8topotext5MediaC1Ev,
                        __ZN8topotext5MediaD1Ev, __ZN8topotext6CharID16default_instanceEv,
                        __ZN8topotext6CharID21InitAsDefaultInstanceEv, __ZN8topotext6CharID5ClearEv,
                        __ZN8topotext6CharIDC1Ev, __ZN8topotext6CharIDD1Ev,
                        __ZN8topotext6String16default_instanceEv, __ZN8topotext6String21InitAsDefaultInstanceEv,
                        __ZN8topotext6String24kAttributeRunFieldNumberE, __ZN8topotext6String8CopyFromERKS0_,
                        __ZN8topotext6StringC2ERKS0_, __ZN8topotext6StringD2Ev,
                        __ZN8topotext8Location17default_instance_E, __ZN8topotext8Location21kLongitudeFieldNumberE,
                        __ZN8topotext8Location4SwapEPS0_, __ZN8topotext8LocationC1ERKS0_,
                        __ZN8topotext8LocationD0Ev, __ZN8topotext9Selection10SharedDtorEv,
                        __ZN8topotext9Selection17default_instance_E, __ZN8topotext9Selection21CheckTypeAndMergeFromERKN6google8protobuf11MessageLiteE,
                        __ZN8topotext9Selection4SwapEPS0_, __ZN8topotext9Selection8CopyFromERKS0_,
                        __ZN8topotext9SelectionC2ERKS0_, __ZN8topotext9SelectionD2Ev,
                        __ZN8topotext9Substring17default_instance_E, __ZN8topotext9Substring21CheckTypeAndMergeFromERKN6google8protobuf11MessageLiteE,
                        __ZN8topotext9Substring27MergePartialFromCodedStreamEPN6google8protobuf2io16CodedInputStreamE, __ZN8topotext9Substring9MergeFromERKS0_,
                        __ZN8topotext9SubstringC2Ev, __ZNK14peernetworking10Attachment11GetTypeNameEv,
                        __ZNK14peernetworking10Attachment3NewEv, __ZNK14peernetworking11InviteReply13SetCachedSizeEi,
                        __ZNK14peernetworking11RequestNote11GetTypeNameEv, __ZNK14peernetworking11RequestNote3NewEv,
                        __ZNK14peernetworking12RequestMedia13SetCachedSizeEi, __ZNK14peernetworking16UnavailableMedia11GetTypeNameEv,
                        __ZNK14peernetworking16UnavailableMedia3NewEv, __ZNK14peernetworking17RequestAttachment13SetCachedSizeEi,
                        __ZNK14peernetworking18PeerNetworkMessage11GetTypeNameEv, __ZNK14peernetworking18PeerNetworkMessage3NewEv,
                        __ZNK14peernetworking4Note13SetCachedSizeEi, __ZNK14peernetworking5Media11GetTypeNameEv,
                        __ZNK14peernetworking5Media3NewEv, __ZNK14peernetworking6Invite13SetCachedSizeEi,
                        __ZNK14peernetworking8Identity11GetTypeNameEv, __ZNK14peernetworking8Identity3NewEv,
                        __ZNK14peernetworking9KeepAlive13SetCachedSizeEi, __ZNK14peernetworking9ShareInfo11GetTypeNameEv,
                        __ZNK14peernetworking9ShareInfo3NewEv, __ZNK16airdrop_document10WebArchive13SetCachedSizeEi,
                        __ZNK16airdrop_document12NoteDocument11GetTypeNameEv, __ZNK16airdrop_document12NoteDocument3NewEv,
                        __ZNK16airdrop_document15NoteDocument1_013SetCachedSizeEi, __ZNK16airdrop_document16AttributedString11GetTypeNameEv,
                        __ZNK16airdrop_document16AttributedString3NewEv, __ZNK16airdrop_document18LegacyNoteDocument13SetCachedSizeEi,
                        __ZNK16airdrop_document21LegacyNoteDocument1_011GetTypeNameEv, __ZNK16airdrop_document21LegacyNoteDocument1_03NewEv,
                        __ZNK16airdrop_document8Document13SetCachedSizeEi, __ZNK18versioned_document7Version11GetTypeNameEv,
                        __ZNK18versioned_document7Version3NewEv, __ZNK18versioned_document8Document13SetCachedSizeEi,
                        __ZNK6google8protobuf11MessageLite14AppendToStringEPNSt3__112basic_stringIcNS2_11char_traitsIcEENS2_9allocatorIcEEEE, __ZNK6google8protobuf11MessageLite21AppendPartialToStringEPNSt3__112basic_stringIcNS2_11char_traitsIcEENS2_9allocatorIcEEEE,
                        __ZNK6google8protobuf11MessageLite24SerializePartialToStringEPNSt3__112basic_stringIcNS2_11char_traitsIcEENS2_9allocatorIcEEEE, __ZNK6google8protobuf11MessageLite31SerializeWithCachedSizesToArrayEPh,
                        __ZNK6google8protobuf2io16ArrayInputStream9ByteCountEv, __ZNK6google8protobuf2io17ArrayOutputStream9ByteCountEv,
                        __ZNK6google8protobuf2io19OstreamOutputStream9ByteCountEv, __ZNK7drawing10Parameters11GetTypeNameEv,
                        __ZNK7drawing10Parameters3NewEv, __ZNK7drawing5Color13SetCachedSizeEi,
                        __ZNK7drawing5Point11GetTypeNameEv, __ZNK7drawing5Point3NewEv,
                        __ZNK7drawing7Command13SetCachedSizeEi, __ZNK7drawing7Drawing11GetTypeNameEv,
                        __ZNK7drawing7Drawing3NewEv, __ZNK7drawing9CommandID13SetCachedSizeEi,
                        __ZNK7drawing9Rectangle11GetTypeNameEv, __ZNK7drawing9Rectangle3NewEv,
                        __ZNK8topotext10Attachment13SetCachedSizeEi, __ZNK8topotext12AttributeRun11GetTypeNameEv,
                        __ZNK8topotext12AttributeRun3NewEv, __ZNK8topotext12PreviewImage13SetCachedSizeEi,
                        __ZNK8topotext14AttachmentInfo11GetTypeNameEv, __ZNK8topotext14AttachmentInfo3NewEv,
                        __ZNK8topotext14ParagraphStyle13SetCachedSizeEi, __ZNK8topotext15Selection_Range11GetTypeNameEv,
                        __ZNK8topotext15Selection_Range3NewEv, __ZNK8topotext15VectorTimestamp13SetCachedSizeEi,
                        __ZNK8topotext21VectorTimestamp_Clock11GetTypeNameEv, __ZNK8topotext21VectorTimestamp_Clock3NewEv,
                        __ZNK8topotext34VectorTimestamp_Clock_ReplicaClock13SetCachedSizeEi, __ZNK8topotext4Font11GetTypeNameEv,
                        __ZNK8topotext4Font3NewEv, __ZNK8topotext4Todo13SetCachedSizeEi,
                        __ZNK8topotext5Color11GetTypeNameEv, __ZNK8topotext5Color3NewEv,
                        __ZNK8topotext5Media13SetCachedSizeEi, __ZNK8topotext6CharID11GetTypeNameEv,
                        __ZNK8topotext6CharID3NewEv, __ZNK8topotext6String13SetCachedSizeEi,
                        __ZNK8topotext8Location11GetTypeNameEv, __ZNK8topotext8Location3NewEv,
                        __ZNK8topotext9Selection13SetCachedSizeEi, __ZNK8topotext9Substring11GetTypeNameEv,
                        __ZNK8topotext9Substring3NewEv, __ZTI20ICDrawingInputFilterI19ICDrawingInputPointS0_E,
                        __ZTI22ICDrawingAzimuthFilter, __ZTI22ICDrawingEndHookFilter,
                        __ZTI22ICDrawingInputProviderI20ICDrawingOutputPointE, __ZTI24ICDrawingInputBaseFilterI19ICDrawingInputPoint20ICDrawingOutputPointE,
                        __ZTI24ICDrawingInputBaseFilterI20ICDrawingOutputPointS0_E, __ZTI28ICDrawingInputBufferedFilterI19ICDrawingInputPoint20ICDrawingOutputPointE,
                        __ZTI28ICDrawingInputBufferedFilterI20ICDrawingOutputPointS0_E, __ZTI28ICDrawingInputToOutputFilter,
                        __ZTI29ICDrawingPixelSmoothingFilter, __ZTI34ICDrawingVelocityCalculationFilter,
                        __ZTIN14peernetworking12RequestMediaE, __ZTIN14peernetworking4NoteE,
                        __ZTIN14peernetworking9KeepAliveE, __ZTIN16airdrop_document15NoteDocument1_0E,
                        __ZTIN16airdrop_document8DocumentE, __ZTIN6google8protobuf14FatalExceptionE,
                        __ZTIN6google8protobuf2io16FileOutputStream23CopyingFileOutputStreamE, __ZTIN6google8protobuf2io18IstreamInputStream25CopyingIstreamInputStreamE,
                        __ZTIN6google8protobuf2io19LimitingInputStreamE, __ZTIN6google8protobuf2io20ZeroCopyOutputStreamE,
                        __ZTIN6google8protobuf7ClosureE, __ZTIN7drawing10ParametersE,
                        __ZTIN7drawing7DrawingE, __ZTIN8topotext12AttributeRunE,
                        __ZTIN8topotext15Selection_RangeE, __ZTIN8topotext4FontE,
                        __ZTIN8topotext6CharIDE, __ZTIN8topotext9SubstringE,
                        __ZTS20ICDrawingInputFilterI19ICDrawingInputPointS0_E, __ZTS22ICDrawingAzimuthFilter,
                        __ZTS22ICDrawingEndHookFilter, __ZTS22ICDrawingInputProviderI20ICDrawingOutputPointE,
                        __ZTS24ICDrawingInputBaseFilterI19ICDrawingInputPointS0_E, __ZTS24ICDrawingStartHookFilter,
                        __ZTS28ICDrawingInputBufferedFilterI19ICDrawingInputPoint20ICDrawingOutputPointE, __ZTS28ICDrawingInputBufferedFilterI20ICDrawingOutputPointS0_E,
                        __ZTS28ICDrawingInputToOutputFilter, __ZTS29ICDrawingPointReductionFilter,
                        __ZTSN14peernetworking10AttachmentE, __ZTSN14peernetworking16UnavailableMediaE,
                        __ZTSN14peernetworking5MediaE, __ZTSN14peernetworking9ShareInfoE,
                        __ZTSN16airdrop_document16AttributedStringE, __ZTSN18versioned_document7VersionE,
                        __ZTSN6google8protobuf2io15FileInputStream22CopyingFileInputStreamE, __ZTSN6google8protobuf2io16FileOutputStreamE,
                        __ZTSN6google8protobuf2io18IstreamInputStreamE, __ZTSN6google8protobuf2io19OstreamOutputStream26CopyingOstreamOutputStreamE,
                        __ZTSN6google8protobuf2io24ConcatenatingInputStreamE, __ZTSN6google8protobuf8internal12FieldSkipperE,
                        __ZTSN7drawing5ColorE, __ZTSN7drawing9CommandIDE,
                        __ZTSN8topotext12PreviewImageE, __ZTSN8topotext15VectorTimestampE,
                        __ZTSN8topotext4TodoE, __ZTSN8topotext6StringE,
                        __ZTV22ICDrawingInputSmoother, __ZTVN14peernetworking11InviteReplyE,
                        __ZTVN14peernetworking17RequestAttachmentE, __ZTVN14peernetworking6InviteE,
                        __ZTVN16airdrop_document10WebArchiveE, __ZTVN16airdrop_document18LegacyNoteDocumentE,
                        __ZTVN18versioned_document8DocumentE, __ZTVN6google8protobuf2io15FileInputStreamE,
                        __ZTVN6google8protobuf2io17ArrayOutputStreamE, __ZTVN6google8protobuf2io18StringOutputStreamE,
                        __ZTVN6google8protobuf2io19OstreamOutputStreamE, __ZTVN6google8protobuf2io25CopyingInputStreamAdaptorE,
                        __ZTVN6google8protobuf8internal16FunctionClosure0E, __ZTVN7drawing5PointE,
                        __ZTVN7drawing9RectangleE, __ZTVN8topotext14AttachmentInfoE,
                        __ZTVN8topotext21VectorTimestamp_ClockE, __ZTVN8topotext5ColorE,
                        __ZTVN8topotext8LocationE, ___ICAccessibilityStringForVariablesSentinel,
                        _kCountOfNestedFolders, _kDDFoundExistingLinkAttributeName,
                        _kICApplePencilSketchingCount, _kICCountForAttachmentBrowserUsage,
                        _kICCountForMarkerSketchingUsage, _kICCountForShareExtensionUsage,
                        _kICCountOfNotesImported, _kICDefaultPaddingForList,
                        _kICHeadingStyleFontSizeThreshold, _kICInternalSettingsDisableLetterpressRendering,
                        _kICInternalSettingsDrawingEraserForceStylusSmoothingKey, _kICInternalSettingsDrawingEraserMaxStylusRadiusKey,
                        _kICInternalSettingsDrawingEraserMinForceTouchRadiusKey, _kICInternalSettingsDrawingEraserStylusWidthKey,
                        _kICInternalSettingsDrawingMarkerEndCapTimeKey, _kICInternalSettingsDrawingMarkerMaxForceTouchKey,
                        _kICInternalSettingsDrawingMarkerMinForceTouchKey, _kICInternalSettingsDrawingMarkerStartCapFadeKey,
                        _kICInternalSettingsDrawingMarkerWidthKey, _kICInternalSettingsDrawingPenMaxForceTouchKey,
                        _kICInternalSettingsDrawingPenMinForceStylusRadiusKey, _kICInternalSettingsDrawingPenMinWidthKey,
                        _kICInternalSettingsDrawingPenWidthKey, _kICInternalSettingsDrawingPencilMaxEdgeAngleKey,
                        _kICInternalSettingsDrawingPencilMaxForceTouchKey, _kICInternalSettingsDrawingPencilMidForceStylusOpacityKey,
                        _kICInternalSettingsDrawingPencilMinForceTouchKey, _kICInternalSettingsDrawingPencilPhoneWidthKey,
                        _kICInternalSettingsDrawingRulerDelay, _kICInternalSettingsDrawingSmoothingPencilThresholdKey,
                        _kICInternalSettingsDrawingTouchPrediction, _kICInternalSettingsInputMinimumPointDistanceSqKey,
                        _kICInternalSettingsShowLocalHTMLNotesDefaultKey, _kICInternalSettingsTailFixEnableEndKey,
                        _kICInternalSettingsTailFixTimeKey, _kICLengthOfChecklist,
                        _kICNoteMaxTextLength, _kICRemovedPPNotesCount,
                        _kICSyncedSketchImageMaxSize, _kICViewingPPNoteCount,
                        _kTotal ]
    objc-classes:     [ _CKRecordSystemFieldsTransformer,
                        _ICAccount, _ICAccountMigrationPolicy1_0b12To1_0b13,
                        _ICAnalyticsReporterBase, _ICArchiveWriter,
                        _ICAttachment, _ICAttachmentAudioModel,
                        _ICAttachmentDrawingModel, _ICAttachmentImageModel,
                        _ICAttachmentMapModel, _ICAttachmentMigrationPolicy1_0b20To1_0b21,
                        _ICAttachmentModel, _ICAttachmentPDFModel,
                        _ICAttachmentPreviewGeneratorOperation, _ICAttachmentPreviewImageLoader,
                        _ICAttachmentThumbnailOperation, _ICAttachmentWebModelIcon,
                        _ICAuthor, _ICCache,
                        _ICCloudContext, _ICCloudState,
                        _ICCloudSyncingObjectMigrationPolicy1_0b24To1_0b25, _ICCloudThrottlingPolicy,
                        _ICDDevice, _ICDeviceMigrationState,
                        _ICDispatchAfterBlocks, _ICDrawing,
                        _ICDrawingInputController, _ICDrawingUndoCheckPoint,
                        _ICDrawingUndoStack, _ICErrors,
                        _ICFolder, _ICGenerateLocationSearchIndexStringsOperation,
                        _ICGenericFileTextAttachment, _ICHTMLConverterClient,
                        _ICImageLRUCache, _ICKeyboardNotificationListener,
                        _ICLRUCache, _ICLegacyAttachmentFileWrapper,
                        _ICLegacyTombstoneMigrationPolicy1_0b17To1_0b18, _ICLetterpressImageCacheKey,
                        _ICLocalization, _ICLocationContext,
                        _ICMedia, _ICMigrationUtilities,
                        _ICMovieTextAttachment, _ICNoteAllAccountVisibilityTesting,
                        _ICNoteContainer, _ICNoteData,
                        _ICNoteMigrationPolicy1_0b17To1_0b18, _ICPDFTextAttachment,
                        _ICPasswordChangeViewController, _ICPasswordUtilities,
                        _ICPreviewDeviceContext, _ICProcessCloudObjectsWrapperOperation,
                        _ICReaderDelegateUtilities, _ICRemoteFileWrapper,
                        _ICSearchAttachmentOperation, _ICSearchOperation,
                        _ICSearchResultSection, _ICSectionedSearchResults,
                        _ICSharedPasswordUtilities, _ICTextController,
                        _ICThreadSafeMutableDictionary, _ICTrackedParagraph,
                        _ICWebTextAttachment, _TTFont,
                        _TTMergeableString, _TTMergeableStringUndoAttributeCommand,
                        _TTMergeableStringVersionedDocument, _TTMutableParagraphStyle,
                        _TTTextController, _TTTodo,
                        _TTVectorTimestamp, _TTVersionedDocument,
                        _ICAccessibility, _ICAccountProxy,
                        _ICAtomicLRUCache, _ICAttachmentDrawingActivityItemSource,
                        _ICAttachmentLocation, _ICAttachmentMigrationPolicy1_0b6To1_0b7,
                        _ICAttachmentPreviewGenerator, _ICAttachmentPreviewImageMigrationPolicy_1_0b3To1_0b4,
                        _ICAudioTextAttachment, _ICCloudConfiguration,
                        _ICCloudSyncingObject, _ICCryptor,
                        _ICDeviceMigrationStateMigrationPolicy1_0b17To1_0b18, _ICDrawingCommand,
                        _ICDrawingUndoCommand, _ICFetchRecordChangesWrapperOperation,
                        _ICGeneratePDFSearchIndexStringsOperation, _ICHelpViewNavigationController,
                        _ICKeychainUtilities, _ICLegacyTombstone,
                        _ICLocalFileWrapper, _ICMapTextAttachment,
                        _ICModernSearchIndexerDataSource, _ICNoteChange,
                        _ICNoteMergePolicy, _ICPasswordAlertController,
                        _ICPerson, _ICRWLock,
                        _ICScrollViewKeyboardResizer, _ICSearchResult,
                        _ICServerChangeToken, _ICTextStyle,
                        _ICUsageAnalyticsReporter, _TTMergeableAttributedString,
                        _TTMergeableStringUndoEditCommand, _TTParagraphStyle,
                        _TTVectorMultiTimestamp, _TTVectorTimestampElement ]
    objc-ivars:       [ _ICDrawingCommand._cachedBounds,
                        _ICLRUCache.mMax, _ICRWLock._rwLock,
                        _TTMergeableStringSelection._selectionRanges, _ICLRUCache.mData,
                        _ICLRUCache.mOrderedKeys ]
...
