---
archs:           [ armv7, armv7s, arm64 ]
platform:        ios
install-name:    /System/Library/PrivateFrameworks/GPUCompiler.framework/libairutility.dylib
current-version: 702.2.62
exports:         
  - archs:           [ armv7, armv7s, arm64 ]
    symbols:         [ _MTLAddAIRFunctionArgOptPass, _MTLAddAIRMetadataPrunerPass, 
                       _MTLAddAIRVerifierPass, _MTLAddGlobalCtorOptPass, 
                       _MTLAddPipelineLevelPasses, _MTLAddUberFunctionConstantsRequiredPass, 
                       _MTLGetArgumentFunctionConstants, _MTLInitializeAIRUtilityPasses, 
                       _MTLLinkUberFunctionConstants, _MTLRemoveUnusedFunctionConstantsFromUsedList, 
                       _MTLUpgradeAIRModule, _MTLVerifyAIRModule, __GLOBAL__sub_I_AIRDiagnosticInfo.cpp, 
                       __GLOBAL__sub_I_AIRUpgrade.cpp, __GLOBAL__sub_I_AIRVerifier.cpp, 
                       __GLOBAL__sub_I_ForceLinking.cpp, __GLOBAL__sub_I_UberFunctionConstants.cpp, 
                       __GLOBAL__sub_I_UberFunctionConstants.cpp, __ZL12ToAIRVersion, 
                       __ZL13getAIFunctionN4llvm9StringRefEPKNS_8FunctionE, 
                       __ZL13upgradeTripleRN4llvm6ModuleENS_9StringRefES2_S2_S2_, 
                       __ZL16UberFunctionFile, __ZL17VerificationLevel, 
                       __ZL17upgradeIntrinsicsRN4llvm6ModuleENSt3__18functionIFbPKNS_8FunctionEEEENS3_IFvPS4_N5clang7metalfe14AIRIntrinsicIDEEEE, 
                       __ZL19createAIR1d11ClzCtzRN4llvm6ModuleENS_9StringRefEj, 
                       __ZL19createAIR1d11ClzCtzRN4llvm6ModuleENS_9StringRefEjj, 
                       __ZL21UberFunctionConstants, __ZL22createAIR2d0AtomicLoadRN4llvm6ModuleEN5clang7metalfe15AIRAddressSpaceE, 
                       __ZL23createAIR2d0AtomicStoreRN4llvm6ModuleEN5clang7metalfe15AIRAddressSpaceE, 
                       __ZL26createAIR2d0AtomicExchangeRN4llvm6ModuleEN5clang7metalfe15AIRAddressSpaceE, 
                       __ZL27getReferencedGlobalVariablePN4llvm8ConstantE, 
                       __ZL32createAIR2d0AtomicFetchAndModifyRN4llvm6ModuleENS_9StringRefES2_N5clang7metalfe15AIRAddressSpaceE, 
                       __ZL37createAIR2d0AtomicCompareExchangeWeakRN4llvm6ModuleEN5clang7metalfe15AIRAddressSpaceE, 
                       __ZL8parseIntRN4llvm9StringRefERj, __ZN12_GLOBAL__N_110AIRUpgrade11runOnModuleERN4llvm6ModuleE, 
                       __ZN12_GLOBAL__N_110AIRUpgrade2IDE, __ZN12_GLOBAL__N_110AIRUpgradeD0Ev, 
                       __ZN12_GLOBAL__N_110AIRUpgradeD1Ev, __ZN12_GLOBAL__N_111AIRVerifier11runOnModuleERN4llvm6ModuleE, 
                       __ZN12_GLOBAL__N_111AIRVerifier2IDE, __ZN12_GLOBAL__N_111AIRVerifierC1EN5clang7metalfe17VerificationLevelE, 
                       __ZN12_GLOBAL__N_111AIRVerifierD0Ev, __ZN12_GLOBAL__N_111AIRVerifierD1Ev, 
                       __ZN12_GLOBAL__N_113GlobalCtorOpt11runOnModuleERN4llvm6ModuleE, 
                       __ZN12_GLOBAL__N_113GlobalCtorOpt16doInitializationERN4llvm6ModuleE, 
                       __ZN12_GLOBAL__N_113GlobalCtorOpt2IDE, __ZN12_GLOBAL__N_113GlobalCtorOptC1Ev, 
                       __ZN12_GLOBAL__N_113GlobalCtorOptD0Ev, __ZN12_GLOBAL__N_113GlobalCtorOptD1Ev, 
                       __ZN12_GLOBAL__N_117AIRFunctionArgOpt11runOnModuleERN4llvm6ModuleE, 
                       __ZN12_GLOBAL__N_117AIRFunctionArgOpt2IDE, __ZN12_GLOBAL__N_117AIRFunctionArgOptC1Ev, 
                       __ZN12_GLOBAL__N_117AIRFunctionArgOptD0Ev, __ZN12_GLOBAL__N_117AIRFunctionArgOptD1Ev, 
                       __ZN12_GLOBAL__N_117AIRMetadataPruner11runOnModuleERN4llvm6ModuleE, 
                       __ZN12_GLOBAL__N_117AIRMetadataPruner2IDE, __ZN12_GLOBAL__N_117AIRMetadataPrunerD0Ev, 
                       __ZN12_GLOBAL__N_117AIRMetadataPrunerD1Ev, __ZN12_GLOBAL__N_119PostTessellationOpt11runOnModuleERN4llvm6ModuleE, 
                       __ZN12_GLOBAL__N_119PostTessellationOpt2IDE, __ZN12_GLOBAL__N_119PostTessellationOptD0Ev, 
                       __ZN12_GLOBAL__N_119PostTessellationOptD1Ev, __ZN12_GLOBAL__N_127UberFunctionConstantsLinker11runOnModuleERN4llvm6ModuleE, 
                       __ZN12_GLOBAL__N_127UberFunctionConstantsLinker2IDE, 
                       __ZN12_GLOBAL__N_127UberFunctionConstantsLinkerD0Ev, 
                       __ZN12_GLOBAL__N_127UberFunctionConstantsLinkerD1Ev, 
                       __ZN12_GLOBAL__N_129UberFunctionConstantsRequired11runOnModuleERN4llvm6ModuleE, 
                       __ZN12_GLOBAL__N_129UberFunctionConstantsRequired2IDE, 
                       __ZN12_GLOBAL__N_129UberFunctionConstantsRequiredD0Ev, 
                       __ZN12_GLOBAL__N_129UberFunctionConstantsRequiredD1Ev, 
                       __ZN12_GLOBAL__N_131MemIntrinsicExpanderWrapperPass11runOnModuleERN4llvm6ModuleE, 
                       __ZN12_GLOBAL__N_131MemIntrinsicExpanderWrapperPass2IDE, 
                       __ZN12_GLOBAL__N_131MemIntrinsicExpanderWrapperPassD0Ev, 
                       __ZN12_GLOBAL__N_131MemIntrinsicExpanderWrapperPassD1Ev, 
                       __ZN12_GLOBAL__N_134UberFunctionConstantDiagnosticInfo23DK_UberFunctionConstantE, 
                       __ZN12_GLOBAL__N_134UberFunctionConstantDiagnosticInfoD0Ev, 
                       __ZN12_GLOBAL__N_134UberFunctionConstantDiagnosticInfoD1Ev, 
                       __ZN4llvm15callDefaultCtorIN12_GLOBAL__N_110AIRUpgradeEEEPNS_4PassEv, 
                       __ZN4llvm15callDefaultCtorIN12_GLOBAL__N_111AIRVerifierEEEPNS_4PassEv, 
                       __ZN4llvm15callDefaultCtorIN12_GLOBAL__N_113GlobalCtorOptEEEPNS_4PassEv, 
                       __ZN4llvm15callDefaultCtorIN12_GLOBAL__N_117AIRFunctionArgOptEEEPNS_4PassEv, 
                       __ZN4llvm15callDefaultCtorIN12_GLOBAL__N_117AIRMetadataPrunerEEEPNS_4PassEv, 
                       __ZN4llvm15callDefaultCtorIN12_GLOBAL__N_119PostTessellationOptEEEPNS_4PassEv, 
                       __ZN4llvm15callDefaultCtorIN12_GLOBAL__N_127UberFunctionConstantsLinkerEEEPNS_4PassEv, 
                       __ZN4llvm15callDefaultCtorIN12_GLOBAL__N_129UberFunctionConstantsRequiredEEEPNS_4PassEv, 
                       __ZN4llvm15callDefaultCtorIN12_GLOBAL__N_131MemIntrinsicExpanderWrapperPassEEEPNS_4PassEv, 
                       __ZN4llvm24initializeAIRUpgradePassERNS_12PassRegistryE, 
                       __ZN4llvm25initializeAIRVerifierPassERNS_12PassRegistryE, 
                       __ZN4llvm27initializeGlobalCtorOptPassERNS_12PassRegistryE, 
                       __ZN4llvm2cl11OptionValueIN5clang12VersionTupleEE6anchorEv, 
                       __ZN4llvm2cl4listINSt3__15tupleIJjN12_GLOBAL__N_111StorageKindENS4_12ValueStorageEEEEbNS0_6parserIS7_EEE16handleOccurrenceEjNS_9StringRefESB_, 
                       __ZN4llvm2cl4listINSt3__15tupleIJjN12_GLOBAL__N_111StorageKindENS4_12ValueStorageEEEEbNS0_6parserIS7_EEE19getExtraOptionNamesERNS_15SmallVectorImplIPKcEE, 
                       __ZN4llvm2cl4listINSt3__15tupleIJjN12_GLOBAL__N_111StorageKindENS4_12ValueStorageEEEEbNS0_6parserIS7_EEED0Ev, 
                       __ZN4llvm2cl4listINSt3__15tupleIJjN12_GLOBAL__N_111StorageKindENS4_12ValueStorageEEEEbNS0_6parserIS7_EEED1Ev, 
                       __ZN4llvm2cl6parserIN5clang12VersionTupleEE5parseERNS0_6OptionENS_9StringRefES7_RS3_, 
                       __ZN4llvm2cl6parserIN5clang12VersionTupleEE6anchorEv, 
                       __ZN4llvm2cl6parserINSt3__15tupleIJjN12_GLOBAL__N_111StorageKindENS4_12ValueStorageEEEEE6anchorEv, 
                       __ZN4llvm31initializeAIRFunctionArgOptPassERNS_12PassRegistryE, 
                       __ZN4llvm31initializeAIRMetadataPrunerPassERNS_12PassRegistryE, 
                       __ZN4llvm33initializePostTessellationOptPassERNS_12PassRegistryE, 
                       __ZN4llvm34initializeAIRTargetInfoWrapperPassERNS_12PassRegistryE, 
                       __ZN4llvm34initializeCallGraphInfoWrapperPassERNS_12PassRegistryE, 
                       __ZN4llvm41initializeUberFunctionConstantsLinkerPassERNS_12PassRegistryE, 
                       __ZN4llvm41initializeUberFunctionConstantsLoaderPassERNS_12PassRegistryE, 
                       __ZN4llvm43initializeUberFunctionConstantsRequiredPassERNS_12PassRegistryE, 
                       __ZN4llvm45initializeMemIntrinsicExpanderWrapperPassPassERNS_12PassRegistryE, 
                       __ZN5clang12VersionTuple8tryParseEN4llvm9StringRefE, 
                       __ZN5clang7metalfe10AIArgument7classofEPKN4llvm8MetadataE, 
                       __ZN5clang7metalfe10AIArgument7classofEPKN4llvm8MetadataENS2_9StringRefE, 
                       __ZN5clang7metalfe10AIFunction7classofEPKN4llvm8MetadataE, 
                       __ZN5clang7metalfe11AIFieldDesc7classofEPKN4llvm8MetadataE, 
                       __ZN5clang7metalfe12AIPatchInput7getImplERN4llvm11LLVMContextEjPNS0_22AIUberFunctionConstantEjjNS2_9StringRefES7_S7_NS2_8Metadata11StorageTypeEb, 
                       __ZN5clang7metalfe12AIReturnType7classofEPKN4llvm8MetadataE, 
                       __ZN5clang7metalfe12AIReturnType7classofEPKN4llvm8MetadataENS2_9StringRefE, 
                       __ZN5clang7metalfe12AIStructType7classofEPKN4llvm8MetadataE, 
                       __ZN5clang7metalfe12getAIVersionEPKN4llvm6ModuleE, 
                       __ZN5clang7metalfe13AIRInfoFinder13processModuleERKN4llvm6ModuleE, 
                       __ZN5clang7metalfe13AIRInfoFinder5resetEv, __ZN5clang7metalfe13AIRTargetInfoC1ERKN4llvm6TripleE, 
                       __ZN5clang7metalfe13AIRTargetInfoC2ERKN4llvm6TripleE, 
                       __ZN5clang7metalfe13AIVertexInput7getImplERN4llvm11LLVMContextEjPNS0_22AIUberFunctionConstantEjjNS2_9StringRefES7_S7_NS2_8Metadata11StorageTypeEb, 
                       __ZN5clang7metalfe13getAIFunctionEPKN4llvm8FunctionE, 
                       __ZN5clang7metalfe13getAIRVersionERKNS_11LangOptionsERKN4llvm6TripleE, 
                       __ZN5clang7metalfe15AIRVerifierImpl11runOnModuleERKN4llvm6ModuleE, 
                       __ZN5clang7metalfe15AIRVerifierImpl19loadVersionMetadataEv, 
                       __ZN5clang7metalfe15AIRVerifierImpl27loadLanguageVersionMetadataEv, 
                       __ZN5clang7metalfe15ResourceTracker3getEj, __ZN5clang7metalfe15ResourceTracker3setEjj, 
                       __ZN5clang7metalfe15ResourceTracker4nposE, __ZN5clang7metalfe15verifyAIRModuleERKN4llvm6ModuleENS0_17VerificationLevelE, 
                       __ZN5clang7metalfe16upgradeAIRModuleERN4llvm6ModuleENS_12VersionTupleE, 
                       __ZN5clang7metalfe17AILanguageVersion7classofEPKN4llvm8MetadataE, 
                       __ZN5clang7metalfe17AILanguageVersion7getImplERN4llvm11LLVMContextENS0_10AILanguageEjjjNS2_8Metadata11StorageTypeEb, 
                       __ZN5clang7metalfe17getAIRIntrinsicIDERKN4llvm8FunctionE, 
                       __ZN5clang7metalfe17isAIRClzIntrinsicERKN4llvm8FunctionE, 
                       __ZN5clang7metalfe17isAIRCtzIntrinsicERKN4llvm8FunctionE, 
                       __ZN5clang7metalfe18AIRConstantSampler7classofEPKN4llvm5ValueE, 
                       __ZN5clang7metalfe18isAIRDfdxIntrinsicERKN4llvm8FunctionE, 
                       __ZN5clang7metalfe18isAIRDfdyIntrinsicERKN4llvm8FunctionE, 
                       __ZN5clang7metalfe19AIControlPointInput7getImplERN4llvm11LLVMContextEjPNS0_22AIControlPointFunctionENS2_8ArrayRefIPNS0_11AIFieldDescEEENS2_8Metadata11StorageTypeEb, 
                       __ZN5clang7metalfe19getAIKernelFunctionEPKN4llvm8FunctionE, 
                       __ZN5clang7metalfe19getAIVertexFunctionEPKN4llvm8FunctionE, 
                       __ZN5clang7metalfe20AIRTargetInfoWrapper2IDE, __ZN5clang7metalfe20AIRTargetInfoWrapper8getAIRTIERKN4llvm6TripleE, 
                       __ZN5clang7metalfe20CallGraphInfoWrapper16lookForRecursionEPKN4llvm13CallGraphNodeE, 
                       __ZN5clang7metalfe20CallGraphInfoWrapper21lookForIllegalContextEPKN4llvm13CallGraphNodeE, 
                       __ZN5clang7metalfe20CallGraphInfoWrapper23lookForConstantSamplersEPKN4llvm13CallGraphNodeE, 
                       __ZN5clang7metalfe20CallGraphInfoWrapper27lookForWritesToGlobalMemoryEPKN4llvm13CallGraphNodeE, 
                       __ZN5clang7metalfe20CallGraphInfoWrapper2IDE, __ZN5clang7metalfe20CallGraphInfoWrapper8runOnSCCERN4llvm12CallGraphSCCE, 
                       __ZN5clang7metalfe20CallGraphInfoWrapperC1Ev, __ZN5clang7metalfe20CallGraphInfoWrapperC2Ev, 
                       __ZN5clang7metalfe20createAIRUpgradePassEv, __ZN5clang7metalfe20getAILanguageVersionEPKN4llvm6ModuleE, 
                       __ZN5clang7metalfe20isAIRAtomicIntrinsicERKN4llvm8FunctionE, 
                       __ZN5clang7metalfe20isAIRFwidthIntrinsicERKN4llvm8FunctionE, 
                       __ZN5clang7metalfe20isAIRVStoreIntrinsicERKN4llvm8FunctionE, 
                       __ZN5clang7metalfe21createAIR2d0IntrinsicERN4llvm6ModuleENS0_14AIRIntrinsicIDE, 
                       __ZN5clang7metalfe21createAIRVerifierPassENS0_17VerificationLevelE, 
                       __ZN5clang7metalfe21createAIRVerifierPassEv, __ZN5clang7metalfe21getAIFragmentFunctionEPKN4llvm8FunctionE, 
                       __ZN5clang7metalfe22AIControlPointFunction7classofEPKN4llvm8MetadataE, 
                       __ZN5clang7metalfe22AIUberFunctionConstant15replaceRequiredEb, 
                       __ZN5clang7metalfe22AIUberFunctionConstant7classofEPKN4llvm8MetadataE, 
                       __ZN5clang7metalfe22AIUberFunctionConstant7getImplERN4llvm11LLVMContextEPNS2_14GlobalVariableENS2_9StringRefES7_NS2_8OptionalIjEENS8_IbEENS2_8Metadata11StorageTypeEb, 
                       __ZN5clang7metalfe22createAIR1d11IntrinsicERN4llvm6ModuleENS0_14AIRIntrinsicIDE, 
                       __ZN5clang7metalfe23createGlobalCtorOptPassEv, __ZN5clang7metalfe24isAIRVStoreHalfIntrinsicERKN4llvm8FunctionE, 
                       __ZN5clang7metalfe25isAIRVStoreAHalfIntrinsicERKN4llvm8FunctionE, 
                       __ZN5clang7metalfe25linkUberFunctionConstantsERN4llvm6ModuleENS1_8ArrayRefINS0_4BindEEE, 
                       __ZN5clang7metalfe25linkUberFunctionConstantsERN4llvm6ModuleENS1_8ArrayRefINS0_4BindEEENSt3__18functionIFvRKNS1_14DiagnosticInfoEEEE, 
                       __ZN5clang7metalfe27UberFunctionConstantsLoader11runOnModuleERN4llvm6ModuleE, 
                       __ZN5clang7metalfe27UberFunctionConstantsLoader28loadConstantsFromCommandLineERN4llvm11LLVMContextE, 
                       __ZN5clang7metalfe27UberFunctionConstantsLoader2IDE, 
                       __ZN5clang7metalfe27UberFunctionConstantsLoader34loadConstantsFromConfigurationFileERN4llvm11LLVMContextE, 
                       __ZN5clang7metalfe27UberFunctionConstantsLoader40loadConstantFromConfigurationFilePatternERN4llvm11LLVMContextERNS2_9SourceMgrENS2_9StringRefE, 
                       __ZN5clang7metalfe27UberFunctionConstantsLoaderC1Ev, 
                       __ZN5clang7metalfe27UberFunctionConstantsLoaderC2Ev, 
                       __ZN5clang7metalfe27createAIRFunctionArgOptPassEv, 
                       __ZN5clang7metalfe27createAIRMetadataPrunerPassEv, 
                       __ZN5clang7metalfe28getArgumentFunctionConstantsEN4llvm8ArrayRefIPKNS1_6ModuleEEE, 
                       __ZN5clang7metalfe28isAIRWriteTexture1DIntrinsicERKN4llvm8FunctionE, 
                       __ZN5clang7metalfe28isAIRWriteTexture2DIntrinsicERKN4llvm8FunctionE, 
                       __ZN5clang7metalfe28isAIRWriteTexture3DIntrinsicERKN4llvm8FunctionE, 
                       __ZN5clang7metalfe29createPostTessellationOptPassEv, 
                       __ZN5clang7metalfe29isAIRSampleTexture1DIntrinsicERKN4llvm8FunctionE, 
                       __ZN5clang7metalfe29isAIRSampleTexture2DIntrinsicERKN4llvm8FunctionE, 
                       __ZN5clang7metalfe29isAIRSampleTexture3DIntrinsicERKN4llvm8FunctionE, 
                       __ZN5clang7metalfe30createAIRTargetInfoWrapperPassEv, 
                       __ZN5clang7metalfe30createCallGraphInfoWrapperPassEv, 
                       __ZN5clang7metalfe30isAIRWriteTextureCubeIntrinsicERKN4llvm8FunctionE, 
                       __ZN5clang7metalfe31isAIRSampleTextureCubeIntrinsicERKN4llvm8FunctionE, 
                       __ZN5clang7metalfe32AIRDiagnosticInfoTooManySamplers2DKE, 
                       __ZN5clang7metalfe33isAIRWriteTexture1DArrayIntrinsicERKN4llvm8FunctionE, 
                       __ZN5clang7metalfe33isAIRWriteTexture2DArrayIntrinsicERKN4llvm8FunctionE, 
                       __ZN5clang7metalfe34AIRDiagnosticInfoCorruptedMetadata2DKE, 
                       __ZN5clang7metalfe34AIRDiagnosticInfoRecursiveFunction2DKE, 
                       __ZN5clang7metalfe34isAIRSampleTexture1DArrayIntrinsicERKN4llvm8FunctionE, 
                       __ZN5clang7metalfe34isAIRSampleTexture2DArrayIntrinsicERKN4llvm8FunctionE, 
                       __ZN5clang7metalfe35AIRDiagnosticInfoFunctionNotAllowed2DKE, 
                       __ZN5clang7metalfe35isAIRWriteTextureCubeArrayIntrinsicERKN4llvm8FunctionE, 
                       __ZN5clang7metalfe36optimizeUsedListForFunctionConstantsERN4llvm6ModuleE, 
                       __ZN5clang7metalfe36optimizeUsedListForFunctionConstantsERN4llvm6ModuleERNS0_13AIRInfoFinderERKNSt3__13setIPKNS1_8ConstantENS6_4lessISA_EENS6_9allocatorISA_EEEE, 
                       __ZN5clang7metalfe37createMemIntrinsicExpanderWrapperPassEv, 
                       __ZN5clang7metalfe37createUberFunctionConstantsLinkerPassEv, 
                       __ZN5clang7metalfe37createUberFunctionConstantsLoaderPassEv, 
                       __ZN5clang7metalfe38AIRDiagnosticInfoCannotHaveGlobalCtors2DKE, 
                       __ZN5clang7metalfe38AIRDiagnosticInfoCannotHaveGlobalDtors2DKE, 
                       __ZN5clang7metalfe38AIRDiagnosticInfoInvalidBufferLocation2DKE, 
                       __ZN5clang7metalfe39AIRDiagnosticInfoCorruptedNamedMetadata2DKE, 
                       __ZN5clang7metalfe39AIRDiagnosticInfoIllegalFunctionContext2DKE, 
                       __ZN5clang7metalfe39AIRDiagnosticInfoInvalidSamplerLocation2DKE, 
                       __ZN5clang7metalfe39AIRDiagnosticInfoInvalidTextureLocation2DKE, 
                       __ZN5clang7metalfe39AIRDiagnosticInfoTooManyConstantBuffers2DKE, 
                       __ZN5clang7metalfe39createUberFunctionConstantsRequiredPassEv, 
                       __ZN5clang7metalfe42AIRDiagnosticInfoDuplicateFunctionConstant2DKE, 
                       __ZN5clang7metalfe42AIRDiagnosticInfoRequiredMetadataIsMissing2DKE, 
                       __ZN5clang7metalfe43AIRDiagnosticInfoInvalidVertexInputLocation2DKE, 
                       __ZN5clang7metalfe43AIRDiagnosticInfoTooManyPatchDataAttributes2DKE, 
                       __ZN5clang7metalfe51AIRDiagnosticInfoVertexFunctionWritesToGlobalMemory2DKE, 
                       __ZN5clang7metalfe53AIRDiagnosticInfoDuplicatedFragmentInputAttributeName2DKE, 
                       __ZN5clang7metalfe54AIRDiagnosticInfoDuplicatedRenderTargetAttachmentIndex2DKE, 
                       __ZN5clang7metalfe7AIPatch7classofEPKN4llvm8MetadataE, 
                       __ZN5clang7metalfe9AIStageIn7getImplERN4llvm11LLVMContextEjPNS0_22AIUberFunctionConstantEjjNS2_9StringRefES7_S7_NS2_8Metadata11StorageTypeEb, 
                       __ZN5clang7metalfe9AIVersion7classofEPKN4llvm8MetadataE, 
                       __ZN5clang7metalfe9AIVersion7getImplERN4llvm11LLVMContextEjjjNS2_8Metadata11StorageTypeEb, 
                       __ZN5clang7metalfelsERN4llvm11raw_ostreamENS0_12AIRMipFilterE, 
                       __ZN5clang7metalfelsERN4llvm11raw_ostreamENS0_14AIRAddressModeE, 
                       __ZN5clang7metalfelsERN4llvm11raw_ostreamENS0_14AIRCompareFuncE, 
                       __ZN5clang7metalfelsERN4llvm11raw_ostreamENS0_24CallGraphInfoQueryResultE, 
                       __ZN5clang7metalfelsERN4llvm11raw_ostreamENS0_8AIRCoordE, 
                       __ZN5clang7metalfelsERN4llvm11raw_ostreamENS0_9AIRFilterE, 
                       __ZN5clang7metalfelsERN4llvm11raw_ostreamERKNS0_4BindE, 
                       __ZN5clanglsERN4llvm11raw_ostreamERKNS_12VersionTupleE, 
                       __ZNK12_GLOBAL__N_111AIRVerifier16getAnalysisUsageERN4llvm13AnalysisUsageE, 
                       __ZNK12_GLOBAL__N_113GlobalCtorOpt16getAnalysisUsageERN4llvm13AnalysisUsageE, 
                       __ZNK12_GLOBAL__N_127UberFunctionConstantsLinker16getAnalysisUsageERN4llvm13AnalysisUsageE, 
                       __ZNK12_GLOBAL__N_131MemIntrinsicExpanderWrapperPass11getPassNameEv, 
                       __ZNK12_GLOBAL__N_131MemIntrinsicExpanderWrapperPass16getAnalysisUsageERN4llvm13AnalysisUsageE, 
                       __ZNK12_GLOBAL__N_134UberFunctionConstantDiagnosticInfo5printERN4llvm17DiagnosticPrinterE, 
                       __ZNK4llvm2cl4listINSt3__15tupleIJjN12_GLOBAL__N_111StorageKindENS4_12ValueStorageEEEEbNS0_6parserIS7_EEE14getOptionWidthEv, 
                       __ZNK4llvm2cl4listINSt3__15tupleIJjN12_GLOBAL__N_111StorageKindENS4_12ValueStorageEEEEbNS0_6parserIS7_EEE15printOptionInfoEm, 
                       __ZNK4llvm2cl4listINSt3__15tupleIJjN12_GLOBAL__N_111StorageKindENS4_12ValueStorageEEEEbNS0_6parserIS7_EEE16printOptionValueEmb, 
                       __ZNK4llvm2cl4listINSt3__15tupleIJjN12_GLOBAL__N_111StorageKindENS4_12ValueStorageEEEEbNS0_6parserIS7_EEE27getValueExpectedFlagDefaultEv, 
                       __ZNK4llvm2cl6parserIN5clang12VersionTupleEE15printOptionDiffERKNS0_6OptionES3_NS0_11OptionValueIS3_EEm, 
                       __ZNK4llvm2cl6parserINSt3__15tupleIJjN12_GLOBAL__N_111StorageKindENS4_12ValueStorageEEEEE12getValueNameEv, 
                       __ZNK5clang12VersionTuple11getAsStringEv, __ZNK5clang7metalfe10AIArgument13getWithUnusedEv, 
                       __ZNK5clang7metalfe10AIArgument26getWithoutFunctionConstantEv, 
                       __ZNK5clang7metalfe11AIFieldDesc13getWithUnusedEv, 
                       __ZNK5clang7metalfe13AIRTargetInfo4dumpEv, __ZNK5clang7metalfe13AIRTargetInfo5printERN4llvm11raw_ostreamE, 
                       __ZNK5clang7metalfe13CallGraphInfo4dumpEv, __ZNK5clang7metalfe13CallGraphInfo5printERN4llvm11raw_ostreamE, 
                       __ZNK5clang7metalfe15AIRVerifierImpl14verifyMetadataEv, 
                       __ZNK5clang7metalfe15AIRVerifierImpl19verifyArgumentBindsEv, 
                       __ZNK5clang7metalfe15AIRVerifierImpl20verifyKernelMetadataEv, 
                       __ZNK5clang7metalfe15AIRVerifierImpl20verifyVertexMetadataEv, 
                       __ZNK5clang7metalfe15AIRVerifierImpl22verifyFragmentMetadataEv, 
                       __ZNK5clang7metalfe15AIRVerifierImpl23verifyDeclaredFunctionsEv, 
                       __ZNK5clang7metalfe15AIRVerifierImpl23verifyGlobalDestructorsEv, 
                       __ZNK5clang7metalfe15AIRVerifierImpl24verifyGlobalConstructorsEv, 
                       __ZNK5clang7metalfe15AIRVerifierImpl26emitCorruptedMetadataErrorEPKN4llvm11NamedMDNodeE, 
                       __ZNK5clang7metalfe15AIRVerifierImpl27emitFunctionNotAllowedErrorEPKN4llvm8FunctionENS_12VersionTupleE, 
                       __ZNK5clang7metalfe15AIRVerifierImpl28verifyCompileOptionsMetadataEv, 
                       __ZNK5clang7metalfe15AIRVerifierImpl28verifySourceFileNameMetadataEv, 
                       __ZNK5clang7metalfe15AIRVerifierImpl30emitCannotHaveGlobalCtorsErrorEPKN4llvm14GlobalVariableE, 
                       __ZNK5clang7metalfe15AIRVerifierImpl30emitCannotHaveGlobalDtorsErrorEPKN4llvm14GlobalVariableE, 
                       __ZNK5clang7metalfe15AIRVerifierImpl30emitInvalidBufferLocationErrorEPKNS0_8AIBufferEPKN4llvm8FunctionE, 
                       __ZNK5clang7metalfe15AIRVerifierImpl31emitInvalidSamplerLocationErrorEPKNS0_9AISamplerEPKN4llvm8FunctionE, 
                       __ZNK5clang7metalfe15AIRVerifierImpl31emitInvalidTextureLocationErrorEPKNS0_9AITextureEPKN4llvm8FunctionE, 
                       __ZNK5clang7metalfe15AIRVerifierImpl31emitTooManyConstantBuffersErrorEjPN4llvm8FunctionE, 
                       __ZNK5clang7metalfe15AIRVerifierImpl31verifyFunctionConstantsMetadataEv, 
                       __ZNK5clang7metalfe15AIRVerifierImpl34emitRequiredMetadataIsMissingErrorEN4llvm9StringRefE, 
                       __ZNK5clang7metalfe15AIRVerifierImpl34verifyNoDuplicateFunctionConstantsEv, 
                       __ZNK5clang7metalfe15AIRVerifierImpl35emitInvalidVertexInputLocationErrorEPKNS0_13AIVertexInputEPKN4llvm8FunctionE, 
                       __ZNK5clang7metalfe15AIRVerifierImpl35emitTooManyPatchDataAttributesErrorEjPN4llvm8FunctionE, 
                       __ZNK5clang7metalfe15AIRVerifierImpl45emitDuplicatedFragmentInputAttributeNameErrorEPKNS0_15AIFragmentInputEPKN4llvm8FunctionE, 
                       __ZNK5clang7metalfe15AIRVerifierImpl46emitDuplicatedRenderTargetAttachmentIndexErrorEPKNS0_14AIRenderTargetEPKN4llvm8FunctionE, 
                       __ZNK5clang7metalfe15AIRVerifierImpl56emitDuplicateFunctionConstantSameNameDifferentTypesErrorEPKNS0_22AIUberFunctionConstantES4_, 
                       __ZNK5clang7metalfe15AIRVerifierImpl57emitDuplicateFunctionConstantSameIndexDifferentNamesErrorEPKNS0_22AIUberFunctionConstantES4_, 
                       __ZNK5clang7metalfe15AIRVerifierImpl57emitDuplicateFunctionConstantSameIndexDifferentTypesErrorEPKNS0_22AIUberFunctionConstantES4_, 
                       __ZNK5clang7metalfe15AIRVerifierImpl58emitDuplicateFunctionConstantSameNameDifferentIndexesErrorEPKNS0_22AIUberFunctionConstantES4_, 
                       __ZNK5clang7metalfe18AIRConstantSampler4dumpEv, 
                       __ZNK5clang7metalfe20CallGraphInfoWrapper16getAnalysisUsageERN4llvm13AnalysisUsageE, 
                       __ZNK5clang7metalfe22AIUberFunctionConstant10isRequiredEv, 
                       __ZNK5clang7metalfe22AIUberFunctionConstant8getIndexEv, 
                       __ZNK5clang7metalfe27UberFunctionConstantsLoader5printERN4llvm11raw_ostreamEPKNS2_6ModuleE, 
                       __ZNK5clang7metalfe32AIRDiagnosticInfoTooManySamplers5printERN4llvm17DiagnosticPrinterE, 
                       __ZNK5clang7metalfe34AIRDiagnosticInfoCorruptedMetadata5printERN4llvm17DiagnosticPrinterE, 
                       __ZNK5clang7metalfe34AIRDiagnosticInfoRecursiveFunction5printERN4llvm17DiagnosticPrinterE, 
                       __ZNK5clang7metalfe35AIRDiagnosticInfoFunctionNotAllowed5printERN4llvm17DiagnosticPrinterE, 
                       __ZNK5clang7metalfe38AIRDiagnosticInfoCannotHaveGlobalCtors5printERN4llvm17DiagnosticPrinterE, 
                       __ZNK5clang7metalfe38AIRDiagnosticInfoCannotHaveGlobalDtors5printERN4llvm17DiagnosticPrinterE, 
                       __ZNK5clang7metalfe38AIRDiagnosticInfoInvalidBufferLocation5printERN4llvm17DiagnosticPrinterE, 
                       __ZNK5clang7metalfe39AIRDiagnosticInfoCorruptedNamedMetadata5printERN4llvm17DiagnosticPrinterE, 
                       __ZNK5clang7metalfe39AIRDiagnosticInfoIllegalFunctionContext5printERN4llvm17DiagnosticPrinterE, 
                       __ZNK5clang7metalfe39AIRDiagnosticInfoInvalidSamplerLocation5printERN4llvm17DiagnosticPrinterE, 
                       __ZNK5clang7metalfe39AIRDiagnosticInfoInvalidTextureLocation5printERN4llvm17DiagnosticPrinterE, 
                       __ZNK5clang7metalfe39AIRDiagnosticInfoTooManyConstantBuffers5printERN4llvm17DiagnosticPrinterE, 
                       __ZNK5clang7metalfe42AIRDiagnosticInfoDuplicateFunctionConstant5printERN4llvm17DiagnosticPrinterE, 
                       __ZNK5clang7metalfe42AIRDiagnosticInfoRequiredMetadataIsMissing5printERN4llvm17DiagnosticPrinterE, 
                       __ZNK5clang7metalfe43AIRDiagnosticInfoInvalidVertexInputLocation5printERN4llvm17DiagnosticPrinterE, 
                       __ZNK5clang7metalfe43AIRDiagnosticInfoTooManyPatchDataAttributes5printERN4llvm17DiagnosticPrinterE, 
                       __ZNK5clang7metalfe4Bind4dumpEv, __ZNK5clang7metalfe51AIRDiagnosticInfoVertexFunctionWritesToGlobalMemory5printERN4llvm17DiagnosticPrinterE, 
                       __ZNK5clang7metalfe53AIRDiagnosticInfoDuplicatedFragmentInputAttributeName5printERN4llvm17DiagnosticPrinterE, 
                       __ZNK5clang7metalfe54AIRDiagnosticInfoDuplicatedRenderTargetAttachmentIndex5printERN4llvm17DiagnosticPrinterE, 
                       '__ZNKSt3__110__function6__funcIZ28MTLLinkUberFunctionConstantsE3$_0NS_9allocatorIS2_EEFvRKN4llvm14DiagnosticInfoEEE7__cloneEPNS0_6__baseIS9_EE', 
                       '__ZNKSt3__110__function6__funcIZ28MTLLinkUberFunctionConstantsE3$_0NS_9allocatorIS2_EEFvRKN4llvm14DiagnosticInfoEEE7__cloneEv', 
                       '__ZNKSt3__110__function6__funcIZL26upgradeClzCtzFrom1d8To1d11RN4llvm6ModuleEE3$_2NS_9allocatorIS5_EEFbPKNS2_8FunctionEEE7__cloneEPNS0_6__baseISB_EE', 
                       '__ZNKSt3__110__function6__funcIZL26upgradeClzCtzFrom1d8To1d11RN4llvm6ModuleEE3$_2NS_9allocatorIS5_EEFbPKNS2_8FunctionEEE7__cloneEv', 
                       '__ZNKSt3__110__function6__funcIZL26upgradeClzCtzFrom1d8To1d11RN4llvm6ModuleEE3$_3NS_9allocatorIS5_EEFvPNS2_8FunctionEN5clang7metalfe14AIRIntrinsicIDEEE7__cloneEPNS0_6__baseISD_EE', 
                       '__ZNKSt3__110__function6__funcIZL26upgradeClzCtzFrom1d8To1d11RN4llvm6ModuleEE3$_3NS_9allocatorIS5_EEFvPNS2_8FunctionEN5clang7metalfe14AIRIntrinsicIDEEE7__cloneEv', 
                       '__ZNKSt3__110__function6__funcIZL27upgradeAtomicsFrom1d11To2d0RN4llvm6ModuleEE3$_6NS_9allocatorIS5_EEFbPKNS2_8FunctionEEE7__cloneEPNS0_6__baseISB_EE', 
                       '__ZNKSt3__110__function6__funcIZL27upgradeAtomicsFrom1d11To2d0RN4llvm6ModuleEE3$_6NS_9allocatorIS5_EEFbPKNS2_8FunctionEEE7__cloneEv', 
                       '__ZNKSt3__110__function6__funcIZL27upgradeAtomicsFrom1d11To2d0RN4llvm6ModuleEE3$_7NS_9allocatorIS5_EEFvPNS2_8FunctionEN5clang7metalfe14AIRIntrinsicIDEEE7__cloneEPNS0_6__baseISD_EE', 
                       '__ZNKSt3__110__function6__funcIZL27upgradeAtomicsFrom1d11To2d0RN4llvm6ModuleEE3$_7NS_9allocatorIS5_EEFvPNS2_8FunctionEN5clang7metalfe14AIRIntrinsicIDEEE7__cloneEv', 
                       '__ZNKSt3__110__function6__funcIZL30upgradeAtomicScopeFrom1d6To1d8RN4llvm6ModuleEE3$_0NS_9allocatorIS5_EEFbPKNS2_8FunctionEEE7__cloneEPNS0_6__baseISB_EE', 
                       '__ZNKSt3__110__function6__funcIZL30upgradeAtomicScopeFrom1d6To1d8RN4llvm6ModuleEE3$_0NS_9allocatorIS5_EEFbPKNS2_8FunctionEEE7__cloneEv', 
                       '__ZNKSt3__110__function6__funcIZL30upgradeAtomicScopeFrom1d6To1d8RN4llvm6ModuleEE3$_1NS_9allocatorIS5_EEFvPNS2_8FunctionEN5clang7metalfe14AIRIntrinsicIDEEE7__cloneEPNS0_6__baseISD_EE', 
                       '__ZNKSt3__110__function6__funcIZL30upgradeAtomicScopeFrom1d6To1d8RN4llvm6ModuleEE3$_1NS_9allocatorIS5_EEFvPNS2_8FunctionEN5clang7metalfe14AIRIntrinsicIDEEE7__cloneEv', 
                       '__ZNKSt3__110__function6__funcIZL39upgradeConvergentFunctionsFrom1d8to1d11RN4llvm6ModuleEE3$_4NS_9allocatorIS5_EEFbPKNS2_8FunctionEEE7__cloneEPNS0_6__baseISB_EE', 
                       '__ZNKSt3__110__function6__funcIZL39upgradeConvergentFunctionsFrom1d8to1d11RN4llvm6ModuleEE3$_4NS_9allocatorIS5_EEFbPKNS2_8FunctionEEE7__cloneEv', 
                       '__ZNKSt3__110__function6__funcIZL39upgradeConvergentFunctionsFrom1d8to1d11RN4llvm6ModuleEE3$_5NS_9allocatorIS5_EEFvPNS2_8FunctionEN5clang7metalfe14AIRIntrinsicIDEEE7__cloneEPNS0_6__baseISD_EE', 
                       '__ZNKSt3__110__function6__funcIZL39upgradeConvergentFunctionsFrom1d8to1d11RN4llvm6ModuleEE3$_5NS_9allocatorIS5_EEFvPNS2_8FunctionEN5clang7metalfe14AIRIntrinsicIDEEE7__cloneEv', 
                       '__ZNKSt3__110__function6__funcIZN5clang7metalfe25linkUberFunctionConstantsERN4llvm6ModuleENS4_8ArrayRefINS3_4BindEEEE3$_0NS_9allocatorISA_EEFvRKNS4_14DiagnosticInfoEEE7__cloneEPNS0_6__baseISG_EE', 
                       '__ZNKSt3__110__function6__funcIZN5clang7metalfe25linkUberFunctionConstantsERN4llvm6ModuleENS4_8ArrayRefINS3_4BindEEEE3$_0NS_9allocatorISA_EEFvRKNS4_14DiagnosticInfoEEE7__cloneEv', 
                       '__ZNSt3__110__function6__funcIZ28MTLLinkUberFunctionConstantsE3$_0NS_9allocatorIS2_EEFvRKN4llvm14DiagnosticInfoEEE18destroy_deallocateEv', 
                       '__ZNSt3__110__function6__funcIZ28MTLLinkUberFunctionConstantsE3$_0NS_9allocatorIS2_EEFvRKN4llvm14DiagnosticInfoEEE7destroyEv', 
                       '__ZNSt3__110__function6__funcIZ28MTLLinkUberFunctionConstantsE3$_0NS_9allocatorIS2_EEFvRKN4llvm14DiagnosticInfoEEED0Ev', 
                       '__ZNSt3__110__function6__funcIZ28MTLLinkUberFunctionConstantsE3$_0NS_9allocatorIS2_EEFvRKN4llvm14DiagnosticInfoEEED1Ev', 
                       '__ZNSt3__110__function6__funcIZ28MTLLinkUberFunctionConstantsE3$_0NS_9allocatorIS2_EEFvRKN4llvm14DiagnosticInfoEEEclES8_', 
                       '__ZNSt3__110__function6__funcIZL26upgradeClzCtzFrom1d8To1d11RN4llvm6ModuleEE3$_2NS_9allocatorIS5_EEFbPKNS2_8FunctionEEE18destroy_deallocateEv', 
                       '__ZNSt3__110__function6__funcIZL26upgradeClzCtzFrom1d8To1d11RN4llvm6ModuleEE3$_2NS_9allocatorIS5_EEFbPKNS2_8FunctionEEE7destroyEv', 
                       '__ZNSt3__110__function6__funcIZL26upgradeClzCtzFrom1d8To1d11RN4llvm6ModuleEE3$_2NS_9allocatorIS5_EEFbPKNS2_8FunctionEEED0Ev', 
                       '__ZNSt3__110__function6__funcIZL26upgradeClzCtzFrom1d8To1d11RN4llvm6ModuleEE3$_2NS_9allocatorIS5_EEFbPKNS2_8FunctionEEED1Ev', 
                       '__ZNSt3__110__function6__funcIZL26upgradeClzCtzFrom1d8To1d11RN4llvm6ModuleEE3$_2NS_9allocatorIS5_EEFbPKNS2_8FunctionEEEclEOSA_', 
                       '__ZNSt3__110__function6__funcIZL26upgradeClzCtzFrom1d8To1d11RN4llvm6ModuleEE3$_3NS_9allocatorIS5_EEFvPNS2_8FunctionEN5clang7metalfe14AIRIntrinsicIDEEE18destroy_deallocateEv', 
                       '__ZNSt3__110__function6__funcIZL26upgradeClzCtzFrom1d8To1d11RN4llvm6ModuleEE3$_3NS_9allocatorIS5_EEFvPNS2_8FunctionEN5clang7metalfe14AIRIntrinsicIDEEE7destroyEv', 
                       '__ZNSt3__110__function6__funcIZL26upgradeClzCtzFrom1d8To1d11RN4llvm6ModuleEE3$_3NS_9allocatorIS5_EEFvPNS2_8FunctionEN5clang7metalfe14AIRIntrinsicIDEEED0Ev', 
                       '__ZNSt3__110__function6__funcIZL26upgradeClzCtzFrom1d8To1d11RN4llvm6ModuleEE3$_3NS_9allocatorIS5_EEFvPNS2_8FunctionEN5clang7metalfe14AIRIntrinsicIDEEED1Ev', 
                       '__ZNSt3__110__function6__funcIZL26upgradeClzCtzFrom1d8To1d11RN4llvm6ModuleEE3$_3NS_9allocatorIS5_EEFvPNS2_8FunctionEN5clang7metalfe14AIRIntrinsicIDEEEclEOS9_OSC_', 
                       '__ZNSt3__110__function6__funcIZL27upgradeAtomicsFrom1d11To2d0RN4llvm6ModuleEE3$_6NS_9allocatorIS5_EEFbPKNS2_8FunctionEEE18destroy_deallocateEv', 
                       '__ZNSt3__110__function6__funcIZL27upgradeAtomicsFrom1d11To2d0RN4llvm6ModuleEE3$_6NS_9allocatorIS5_EEFbPKNS2_8FunctionEEE7destroyEv', 
                       '__ZNSt3__110__function6__funcIZL27upgradeAtomicsFrom1d11To2d0RN4llvm6ModuleEE3$_6NS_9allocatorIS5_EEFbPKNS2_8FunctionEEED0Ev', 
                       '__ZNSt3__110__function6__funcIZL27upgradeAtomicsFrom1d11To2d0RN4llvm6ModuleEE3$_6NS_9allocatorIS5_EEFbPKNS2_8FunctionEEED1Ev', 
                       '__ZNSt3__110__function6__funcIZL27upgradeAtomicsFrom1d11To2d0RN4llvm6ModuleEE3$_6NS_9allocatorIS5_EEFbPKNS2_8FunctionEEEclEOSA_', 
                       '__ZNSt3__110__function6__funcIZL27upgradeAtomicsFrom1d11To2d0RN4llvm6ModuleEE3$_7NS_9allocatorIS5_EEFvPNS2_8FunctionEN5clang7metalfe14AIRIntrinsicIDEEE18destroy_deallocateEv', 
                       '__ZNSt3__110__function6__funcIZL27upgradeAtomicsFrom1d11To2d0RN4llvm6ModuleEE3$_7NS_9allocatorIS5_EEFvPNS2_8FunctionEN5clang7metalfe14AIRIntrinsicIDEEE7destroyEv', 
                       '__ZNSt3__110__function6__funcIZL27upgradeAtomicsFrom1d11To2d0RN4llvm6ModuleEE3$_7NS_9allocatorIS5_EEFvPNS2_8FunctionEN5clang7metalfe14AIRIntrinsicIDEEED0Ev', 
                       '__ZNSt3__110__function6__funcIZL27upgradeAtomicsFrom1d11To2d0RN4llvm6ModuleEE3$_7NS_9allocatorIS5_EEFvPNS2_8FunctionEN5clang7metalfe14AIRIntrinsicIDEEED1Ev', 
                       '__ZNSt3__110__function6__funcIZL27upgradeAtomicsFrom1d11To2d0RN4llvm6ModuleEE3$_7NS_9allocatorIS5_EEFvPNS2_8FunctionEN5clang7metalfe14AIRIntrinsicIDEEEclEOS9_OSC_', 
                       '__ZNSt3__110__function6__funcIZL30upgradeAtomicScopeFrom1d6To1d8RN4llvm6ModuleEE3$_0NS_9allocatorIS5_EEFbPKNS2_8FunctionEEE18destroy_deallocateEv', 
                       '__ZNSt3__110__function6__funcIZL30upgradeAtomicScopeFrom1d6To1d8RN4llvm6ModuleEE3$_0NS_9allocatorIS5_EEFbPKNS2_8FunctionEEE7destroyEv', 
                       '__ZNSt3__110__function6__funcIZL30upgradeAtomicScopeFrom1d6To1d8RN4llvm6ModuleEE3$_0NS_9allocatorIS5_EEFbPKNS2_8FunctionEEED0Ev', 
                       '__ZNSt3__110__function6__funcIZL30upgradeAtomicScopeFrom1d6To1d8RN4llvm6ModuleEE3$_0NS_9allocatorIS5_EEFbPKNS2_8FunctionEEED1Ev', 
                       '__ZNSt3__110__function6__funcIZL30upgradeAtomicScopeFrom1d6To1d8RN4llvm6ModuleEE3$_0NS_9allocatorIS5_EEFbPKNS2_8FunctionEEEclEOSA_', 
                       '__ZNSt3__110__function6__funcIZL30upgradeAtomicScopeFrom1d6To1d8RN4llvm6ModuleEE3$_1NS_9allocatorIS5_EEFvPNS2_8FunctionEN5clang7metalfe14AIRIntrinsicIDEEE18destroy_deallocateEv', 
                       '__ZNSt3__110__function6__funcIZL30upgradeAtomicScopeFrom1d6To1d8RN4llvm6ModuleEE3$_1NS_9allocatorIS5_EEFvPNS2_8FunctionEN5clang7metalfe14AIRIntrinsicIDEEE7destroyEv', 
                       '__ZNSt3__110__function6__funcIZL30upgradeAtomicScopeFrom1d6To1d8RN4llvm6ModuleEE3$_1NS_9allocatorIS5_EEFvPNS2_8FunctionEN5clang7metalfe14AIRIntrinsicIDEEED0Ev', 
                       '__ZNSt3__110__function6__funcIZL30upgradeAtomicScopeFrom1d6To1d8RN4llvm6ModuleEE3$_1NS_9allocatorIS5_EEFvPNS2_8FunctionEN5clang7metalfe14AIRIntrinsicIDEEED1Ev', 
                       '__ZNSt3__110__function6__funcIZL30upgradeAtomicScopeFrom1d6To1d8RN4llvm6ModuleEE3$_1NS_9allocatorIS5_EEFvPNS2_8FunctionEN5clang7metalfe14AIRIntrinsicIDEEEclEOS9_OSC_', 
                       '__ZNSt3__110__function6__funcIZL39upgradeConvergentFunctionsFrom1d8to1d11RN4llvm6ModuleEE3$_4NS_9allocatorIS5_EEFbPKNS2_8FunctionEEE18destroy_deallocateEv', 
                       '__ZNSt3__110__function6__funcIZL39upgradeConvergentFunctionsFrom1d8to1d11RN4llvm6ModuleEE3$_4NS_9allocatorIS5_EEFbPKNS2_8FunctionEEE7destroyEv', 
                       '__ZNSt3__110__function6__funcIZL39upgradeConvergentFunctionsFrom1d8to1d11RN4llvm6ModuleEE3$_4NS_9allocatorIS5_EEFbPKNS2_8FunctionEEED0Ev', 
                       '__ZNSt3__110__function6__funcIZL39upgradeConvergentFunctionsFrom1d8to1d11RN4llvm6ModuleEE3$_4NS_9allocatorIS5_EEFbPKNS2_8FunctionEEED1Ev', 
                       '__ZNSt3__110__function6__funcIZL39upgradeConvergentFunctionsFrom1d8to1d11RN4llvm6ModuleEE3$_4NS_9allocatorIS5_EEFbPKNS2_8FunctionEEEclEOSA_', 
                       '__ZNSt3__110__function6__funcIZL39upgradeConvergentFunctionsFrom1d8to1d11RN4llvm6ModuleEE3$_5NS_9allocatorIS5_EEFvPNS2_8FunctionEN5clang7metalfe14AIRIntrinsicIDEEE18destroy_deallocateEv', 
                       '__ZNSt3__110__function6__funcIZL39upgradeConvergentFunctionsFrom1d8to1d11RN4llvm6ModuleEE3$_5NS_9allocatorIS5_EEFvPNS2_8FunctionEN5clang7metalfe14AIRIntrinsicIDEEE7destroyEv', 
                       '__ZNSt3__110__function6__funcIZL39upgradeConvergentFunctionsFrom1d8to1d11RN4llvm6ModuleEE3$_5NS_9allocatorIS5_EEFvPNS2_8FunctionEN5clang7metalfe14AIRIntrinsicIDEEED0Ev', 
                       '__ZNSt3__110__function6__funcIZL39upgradeConvergentFunctionsFrom1d8to1d11RN4llvm6ModuleEE3$_5NS_9allocatorIS5_EEFvPNS2_8FunctionEN5clang7metalfe14AIRIntrinsicIDEEED1Ev', 
                       '__ZNSt3__110__function6__funcIZL39upgradeConvergentFunctionsFrom1d8to1d11RN4llvm6ModuleEE3$_5NS_9allocatorIS5_EEFvPNS2_8FunctionEN5clang7metalfe14AIRIntrinsicIDEEEclEOS9_OSC_', 
                       '__ZNSt3__110__function6__funcIZN5clang7metalfe25linkUberFunctionConstantsERN4llvm6ModuleENS4_8ArrayRefINS3_4BindEEEE3$_0NS_9allocatorISA_EEFvRKNS4_14DiagnosticInfoEEE18destroy_deallocateEv', 
                       '__ZNSt3__110__function6__funcIZN5clang7metalfe25linkUberFunctionConstantsERN4llvm6ModuleENS4_8ArrayRefINS3_4BindEEEE3$_0NS_9allocatorISA_EEFvRKNS4_14DiagnosticInfoEEE7destroyEv', 
                       '__ZNSt3__110__function6__funcIZN5clang7metalfe25linkUberFunctionConstantsERN4llvm6ModuleENS4_8ArrayRefINS3_4BindEEEE3$_0NS_9allocatorISA_EEFvRKNS4_14DiagnosticInfoEEED0Ev', 
                       '__ZNSt3__110__function6__funcIZN5clang7metalfe25linkUberFunctionConstantsERN4llvm6ModuleENS4_8ArrayRefINS3_4BindEEEE3$_0NS_9allocatorISA_EEFvRKNS4_14DiagnosticInfoEEED1Ev', 
                       '__ZNSt3__110__function6__funcIZN5clang7metalfe25linkUberFunctionConstantsERN4llvm6ModuleENS4_8ArrayRefINS3_4BindEEEE3$_0NS_9allocatorISA_EEFvRKNS4_14DiagnosticInfoEEEclESF_', 
                       __ZNSt3__16__treeINS_12__value_typeIPKN4llvm13CallGraphNodeEN5clang7metalfe17CallGraphNodeInfoEEENS_19__map_value_compareIS5_S9_NS_4lessIS5_EELb1EEENS_9allocatorIS9_EEE16__insert_node_atEPNS_15__tree_end_nodeIPNS_16__tree_node_baseIPvEEEERSL_SL_, 
                       __ZNSt3__16__treeIPN4llvm8ConstantENS_4lessIS3_EENS_9allocatorIS3_EEE16__insert_node_atEPNS_15__tree_end_nodeIPNS_16__tree_node_baseIPvEEEERSD_SD_, 
                       __ZNSt3__16__treeIPN4llvm8ConstantENS_4lessIS3_EENS_9allocatorIS3_EEE25__emplace_unique_key_argsIS3_JS3_EEENS_4pairINS_15__tree_iteratorIS3_PNS_11__tree_nodeIS3_PvEElEEbEERKT_DpOT0_, 
                       __ZNSt3__16__treeIPN4llvm8ConstantENS_4lessIS3_EENS_9allocatorIS3_EEE7destroyEPNS_11__tree_nodeIS3_PvEE, 
                       __ZNSt3__16vectorIN5clang7metalfe4BindENS_9allocatorIS3_EEE26__swap_out_circular_bufferERNS_14__split_bufferIS3_RS5_EE, 
                       __ZNSt3__16vectorIPN4llvm8ConstantENS_9allocatorIS3_EEE21__push_back_slow_pathIS3_EEvOT_, 
                       __ZNSt3__16vectorIPN4llvm8ConstantENS_9allocatorIS3_EEE26__swap_out_circular_bufferERNS_14__split_bufferIS3_RS5_EE, 
                       __ZNSt3__16vectorIPN4llvm8FunctionENS_9allocatorIS3_EEE21__push_back_slow_pathIRKS3_EEvOT_, 
                       __ZNSt3__16vectorIPN4llvm8MetadataENS_9allocatorIS3_EEE21__push_back_slow_pathIS3_EEvOT_, 
                       __ZNSt3__16vectorIPN4llvm8MetadataENS_9allocatorIS3_EEE26__swap_out_circular_bufferERNS_14__split_bufferIS3_RS5_EE, 
                       __ZNSt3__16vectorIjNS_9allocatorIjEEE26__swap_out_circular_bufferERNS_14__split_bufferIjRS2_EE, 
                       __ZNSt3__1L19piecewise_constructE, __ZSt9to_stringN5clang7metalfe14AIRIntrinsicIDE, 
                       __ZSt9to_stringN5clang7metalfe15AIRAddressSpaceE, 
                       __ZTVN12_GLOBAL__N_110AIRUpgradeE, __ZTVN12_GLOBAL__N_111AIRVerifierE, 
                       __ZTVN12_GLOBAL__N_113GlobalCtorOptE, __ZTVN12_GLOBAL__N_117AIRFunctionArgOptE, 
                       __ZTVN12_GLOBAL__N_117AIRMetadataPrunerE, __ZTVN12_GLOBAL__N_119PostTessellationOptE, 
                       __ZTVN12_GLOBAL__N_127UberFunctionConstantsLinkerE, 
                       __ZTVN12_GLOBAL__N_129UberFunctionConstantsRequiredE, 
                       __ZTVN12_GLOBAL__N_131MemIntrinsicExpanderWrapperPassE, 
                       __ZTVN12_GLOBAL__N_134UberFunctionConstantDiagnosticInfoE, 
                       __ZTVN4llvm2cl11OptionValueIN5clang12VersionTupleEEE, 
                       __ZTVN4llvm2cl4listINSt3__15tupleIJjN12_GLOBAL__N_111StorageKindENS4_12ValueStorageEEEEbNS0_6parserIS7_EEEE, 
                       __ZTVN4llvm2cl6parserIN5clang12VersionTupleEEE, 
                       __ZTVN4llvm2cl6parserINSt3__15tupleIJjN12_GLOBAL__N_111StorageKindENS4_12ValueStorageEEEEEE, 
                       __ZTVN5clang7metalfe20CallGraphInfoWrapperE, __ZTVN5clang7metalfe27UberFunctionConstantsLoaderE, 
                       __ZTVN5clang7metalfe32AIRDiagnosticInfoTooManySamplersE, 
                       __ZTVN5clang7metalfe34AIRDiagnosticInfoCorruptedMetadataE, 
                       __ZTVN5clang7metalfe34AIRDiagnosticInfoRecursiveFunctionE, 
                       __ZTVN5clang7metalfe35AIRDiagnosticInfoFunctionNotAllowedE, 
                       __ZTVN5clang7metalfe38AIRDiagnosticInfoCannotHaveGlobalCtorsE, 
                       __ZTVN5clang7metalfe38AIRDiagnosticInfoCannotHaveGlobalDtorsE, 
                       __ZTVN5clang7metalfe38AIRDiagnosticInfoInvalidBufferLocationE, 
                       __ZTVN5clang7metalfe39AIRDiagnosticInfoCorruptedNamedMetadataE, 
                       __ZTVN5clang7metalfe39AIRDiagnosticInfoIllegalFunctionContextE, 
                       __ZTVN5clang7metalfe39AIRDiagnosticInfoInvalidSamplerLocationE, 
                       __ZTVN5clang7metalfe39AIRDiagnosticInfoInvalidTextureLocationE, 
                       __ZTVN5clang7metalfe39AIRDiagnosticInfoTooManyConstantBuffersE, 
                       __ZTVN5clang7metalfe42AIRDiagnosticInfoDuplicateFunctionConstantE, 
                       __ZTVN5clang7metalfe42AIRDiagnosticInfoRequiredMetadataIsMissingE, 
                       __ZTVN5clang7metalfe43AIRDiagnosticInfoInvalidVertexInputLocationE, 
                       __ZTVN5clang7metalfe43AIRDiagnosticInfoTooManyPatchDataAttributesE, 
                       __ZTVN5clang7metalfe51AIRDiagnosticInfoVertexFunctionWritesToGlobalMemoryE, 
                       __ZTVN5clang7metalfe53AIRDiagnosticInfoDuplicatedFragmentInputAttributeNameE, 
                       __ZTVN5clang7metalfe54AIRDiagnosticInfoDuplicatedRenderTargetAttachmentIndexE, 
                       '__ZTVNSt3__110__function6__funcIZ28MTLLinkUberFunctionConstantsE3$_0NS_9allocatorIS2_EEFvRKN4llvm14DiagnosticInfoEEEE', 
                       '__ZTVNSt3__110__function6__funcIZL26upgradeClzCtzFrom1d8To1d11RN4llvm6ModuleEE3$_2NS_9allocatorIS5_EEFbPKNS2_8FunctionEEEE', 
                       '__ZTVNSt3__110__function6__funcIZL26upgradeClzCtzFrom1d8To1d11RN4llvm6ModuleEE3$_3NS_9allocatorIS5_EEFvPNS2_8FunctionEN5clang7metalfe14AIRIntrinsicIDEEEE', 
                       '__ZTVNSt3__110__function6__funcIZL27upgradeAtomicsFrom1d11To2d0RN4llvm6ModuleEE3$_6NS_9allocatorIS5_EEFbPKNS2_8FunctionEEEE', 
                       '__ZTVNSt3__110__function6__funcIZL27upgradeAtomicsFrom1d11To2d0RN4llvm6ModuleEE3$_7NS_9allocatorIS5_EEFvPNS2_8FunctionEN5clang7metalfe14AIRIntrinsicIDEEEE', 
                       '__ZTVNSt3__110__function6__funcIZL30upgradeAtomicScopeFrom1d6To1d8RN4llvm6ModuleEE3$_0NS_9allocatorIS5_EEFbPKNS2_8FunctionEEEE', 
                       '__ZTVNSt3__110__function6__funcIZL30upgradeAtomicScopeFrom1d6To1d8RN4llvm6ModuleEE3$_1NS_9allocatorIS5_EEFvPNS2_8FunctionEN5clang7metalfe14AIRIntrinsicIDEEEE', 
                       '__ZTVNSt3__110__function6__funcIZL39upgradeConvergentFunctionsFrom1d8to1d11RN4llvm6ModuleEE3$_4NS_9allocatorIS5_EEFbPKNS2_8FunctionEEEE', 
                       '__ZTVNSt3__110__function6__funcIZL39upgradeConvergentFunctionsFrom1d8to1d11RN4llvm6ModuleEE3$_5NS_9allocatorIS5_EEFvPNS2_8FunctionEN5clang7metalfe14AIRIntrinsicIDEEEE', 
                       '__ZTVNSt3__110__function6__funcIZN5clang7metalfe25linkUberFunctionConstantsERN4llvm6ModuleENS4_8ArrayRefINS3_4BindEEEE3$_0NS_9allocatorISA_EEFvRKNS4_14DiagnosticInfoEEEE', 
                       '__ZZN12_GLOBAL__N_120MemIntrinsicExpander20expandAsMemIntrinsicIZNS0_14expandAsMemcpyERN4llvm8FunctionEE3$_0ZNS0_14expandAsMemcpyES4_E3$_1EEvS4_OT_OT0_ENKUlPNS2_10BasicBlockEbE_clESC_b', 
                       '__ZZN12_GLOBAL__N_120MemIntrinsicExpander20expandAsMemIntrinsicIZNS0_14expandAsMemsetERN4llvm8FunctionEE3$_2ZNS0_14expandAsMemsetES4_E3$_3EEvS4_OT_OT0_ENKUlPNS2_10BasicBlockEbE_clESC_b', 
                       __ZZN4llvm24initializeAIRUpgradePassERNS_12PassRegistryEE11initialized, 
                       __ZZN4llvm25initializeAIRVerifierPassERNS_12PassRegistryEE11initialized, 
                       __ZZN4llvm27initializeGlobalCtorOptPassERNS_12PassRegistryEE11initialized, 
                       __ZZN4llvm31initializeAIRFunctionArgOptPassERNS_12PassRegistryEE11initialized, 
                       __ZZN4llvm31initializeAIRMetadataPrunerPassERNS_12PassRegistryEE11initialized, 
                       __ZZN4llvm33initializePostTessellationOptPassERNS_12PassRegistryEE11initialized, 
                       __ZZN4llvm34initializeAIRTargetInfoWrapperPassERNS_12PassRegistryEE11initialized, 
                       __ZZN4llvm34initializeCallGraphInfoWrapperPassERNS_12PassRegistryEE11initialized, 
                       __ZZN4llvm41initializeUberFunctionConstantsLinkerPassERNS_12PassRegistryEE11initialized, 
                       __ZZN4llvm41initializeUberFunctionConstantsLoaderPassERNS_12PassRegistryEE11initialized, 
                       __ZZN4llvm43initializeUberFunctionConstantsRequiredPassERNS_12PassRegistryEE11initialized, 
                       __ZZN4llvm45initializeMemIntrinsicExpanderWrapperPassPassERNS_12PassRegistryEE11initialized, 
                       __ZZN5clang7metalfe13AIRInfoFinder13processModuleERKN4llvm6ModuleEE15FunctionMDNames ]
    weak-def-symbols: [ __ZNSt3__16__treeIPKN4llvm8ConstantENS_4lessIS4_EENS_9allocatorIS4_EEE7destroyEPNS_11__tree_nodeIS4_PvEE, 
                        __ZN4llvm11SmallPtrSetIPKNS_13CallGraphNodeELj1EEC2INSt3__111__wrap_iterIPKPS1_EEEET_SC_, 
                        __ZN4llvm11raw_ostreamlsENS_9StringRefE, __ZN4llvm12DenseMapBaseINS_8DenseMapIPKNS_8FunctionEPNS_11ConstantIntENS_12DenseMapInfoIS4_EENS_6detail12DenseMapPairIS4_S6_EEEES4_S6_S8_SB_E16FindAndConstructEOS4_, 
                        __ZN4llvm12DenseMapBaseINS_8DenseMapIPKNS_8FunctionEPNS_11ConstantIntENS_12DenseMapInfoIS4_EENS_6detail12DenseMapPairIS4_S6_EEEES4_S6_S8_SB_E18moveFromOldBucketsEPSB_SE_, 
                        __ZN4llvm12DenseMapBaseINS_8DenseMapIPKNS_8FunctionEPNS_11ConstantIntENS_12DenseMapInfoIS4_EENS_6detail12DenseMapPairIS4_S6_EEEES4_S6_S8_SB_E20InsertIntoBucketImplERKS4_PSB_, 
                        __ZN4llvm12DenseMapBaseINS_8DenseMapIjPKN5clang7metalfe22AIUberFunctionConstantENS_12DenseMapInfoIjEENS_6detail12DenseMapPairIjS6_EEEEjS6_S8_SB_E18moveFromOldBucketsEPSB_SE_, 
                        __ZN4llvm12DenseMapBaseINS_8DenseMapIjPKN5clang7metalfe22AIUberFunctionConstantENS_12DenseMapInfoIjEENS_6detail12DenseMapPairIjS6_EEEEjS6_S8_SB_E20InsertIntoBucketImplERKjPSB_, 
                        __ZN4llvm12DenseMapBaseINS_8DenseMapIjPKN5clang7metalfe22AIUberFunctionConstantENS_12DenseMapInfoIjEENS_6detail12DenseMapPairIjS6_EEEEjS6_S8_SB_E6insertEONSt3__14pairIjS6_EE, 
                        __ZN4llvm13ImmutablePass11runOnModuleERNS_6ModuleE, 
                        __ZN4llvm13ImmutablePass18getAsImmutablePassEv, 
                        __ZN4llvm13TrackingMDRefaSEOS0_, __ZN4llvm14SmallBitVector3setEj, 
                        __ZN4llvm14SmallBitVector3setEjj, __ZN4llvm14SmallBitVector3setEv, 
                        __ZN4llvm14SmallBitVector4flipEv, __ZN4llvm14SmallBitVector6resizeEjb, 
                        __ZN4llvm14SmallBitVectorC2ERKS0_, __ZN4llvm14SmallBitVectorC2Ejb, 
                        __ZN4llvm14SmallBitVectorD2Ev, __ZN4llvm14SmallBitVectoroRERKS0_, 
                        __ZN4llvm14StringMapEntryIPKN5clang7metalfe22AIUberFunctionConstantEE6CreateINS_15MallocAllocatorES5_EEPS6_NS_9StringRefERT_OT0_, 
                        __ZN4llvm15SmallPtrSetImplIPKNS_13CallGraphNodeEE6insertES3_, 
                        __ZN4llvm15SmallPtrSetImplIPKNS_8FunctionEE6insertES3_, 
                        __ZN4llvm15SmallPtrSetImplIPKNS_8FunctionEE6insertINS_19SmallPtrSetIteratorIS3_EEEEvT_S8_, 
                        __ZN4llvm15SmallPtrSetImplIPN5clang7metalfe18AIRConstantSamplerEE6insertES4_, 
                        __ZN4llvm15SmallPtrSetImplIPN5clang7metalfe18AIRConstantSamplerEE6insertINS_19SmallPtrSetIteratorIS4_EEEEvT_S9_, 
                        __ZN4llvm15SmallVectorImplIN5clang7metalfe24CallGraphInfoQueryResultEE6assignEmRKS3_, 
                        __ZN4llvm15SmallVectorImplIN5clang7metalfe24CallGraphInfoQueryResultEEaSERKS4_, 
                        __ZN4llvm15SmallVectorImplINS_6WeakVHEED2Ev, __ZN4llvm15SmallVectorImplIPKNS_4UserEE6appendINS_5Value18user_iterator_implIS2_EEEEvT_S9_, 
                        __ZN4llvm15SmallVectorImplIPKNS_8FunctionEE6appendINS_19SmallPtrSetIteratorIS3_EEEEvT_S8_, 
                        __ZN4llvm15SmallVectorImplIPN5clang7metalfe11AIFieldDescEE6assignEmRKS4_, 
                        __ZN4llvm15SmallVectorImplIPN5clang7metalfe18AIRConstantSamplerEE6appendINS_19SmallPtrSetIteratorIS4_EEEEvT_S9_, 
                        __ZN4llvm15SmallVectorImplIPNS_5ValueEE6appendINS_4User17value_op_iteratorEEEvT_S7_, 
                        __ZN4llvm15SmallVectorImplIPNS_5ValueEE6assignEmRKS2_, 
                        __ZN4llvm15SmallVectorImplIPNS_8ConstantEE12emplace_backIJPNS_10ConstantFPEEEEvDpOT_, 
                        __ZN4llvm15SmallVectorImplIPNS_8ConstantEE12emplace_backIJPNS_11ConstantIntEEEEvDpOT_, 
                        __ZN4llvm15SmallVectorImplIPNS_8MetadataEE6appendIPKS2_EEvT_S7_, 
                        __ZN4llvm15SmallVectorImplIPNS_8MetadataEE6assignEmRKS2_, 
                        __ZN4llvm15SmallVectorImplIcE6appendIPKcEEvT_S5_, 
                        __ZN4llvm15callDefaultCtorIN5clang7metalfe20AIRTargetInfoWrapperEEEPNS_4PassEv, 
                        __ZN4llvm15callDefaultCtorIN5clang7metalfe20CallGraphInfoWrapperEEEPNS_4PassEv, 
                        __ZN4llvm15callDefaultCtorIN5clang7metalfe27UberFunctionConstantsLoaderEEEPNS_4PassEv, 
                        __ZN4llvm16CallGraphSCCPass14doFinalizationERNS_9CallGraphE, 
                        __ZN4llvm17GetElementPtrInst16getGEPReturnTypeEPNS_4TypeEPNS_5ValueENS_8ArrayRefIS4_EE, 
                        __ZN4llvm17GetElementPtrInst6CreateEPNS_4TypeEPNS_5ValueENS_8ArrayRefIS4_EERKNS_5TwineEPNS_11InstructionE, 
                        __ZN4llvm17GetElementPtrInstD0Ev, __ZN4llvm17GetElementPtrInstD1Ev, 
                        __ZN4llvm19SmallPtrSetImplBase5clearEv, __ZN4llvm23SmallVectorTemplateBaseINS_12AttributeSetELb1EE9push_backERKS1_, 
                        __ZN4llvm23SmallVectorTemplateBaseINS_2cl6parserIN5clang7metalfe17VerificationLevelEE10OptionInfoELb0EE4growEm, 
                        __ZN4llvm23SmallVectorTemplateBaseINS_2cl6parserIN5clang7metalfe17VerificationLevelEE10OptionInfoELb0EE9push_backERKS7_, 
                        __ZN4llvm23SmallVectorTemplateBaseINS_6WeakVHELb0EE4growEm, 
                        __ZN4llvm23SmallVectorTemplateBaseINS_6WeakVHELb0EE9push_backEOS1_, 
                        __ZN4llvm23SmallVectorTemplateBaseINSt3__14pairIPKcNS2_IiS4_EEEELb1EE9push_backERKS6_, 
                        __ZN4llvm23SmallVectorTemplateBaseINSt3__14pairIPNS_8FunctionEN5clang7metalfe14AIRIntrinsicIDEEELb1EE9push_backERKS8_, 
                        __ZN4llvm23SmallVectorTemplateBaseIPKNS_8ConstantELb1EE9push_backERKS3_, 
                        __ZN4llvm23SmallVectorTemplateBaseIPKcLb1EE9push_backERKS2_, 
                        __ZN4llvm23SmallVectorTemplateBaseIPN5clang7metalfe10AIFunctionELb1EE9push_backERKS4_, 
                        __ZN4llvm23SmallVectorTemplateBaseIPN5clang7metalfe22AIUberFunctionConstantELb1EE9push_backERKS4_, 
                        __ZN4llvm23SmallVectorTemplateBaseIPNS_4TypeELb1EE9push_backERKS2_, 
                        __ZN4llvm23SmallVectorTemplateBaseIPNS_5ValueELb1EE9push_backERKS2_, 
                        __ZN4llvm23SmallVectorTemplateBaseIPNS_6MDNodeELb1EE9push_backERKS2_, 
                        __ZN4llvm23SmallVectorTemplateBaseIPNS_8CallInstELb1EE9push_backERKS2_, 
                        __ZN4llvm23SmallVectorTemplateBaseIPNS_8ConstantELb1EE9push_backERKS2_, 
                        __ZN4llvm23SmallVectorTemplateBaseIPNS_8MetadataELb1EE9push_backERKS2_, 
                        __ZN4llvm2cl11ValuesClassIiEC2EPKciS4_Pc, __ZN4llvm2cl19generic_parser_base19getExtraOptionNamesERNS_15SmallVectorImplIPKcEE, 
                        __ZN4llvm2cl3optIN5clang12VersionTupleELb0ENS0_6parserIS3_EEE16handleOccurrenceEjNS_9StringRefES7_, 
                        __ZN4llvm2cl3optIN5clang12VersionTupleELb0ENS0_6parserIS3_EEE19getExtraOptionNamesERNS_15SmallVectorImplIPKcEE, 
                        __ZN4llvm2cl3optIN5clang12VersionTupleELb0ENS0_6parserIS3_EEEC2IJA15_cNS0_12OptionHiddenENS0_11initializerIS3_EENS0_18NumOccurrencesFlagENS0_4descEEEEDpRKT_, 
                        __ZN4llvm2cl3optIN5clang12VersionTupleELb0ENS0_6parserIS3_EEED0Ev, 
                        __ZN4llvm2cl3optIN5clang12VersionTupleELb0ENS0_6parserIS3_EEED1Ev, 
                        __ZN4llvm2cl3optIN5clang7metalfe17VerificationLevelELb0ENS0_6parserIS4_EEE16handleOccurrenceEjNS_9StringRefES8_, 
                        __ZN4llvm2cl3optIN5clang7metalfe17VerificationLevelELb0ENS0_6parserIS4_EEE19getExtraOptionNamesERNS_15SmallVectorImplIPKcEE, 
                        __ZN4llvm2cl3optIN5clang7metalfe17VerificationLevelELb0ENS0_6parserIS4_EEEC2IJA23_cNS0_4descENS0_11initializerIS4_EENS0_11ValuesClassIiEEEEEDpRKT_, 
                        __ZN4llvm2cl3optIN5clang7metalfe17VerificationLevelELb0ENS0_6parserIS4_EEED0Ev, 
                        __ZN4llvm2cl3optIN5clang7metalfe17VerificationLevelELb0ENS0_6parserIS4_EEED1Ev, 
                        __ZN4llvm2cl3optINSt3__112basic_stringIcNS2_11char_traitsIcEENS2_9allocatorIcEEEELb0ENS0_6parserIS8_EEEC2IJA19_cNS0_12OptionHiddenENS0_18NumOccurrencesFlagENS0_4descEEEEDpRKT_, 
                        __ZN4llvm2cl3optINSt3__112basic_stringIcNS2_11char_traitsIcEENS2_9allocatorIcEEEELb0ENS0_6parserIS8_EEED1Ev, 
                        __ZN4llvm2cl6parserIN5clang7metalfe17VerificationLevelEE5parseERNS0_6OptionENS_9StringRefES8_RS4_, 
                        __ZN4llvm2cl6parserIN5clang7metalfe17VerificationLevelEED0Ev, 
                        __ZN4llvm2cl6parserIN5clang7metalfe17VerificationLevelEED1Ev, 
                        __ZN4llvm2cl6valuesIiEENS0_11ValuesClassIT_EEPKcS3_S6_z, 
                        __ZN4llvm4Pass14doFinalizationERNS_6ModuleE, __ZN4llvm4Pass16doInitializationERNS_6ModuleE, 
                        __ZN4llvm5APInt15clearUnusedBitsEv, __ZN4llvm6Module15setTargetTripleENS_9StringRefE, 
                        __ZN4llvm6iplistINS_10BasicBlockENS_12ilist_traitsIS1_EEE8transferENS_14ilist_iteratorIS1_EERS4_S6_S6_, 
                        __ZN4llvm6iplistINS_8FunctionENS_12ilist_traitsIS1_EEE11insertAfterENS_14ilist_iteratorIS1_EEPS1_, 
                        __ZN4llvm7CmpInst17makeCmpResultTypeEPNS_4TypeE, 
                        __ZN4llvm7PHINode11addIncomingEPNS_5ValueEPNS_10BasicBlockE, 
                        __ZN4llvm7PHINodeC2EPNS_4TypeEjRKNS_5TwineEPNS_11InstructionE, 
                        __ZN4llvm7PHINodeD0Ev, __ZN4llvm7PHINodeD1Ev, __ZN4llvm8CallInst6CreateEPNS_5ValueENS_8ArrayRefIS2_EERKNS_5TwineEPNS_10BasicBlockE, 
                        __ZN4llvm8DenseMapIPKNS_8FunctionEPNS_11ConstantIntENS_12DenseMapInfoIS3_EENS_6detail12DenseMapPairIS3_S5_EEE4growEj, 
                        __ZN4llvm8DenseMapIjPKN5clang7metalfe22AIUberFunctionConstantENS_12DenseMapInfoIjEENS_6detail12DenseMapPairIjS5_EEE4growEj, 
                        __ZN4llvm8Function4argsEv, __ZN4llvm8ICmpInstD0Ev, 
                        __ZN4llvm8ICmpInstD1Ev, __ZN4llvm9BitVector15set_unused_bitsEb, 
                        __ZN4llvm9BitVector3setEjj, __ZN4llvm9BitVector4flipEv, 
                        __ZN4llvm9BitVector4growEj, __ZN4llvm9BitVector6resizeEjb, 
                        __ZN4llvm9BitVectorC2ERKS0_, __ZN4llvm9BitVectorC2Ejb, 
                        __ZN4llvm9BitVectoroRERKS0_, __ZN4llvm9IRBuilderILb1ENS_14ConstantFolderENS_24IRBuilderDefaultInserterILb1EEEE10CreateCastENS_11Instruction7CastOpsEPNS_5ValueEPNS_4TypeERKNS_5TwineE, 
                        __ZN4llvm9IRBuilderILb1ENS_14ConstantFolderENS_24IRBuilderDefaultInserterILb1EEEE10CreateICmpENS_7CmpInst9PredicateEPNS_5ValueES8_RKNS_5TwineE, 
                        __ZN4llvm9IRBuilderILb1ENS_14ConstantFolderENS_24IRBuilderDefaultInserterILb1EEEE10CreateLShrEPNS_5ValueES6_RKNS_5TwineEb, 
                        __ZN4llvm9IRBuilderILb1ENS_14ConstantFolderENS_24IRBuilderDefaultInserterILb1EEEE10CreateLoadEPNS_5ValueEbRKNS_5TwineE, 
                        __ZN4llvm9IRBuilderILb1ENS_14ConstantFolderENS_24IRBuilderDefaultInserterILb1EEEE11CreateStoreEPNS_5ValueES6_b, 
                        __ZN4llvm9IRBuilderILb1ENS_14ConstantFolderENS_24IRBuilderDefaultInserterILb1EEEE12CreateCondBrEPNS_5ValueEPNS_10BasicBlockES8_PNS_6MDNodeE, 
                        __ZN4llvm9IRBuilderILb1ENS_14ConstantFolderENS_24IRBuilderDefaultInserterILb1EEEE17CreatePointerCastEPNS_5ValueEPNS_4TypeERKNS_5TwineE, 
                        __ZN4llvm9IRBuilderILb1ENS_14ConstantFolderENS_24IRBuilderDefaultInserterILb1EEEE17CreateVectorSplatEjPNS_5ValueERKNS_5TwineE, 
                        __ZN4llvm9IRBuilderILb1ENS_14ConstantFolderENS_24IRBuilderDefaultInserterILb1EEEE19CreateInsertElementEPNS_5ValueES6_S6_RKNS_5TwineE, 
                        __ZN4llvm9IRBuilderILb1ENS_14ConstantFolderENS_24IRBuilderDefaultInserterILb1EEEE19CreateShuffleVectorEPNS_5ValueES6_S6_RKNS_5TwineE, 
                        __ZN4llvm9IRBuilderILb1ENS_14ConstantFolderENS_24IRBuilderDefaultInserterILb1EEEE23CreateInsertNUWNSWBinOpENS_11Instruction9BinaryOpsEPNS_5ValueES8_RKNS_5TwineEbb, 
                        __ZN4llvm9IRBuilderILb1ENS_14ConstantFolderENS_24IRBuilderDefaultInserterILb1EEEE9CreateAddEPNS_5ValueES6_RKNS_5TwineEbb, 
                        __ZN4llvm9IRBuilderILb1ENS_14ConstantFolderENS_24IRBuilderDefaultInserterILb1EEEE9CreateGEPEPNS_4TypeEPNS_5ValueES8_RKNS_5TwineE, 
                        __ZN4llvm9IRBuilderILb1ENS_14ConstantFolderENS_24IRBuilderDefaultInserterILb1EEEE9CreatePHIEPNS_4TypeEjRKNS_5TwineE, 
                        __ZN4llvm9SourceMgr18AddNewSourceBufferENSt3__110unique_ptrINS_12MemoryBufferENS1_14default_deleteIS3_EEEENS_5SMLocE, 
                        __ZN4llvm9StringMapIPKN5clang7metalfe22AIUberFunctionConstantENS_15MallocAllocatorEE6insertENSt3__14pairINS_9StringRefES5_EE, 
                        __ZN4llvm9StringMapIPKN5clang7metalfe22AIUberFunctionConstantENS_15MallocAllocatorEED2Ev, 
                        __ZN4llvm9StringMapIcNS_15MallocAllocatorEED2Ev, 
                        __ZN5clang7metalfe10AIArgument12replaceIndexEj, 
                        __ZN5clang7metalfe17AILanguageVersion15replaceLanguageENS0_10AILanguageE, 
                        __ZN5clang7metalfe17CallGraphNodeInfo9mergeWithERKS1_, 
                        __ZN5clang7metalfe17CallGraphNodeInfoC2Ev, __ZN5clang7metalfe20AIRTargetInfoWrapperD0Ev, 
                        __ZN5clang7metalfe20AIRTargetInfoWrapperD1Ev, __ZN5clang7metalfe20CallGraphInfoWrapper16doInitializationERN4llvm9CallGraphE, 
                        __ZN5clang7metalfe20CallGraphInfoWrapperD0Ev, __ZN5clang7metalfe20CallGraphInfoWrapperD1Ev, 
                        __ZN5clang7metalfe22AIUberFunctionConstant3getERN4llvm11LLVMContextEPNS2_14GlobalVariableENS2_9StringRefES7_NS2_8OptionalIjEENS8_IbEE, 
                        __ZN5clang7metalfe27UberFunctionConstantsLoaderD0Ev, 
                        __ZN5clang7metalfe27UberFunctionConstantsLoaderD1Ev, 
                        __ZN5clang7metalfe32AIRDiagnosticInfoTooManySamplersD0Ev, 
                        __ZN5clang7metalfe32AIRDiagnosticInfoTooManySamplersD1Ev, 
                        __ZN5clang7metalfe34AIRDiagnosticInfoCorruptedMetadataD0Ev, 
                        __ZN5clang7metalfe34AIRDiagnosticInfoCorruptedMetadataD1Ev, 
                        __ZN5clang7metalfe34AIRDiagnosticInfoRecursiveFunctionD0Ev, 
                        __ZN5clang7metalfe34AIRDiagnosticInfoRecursiveFunctionD1Ev, 
                        __ZN5clang7metalfe35AIRDiagnosticInfoFunctionNotAllowedD0Ev, 
                        __ZN5clang7metalfe35AIRDiagnosticInfoFunctionNotAllowedD1Ev, 
                        __ZN5clang7metalfe38AIRDiagnosticInfoCannotHaveGlobalCtorsD0Ev, 
                        __ZN5clang7metalfe38AIRDiagnosticInfoCannotHaveGlobalCtorsD1Ev, 
                        __ZN5clang7metalfe38AIRDiagnosticInfoCannotHaveGlobalDtorsD0Ev, 
                        __ZN5clang7metalfe38AIRDiagnosticInfoCannotHaveGlobalDtorsD1Ev, 
                        __ZN5clang7metalfe38AIRDiagnosticInfoInvalidBufferLocationD0Ev, 
                        __ZN5clang7metalfe38AIRDiagnosticInfoInvalidBufferLocationD1Ev, 
                        __ZN5clang7metalfe39AIRDiagnosticInfoCorruptedNamedMetadataD0Ev, 
                        __ZN5clang7metalfe39AIRDiagnosticInfoCorruptedNamedMetadataD1Ev, 
                        __ZN5clang7metalfe39AIRDiagnosticInfoIllegalFunctionContextD0Ev, 
                        __ZN5clang7metalfe39AIRDiagnosticInfoIllegalFunctionContextD1Ev, 
                        __ZN5clang7metalfe39AIRDiagnosticInfoInvalidSamplerLocationD0Ev, 
                        __ZN5clang7metalfe39AIRDiagnosticInfoInvalidSamplerLocationD1Ev, 
                        __ZN5clang7metalfe39AIRDiagnosticInfoInvalidTextureLocationD0Ev, 
                        __ZN5clang7metalfe39AIRDiagnosticInfoInvalidTextureLocationD1Ev, 
                        __ZN5clang7metalfe39AIRDiagnosticInfoTooManyConstantBuffersD0Ev, 
                        __ZN5clang7metalfe39AIRDiagnosticInfoTooManyConstantBuffersD1Ev, 
                        __ZN5clang7metalfe42AIRDiagnosticInfoDuplicateFunctionConstantD0Ev, 
                        __ZN5clang7metalfe42AIRDiagnosticInfoDuplicateFunctionConstantD1Ev, 
                        __ZN5clang7metalfe42AIRDiagnosticInfoRequiredMetadataIsMissingD0Ev, 
                        __ZN5clang7metalfe42AIRDiagnosticInfoRequiredMetadataIsMissingD1Ev, 
                        __ZN5clang7metalfe43AIRDiagnosticInfoInvalidVertexInputLocationD0Ev, 
                        __ZN5clang7metalfe43AIRDiagnosticInfoInvalidVertexInputLocationD1Ev, 
                        __ZN5clang7metalfe43AIRDiagnosticInfoTooManyPatchDataAttributesD0Ev, 
                        __ZN5clang7metalfe43AIRDiagnosticInfoTooManyPatchDataAttributesD1Ev, 
                        __ZN5clang7metalfe51AIRDiagnosticInfoVertexFunctionWritesToGlobalMemoryD0Ev, 
                        __ZN5clang7metalfe51AIRDiagnosticInfoVertexFunctionWritesToGlobalMemoryD1Ev, 
                        __ZN5clang7metalfe53AIRDiagnosticInfoDuplicatedFragmentInputAttributeNameD0Ev, 
                        __ZN5clang7metalfe53AIRDiagnosticInfoDuplicatedFragmentInputAttributeNameD1Ev, 
                        __ZN5clang7metalfe54AIRDiagnosticInfoDuplicatedRenderTargetAttachmentIndexD0Ev, 
                        __ZN5clang7metalfe54AIRDiagnosticInfoDuplicatedRenderTargetAttachmentIndexD1Ev, 
                        __ZN5clang7metalfe6AINode7getImplINS0_13AIVertexInputEEEPT_RN4llvm11LLVMContextENS6_8ArrayRefIPNS6_8MetadataEEENSA_11StorageTypeEb, 
                        __ZN5clang7metalfe6AINode7getImplINS0_19AIControlPointInputEEEPT_RN4llvm11LLVMContextENS6_8ArrayRefIPNS6_8MetadataEEENSA_11StorageTypeEb, 
                        __ZN5clang7metalfe6AINode7getImplINS0_22AIUberFunctionConstantEEEPT_RN4llvm11LLVMContextENS6_8ArrayRefIPNS6_8MetadataEEENSA_11StorageTypeEb, 
                        __ZN5clang7metalfe9AISampler7classofEPKN4llvm8MetadataE, 
                        __ZN5clang7metalfe9AITexture7classofEPKN4llvm8MetadataE, 
                        __ZN5clang7metalfe9AIVersion12replaceMajorEj, __ZN5clang7metalfe9AIVersion12replaceMinorEj, 
                        __ZN5clang7metalfe9AIVersion12replaceTupleENS_12VersionTupleE, 
                        __ZN5clang7metalfe9AIVersion13replaceBugfixEj, 
                        __ZN5clangeqERKNS_12VersionTupleES2_, __ZN5clangltERKNS_12VersionTupleES2_, 
                        __ZNK4llvm12DenseMapBaseINS_8DenseMapIPKNS_8FunctionEPNS_11ConstantIntENS_12DenseMapInfoIS4_EENS_6detail12DenseMapPairIS4_S6_EEEES4_S6_S8_SB_E15LookupBucketForIS4_EEbRKT_RPKSB_, 
                        __ZNK4llvm12DenseMapBaseINS_8DenseMapIPKNS_8FunctionEPNS_12DISubprogramENS_12DenseMapInfoIS4_EENS_6detail12DenseMapPairIS4_S6_EEEES4_S6_S8_SB_E15LookupBucketForIS4_EEbRKT_RPKSB_, 
                        __ZNK4llvm12DenseMapBaseINS_8DenseMapIjPKN5clang7metalfe22AIUberFunctionConstantENS_12DenseMapInfoIjEENS_6detail12DenseMapPairIjS6_EEEEjS6_S8_SB_E15LookupBucketForIjEEbRKT_RPKSB_, 
                        __ZNK4llvm13IRBuilderBase20SetInstDebugLocationEPNS_11InstructionE, 
                        __ZNK4llvm14SmallBitVector10find_firstEv, __ZNK4llvm14SmallBitVector3allEv, 
                        __ZNK4llvm14SmallBitVector4noneEv, __ZNK4llvm14SmallBitVector9anyCommonERKS0_, 
                        __ZNK4llvm14SmallBitVector9find_nextEj, __ZNK4llvm14SmallBitVectorcoEv, 
                        __ZNK4llvm14SmallBitVectorixEj, __ZNK4llvm16CallGraphSCCPass27getPotentialPassManagerTypeEv, 
                        __ZNK4llvm24IRBuilderDefaultInserterILb1EE12InsertHelperEPNS_11InstructionERKNS_5TwineEPNS_10BasicBlockENS_14ilist_iteratorIS2_EE, 
                        __ZNK4llvm2cl11ValuesClassIiE5applyINS0_3optIN5clang7metalfe17VerificationLevelELb0ENS0_6parserIS7_EEEEEEvRT_, 
                        __ZNK4llvm2cl15OptionValueCopyIN5clang12VersionTupleEE7compareERKNS0_18GenericOptionValueE, 
                        __ZNK4llvm2cl15OptionValueCopyIN5clang7metalfe17VerificationLevelEE7compareERKNS0_18GenericOptionValueE, 
                        __ZNK4llvm2cl15OptionValueCopyINSt3__112basic_stringIcNS2_11char_traitsIcEENS2_9allocatorIcEEEEE7compareERKNS0_18GenericOptionValueE, 
                        __ZNK4llvm2cl15OptionValueCopyINSt3__112basic_stringIcNS2_11char_traitsIcEENS2_9allocatorIcEEEEE7compareERKS8_, 
                        __ZNK4llvm2cl3optIN5clang12VersionTupleELb0ENS0_6parserIS3_EEE14getOptionWidthEv, 
                        __ZNK4llvm2cl3optIN5clang12VersionTupleELb0ENS0_6parserIS3_EEE15printOptionInfoEm, 
                        __ZNK4llvm2cl3optIN5clang12VersionTupleELb0ENS0_6parserIS3_EEE16printOptionValueEmb, 
                        __ZNK4llvm2cl3optIN5clang12VersionTupleELb0ENS0_6parserIS3_EEE27getValueExpectedFlagDefaultEv, 
                        __ZNK4llvm2cl3optIN5clang7metalfe17VerificationLevelELb0ENS0_6parserIS4_EEE14getOptionWidthEv, 
                        __ZNK4llvm2cl3optIN5clang7metalfe17VerificationLevelELb0ENS0_6parserIS4_EEE15printOptionInfoEm, 
                        __ZNK4llvm2cl3optIN5clang7metalfe17VerificationLevelELb0ENS0_6parserIS4_EEE16printOptionValueEmb, 
                        __ZNK4llvm2cl3optIN5clang7metalfe17VerificationLevelELb0ENS0_6parserIS4_EEE27getValueExpectedFlagDefaultEv, 
                        __ZNK4llvm2cl6parserIN5clang12VersionTupleEE12getValueNameEv, 
                        __ZNK4llvm2cl6parserIN5clang7metalfe17VerificationLevelEE13getNumOptionsEv, 
                        __ZNK4llvm2cl6parserIN5clang7metalfe17VerificationLevelEE14getDescriptionEj, 
                        __ZNK4llvm2cl6parserIN5clang7metalfe17VerificationLevelEE14getOptionValueEj, 
                        __ZNK4llvm2cl6parserIN5clang7metalfe17VerificationLevelEE9getOptionEj, 
                        __ZNK4llvm5APInt3ugtEy, __ZNK4llvm6Triple13isOSVersionLTEjjj, 
                        __ZNK4llvm8Function15onlyReadsMemoryEv, __ZNK4llvm9BitVector10find_firstEv, 
                        __ZNK4llvm9BitVector3allEv, __ZNK4llvm9BitVector9anyCommonERKS0_, 
                        __ZNK4llvm9BitVector9find_nextEj, __ZNK4llvm9StringRef12getAsIntegerIaEENSt3__19enable_ifIXsr3std14numeric_limitsIT_EE9is_signedEbE4typeEjRS4_, 
                        __ZNK4llvm9StringRef12getAsIntegerIhEENSt3__19enable_ifIXntsr3std14numeric_limitsIT_EE9is_signedEbE4typeEjRS4_, 
                        __ZNK4llvm9StringRef12getAsIntegerIiEENSt3__19enable_ifIXsr3std14numeric_limitsIT_EE9is_signedEbE4typeEjRS4_, 
                        __ZNK4llvm9StringRef12getAsIntegerIjEENSt3__19enable_ifIXntsr3std14numeric_limitsIT_EE9is_signedEbE4typeEjRS4_, 
                        __ZNK4llvm9StringRef12getAsIntegerIsEENSt3__19enable_ifIXsr3std14numeric_limitsIT_EE9is_signedEbE4typeEjRS4_, 
                        __ZNK4llvm9StringRef12getAsIntegerItEENSt3__19enable_ifIXntsr3std14numeric_limitsIT_EE9is_signedEbE4typeEjRS4_, 
                        __ZNK4llvm9StringRef4trimES0_, __ZNK5clang7metalfe10AIArgument19getFunctionConstantEv, 
                        __ZNK5clang7metalfe10AIArgument19hasFunctionConstantEv, 
                        __ZNK5clang7metalfe13AIVertexInput16getLocationCountEv, 
                        __ZNK5clang7metalfe13AIVertexInput16getLocationIndexEv, 
                        __ZNK5clang7metalfe14AIRenderTarget18getAttachmentIndexEv, 
                        __ZNK5clang7metalfe15AIFragmentInput16getAttributeNameEv, 
                        __ZNK5clang7metalfe15AIFragmentInput20hasSamplingQualifierEv, 
                        __ZNK5clang7metalfe15AIFragmentInput7getNameEv, 
                        __ZNK5clang7metalfe17CallGraphNodeInfo21getRecursiveFunctionsEv, 
                        __ZNK5clang7metalfe17CallGraphNodeInfo22getGlobalMemoryWritersEv, 
                        __ZNK5clang7metalfe17CallGraphNodeInfo23getConstantSamplerUsersEv, 
                        __ZNK5clang7metalfe17CallGraphNodeInfo23getUsedConstantSamplersEv, 
                        __ZNK5clang7metalfe17CallGraphNodeInfo32getIllegalKernelContextFunctionsEv, 
                        __ZNK5clang7metalfe17CallGraphNodeInfo32getIllegalVertexContextFunctionsEv, 
                        __ZNK5clang7metalfe17CallGraphNodeInfo34getIllegalFragmentContextFunctionsEv, 
                        __ZNK5clang7metalfe18AIRConstantSampler11getLodClampEv, 
                        __ZNK5clang7metalfe18AIRConstantSampler15getWithLodClampEN4llvm7APFloatES3_, 
                        __ZNK5clang7metalfe18AIRConstantSampler7rebuildEyy, 
                        __ZNK5clang7metalfe20AIRTargetInfoWrapper5printERN4llvm11raw_ostreamEPKNS2_6ModuleE, 
                        __ZNK5clang7metalfe20CallGraphInfoWrapper5printERN4llvm11raw_ostreamEPKNS2_6ModuleE, 
                        __ZNK5clang7metalfe6AINode16getStringOperandEj, 
                        __ZNK5clang7metalfe6AINode6hasTagEN4llvm9StringRefE, 
                        __ZNK5clang7metalfe8AIBuffer12hasKnownSizeEv, __ZNK5clang7metalfe8AIBuffer13hasStructTypeEv, 
                        __ZNK5clang7metalfe8AIBuffer16getLocationCountEv, 
                        __ZNK5clang7metalfe8AIBuffer16getLocationIndexEv, 
                        __ZNK5clang7metalfe8AIBuffer7getNameEv, __ZNK5clang7metalfe9AISampler16getLocationCountEv, 
                        __ZNK5clang7metalfe9AISampler16getLocationIndexEv, 
                        __ZNK5clang7metalfe9AITexture16getLocationCountEv, 
                        __ZNK5clang7metalfe9AITexture16getLocationIndexEv, 
                        __ZNK5clang7metalfe9AIVersion8getTupleEv, __ZNSt3__113__vector_baseIN5clang7metalfe4BindENS_9allocatorIS3_EEED2Ev, 
                        __ZNSt3__113__vector_baseIjNS_9allocatorIjEEED2Ev, 
                        __ZNSt3__114__split_bufferIN4llvm9SourceMgr9SrcBufferERNS_9allocatorIS3_EEED2Ev, 
                        __ZNSt3__118__tree_left_rotateIPNS_16__tree_node_baseIPvEEEEvT_, 
                        __ZNSt3__119__tree_right_rotateIPNS_16__tree_node_baseIPvEEEEvT_, 
                        __ZNSt3__127__tree_balance_after_insertIPNS_16__tree_node_baseIPvEEEEvT_S5_, 
                        __ZNSt3__16__treeINS_12__value_typeINS_12basic_stringIcNS_11char_traitsIcEENS_9allocatorIcEEEES7_EENS_19__map_value_compareIS7_S8_NS_4lessIS7_EELb1EEENS5_IS8_EEE7destroyEPNS_11__tree_nodeIS8_PvEE, 
                        __ZNSt3__16__treeINS_12__value_typeIPKN4llvm13CallGraphNodeEN5clang7metalfe17CallGraphNodeInfoEEENS_19__map_value_compareIS5_S9_NS_4lessIS5_EELb1EEENS_9allocatorIS9_EEE25__emplace_unique_key_argsIS5_JRKNS_21piecewise_construct_tENS_5tupleIJRKS5_EEENSL_IJEEEEEENS_4pairINS_15__tree_iteratorIS9_PNS_11__tree_nodeIS9_PvEElEEbEERKT_DpOT0_, 
                        __ZNSt3__16__treeINS_12__value_typeIPKN4llvm13CallGraphNodeEN5clang7metalfe17CallGraphNodeInfoEEENS_19__map_value_compareIS5_S9_NS_4lessIS5_EELb1EEENS_9allocatorIS9_EEE7destroyEPNS_11__tree_nodeIS9_PvEE, 
                        __ZNSt3__16__treeIPKN4llvm8ConstantENS_4lessIS4_EENS_9allocatorIS4_EEE16__insert_node_atEPNS_15__tree_end_nodeIPNS_16__tree_node_baseIPvEEEERSE_SE_, 
                        __ZNSt3__16__treeIPKN4llvm8ConstantENS_4lessIS4_EENS_9allocatorIS4_EEE25__emplace_unique_key_argsIS4_JS4_EEENS_4pairINS_15__tree_iteratorIS4_PNS_11__tree_nodeIS4_PvEElEEbEERKT_DpOT0_, 
                        __ZNSt3__16vectorIN4llvm9SourceMgr9SrcBufferENS_9allocatorIS3_EEE21__push_back_slow_pathIS3_EEvOT_, 
                        __ZNSt3__16vectorIN4llvm9SourceMgr9SrcBufferENS_9allocatorIS3_EEE26__swap_out_circular_bufferERNS_14__split_bufferIS3_RS5_EE, 
                        __ZNSt3__16vectorIN5clang7metalfe4BindENS_9allocatorIS3_EEE24__emplace_back_slow_pathIJS3_EEEvDpOT_, 
                        __ZNSt3__16vectorIPN4llvm8FunctionENS_9allocatorIS3_EEE21__push_back_slow_pathIS3_EEvOT_, 
                        __ZNSt3__16vectorIPN4llvm8FunctionENS_9allocatorIS3_EEE26__swap_out_circular_bufferERNS_14__split_bufferIS3_RS5_EE, 
                        __ZNSt3__16vectorIPN4llvm8FunctionENS_9allocatorIS3_EEE7reserveEm, 
                        __ZNSt3__16vectorIPN4llvm8MetadataENS_9allocatorIS3_EEE8allocateEm, 
                        __ZNSt3__16vectorIPN4llvm8MetadataENS_9allocatorIS3_EEEC2Em, 
                        __ZNSt3__16vectorIjNS_9allocatorIjEEE21__push_back_slow_pathIRKjEEvOT_, 
                        __ZNSt3__18functionIFvRKN4llvm14DiagnosticInfoEEEC2ERKS6_, 
                        __ZTVN4llvm17GetElementPtrInstE, __ZTVN4llvm2cl11OptionValueIN5clang7metalfe17VerificationLevelEEE, 
                        __ZTVN4llvm2cl15OptionValueCopyIN5clang7metalfe17VerificationLevelEEE, 
                        __ZTVN4llvm2cl15OptionValueCopyINSt3__112basic_stringIcNS2_11char_traitsIcEENS2_9allocatorIcEEEEEE, 
                        __ZTVN4llvm2cl3optIN5clang12VersionTupleELb0ENS0_6parserIS3_EEEE, 
                        __ZTVN4llvm2cl3optIN5clang7metalfe17VerificationLevelELb0ENS0_6parserIS4_EEEE, 
                        __ZTVN4llvm2cl6parserIN5clang7metalfe17VerificationLevelEEE, 
                        __ZTVN4llvm7PHINodeE, __ZTVN4llvm8ICmpInstE, __ZTVN5clang7metalfe20AIRTargetInfoWrapperE ]
...
